ARM GAS  C:\Users\exp32\AppData\Local\Temp\ccC3r0JH.s 			page 1


   1              		.syntax unified
   2              		.cpu cortex-m0plus
   3              		.fpu softvfp
   4              		.eabi_attribute 20, 1
   5              		.eabi_attribute 21, 1
   6              		.eabi_attribute 23, 3
   7              		.eabi_attribute 24, 1
   8              		.eabi_attribute 25, 1
   9              		.eabi_attribute 26, 1
  10              		.eabi_attribute 30, 1
  11              		.eabi_attribute 34, 0
  12              		.eabi_attribute 18, 4
  13              		.thumb
  14              		.syntax unified
  15              		.file	"CapSense_1_SensingCSD_LL.c"
  16              		.text
  17              	.Ltext0:
  18              		.cfi_sections	.debug_frame
  19              		.section	.text.CapSense_1_SsCSDSetModeSnsClockDivider,"ax",%progbits
  20              		.align	2
  21              		.code	16
  22              		.thumb_func
  23              		.type	CapSense_1_SsCSDSetModeSnsClockDivider, %function
  24              	CapSense_1_SsCSDSetModeSnsClockDivider:
  25              	.LFB1:
  26              		.file 1 "Generated_Source\\PSoC4\\CapSense_1_SensingCSD_LL.c"
   1:Generated_Source\PSoC4/CapSense_1_SensingCSD_LL.c **** /***************************************************************************//**
   2:Generated_Source\PSoC4/CapSense_1_SensingCSD_LL.c **** * \file CapSense_1_SensingCSD_LL.c
   3:Generated_Source\PSoC4/CapSense_1_SensingCSD_LL.c **** * \version 7.0
   4:Generated_Source\PSoC4/CapSense_1_SensingCSD_LL.c **** *
   5:Generated_Source\PSoC4/CapSense_1_SensingCSD_LL.c **** * \brief
   6:Generated_Source\PSoC4/CapSense_1_SensingCSD_LL.c **** *   This file defines the data structure global variables and provides
   7:Generated_Source\PSoC4/CapSense_1_SensingCSD_LL.c **** *   implementation for the low-level APIs of the CSD part of
   8:Generated_Source\PSoC4/CapSense_1_SensingCSD_LL.c **** *   the Sensing module. The file contains the APIs used for the CSD block
   9:Generated_Source\PSoC4/CapSense_1_SensingCSD_LL.c **** *   initialization, calibration, and scanning.
  10:Generated_Source\PSoC4/CapSense_1_SensingCSD_LL.c **** *
  11:Generated_Source\PSoC4/CapSense_1_SensingCSD_LL.c **** * \see CapSense_1 v7.0 Datasheet
  12:Generated_Source\PSoC4/CapSense_1_SensingCSD_LL.c **** *
  13:Generated_Source\PSoC4/CapSense_1_SensingCSD_LL.c **** *//*****************************************************************************
  14:Generated_Source\PSoC4/CapSense_1_SensingCSD_LL.c **** * Copyright (2016-2019), Cypress Semiconductor Corporation.
  15:Generated_Source\PSoC4/CapSense_1_SensingCSD_LL.c **** ********************************************************************************
  16:Generated_Source\PSoC4/CapSense_1_SensingCSD_LL.c **** * This software is owned by Cypress Semiconductor Corporation (Cypress) and is
  17:Generated_Source\PSoC4/CapSense_1_SensingCSD_LL.c **** * protected by and subject to worldwide patent protection (United States and
  18:Generated_Source\PSoC4/CapSense_1_SensingCSD_LL.c **** * foreign), United States copyright laws and international treaty provisions.
  19:Generated_Source\PSoC4/CapSense_1_SensingCSD_LL.c **** * Cypress hereby grants to licensee a personal, non-exclusive, non-transferable
  20:Generated_Source\PSoC4/CapSense_1_SensingCSD_LL.c **** * license to copy, use, modify, create derivative works of, and compile the
  21:Generated_Source\PSoC4/CapSense_1_SensingCSD_LL.c **** * Cypress Source Code and derivative works for the sole purpose of creating
  22:Generated_Source\PSoC4/CapSense_1_SensingCSD_LL.c **** * custom software in support of licensee product to be used only in conjunction
  23:Generated_Source\PSoC4/CapSense_1_SensingCSD_LL.c **** * with a Cypress integrated circuit as specified in the applicable agreement.
  24:Generated_Source\PSoC4/CapSense_1_SensingCSD_LL.c **** * Any reproduction, modification, translation, compilation, or representation of
  25:Generated_Source\PSoC4/CapSense_1_SensingCSD_LL.c **** * this software except as specified above is prohibited without the express
  26:Generated_Source\PSoC4/CapSense_1_SensingCSD_LL.c **** * written permission of Cypress.
  27:Generated_Source\PSoC4/CapSense_1_SensingCSD_LL.c **** *
  28:Generated_Source\PSoC4/CapSense_1_SensingCSD_LL.c **** * Disclaimer: CYPRESS MAKES NO WARRANTY OF ANY KIND, EXPRESS OR IMPLIED, WITH
  29:Generated_Source\PSoC4/CapSense_1_SensingCSD_LL.c **** * REGARD TO THIS MATERIAL, INCLUDING, BUT NOT LIMITED TO, THE IMPLIED
  30:Generated_Source\PSoC4/CapSense_1_SensingCSD_LL.c **** * WARRANTIES OF MERCHANTABILITY AND FITNESS FOR A PARTICULAR PURPOSE.
  31:Generated_Source\PSoC4/CapSense_1_SensingCSD_LL.c **** * Cypress reserves the right to make changes without further notice to the
ARM GAS  C:\Users\exp32\AppData\Local\Temp\ccC3r0JH.s 			page 2


  32:Generated_Source\PSoC4/CapSense_1_SensingCSD_LL.c **** * materials described herein. Cypress does not assume any liability arising out
  33:Generated_Source\PSoC4/CapSense_1_SensingCSD_LL.c **** * of the application or use of any product or circuit described herein. Cypress
  34:Generated_Source\PSoC4/CapSense_1_SensingCSD_LL.c **** * does not authorize its products for use as critical components in life-support
  35:Generated_Source\PSoC4/CapSense_1_SensingCSD_LL.c **** * systems where a malfunction or failure may reasonably be expected to result in
  36:Generated_Source\PSoC4/CapSense_1_SensingCSD_LL.c **** * significant injury to the user. The inclusion of Cypress' product in a life-
  37:Generated_Source\PSoC4/CapSense_1_SensingCSD_LL.c **** * support systems application implies that the manufacturer assumes all risk of
  38:Generated_Source\PSoC4/CapSense_1_SensingCSD_LL.c **** * such use and in doing so indemnifies Cypress against all charges. Use may be
  39:Generated_Source\PSoC4/CapSense_1_SensingCSD_LL.c **** * limited by and subject to the applicable Cypress software license agreement.
  40:Generated_Source\PSoC4/CapSense_1_SensingCSD_LL.c **** *******************************************************************************/
  41:Generated_Source\PSoC4/CapSense_1_SensingCSD_LL.c **** #include "CapSense_1_Structure.h"
  42:Generated_Source\PSoC4/CapSense_1_SensingCSD_LL.c **** #include "CapSense_1_Configuration.h"
  43:Generated_Source\PSoC4/CapSense_1_SensingCSD_LL.c **** #include "CapSense_1_SensingCSD_LL.h"
  44:Generated_Source\PSoC4/CapSense_1_SensingCSD_LL.c **** #if (CapSense_1_ENABLE == CapSense_1_SELF_TEST_EN)
  45:Generated_Source\PSoC4/CapSense_1_SensingCSD_LL.c ****     #include "CapSense_1_SelfTest.h"
  46:Generated_Source\PSoC4/CapSense_1_SensingCSD_LL.c **** #endif
  47:Generated_Source\PSoC4/CapSense_1_SensingCSD_LL.c **** 
  48:Generated_Source\PSoC4/CapSense_1_SensingCSD_LL.c **** #include "cyapicallbacks.h"
  49:Generated_Source\PSoC4/CapSense_1_SensingCSD_LL.c **** 
  50:Generated_Source\PSoC4/CapSense_1_SensingCSD_LL.c **** #if (CapSense_1_ENABLE == CapSense_1_CSD_EN)
  51:Generated_Source\PSoC4/CapSense_1_SensingCSD_LL.c **** 
  52:Generated_Source\PSoC4/CapSense_1_SensingCSD_LL.c **** /***************************************
  53:Generated_Source\PSoC4/CapSense_1_SensingCSD_LL.c **** * API Constants
  54:Generated_Source\PSoC4/CapSense_1_SensingCSD_LL.c **** ***************************************/
  55:Generated_Source\PSoC4/CapSense_1_SensingCSD_LL.c **** 
  56:Generated_Source\PSoC4/CapSense_1_SensingCSD_LL.c **** #if (CapSense_1_ENABLE == CapSense_1_CSDV2)
  57:Generated_Source\PSoC4/CapSense_1_SensingCSD_LL.c **** 
  58:Generated_Source\PSoC4/CapSense_1_SensingCSD_LL.c ****     #if (CapSense_1_ENABLE == CapSense_1_CSD_AUTO_ZERO_EN)
  59:Generated_Source\PSoC4/CapSense_1_SensingCSD_LL.c ****         #define CapSense_1_CSD_AZ_ENABLE_CFG                  (CapSense_1_CSD_AZ_EN_MASK)
  60:Generated_Source\PSoC4/CapSense_1_SensingCSD_LL.c ****     #else
  61:Generated_Source\PSoC4/CapSense_1_SensingCSD_LL.c ****         #define CapSense_1_CSD_AZ_ENABLE_CFG                  (0uL)
  62:Generated_Source\PSoC4/CapSense_1_SensingCSD_LL.c ****     #endif /* (CapSense_1_ENABLE == CapSense_1_CSD_AUTO_ZERO_EN) */
  63:Generated_Source\PSoC4/CapSense_1_SensingCSD_LL.c **** 
  64:Generated_Source\PSoC4/CapSense_1_SensingCSD_LL.c ****     #if (CapSense_1_IDAC_SINKING == CapSense_1_CSD_IDAC_CONFIG)
  65:Generated_Source\PSoC4/CapSense_1_SensingCSD_LL.c ****         #define CapSense_1_HSCMP_SCAN_MASK                    (CapSense_1_HSCMP_EN_MASK | CapSense_
  66:Generated_Source\PSoC4/CapSense_1_SensingCSD_LL.c ****                                                                      CapSense_1_HSCMP_INVERT_MASK)
  67:Generated_Source\PSoC4/CapSense_1_SensingCSD_LL.c ****     #else
  68:Generated_Source\PSoC4/CapSense_1_SensingCSD_LL.c ****         #define CapSense_1_HSCMP_SCAN_MASK                    (CapSense_1_HSCMP_EN_MASK | CapSense_
  69:Generated_Source\PSoC4/CapSense_1_SensingCSD_LL.c ****     #endif /* (CapSense_1_IDAC_SINKING == CapSense_1_CSD_IDAC_CONFIG) */
  70:Generated_Source\PSoC4/CapSense_1_SensingCSD_LL.c **** 
  71:Generated_Source\PSoC4/CapSense_1_SensingCSD_LL.c ****     #define CapSense_1_HSCMP_INIT_MASK                        (CapSense_1_HSCMP_EN_MASK | CapSense_
  72:Generated_Source\PSoC4/CapSense_1_SensingCSD_LL.c **** 
  73:Generated_Source\PSoC4/CapSense_1_SensingCSD_LL.c ****     #define CapSense_1_DEFAULT_SW_SHIELD_SEL                  (0x00000000uL)
  74:Generated_Source\PSoC4/CapSense_1_SensingCSD_LL.c ****     #define CapSense_1_DEFAULT_CSD_SW_DSI_SEL                 (CapSense_1_SW_DSI_SEL_CMODPAD | CapS
  75:Generated_Source\PSoC4/CapSense_1_SensingCSD_LL.c ****     #define CapSense_1_DEFAULT_CSD_INTR_SET                   (0x00000000uL)
  76:Generated_Source\PSoC4/CapSense_1_SensingCSD_LL.c ****     #define CapSense_1_DEFAULT_SW_HS_P_SEL                    (0x00000000uL)
  77:Generated_Source\PSoC4/CapSense_1_SensingCSD_LL.c ****     #define CapSense_1_DEFAULT_SW_HS_N_SEL                    (0x00000000uL)
  78:Generated_Source\PSoC4/CapSense_1_SensingCSD_LL.c ****     #define CapSense_1_DEFAULT_CSD_SW_FW_TANK_SEL             (0x00000000uL)
  79:Generated_Source\PSoC4/CapSense_1_SensingCSD_LL.c ****     #define CapSense_1_DEFAULT_CSD_ADC_CTL                    (0x00000000uL)
  80:Generated_Source\PSoC4/CapSense_1_SensingCSD_LL.c ****     #define CapSense_1_DEFAULT_HSCMP_CFG                      (0x00000000uL)
  81:Generated_Source\PSoC4/CapSense_1_SensingCSD_LL.c **** 
  82:Generated_Source\PSoC4/CapSense_1_SensingCSD_LL.c ****     /* CY_ID285392 */
  83:Generated_Source\PSoC4/CapSense_1_SensingCSD_LL.c ****     #define CapSense_1_FILTER_DELAY_MAX                   (CapSense_1_CONFIG_FILTER_DELAY_4_CYCLES)
  84:Generated_Source\PSoC4/CapSense_1_SensingCSD_LL.c ****     #define CapSense_1_EXTRA_COUNTS_MAX                   (CapSense_1_FILTER_DELAY_MAX + 5u + 20u)
  85:Generated_Source\PSoC4/CapSense_1_SensingCSD_LL.c **** 
  86:Generated_Source\PSoC4/CapSense_1_SensingCSD_LL.c **** #else
  87:Generated_Source\PSoC4/CapSense_1_SensingCSD_LL.c **** 
  88:Generated_Source\PSoC4/CapSense_1_SensingCSD_LL.c ****     /* Set IDAC ranges */
ARM GAS  C:\Users\exp32\AppData\Local\Temp\ccC3r0JH.s 			page 3


  89:Generated_Source\PSoC4/CapSense_1_SensingCSD_LL.c ****     #if (CapSense_1_IDAC_GAIN_8X == CapSense_1_CSD_IDAC_GAIN)
  90:Generated_Source\PSoC4/CapSense_1_SensingCSD_LL.c ****         #define CapSense_1_DEFAULT_IDAC_MOD_RANGE         (CapSense_1_IDAC_MOD_RANGE_MASK)
  91:Generated_Source\PSoC4/CapSense_1_SensingCSD_LL.c ****         #define CapSense_1_DEFAULT_IDAC_COMP_RANGE        (CapSense_1_IDAC_COMP_RANGE_MASK)
  92:Generated_Source\PSoC4/CapSense_1_SensingCSD_LL.c ****     #else
  93:Generated_Source\PSoC4/CapSense_1_SensingCSD_LL.c ****         #define CapSense_1_DEFAULT_IDAC_MOD_RANGE         (0u)
  94:Generated_Source\PSoC4/CapSense_1_SensingCSD_LL.c ****         #define CapSense_1_DEFAULT_IDAC_COMP_RANGE        (0u)
  95:Generated_Source\PSoC4/CapSense_1_SensingCSD_LL.c ****     #endif /* (CapSense_1_IDAC_GAIN_8X == CapSense_1_CSD_IDAC_GAIN) */
  96:Generated_Source\PSoC4/CapSense_1_SensingCSD_LL.c **** 
  97:Generated_Source\PSoC4/CapSense_1_SensingCSD_LL.c ****     /* Defining default IDACs configuration according to settings in customizer. */
  98:Generated_Source\PSoC4/CapSense_1_SensingCSD_LL.c ****     #if (CapSense_1_ENABLE == CapSense_1_CSD_IDAC_COMP_EN)
  99:Generated_Source\PSoC4/CapSense_1_SensingCSD_LL.c ****         #define CapSense_1_DEFAULT_CSD_IDAC_CONFIG        (CapSense_1_IDAC_MOD_MODE_VARIABLE |\
 100:Generated_Source\PSoC4/CapSense_1_SensingCSD_LL.c ****                                                                  CapSense_1_IDAC_COMP_MODE_FIXED |\
 101:Generated_Source\PSoC4/CapSense_1_SensingCSD_LL.c ****                                                                  CapSense_1_DEFAULT_IDAC_MOD_RANGE 
 102:Generated_Source\PSoC4/CapSense_1_SensingCSD_LL.c ****                                                                  CapSense_1_DEFAULT_IDAC_COMP_RANGE
 103:Generated_Source\PSoC4/CapSense_1_SensingCSD_LL.c ****     #else
 104:Generated_Source\PSoC4/CapSense_1_SensingCSD_LL.c ****         #define CapSense_1_DEFAULT_CSD_IDAC_CONFIG        (CapSense_1_IDAC_MOD_MODE_VARIABLE |\
 105:Generated_Source\PSoC4/CapSense_1_SensingCSD_LL.c ****                                                                  CapSense_1_DEFAULT_IDAC_MOD_RANGE)
 106:Generated_Source\PSoC4/CapSense_1_SensingCSD_LL.c ****     #endif /* (CapSense_1_ENABLE == CapSense_1_CSD_IDAC_COMP_EN) */
 107:Generated_Source\PSoC4/CapSense_1_SensingCSD_LL.c **** 
 108:Generated_Source\PSoC4/CapSense_1_SensingCSD_LL.c **** #endif /* (CapSense_1_ENABLE == CapSense_1_CSDV2) */
 109:Generated_Source\PSoC4/CapSense_1_SensingCSD_LL.c **** 
 110:Generated_Source\PSoC4/CapSense_1_SensingCSD_LL.c **** 
 111:Generated_Source\PSoC4/CapSense_1_SensingCSD_LL.c **** /***************************************
 112:Generated_Source\PSoC4/CapSense_1_SensingCSD_LL.c **** * Variables
 113:Generated_Source\PSoC4/CapSense_1_SensingCSD_LL.c **** ***************************************/
 114:Generated_Source\PSoC4/CapSense_1_SensingCSD_LL.c **** 
 115:Generated_Source\PSoC4/CapSense_1_SensingCSD_LL.c **** #if (CapSense_1_ENABLE == CapSense_1_CSDV2)
 116:Generated_Source\PSoC4/CapSense_1_SensingCSD_LL.c ****     uint32 CapSense_1_configCsd = CapSense_1_DEFAULT_CSD_CONFIG;
 117:Generated_Source\PSoC4/CapSense_1_SensingCSD_LL.c **** #else
 118:Generated_Source\PSoC4/CapSense_1_SensingCSD_LL.c ****     uint32 CapSense_1_configCsd = CapSense_1_DEFAULT_CSD_CONFIG | CapSense_1_DEFAULT_MODULATION_MOD
 119:Generated_Source\PSoC4/CapSense_1_SensingCSD_LL.c ****     static uint32 CapSense_1_counterResolution = CapSense_1_CNT_RESOLUTION_12_BITS;
 120:Generated_Source\PSoC4/CapSense_1_SensingCSD_LL.c **** #endif /* (CapSense_1_ENABLE == CapSense_1_CSDV2) */
 121:Generated_Source\PSoC4/CapSense_1_SensingCSD_LL.c **** 
 122:Generated_Source\PSoC4/CapSense_1_SensingCSD_LL.c **** /* Flag to indicate electrodes that were connected previously */
 123:Generated_Source\PSoC4/CapSense_1_SensingCSD_LL.c **** static uint8 CapSense_1_eleCsdDisconnectFlag = 0u;
 124:Generated_Source\PSoC4/CapSense_1_SensingCSD_LL.c **** #if ((CapSense_1_ENABLE == CapSense_1_CSDV2) && (CapSense_1_ENABLE == CapSense_1_CSD_NOISE_METRIC_E
 125:Generated_Source\PSoC4/CapSense_1_SensingCSD_LL.c ****     /* Number of re-samplings when the bad conversion occurs */
 126:Generated_Source\PSoC4/CapSense_1_SensingCSD_LL.c ****     uint8 CapSense_1_badConversionsNum = CapSense_1_BAD_CONVERSIONS_NUM;
 127:Generated_Source\PSoC4/CapSense_1_SensingCSD_LL.c **** #endif /* ((CapSense_1_ENABLE == CapSense_1_CSDV2) && (CapSense_1_ENABLE == CapSense_1_CSD_NOISE_ME
 128:Generated_Source\PSoC4/CapSense_1_SensingCSD_LL.c **** 
 129:Generated_Source\PSoC4/CapSense_1_SensingCSD_LL.c **** 
 130:Generated_Source\PSoC4/CapSense_1_SensingCSD_LL.c **** /*******************************************************************************
 131:Generated_Source\PSoC4/CapSense_1_SensingCSD_LL.c **** * Static Function Prototypes
 132:Generated_Source\PSoC4/CapSense_1_SensingCSD_LL.c **** *******************************************************************************/
 133:Generated_Source\PSoC4/CapSense_1_SensingCSD_LL.c **** 
 134:Generated_Source\PSoC4/CapSense_1_SensingCSD_LL.c **** /**
 135:Generated_Source\PSoC4/CapSense_1_SensingCSD_LL.c **** * \cond SECTION_C_INTERNAL
 136:Generated_Source\PSoC4/CapSense_1_SensingCSD_LL.c **** * \addtogroup group_c_internal
 137:Generated_Source\PSoC4/CapSense_1_SensingCSD_LL.c **** * \{
 138:Generated_Source\PSoC4/CapSense_1_SensingCSD_LL.c **** */
 139:Generated_Source\PSoC4/CapSense_1_SensingCSD_LL.c **** 
 140:Generated_Source\PSoC4/CapSense_1_SensingCSD_LL.c **** #if (CapSense_1_ENABLE == CapSense_1_CSD_SHIELD_EN)
 141:Generated_Source\PSoC4/CapSense_1_SensingCSD_LL.c ****     static void CapSense_1_SsSetShieldDelay(uint32 delay);
 142:Generated_Source\PSoC4/CapSense_1_SensingCSD_LL.c ****     #if (CapSense_1_ENABLE == CapSense_1_CSD_SHIELD_TANK_EN)
 143:Generated_Source\PSoC4/CapSense_1_SensingCSD_LL.c ****         static void CapSense_1_SsCSDEnableShieldTank(void);
 144:Generated_Source\PSoC4/CapSense_1_SensingCSD_LL.c ****     #endif /* (CapSense_1_ENABLE == CapSense_1_CSD_SHIELD_TANK_EN) */
 145:Generated_Source\PSoC4/CapSense_1_SensingCSD_LL.c **** #endif /* (CapSense_1_ENABLE == CapSense_1_CSD_SHIELD_EN) */
ARM GAS  C:\Users\exp32\AppData\Local\Temp\ccC3r0JH.s 			page 4


 146:Generated_Source\PSoC4/CapSense_1_SensingCSD_LL.c **** 
 147:Generated_Source\PSoC4/CapSense_1_SensingCSD_LL.c **** #if ((CapSense_1_CSD_SS_DIS != CapSense_1_CSD_AUTOTUNE) || \
 148:Generated_Source\PSoC4/CapSense_1_SensingCSD_LL.c ****      (CapSense_1_ENABLE == CapSense_1_CSD_IDAC_AUTOCAL_EN))
 149:Generated_Source\PSoC4/CapSense_1_SensingCSD_LL.c ****     static cystatus CapSense_1_SsCSDCalibrateCheck(uint32 widgetId, uint32 target);
 150:Generated_Source\PSoC4/CapSense_1_SensingCSD_LL.c ****     static void CapSense_1_SsCSDCalibrate(uint32 widgetId, uint32 target);
 151:Generated_Source\PSoC4/CapSense_1_SensingCSD_LL.c ****     #if (CapSense_1_ENABLE == CapSense_1_CSD_IDAC_COMP_EN)
 152:Generated_Source\PSoC4/CapSense_1_SensingCSD_LL.c ****         static void CapSense_1_SsCSDNormalizeIdac(CapSense_1_FLASH_WD_STRUCT const *ptrFlashWidget,
 153:Generated_Source\PSoC4/CapSense_1_SensingCSD_LL.c ****     #endif
 154:Generated_Source\PSoC4/CapSense_1_SensingCSD_LL.c ****     #if (CapSense_1_ENABLE == CapSense_1_CSD_IDAC_AUTO_GAIN_EN)
 155:Generated_Source\PSoC4/CapSense_1_SensingCSD_LL.c ****         static uint32 CapSense_1_SsCSDSwitchIdacGain(CapSense_1_FLASH_WD_STRUCT const *ptrFlashWidg
 156:Generated_Source\PSoC4/CapSense_1_SensingCSD_LL.c ****     #endif
 157:Generated_Source\PSoC4/CapSense_1_SensingCSD_LL.c **** #endif /* ((CapSense_1_CSD_SS_DIS != CapSense_1_CSD_AUTOTUNE) || \
 158:Generated_Source\PSoC4/CapSense_1_SensingCSD_LL.c ****            (CapSense_1_ENABLE == CapSense_1_CSD_IDAC_AUTOCAL_EN))  */
 159:Generated_Source\PSoC4/CapSense_1_SensingCSD_LL.c **** 
 160:Generated_Source\PSoC4/CapSense_1_SensingCSD_LL.c **** #if (CapSense_1_ENABLE == CapSense_1_CSDV2)
 161:Generated_Source\PSoC4/CapSense_1_SensingCSD_LL.c ****     static void CapSense_1_SsCSDSetFilterDelay(void);
 162:Generated_Source\PSoC4/CapSense_1_SensingCSD_LL.c **** #else
 163:Generated_Source\PSoC4/CapSense_1_SensingCSD_LL.c ****     CY_INLINE static void CapSense_1_SsCSDClockRestart(void);
 164:Generated_Source\PSoC4/CapSense_1_SensingCSD_LL.c **** #endif /* (CapSense_1_ENABLE == CapSense_1_CSDV2) */
 165:Generated_Source\PSoC4/CapSense_1_SensingCSD_LL.c **** CY_INLINE static void CapSense_1_SsCSDCmodPrecharge(void);
 166:Generated_Source\PSoC4/CapSense_1_SensingCSD_LL.c **** CY_INLINE static void CapSense_1_SsCSDTriggerScan(void);
 167:Generated_Source\PSoC4/CapSense_1_SensingCSD_LL.c **** static void CapSense_1_SsCSDConfigIDACs(void);
 168:Generated_Source\PSoC4/CapSense_1_SensingCSD_LL.c **** static void CapSense_1_SsCSDSetModeSnsClockDivider(uint32 snsClkSource, uint32 snsClkDivider);
 169:Generated_Source\PSoC4/CapSense_1_SensingCSD_LL.c **** 
 170:Generated_Source\PSoC4/CapSense_1_SensingCSD_LL.c **** /** \}
 171:Generated_Source\PSoC4/CapSense_1_SensingCSD_LL.c **** * \endcond */
 172:Generated_Source\PSoC4/CapSense_1_SensingCSD_LL.c **** 
 173:Generated_Source\PSoC4/CapSense_1_SensingCSD_LL.c **** 
 174:Generated_Source\PSoC4/CapSense_1_SensingCSD_LL.c **** #if (CapSense_1_ENABLE == CapSense_1_CSD_SHIELD_EN)
 175:Generated_Source\PSoC4/CapSense_1_SensingCSD_LL.c ****     /*******************************************************************************
 176:Generated_Source\PSoC4/CapSense_1_SensingCSD_LL.c ****     * Function Name: CapSense_1_SsSetShieldDelay
 177:Generated_Source\PSoC4/CapSense_1_SensingCSD_LL.c ****     ****************************************************************************//**
 178:Generated_Source\PSoC4/CapSense_1_SensingCSD_LL.c ****     *
 179:Generated_Source\PSoC4/CapSense_1_SensingCSD_LL.c ****     * \brief
 180:Generated_Source\PSoC4/CapSense_1_SensingCSD_LL.c ****     *   This is an internal function that sets a shield delay.
 181:Generated_Source\PSoC4/CapSense_1_SensingCSD_LL.c ****     *
 182:Generated_Source\PSoC4/CapSense_1_SensingCSD_LL.c ****     * \details
 183:Generated_Source\PSoC4/CapSense_1_SensingCSD_LL.c ****     *   The function updates the CSD configuration register bits that define the shield
 184:Generated_Source\PSoC4/CapSense_1_SensingCSD_LL.c ****     *   signal delay relatively to the sense signal.
 185:Generated_Source\PSoC4/CapSense_1_SensingCSD_LL.c ****     *
 186:Generated_Source\PSoC4/CapSense_1_SensingCSD_LL.c ****     * \param delay
 187:Generated_Source\PSoC4/CapSense_1_SensingCSD_LL.c ****     *   Specifies the shield delay value:
 188:Generated_Source\PSoC4/CapSense_1_SensingCSD_LL.c ****     *    PSoC 4100/4200 value interpretation:
 189:Generated_Source\PSoC4/CapSense_1_SensingCSD_LL.c ****     *         0 - no delay
 190:Generated_Source\PSoC4/CapSense_1_SensingCSD_LL.c ****     *         1 - 1 cycle of HFCLK
 191:Generated_Source\PSoC4/CapSense_1_SensingCSD_LL.c ****     *         2 - 2 cycles of HFCLK
 192:Generated_Source\PSoC4/CapSense_1_SensingCSD_LL.c ****     *    Third-generation HW block (except 4100/4200 devices):
 193:Generated_Source\PSoC4/CapSense_1_SensingCSD_LL.c ****     *         0 - no delay
 194:Generated_Source\PSoC4/CapSense_1_SensingCSD_LL.c ****     *         3 - 10ns delay
 195:Generated_Source\PSoC4/CapSense_1_SensingCSD_LL.c ****     *         2 - 50ns delay
 196:Generated_Source\PSoC4/CapSense_1_SensingCSD_LL.c ****     *    Fourth-generation HW block:
 197:Generated_Source\PSoC4/CapSense_1_SensingCSD_LL.c ****     *         0 - no delay
 198:Generated_Source\PSoC4/CapSense_1_SensingCSD_LL.c ****     *         1 - 5ns delay
 199:Generated_Source\PSoC4/CapSense_1_SensingCSD_LL.c ****     *         2 - 10ns delay
 200:Generated_Source\PSoC4/CapSense_1_SensingCSD_LL.c ****     *         3 - 20ns delay
 201:Generated_Source\PSoC4/CapSense_1_SensingCSD_LL.c ****     *
 202:Generated_Source\PSoC4/CapSense_1_SensingCSD_LL.c ****     *******************************************************************************/
ARM GAS  C:\Users\exp32\AppData\Local\Temp\ccC3r0JH.s 			page 5


 203:Generated_Source\PSoC4/CapSense_1_SensingCSD_LL.c ****     static void CapSense_1_SsSetShieldDelay(uint32 delay)
 204:Generated_Source\PSoC4/CapSense_1_SensingCSD_LL.c ****     {
 205:Generated_Source\PSoC4/CapSense_1_SensingCSD_LL.c ****         /* Update CSD config register shield delay bits with shield delay value */
 206:Generated_Source\PSoC4/CapSense_1_SensingCSD_LL.c ****         CapSense_1_configCsd &= (uint32)(~CapSense_1_CONFIG_SHIELD_DELAY_MASK);
 207:Generated_Source\PSoC4/CapSense_1_SensingCSD_LL.c ****         CapSense_1_configCsd |= (delay << CapSense_1_SHIELD_DELAY_SHIFT);
 208:Generated_Source\PSoC4/CapSense_1_SensingCSD_LL.c ****     }
 209:Generated_Source\PSoC4/CapSense_1_SensingCSD_LL.c **** 
 210:Generated_Source\PSoC4/CapSense_1_SensingCSD_LL.c ****     #if (CapSense_1_ENABLE == CapSense_1_CSD_SHIELD_TANK_EN)
 211:Generated_Source\PSoC4/CapSense_1_SensingCSD_LL.c ****         /*******************************************************************************
 212:Generated_Source\PSoC4/CapSense_1_SensingCSD_LL.c ****         * Function Name: CapSense_1_SsCSDEnableShieldTank
 213:Generated_Source\PSoC4/CapSense_1_SensingCSD_LL.c ****         ****************************************************************************//**
 214:Generated_Source\PSoC4/CapSense_1_SensingCSD_LL.c ****         *
 215:Generated_Source\PSoC4/CapSense_1_SensingCSD_LL.c ****         * \brief
 216:Generated_Source\PSoC4/CapSense_1_SensingCSD_LL.c ****         *   This function configures Csh pin
 217:Generated_Source\PSoC4/CapSense_1_SensingCSD_LL.c ****         *
 218:Generated_Source\PSoC4/CapSense_1_SensingCSD_LL.c ****         * \details
 219:Generated_Source\PSoC4/CapSense_1_SensingCSD_LL.c ****         *   The function updates the CSH_HSIOM register to connect Csh to AMUXBUS-B.
 220:Generated_Source\PSoC4/CapSense_1_SensingCSD_LL.c ****         *   For Third-generation HW block it additionally sets Strong drive mode for Csh
 221:Generated_Source\PSoC4/CapSense_1_SensingCSD_LL.c ****         *   and applies High level to Csh pin when precharge is set to IO buffer.
 222:Generated_Source\PSoC4/CapSense_1_SensingCSD_LL.c ****         *
 223:Generated_Source\PSoC4/CapSense_1_SensingCSD_LL.c ****         *******************************************************************************/
 224:Generated_Source\PSoC4/CapSense_1_SensingCSD_LL.c ****         static void CapSense_1_SsCSDEnableShieldTank(void)
 225:Generated_Source\PSoC4/CapSense_1_SensingCSD_LL.c ****         {
 226:Generated_Source\PSoC4/CapSense_1_SensingCSD_LL.c ****             /* Update the CSH_HSIOM register to connect Csh to AMUXBUS-B */
 227:Generated_Source\PSoC4/CapSense_1_SensingCSD_LL.c ****             CapSense_1_WriteBitsSafe(CapSense_1_CSH_HSIOM_PTR, CapSense_1_CSH_HSIOM_MASK,
 228:Generated_Source\PSoC4/CapSense_1_SensingCSD_LL.c ****                         (uint32)(CapSense_1_HSIOM_SEL_AMUXB << CapSense_1_CSH_HSIOM_SHIFT));
 229:Generated_Source\PSoC4/CapSense_1_SensingCSD_LL.c **** 
 230:Generated_Source\PSoC4/CapSense_1_SensingCSD_LL.c ****             #if ((CapSense_1_CSH_PRECHARGE_IO_BUF == CapSense_1_CSD_CSH_PRECHARGE_SRC) &&\
 231:Generated_Source\PSoC4/CapSense_1_SensingCSD_LL.c ****                  (CapSense_1_DISABLE == CapSense_1_CSDV2))
 232:Generated_Source\PSoC4/CapSense_1_SensingCSD_LL.c ****                 /* Set Strong drive mode for Csh */
 233:Generated_Source\PSoC4/CapSense_1_SensingCSD_LL.c ****                 CapSense_1_WriteBitsSafe(CapSense_1_CSH_PC_PTR,
 234:Generated_Source\PSoC4/CapSense_1_SensingCSD_LL.c ****                             (uint32)(CapSense_1_CSH_PC_MASK << CapSense_1_CSH_PC_SHIFT),
 235:Generated_Source\PSoC4/CapSense_1_SensingCSD_LL.c ****                             (uint32)(CapSense_1_CSH_PC_STRONG_MODE << CapSense_1_CSH_PC_SHIFT));
 236:Generated_Source\PSoC4/CapSense_1_SensingCSD_LL.c ****                 /* Appliy High level to Csh pin for Csh */
 237:Generated_Source\PSoC4/CapSense_1_SensingCSD_LL.c ****                 CapSense_1_WriteBitsSafe(CapSense_1_CSH_DR_PTR, (uint32)(CapSense_1_DR_MASK << CapS
 238:Generated_Source\PSoC4/CapSense_1_SensingCSD_LL.c ****             #else
 239:Generated_Source\PSoC4/CapSense_1_SensingCSD_LL.c ****                 /* Set output port register to 0 to connect to GND */
 240:Generated_Source\PSoC4/CapSense_1_SensingCSD_LL.c ****                 CapSense_1_WriteBitsSafe(CapSense_1_CSH_DR_PTR, (uint32)(CapSense_1_DR_MASK << CapS
 241:Generated_Source\PSoC4/CapSense_1_SensingCSD_LL.c ****             #endif
 242:Generated_Source\PSoC4/CapSense_1_SensingCSD_LL.c ****         }
 243:Generated_Source\PSoC4/CapSense_1_SensingCSD_LL.c ****     #endif /* (CapSense_1_ENABLE == CapSense_1_CSD_SHIELD_TANK_EN) */
 244:Generated_Source\PSoC4/CapSense_1_SensingCSD_LL.c **** 
 245:Generated_Source\PSoC4/CapSense_1_SensingCSD_LL.c ****     #if (0u != CapSense_1_CSD_TOTAL_SHIELD_COUNT)
 246:Generated_Source\PSoC4/CapSense_1_SensingCSD_LL.c ****         /*******************************************************************************
 247:Generated_Source\PSoC4/CapSense_1_SensingCSD_LL.c ****         * Function Name: CapSense_1_SsCSDEnableShieldElectrodes
 248:Generated_Source\PSoC4/CapSense_1_SensingCSD_LL.c ****         ****************************************************************************//**
 249:Generated_Source\PSoC4/CapSense_1_SensingCSD_LL.c ****         *
 250:Generated_Source\PSoC4/CapSense_1_SensingCSD_LL.c ****         * \brief
 251:Generated_Source\PSoC4/CapSense_1_SensingCSD_LL.c ****         *   This internal function initializes Shield Electrodes.
 252:Generated_Source\PSoC4/CapSense_1_SensingCSD_LL.c ****         *
 253:Generated_Source\PSoC4/CapSense_1_SensingCSD_LL.c ****         * \details
 254:Generated_Source\PSoC4/CapSense_1_SensingCSD_LL.c ****         *   The function sets the bit in the HSIOM register which enables the shield electrode
 255:Generated_Source\PSoC4/CapSense_1_SensingCSD_LL.c ****         *   functionality on the pin. The port and pin configurations are stored in
 256:Generated_Source\PSoC4/CapSense_1_SensingCSD_LL.c ****         *   the CapSense_1_shieldIoList structure.
 257:Generated_Source\PSoC4/CapSense_1_SensingCSD_LL.c ****         *
 258:Generated_Source\PSoC4/CapSense_1_SensingCSD_LL.c ****         *******************************************************************************/
 259:Generated_Source\PSoC4/CapSense_1_SensingCSD_LL.c ****         void CapSense_1_SsCSDEnableShieldElectrodes(void)
ARM GAS  C:\Users\exp32\AppData\Local\Temp\ccC3r0JH.s 			page 6


 260:Generated_Source\PSoC4/CapSense_1_SensingCSD_LL.c ****         {
 261:Generated_Source\PSoC4/CapSense_1_SensingCSD_LL.c ****             CapSense_1_SsCSDSetShieldElectrodesState(CapSense_1_SNS_CONNECTION_SHIELD);
 262:Generated_Source\PSoC4/CapSense_1_SensingCSD_LL.c ****         }
 263:Generated_Source\PSoC4/CapSense_1_SensingCSD_LL.c **** 
 264:Generated_Source\PSoC4/CapSense_1_SensingCSD_LL.c **** 
 265:Generated_Source\PSoC4/CapSense_1_SensingCSD_LL.c ****         /*******************************************************************************
 266:Generated_Source\PSoC4/CapSense_1_SensingCSD_LL.c ****         * Function Name: CapSense_1_SsCSDDisableShieldElectrodes
 267:Generated_Source\PSoC4/CapSense_1_SensingCSD_LL.c ****         ****************************************************************************//**
 268:Generated_Source\PSoC4/CapSense_1_SensingCSD_LL.c ****         *
 269:Generated_Source\PSoC4/CapSense_1_SensingCSD_LL.c ****         * \brief
 270:Generated_Source\PSoC4/CapSense_1_SensingCSD_LL.c ****         *   This internal function disables Shield Electrodes.
 271:Generated_Source\PSoC4/CapSense_1_SensingCSD_LL.c ****         *
 272:Generated_Source\PSoC4/CapSense_1_SensingCSD_LL.c ****         * \details
 273:Generated_Source\PSoC4/CapSense_1_SensingCSD_LL.c ****         *   The function resets the bit in the HSIOM register which disables the shield
 274:Generated_Source\PSoC4/CapSense_1_SensingCSD_LL.c ****         *   electrode functionality on the pin. The port and pin configurations are
 275:Generated_Source\PSoC4/CapSense_1_SensingCSD_LL.c ****         *   stored in  the CapSense_1_shieldIoList structure.
 276:Generated_Source\PSoC4/CapSense_1_SensingCSD_LL.c ****         *
 277:Generated_Source\PSoC4/CapSense_1_SensingCSD_LL.c ****         *******************************************************************************/
 278:Generated_Source\PSoC4/CapSense_1_SensingCSD_LL.c ****         void CapSense_1_SsCSDDisableShieldElectrodes(void)
 279:Generated_Source\PSoC4/CapSense_1_SensingCSD_LL.c ****         {
 280:Generated_Source\PSoC4/CapSense_1_SensingCSD_LL.c ****             CapSense_1_SsCSDSetShieldElectrodesState(CapSense_1_SNS_CONNECTION_GROUND);
 281:Generated_Source\PSoC4/CapSense_1_SensingCSD_LL.c ****         }
 282:Generated_Source\PSoC4/CapSense_1_SensingCSD_LL.c **** 
 283:Generated_Source\PSoC4/CapSense_1_SensingCSD_LL.c **** 
 284:Generated_Source\PSoC4/CapSense_1_SensingCSD_LL.c ****         /*******************************************************************************
 285:Generated_Source\PSoC4/CapSense_1_SensingCSD_LL.c ****         * Function Name: CapSense_1_SsCSDSetShieldElectrodesState
 286:Generated_Source\PSoC4/CapSense_1_SensingCSD_LL.c ****         ****************************************************************************//**
 287:Generated_Source\PSoC4/CapSense_1_SensingCSD_LL.c ****         *
 288:Generated_Source\PSoC4/CapSense_1_SensingCSD_LL.c ****         * \brief
 289:Generated_Source\PSoC4/CapSense_1_SensingCSD_LL.c ****         *   Sets specified shield electrode pin connection state for all dedicated
 290:Generated_Source\PSoC4/CapSense_1_SensingCSD_LL.c ****         *   shield electrodes.
 291:Generated_Source\PSoC4/CapSense_1_SensingCSD_LL.c ****         *
 292:Generated_Source\PSoC4/CapSense_1_SensingCSD_LL.c ****         * \details
 293:Generated_Source\PSoC4/CapSense_1_SensingCSD_LL.c ****         *   The function updates following registers for each shield
 294:Generated_Source\PSoC4/CapSense_1_SensingCSD_LL.c ****         *   electrode:
 295:Generated_Source\PSoC4/CapSense_1_SensingCSD_LL.c ****         *   - port configuration register
 296:Generated_Source\PSoC4/CapSense_1_SensingCSD_LL.c ****         *   - pin data register
 297:Generated_Source\PSoC4/CapSense_1_SensingCSD_LL.c ****         *   - pin HSIOM register
 298:Generated_Source\PSoC4/CapSense_1_SensingCSD_LL.c ****         *   The shield electrodes port and pin configuration registers addresses are
 299:Generated_Source\PSoC4/CapSense_1_SensingCSD_LL.c ****         *   stored in the CapSense_1_shieldIoList structure.
 300:Generated_Source\PSoC4/CapSense_1_SensingCSD_LL.c ****         *
 301:Generated_Source\PSoC4/CapSense_1_SensingCSD_LL.c ****         * \param state
 302:Generated_Source\PSoC4/CapSense_1_SensingCSD_LL.c ****         *   A new state of the shield electrodes. Available values:
 303:Generated_Source\PSoC4/CapSense_1_SensingCSD_LL.c ****         *   - CapSense_1_SNS_CONNECTION_GROUND - disconnects electrode from
 304:Generated_Source\PSoC4/CapSense_1_SensingCSD_LL.c ****         *       CSD hardware block and sets it to GPIO mode with Strong Drive
 305:Generated_Source\PSoC4/CapSense_1_SensingCSD_LL.c ****         *   - CapSense_1_SNS_CONNECTION_HIGHZ - disconnects electrode from
 306:Generated_Source\PSoC4/CapSense_1_SensingCSD_LL.c ****         *       CSD hardware block and sets it to GPIO mode with Analog Hi-Z
 307:Generated_Source\PSoC4/CapSense_1_SensingCSD_LL.c ****         *   - CapSense_1_SNS_CONNECTION_SHIELD - connects electrode to
 308:Generated_Source\PSoC4/CapSense_1_SensingCSD_LL.c ****         *       CSD hardware block
 309:Generated_Source\PSoC4/CapSense_1_SensingCSD_LL.c ****         *   - CapSense_1_SNS_CONNECTION_UNDEFINED - sets the same electrode
 310:Generated_Source\PSoC4/CapSense_1_SensingCSD_LL.c ****         *       connection as for CapSense_1_SNS_CONNECTION_GROUND
 311:Generated_Source\PSoC4/CapSense_1_SensingCSD_LL.c ****         *
 312:Generated_Source\PSoC4/CapSense_1_SensingCSD_LL.c ****         *******************************************************************************/
 313:Generated_Source\PSoC4/CapSense_1_SensingCSD_LL.c ****         void CapSense_1_SsCSDSetShieldElectrodesState(uint32 state)
 314:Generated_Source\PSoC4/CapSense_1_SensingCSD_LL.c ****         {
 315:Generated_Source\PSoC4/CapSense_1_SensingCSD_LL.c ****             uint8  interruptState;
 316:Generated_Source\PSoC4/CapSense_1_SensingCSD_LL.c **** 
ARM GAS  C:\Users\exp32\AppData\Local\Temp\ccC3r0JH.s 			page 7


 317:Generated_Source\PSoC4/CapSense_1_SensingCSD_LL.c ****             uint32 loopIndex;
 318:Generated_Source\PSoC4/CapSense_1_SensingCSD_LL.c **** 
 319:Generated_Source\PSoC4/CapSense_1_SensingCSD_LL.c ****             uint32 newPinPcVal;
 320:Generated_Source\PSoC4/CapSense_1_SensingCSD_LL.c ****             uint32 newPinHsiomVal;
 321:Generated_Source\PSoC4/CapSense_1_SensingCSD_LL.c **** 
 322:Generated_Source\PSoC4/CapSense_1_SensingCSD_LL.c ****             uint32 tmpPcDrRegValue;
 323:Generated_Source\PSoC4/CapSense_1_SensingCSD_LL.c ****             uint32 tmpHsiomRegValue;
 324:Generated_Source\PSoC4/CapSense_1_SensingCSD_LL.c **** 
 325:Generated_Source\PSoC4/CapSense_1_SensingCSD_LL.c ****             CapSense_1_SHIELD_IO_STRUCT const *shieldIoPtr;
 326:Generated_Source\PSoC4/CapSense_1_SensingCSD_LL.c **** 
 327:Generated_Source\PSoC4/CapSense_1_SensingCSD_LL.c ****             switch(state)
 328:Generated_Source\PSoC4/CapSense_1_SensingCSD_LL.c ****             {
 329:Generated_Source\PSoC4/CapSense_1_SensingCSD_LL.c ****                 case CapSense_1_SNS_CONNECTION_GROUND:
 330:Generated_Source\PSoC4/CapSense_1_SensingCSD_LL.c ****                     newPinPcVal = CY_SYS_PINS_DM_STRONG;
 331:Generated_Source\PSoC4/CapSense_1_SensingCSD_LL.c ****                     newPinHsiomVal = CapSense_1_HSIOM_SEL_GPIO;
 332:Generated_Source\PSoC4/CapSense_1_SensingCSD_LL.c ****                     break;
 333:Generated_Source\PSoC4/CapSense_1_SensingCSD_LL.c ****                 case CapSense_1_SNS_CONNECTION_HIGHZ:
 334:Generated_Source\PSoC4/CapSense_1_SensingCSD_LL.c ****                     newPinPcVal = CY_SYS_PINS_DM_ALG_HIZ;
 335:Generated_Source\PSoC4/CapSense_1_SensingCSD_LL.c ****                     newPinHsiomVal = CapSense_1_HSIOM_SEL_GPIO;
 336:Generated_Source\PSoC4/CapSense_1_SensingCSD_LL.c ****                     break;
 337:Generated_Source\PSoC4/CapSense_1_SensingCSD_LL.c ****                 case CapSense_1_SNS_CONNECTION_SHIELD:
 338:Generated_Source\PSoC4/CapSense_1_SensingCSD_LL.c ****                     newPinPcVal = CY_SYS_PINS_DM_ALG_HIZ;
 339:Generated_Source\PSoC4/CapSense_1_SensingCSD_LL.c ****                     newPinHsiomVal = CapSense_1_HSIOM_SEL_CSD_SHIELD;
 340:Generated_Source\PSoC4/CapSense_1_SensingCSD_LL.c ****                     break;
 341:Generated_Source\PSoC4/CapSense_1_SensingCSD_LL.c ****                 default:
 342:Generated_Source\PSoC4/CapSense_1_SensingCSD_LL.c ****                     newPinPcVal = CY_SYS_PINS_DM_STRONG;
 343:Generated_Source\PSoC4/CapSense_1_SensingCSD_LL.c ****                     newPinHsiomVal = CapSense_1_HSIOM_SEL_GPIO;
 344:Generated_Source\PSoC4/CapSense_1_SensingCSD_LL.c ****                     break;
 345:Generated_Source\PSoC4/CapSense_1_SensingCSD_LL.c ****             }
 346:Generated_Source\PSoC4/CapSense_1_SensingCSD_LL.c **** 
 347:Generated_Source\PSoC4/CapSense_1_SensingCSD_LL.c ****             shieldIoPtr = &CapSense_1_shieldIoList[0u];
 348:Generated_Source\PSoC4/CapSense_1_SensingCSD_LL.c ****             for (loopIndex = 0u; loopIndex < CapSense_1_CSD_TOTAL_SHIELD_COUNT; loopIndex++)
 349:Generated_Source\PSoC4/CapSense_1_SensingCSD_LL.c ****             {
 350:Generated_Source\PSoC4/CapSense_1_SensingCSD_LL.c ****                 interruptState = CyEnterCriticalSection();
 351:Generated_Source\PSoC4/CapSense_1_SensingCSD_LL.c **** 
 352:Generated_Source\PSoC4/CapSense_1_SensingCSD_LL.c ****                 tmpHsiomRegValue = CY_GET_REG32 (shieldIoPtr->hsiomPtr);
 353:Generated_Source\PSoC4/CapSense_1_SensingCSD_LL.c ****                 tmpHsiomRegValue &= ~(shieldIoPtr->hsiomMask);
 354:Generated_Source\PSoC4/CapSense_1_SensingCSD_LL.c ****                 CY_SET_REG32 (shieldIoPtr->hsiomPtr, tmpHsiomRegValue);
 355:Generated_Source\PSoC4/CapSense_1_SensingCSD_LL.c **** 
 356:Generated_Source\PSoC4/CapSense_1_SensingCSD_LL.c ****                 tmpPcDrRegValue = CY_GET_REG32 (shieldIoPtr->pcPtr);
 357:Generated_Source\PSoC4/CapSense_1_SensingCSD_LL.c ****                 tmpPcDrRegValue &= ~(CapSense_1_GPIO_PC_MASK << shieldIoPtr->shift);
 358:Generated_Source\PSoC4/CapSense_1_SensingCSD_LL.c ****                 tmpPcDrRegValue |=  (newPinPcVal << shieldIoPtr->shift);
 359:Generated_Source\PSoC4/CapSense_1_SensingCSD_LL.c ****                 CY_SET_REG32 (shieldIoPtr->pcPtr, tmpPcDrRegValue);
 360:Generated_Source\PSoC4/CapSense_1_SensingCSD_LL.c **** 
 361:Generated_Source\PSoC4/CapSense_1_SensingCSD_LL.c ****                 tmpHsiomRegValue |=  (newPinHsiomVal << shieldIoPtr->hsiomShift);
 362:Generated_Source\PSoC4/CapSense_1_SensingCSD_LL.c ****                 CY_SET_REG32 (shieldIoPtr->hsiomPtr, tmpHsiomRegValue);
 363:Generated_Source\PSoC4/CapSense_1_SensingCSD_LL.c **** 
 364:Generated_Source\PSoC4/CapSense_1_SensingCSD_LL.c ****                 tmpPcDrRegValue = CY_GET_REG32 (shieldIoPtr->drPtr);
 365:Generated_Source\PSoC4/CapSense_1_SensingCSD_LL.c ****                 tmpPcDrRegValue &= ~(1uL << shieldIoPtr->drShift);
 366:Generated_Source\PSoC4/CapSense_1_SensingCSD_LL.c ****                 CY_SET_REG32 (shieldIoPtr->drPtr, tmpPcDrRegValue);
 367:Generated_Source\PSoC4/CapSense_1_SensingCSD_LL.c **** 
 368:Generated_Source\PSoC4/CapSense_1_SensingCSD_LL.c ****                 CyExitCriticalSection(interruptState);
 369:Generated_Source\PSoC4/CapSense_1_SensingCSD_LL.c **** 
 370:Generated_Source\PSoC4/CapSense_1_SensingCSD_LL.c ****                 /* Get next electrode */
 371:Generated_Source\PSoC4/CapSense_1_SensingCSD_LL.c ****                 shieldIoPtr++;
 372:Generated_Source\PSoC4/CapSense_1_SensingCSD_LL.c ****             }
 373:Generated_Source\PSoC4/CapSense_1_SensingCSD_LL.c ****         }
ARM GAS  C:\Users\exp32\AppData\Local\Temp\ccC3r0JH.s 			page 8


 374:Generated_Source\PSoC4/CapSense_1_SensingCSD_LL.c ****     #endif /* (0u != CapSense_1_CSD_TOTAL_SHIELD_COUNT) */
 375:Generated_Source\PSoC4/CapSense_1_SensingCSD_LL.c **** #endif /* (CapSense_1_ENABLE == CapSense_1_CSD_SHIELD_EN) */
 376:Generated_Source\PSoC4/CapSense_1_SensingCSD_LL.c **** 
 377:Generated_Source\PSoC4/CapSense_1_SensingCSD_LL.c **** 
 378:Generated_Source\PSoC4/CapSense_1_SensingCSD_LL.c **** /*******************************************************************************
 379:Generated_Source\PSoC4/CapSense_1_SensingCSD_LL.c **** * Function Name: CapSense_1_SsCSDSetModeSnsClockDivider
 380:Generated_Source\PSoC4/CapSense_1_SensingCSD_LL.c **** ****************************************************************************//**
 381:Generated_Source\PSoC4/CapSense_1_SensingCSD_LL.c **** *
 382:Generated_Source\PSoC4/CapSense_1_SensingCSD_LL.c **** * \brief
 383:Generated_Source\PSoC4/CapSense_1_SensingCSD_LL.c **** *   Sets sense source and Sense Clock Divider
 384:Generated_Source\PSoC4/CapSense_1_SensingCSD_LL.c **** *
 385:Generated_Source\PSoC4/CapSense_1_SensingCSD_LL.c **** * \details
 386:Generated_Source\PSoC4/CapSense_1_SensingCSD_LL.c **** *   For Fourth-generation HW block: Updates CapSense_1_SENSE_PERIOD register with
 387:Generated_Source\PSoC4/CapSense_1_SensingCSD_LL.c **** *   sense source and Sense Clock Divider.
 388:Generated_Source\PSoC4/CapSense_1_SensingCSD_LL.c **** *   For Third-generation HW block: Updates CapSense_1_configCsd variable with
 389:Generated_Source\PSoC4/CapSense_1_SensingCSD_LL.c **** *   sense source and sets sense clock divider.
 390:Generated_Source\PSoC4/CapSense_1_SensingCSD_LL.c **** *
 391:Generated_Source\PSoC4/CapSense_1_SensingCSD_LL.c **** * \param
 392:Generated_Source\PSoC4/CapSense_1_SensingCSD_LL.c **** *   snsClkSource The sense source for the sense clock.
 393:Generated_Source\PSoC4/CapSense_1_SensingCSD_LL.c **** * \param
 394:Generated_Source\PSoC4/CapSense_1_SensingCSD_LL.c **** *   snsClkDivider The divider value for the sense clock.
 395:Generated_Source\PSoC4/CapSense_1_SensingCSD_LL.c **** *
 396:Generated_Source\PSoC4/CapSense_1_SensingCSD_LL.c **** *******************************************************************************/
 397:Generated_Source\PSoC4/CapSense_1_SensingCSD_LL.c **** static void CapSense_1_SsCSDSetModeSnsClockDivider(uint32 snsClkSource, uint32 snsClkDivider)
 398:Generated_Source\PSoC4/CapSense_1_SensingCSD_LL.c **** {
  27              		.loc 1 398 0
  28              		.cfi_startproc
  29              		@ args = 0, pretend = 0, frame = 0
  30              		@ frame_needed = 0, uses_anonymous_args = 0
  31              		@ link register save eliminated.
  32              	.LVL0:
 399:Generated_Source\PSoC4/CapSense_1_SensingCSD_LL.c ****     #if (CapSense_1_ENABLE == CapSense_1_CSDV2)
 400:Generated_Source\PSoC4/CapSense_1_SensingCSD_LL.c ****         /* Update reg value with divider and configuration */
 401:Generated_Source\PSoC4/CapSense_1_SensingCSD_LL.c ****         CY_SET_REG32(CapSense_1_SENSE_PERIOD_PTR, snsClkSource | (snsClkDivider - 1u));
  33              		.loc 1 401 0
  34 0000 0139     		subs	r1, r1, #1
  35              	.LVL1:
  36 0002 0843     		orrs	r0, r1
  37              	.LVL2:
  38 0004 014B     		ldr	r3, .L2
  39 0006 1860     		str	r0, [r3]
 402:Generated_Source\PSoC4/CapSense_1_SensingCSD_LL.c ****     #else
 403:Generated_Source\PSoC4/CapSense_1_SensingCSD_LL.c ****         /* Set configuration */
 404:Generated_Source\PSoC4/CapSense_1_SensingCSD_LL.c ****         CapSense_1_configCsd &= ~(CapSense_1_CONFIG_PRS_SELECT_MASK | CapSense_1_CSD_PRS_12_BIT);
 405:Generated_Source\PSoC4/CapSense_1_SensingCSD_LL.c ****         CapSense_1_configCsd |= snsClkSource;
 406:Generated_Source\PSoC4/CapSense_1_SensingCSD_LL.c **** 
 407:Generated_Source\PSoC4/CapSense_1_SensingCSD_LL.c ****         /* Set sense clock divider */
 408:Generated_Source\PSoC4/CapSense_1_SensingCSD_LL.c ****         CapSense_1_SsSetSnsClockDivider(snsClkDivider);
 409:Generated_Source\PSoC4/CapSense_1_SensingCSD_LL.c ****     #endif /* (CapSense_1_ENABLE == CapSense_1_CSDV2) */
 410:Generated_Source\PSoC4/CapSense_1_SensingCSD_LL.c **** }
  40              		.loc 1 410 0
  41              		@ sp needed
  42 0008 7047     		bx	lr
  43              	.L3:
  44 000a C046     		.align	2
  45              	.L2:
  46 000c 00022940 		.word	1076429312
ARM GAS  C:\Users\exp32\AppData\Local\Temp\ccC3r0JH.s 			page 9


  47              		.cfi_endproc
  48              	.LFE1:
  49              		.size	CapSense_1_SsCSDSetModeSnsClockDivider, .-CapSense_1_SsCSDSetModeSnsClockDivider
  50              		.global	__aeabi_uidiv
  51              		.section	.text.CapSense_1_SsCSDSetFilterDelay,"ax",%progbits
  52              		.align	2
  53              		.code	16
  54              		.thumb_func
  55              		.type	CapSense_1_SsCSDSetFilterDelay, %function
  56              	CapSense_1_SsCSDSetFilterDelay:
  57              	.LFB2:
 411:Generated_Source\PSoC4/CapSense_1_SensingCSD_LL.c **** 
 412:Generated_Source\PSoC4/CapSense_1_SensingCSD_LL.c **** 
 413:Generated_Source\PSoC4/CapSense_1_SensingCSD_LL.c **** #if (CapSense_1_ENABLE == CapSense_1_CSDV2)
 414:Generated_Source\PSoC4/CapSense_1_SensingCSD_LL.c ****     /*******************************************************************************
 415:Generated_Source\PSoC4/CapSense_1_SensingCSD_LL.c ****     * Function Name: CapSense_1_SsCSDSetFilterDelay
 416:Generated_Source\PSoC4/CapSense_1_SensingCSD_LL.c ****     ****************************************************************************//**
 417:Generated_Source\PSoC4/CapSense_1_SensingCSD_LL.c ****     *
 418:Generated_Source\PSoC4/CapSense_1_SensingCSD_LL.c ****     * \brief
 419:Generated_Source\PSoC4/CapSense_1_SensingCSD_LL.c ****     *   Sets the filter delay for Fourth-generation HW block.
 420:Generated_Source\PSoC4/CapSense_1_SensingCSD_LL.c ****     *
 421:Generated_Source\PSoC4/CapSense_1_SensingCSD_LL.c ****     * \details
 422:Generated_Source\PSoC4/CapSense_1_SensingCSD_LL.c ****     *   This function updates Fourth-generation HW block configuration
 423:Generated_Source\PSoC4/CapSense_1_SensingCSD_LL.c ****     *   variable CapSense_1_configCsd
 424:Generated_Source\PSoC4/CapSense_1_SensingCSD_LL.c ****     *   with the filter delay which depends on the sample clock frequency.
 425:Generated_Source\PSoC4/CapSense_1_SensingCSD_LL.c ****     *   This variable is written into register during enabling
 426:Generated_Source\PSoC4/CapSense_1_SensingCSD_LL.c ****     *   Fourth-generation HW block .
 427:Generated_Source\PSoC4/CapSense_1_SensingCSD_LL.c ****     *
 428:Generated_Source\PSoC4/CapSense_1_SensingCSD_LL.c ****     *******************************************************************************/
 429:Generated_Source\PSoC4/CapSense_1_SensingCSD_LL.c ****     static void CapSense_1_SsCSDSetFilterDelay(void)
 430:Generated_Source\PSoC4/CapSense_1_SensingCSD_LL.c ****     {
  58              		.loc 1 430 0
  59              		.cfi_startproc
  60              		@ args = 0, pretend = 0, frame = 0
  61              		@ frame_needed = 0, uses_anonymous_args = 0
  62 0000 10B5     		push	{r4, lr}
  63              		.cfi_def_cfa_offset 8
  64              		.cfi_offset 4, -8
  65              		.cfi_offset 14, -4
 431:Generated_Source\PSoC4/CapSense_1_SensingCSD_LL.c ****         #if (CapSense_1_MOD_CSD_CLK_12MHZ < CYDEV_BCLK__HFCLK__HZ)
 432:Generated_Source\PSoC4/CapSense_1_SensingCSD_LL.c ****             uint32 sampleClkFreqHz;
 433:Generated_Source\PSoC4/CapSense_1_SensingCSD_LL.c ****         #endif /* (CapSense_1_MOD_CSD_CLK_12MHZ < CYDEV_BCLK__HFCLK__HZ) */
 434:Generated_Source\PSoC4/CapSense_1_SensingCSD_LL.c **** 
 435:Generated_Source\PSoC4/CapSense_1_SensingCSD_LL.c ****         CapSense_1_configCsd &= ~CapSense_1_CONFIG_FILTER_DELAY_MASK;
  66              		.loc 1 435 0
  67 0002 104B     		ldr	r3, .L8
  68 0004 1B68     		ldr	r3, [r3]
  69 0006 7022     		movs	r2, #112
  70 0008 9343     		bics	r3, r2
  71 000a 1C00     		movs	r4, r3
 436:Generated_Source\PSoC4/CapSense_1_SensingCSD_LL.c **** 
 437:Generated_Source\PSoC4/CapSense_1_SensingCSD_LL.c ****         #if (CapSense_1_MOD_CSD_CLK_12MHZ < CYDEV_BCLK__HFCLK__HZ)
 438:Generated_Source\PSoC4/CapSense_1_SensingCSD_LL.c ****             sampleClkFreqHz = CYDEV_BCLK__HFCLK__HZ / (uint32)CapSense_1_dsRam.modCsdClk;
  72              		.loc 1 438 0
  73 000c 2823     		movs	r3, #40
  74 000e 0E4A     		ldr	r2, .L8+4
  75 0010 D15C     		ldrb	r1, [r2, r3]
ARM GAS  C:\Users\exp32\AppData\Local\Temp\ccC3r0JH.s 			page 10


  76 0012 0E48     		ldr	r0, .L8+8
  77 0014 FFF7FEFF 		bl	__aeabi_uidiv
  78              	.LVL3:
 439:Generated_Source\PSoC4/CapSense_1_SensingCSD_LL.c ****             if(sampleClkFreqHz <= CapSense_1_MOD_CSD_CLK_12MHZ)
  79              		.loc 1 439 0
  80 0018 0D4B     		ldr	r3, .L8+12
  81 001a 9842     		cmp	r0, r3
  82 001c 04D8     		bhi	.L5
 440:Generated_Source\PSoC4/CapSense_1_SensingCSD_LL.c ****             {
 441:Generated_Source\PSoC4/CapSense_1_SensingCSD_LL.c ****                 CapSense_1_configCsd |= CapSense_1_CONFIG_FILTER_DELAY_12MHZ;
  83              		.loc 1 441 0
  84 001e 2023     		movs	r3, #32
  85 0020 2343     		orrs	r3, r4
  86 0022 084A     		ldr	r2, .L8
  87 0024 1360     		str	r3, [r2]
  88 0026 0BE0     		b	.L4
  89              	.L5:
 442:Generated_Source\PSoC4/CapSense_1_SensingCSD_LL.c ****             }
 443:Generated_Source\PSoC4/CapSense_1_SensingCSD_LL.c ****             else if(sampleClkFreqHz <= CapSense_1_MOD_CSD_CLK_24MHZ)
  90              		.loc 1 443 0
  91 0028 084B     		ldr	r3, .L8+8
  92 002a 9842     		cmp	r0, r3
  93 002c 04D8     		bhi	.L7
 444:Generated_Source\PSoC4/CapSense_1_SensingCSD_LL.c ****             {
 445:Generated_Source\PSoC4/CapSense_1_SensingCSD_LL.c ****                 CapSense_1_configCsd |= CapSense_1_CONFIG_FILTER_DELAY_24MHZ;
  94              		.loc 1 445 0
  95 002e 3023     		movs	r3, #48
  96 0030 2343     		orrs	r3, r4
  97 0032 044A     		ldr	r2, .L8
  98 0034 1360     		str	r3, [r2]
  99 0036 03E0     		b	.L4
 100              	.L7:
 446:Generated_Source\PSoC4/CapSense_1_SensingCSD_LL.c ****             }
 447:Generated_Source\PSoC4/CapSense_1_SensingCSD_LL.c ****             else
 448:Generated_Source\PSoC4/CapSense_1_SensingCSD_LL.c ****             {
 449:Generated_Source\PSoC4/CapSense_1_SensingCSD_LL.c ****                 CapSense_1_configCsd |= CapSense_1_CONFIG_FILTER_DELAY_48MHZ;
 101              		.loc 1 449 0
 102 0038 4023     		movs	r3, #64
 103 003a 2343     		orrs	r3, r4
 104 003c 014A     		ldr	r2, .L8
 105 003e 1360     		str	r3, [r2]
 106              	.L4:
 450:Generated_Source\PSoC4/CapSense_1_SensingCSD_LL.c ****             }
 451:Generated_Source\PSoC4/CapSense_1_SensingCSD_LL.c ****         #else
 452:Generated_Source\PSoC4/CapSense_1_SensingCSD_LL.c ****             CapSense_1_configCsd |= CapSense_1_CONFIG_FILTER_DELAY_12MHZ;
 453:Generated_Source\PSoC4/CapSense_1_SensingCSD_LL.c ****         #endif /* (CapSense_1_MOD_CSD_CLK_12MHZ < CYDEV_BCLK__HFCLK__HZ) */
 454:Generated_Source\PSoC4/CapSense_1_SensingCSD_LL.c ****     }
 107              		.loc 1 454 0
 108              		@ sp needed
 109 0040 10BD     		pop	{r4, pc}
 110              	.L9:
 111 0042 C046     		.align	2
 112              	.L8:
 113 0044 00000000 		.word	.LANCHOR0
 114 0048 00000000 		.word	CapSense_1_dsRam
 115 004c 00366E01 		.word	24000000
 116 0050 001BB700 		.word	12000000
ARM GAS  C:\Users\exp32\AppData\Local\Temp\ccC3r0JH.s 			page 11


 117              		.cfi_endproc
 118              	.LFE2:
 119              		.size	CapSense_1_SsCSDSetFilterDelay, .-CapSense_1_SsCSDSetFilterDelay
 120              		.section	.text.CapSense_1_SsCSDConfigIDACs,"ax",%progbits
 121              		.align	2
 122              		.code	16
 123              		.thumb_func
 124              		.type	CapSense_1_SsCSDConfigIDACs, %function
 125              	CapSense_1_SsCSDConfigIDACs:
 126              	.LFB3:
 455:Generated_Source\PSoC4/CapSense_1_SensingCSD_LL.c **** #endif /* (CapSense_1_ENABLE == CapSense_1_CSD_GANGED_SNS_EN)  */
 456:Generated_Source\PSoC4/CapSense_1_SensingCSD_LL.c **** 
 457:Generated_Source\PSoC4/CapSense_1_SensingCSD_LL.c **** 
 458:Generated_Source\PSoC4/CapSense_1_SensingCSD_LL.c **** /*******************************************************************************
 459:Generated_Source\PSoC4/CapSense_1_SensingCSD_LL.c **** * Function Name: CapSense_1_SsCSDConfigIDACs
 460:Generated_Source\PSoC4/CapSense_1_SensingCSD_LL.c **** ****************************************************************************//**
 461:Generated_Source\PSoC4/CapSense_1_SensingCSD_LL.c **** *
 462:Generated_Source\PSoC4/CapSense_1_SensingCSD_LL.c **** * \brief
 463:Generated_Source\PSoC4/CapSense_1_SensingCSD_LL.c **** *   Configures the mode for IDAC registers
 464:Generated_Source\PSoC4/CapSense_1_SensingCSD_LL.c **** *
 465:Generated_Source\PSoC4/CapSense_1_SensingCSD_LL.c **** * \details
 466:Generated_Source\PSoC4/CapSense_1_SensingCSD_LL.c **** *   This function configures the IDAC modes depend on Compensation IDAC
 467:Generated_Source\PSoC4/CapSense_1_SensingCSD_LL.c **** *   enabled or disabled.
 468:Generated_Source\PSoC4/CapSense_1_SensingCSD_LL.c **** *
 469:Generated_Source\PSoC4/CapSense_1_SensingCSD_LL.c **** *******************************************************************************/
 470:Generated_Source\PSoC4/CapSense_1_SensingCSD_LL.c **** static void CapSense_1_SsCSDConfigIDACs(void)
 471:Generated_Source\PSoC4/CapSense_1_SensingCSD_LL.c **** {
 127              		.loc 1 471 0
 128              		.cfi_startproc
 129              		@ args = 0, pretend = 0, frame = 0
 130              		@ frame_needed = 0, uses_anonymous_args = 0
 131              		@ link register save eliminated.
 472:Generated_Source\PSoC4/CapSense_1_SensingCSD_LL.c ****     #if (CapSense_1_ENABLE == CapSense_1_CSDV2)
 473:Generated_Source\PSoC4/CapSense_1_SensingCSD_LL.c ****         CY_SET_REG32(CapSense_1_CSD_IDACA_PTR, CapSense_1_IDAC_MOD_DEFAULT_CFG);
 132              		.loc 1 473 0
 133 0000 034A     		ldr	r2, .L11
 134 0002 044B     		ldr	r3, .L11+4
 135 0004 1A60     		str	r2, [r3]
 474:Generated_Source\PSoC4/CapSense_1_SensingCSD_LL.c ****         #if (CapSense_1_ENABLE == CapSense_1_CSD_IDAC_COMP_EN)
 475:Generated_Source\PSoC4/CapSense_1_SensingCSD_LL.c ****             CY_SET_REG32(CapSense_1_CSD_IDACB_PTR, CapSense_1_IDAC_COMP_DEFAULT_CFG);
 136              		.loc 1 475 0
 137 0006 C522     		movs	r2, #197
 138 0008 5204     		lsls	r2, r2, #17
 139 000a 034B     		ldr	r3, .L11+8
 140 000c 1A60     		str	r2, [r3]
 476:Generated_Source\PSoC4/CapSense_1_SensingCSD_LL.c ****         #endif /* (CapSense_1_ENABLE == CapSense_1_CSD_IDAC_COMP_EN) */
 477:Generated_Source\PSoC4/CapSense_1_SensingCSD_LL.c ****     #else
 478:Generated_Source\PSoC4/CapSense_1_SensingCSD_LL.c ****         #if (CapSense_1_ENABLE == CapSense_1_CSD_IDAC_COMP_EN)
 479:Generated_Source\PSoC4/CapSense_1_SensingCSD_LL.c ****             CY_SET_REG32(CapSense_1_IDAC_PTR, CapSense_1_DEFAULT_CSD_IDAC_CONFIG);
 480:Generated_Source\PSoC4/CapSense_1_SensingCSD_LL.c ****         #else
 481:Generated_Source\PSoC4/CapSense_1_SensingCSD_LL.c ****             CY_SET_REG32(CapSense_1_IDAC_PTR, CY_GET_REG32(CapSense_1_IDAC_PTR) &
 482:Generated_Source\PSoC4/CapSense_1_SensingCSD_LL.c ****                                                                 ~(CapSense_1_IDAC_MOD_MODE_MASK |
 483:Generated_Source\PSoC4/CapSense_1_SensingCSD_LL.c ****                                                                   CapSense_1_IDAC_MOD_MASK));
 484:Generated_Source\PSoC4/CapSense_1_SensingCSD_LL.c ****             CY_SET_REG32(CapSense_1_IDAC_PTR, CY_GET_REG32(CapSense_1_IDAC_PTR) |
 485:Generated_Source\PSoC4/CapSense_1_SensingCSD_LL.c ****                                                                  CapSense_1_DEFAULT_CSD_IDAC_CONFIG
 486:Generated_Source\PSoC4/CapSense_1_SensingCSD_LL.c ****         #endif /* (CapSense_1_ENABLE == CapSense_1_CSD_IDAC_COMP_EN) */
 487:Generated_Source\PSoC4/CapSense_1_SensingCSD_LL.c ****     #endif /* (CapSense_1_ENABLE == CapSense_1_CSDV2) */
ARM GAS  C:\Users\exp32\AppData\Local\Temp\ccC3r0JH.s 			page 12


 488:Generated_Source\PSoC4/CapSense_1_SensingCSD_LL.c **** }
 141              		.loc 1 488 0
 142              		@ sp needed
 143 000e 7047     		bx	lr
 144              	.L12:
 145              		.align	2
 146              	.L11:
 147 0010 00008F01 		.word	26148864
 148 0014 C0012940 		.word	1076429248
 149 0018 C4012940 		.word	1076429252
 150              		.cfi_endproc
 151              	.LFE3:
 152              		.size	CapSense_1_SsCSDConfigIDACs, .-CapSense_1_SsCSDConfigIDACs
 153              		.section	.text.CapSense_1_SsCSDCalibrateCheck,"ax",%progbits
 154              		.align	2
 155              		.code	16
 156              		.thumb_func
 157              		.type	CapSense_1_SsCSDCalibrateCheck, %function
 158              	CapSense_1_SsCSDCalibrateCheck:
 159              	.LFB19:
 489:Generated_Source\PSoC4/CapSense_1_SensingCSD_LL.c **** 
 490:Generated_Source\PSoC4/CapSense_1_SensingCSD_LL.c **** 
 491:Generated_Source\PSoC4/CapSense_1_SensingCSD_LL.c **** /*******************************************************************************
 492:Generated_Source\PSoC4/CapSense_1_SensingCSD_LL.c **** * Function Name: CapSense_1_SsCSDInitialize
 493:Generated_Source\PSoC4/CapSense_1_SensingCSD_LL.c **** ****************************************************************************//**
 494:Generated_Source\PSoC4/CapSense_1_SensingCSD_LL.c **** *
 495:Generated_Source\PSoC4/CapSense_1_SensingCSD_LL.c **** * \brief
 496:Generated_Source\PSoC4/CapSense_1_SensingCSD_LL.c **** *   This API initializes the CSD module.
 497:Generated_Source\PSoC4/CapSense_1_SensingCSD_LL.c **** *
 498:Generated_Source\PSoC4/CapSense_1_SensingCSD_LL.c **** * \details
 499:Generated_Source\PSoC4/CapSense_1_SensingCSD_LL.c **** *   The function performs the following steps for Fourth-generation HW block:
 500:Generated_Source\PSoC4/CapSense_1_SensingCSD_LL.c **** *   1) Sets GPIO output to "0" for all sensor pins;
 501:Generated_Source\PSoC4/CapSense_1_SensingCSD_LL.c **** *   2) Connects CMOD to AMUXBUS-A and to CSDBUS-A;
 502:Generated_Source\PSoC4/CapSense_1_SensingCSD_LL.c **** *   3) Connects CMOD to (sense path) to CSDCOMP;
 503:Generated_Source\PSoC4/CapSense_1_SensingCSD_LL.c **** *   4) Connects Csh_tank to AMUXBUS-B and to CSDBUS-B;
 504:Generated_Source\PSoC4/CapSense_1_SensingCSD_LL.c **** *   5) Connects VREF to REFGEN;
 505:Generated_Source\PSoC4/CapSense_1_SensingCSD_LL.c **** *   6) Configures REFGEN and sets the reference voltage;
 506:Generated_Source\PSoC4/CapSense_1_SensingCSD_LL.c **** *   7) Connects VREF to CSDCOMP and HSCOMP;
 507:Generated_Source\PSoC4/CapSense_1_SensingCSD_LL.c **** *   8) Configures IDAC and connect to CSDBUS-A (to drive CMOD);
 508:Generated_Source\PSoC4/CapSense_1_SensingCSD_LL.c **** *   9) Configures ModClk;
 509:Generated_Source\PSoC4/CapSense_1_SensingCSD_LL.c **** *   10) Configure SnsClk source;
 510:Generated_Source\PSoC4/CapSense_1_SensingCSD_LL.c **** *   11) Sets other CSD configurations (Csd Auto Zero time,
 511:Generated_Source\PSoC4/CapSense_1_SensingCSD_LL.c **** *       Sample Init period, interrupts,
 512:Generated_Source\PSoC4/CapSense_1_SensingCSD_LL.c **** *       CMOD and Csh_tank/shield initialization switch resistance).
 513:Generated_Source\PSoC4/CapSense_1_SensingCSD_LL.c **** *
 514:Generated_Source\PSoC4/CapSense_1_SensingCSD_LL.c **** *   The function performs the following steps for Third-generation HW block:
 515:Generated_Source\PSoC4/CapSense_1_SensingCSD_LL.c **** *   1) Sets all the sensors to the inactive state;
 516:Generated_Source\PSoC4/CapSense_1_SensingCSD_LL.c **** *   2) Enables Shield Electrodes;
 517:Generated_Source\PSoC4/CapSense_1_SensingCSD_LL.c **** *   3) Configures the CSD block and IDACs;
 518:Generated_Source\PSoC4/CapSense_1_SensingCSD_LL.c **** *   4) Connects Cmod to AMUXBUS-A;
 519:Generated_Source\PSoC4/CapSense_1_SensingCSD_LL.c **** *   5) Enables the clocks;
 520:Generated_Source\PSoC4/CapSense_1_SensingCSD_LL.c **** *   6) Sets the shield delay;
 521:Generated_Source\PSoC4/CapSense_1_SensingCSD_LL.c **** *   7) Enables the CSD block; connects Vref Buffer to the AMUX bus.
 522:Generated_Source\PSoC4/CapSense_1_SensingCSD_LL.c **** *
 523:Generated_Source\PSoC4/CapSense_1_SensingCSD_LL.c **** *******************************************************************************/
 524:Generated_Source\PSoC4/CapSense_1_SensingCSD_LL.c **** void CapSense_1_SsCSDInitialize(void)
 525:Generated_Source\PSoC4/CapSense_1_SensingCSD_LL.c **** {
ARM GAS  C:\Users\exp32\AppData\Local\Temp\ccC3r0JH.s 			page 13


 526:Generated_Source\PSoC4/CapSense_1_SensingCSD_LL.c ****     #if (CapSense_1_ENABLE == CapSense_1_CSDV2)
 527:Generated_Source\PSoC4/CapSense_1_SensingCSD_LL.c ****         uint32 newRegValue;
 528:Generated_Source\PSoC4/CapSense_1_SensingCSD_LL.c ****     #endif
 529:Generated_Source\PSoC4/CapSense_1_SensingCSD_LL.c **** 
 530:Generated_Source\PSoC4/CapSense_1_SensingCSD_LL.c ****     /* Set all the sensors to inactive state */
 531:Generated_Source\PSoC4/CapSense_1_SensingCSD_LL.c ****     if(CapSense_1_dsRam.scanCurrentISC != CapSense_1_dsRam.scanCsdISC)
 532:Generated_Source\PSoC4/CapSense_1_SensingCSD_LL.c ****     {
 533:Generated_Source\PSoC4/CapSense_1_SensingCSD_LL.c ****         CapSense_1_SsSetAllIOsState((uint32)CapSense_1_dsRam.scanCsdISC);
 534:Generated_Source\PSoC4/CapSense_1_SensingCSD_LL.c ****         CapSense_1_dsRam.scanCurrentISC = CapSense_1_dsRam.scanCsdISC;
 535:Generated_Source\PSoC4/CapSense_1_SensingCSD_LL.c ****     }
 536:Generated_Source\PSoC4/CapSense_1_SensingCSD_LL.c **** 
 537:Generated_Source\PSoC4/CapSense_1_SensingCSD_LL.c ****     #if (CapSense_1_ENABLE == CapSense_1_CSD_SHIELD_EN)
 538:Generated_Source\PSoC4/CapSense_1_SensingCSD_LL.c ****         /* Connect shields to AMUX-B bus (config HSIOM regs) */
 539:Generated_Source\PSoC4/CapSense_1_SensingCSD_LL.c ****         #if (0u != CapSense_1_CSD_TOTAL_SHIELD_COUNT)
 540:Generated_Source\PSoC4/CapSense_1_SensingCSD_LL.c ****             CapSense_1_SsCSDEnableShieldElectrodes();
 541:Generated_Source\PSoC4/CapSense_1_SensingCSD_LL.c ****         #endif /* (0u != CapSense_1_CSD_TOTAL_SHIELD_COUNT) */
 542:Generated_Source\PSoC4/CapSense_1_SensingCSD_LL.c **** 
 543:Generated_Source\PSoC4/CapSense_1_SensingCSD_LL.c ****         #if (CapSense_1_ENABLE == CapSense_1_CSD_SHIELD_TANK_EN)
 544:Generated_Source\PSoC4/CapSense_1_SensingCSD_LL.c ****             /* Configure Csh */
 545:Generated_Source\PSoC4/CapSense_1_SensingCSD_LL.c ****             CapSense_1_SsCSDEnableShieldTank();
 546:Generated_Source\PSoC4/CapSense_1_SensingCSD_LL.c ****         #endif /* (CapSense_1_ENABLE == CapSense_1_CSD_SHIELD_TANK_EN) */
 547:Generated_Source\PSoC4/CapSense_1_SensingCSD_LL.c ****     #endif /* (CapSense_1_ENABLE == CapSense_1_CSD_SHIELD_EN) */
 548:Generated_Source\PSoC4/CapSense_1_SensingCSD_LL.c **** 
 549:Generated_Source\PSoC4/CapSense_1_SensingCSD_LL.c ****     #if (CapSense_1_ENABLE == CapSense_1_CSDV2)
 550:Generated_Source\PSoC4/CapSense_1_SensingCSD_LL.c **** 
 551:Generated_Source\PSoC4/CapSense_1_SensingCSD_LL.c ****         CapSense_1_DischargeExtCapacitors(CapSense_1_EXT_CAP_DISCHARGE_TIME);
 552:Generated_Source\PSoC4/CapSense_1_SensingCSD_LL.c **** 
 553:Generated_Source\PSoC4/CapSense_1_SensingCSD_LL.c ****         /* Initialize the unused CSD registers to defaut state */
 554:Generated_Source\PSoC4/CapSense_1_SensingCSD_LL.c ****         CY_SET_REG32(CapSense_1_SENSE_DUTY_PTR, CapSense_1_DEFAULT_SENSE_DUTY_SEL);
 555:Generated_Source\PSoC4/CapSense_1_SensingCSD_LL.c **** 
 556:Generated_Source\PSoC4/CapSense_1_SensingCSD_LL.c ****         /* Configure VREF */
 557:Generated_Source\PSoC4/CapSense_1_SensingCSD_LL.c ****         newRegValue = CY_GET_REG32(CapSense_1_SW_REFGEN_SEL_PTR);
 558:Generated_Source\PSoC4/CapSense_1_SensingCSD_LL.c ****         newRegValue |= CapSense_1_DEFAULT_SW_REFGEN_SEL;
 559:Generated_Source\PSoC4/CapSense_1_SensingCSD_LL.c **** 
 560:Generated_Source\PSoC4/CapSense_1_SensingCSD_LL.c ****         CY_SET_REG32(CapSense_1_SW_REFGEN_SEL_PTR, newRegValue);
 561:Generated_Source\PSoC4/CapSense_1_SensingCSD_LL.c ****         CY_SET_REG32(CapSense_1_INTR_SET_PTR,         CapSense_1_DEFAULT_CSD_INTR_SET);
 562:Generated_Source\PSoC4/CapSense_1_SensingCSD_LL.c ****         CY_SET_REG32(CapSense_1_SW_FW_TANK_SEL_PTR,   CapSense_1_DEFAULT_CSD_SW_FW_TANK_SEL);
 563:Generated_Source\PSoC4/CapSense_1_SensingCSD_LL.c ****         CY_SET_REG32(CapSense_1_SW_DSI_SEL_PTR,       CapSense_1_DEFAULT_CSD_SW_DSI_SEL);
 564:Generated_Source\PSoC4/CapSense_1_SensingCSD_LL.c ****         CY_SET_REG32(CapSense_1_ADC_CTL_PTR,          CapSense_1_DEFAULT_CSD_ADC_CTL);
 565:Generated_Source\PSoC4/CapSense_1_SensingCSD_LL.c ****         CY_SET_REG32(CapSense_1_AMBUF_PTR,            CapSense_1_AMBUF_PWR_MODE_OFF);
 566:Generated_Source\PSoC4/CapSense_1_SensingCSD_LL.c ****         CY_SET_REG32(CapSense_1_SW_SHIELD_SEL_PTR,    CapSense_1_DEFAULT_SW_SHIELD_SEL);
 567:Generated_Source\PSoC4/CapSense_1_SensingCSD_LL.c ****         CY_SET_REG32(CapSense_1_SW_HS_P_SEL_PTR,      CapSense_1_DEFAULT_SW_HS_P_SEL);
 568:Generated_Source\PSoC4/CapSense_1_SensingCSD_LL.c ****         CY_SET_REG32(CapSense_1_SW_HS_N_SEL_PTR,      CapSense_1_DEFAULT_SW_HS_N_SEL);
 569:Generated_Source\PSoC4/CapSense_1_SensingCSD_LL.c ****         CY_SET_REG32(CapSense_1_HSCMP_PTR,            CapSense_1_DEFAULT_HSCMP_CFG);
 570:Generated_Source\PSoC4/CapSense_1_SensingCSD_LL.c **** 
 571:Generated_Source\PSoC4/CapSense_1_SensingCSD_LL.c ****         /* Connect CMOD to AMUXBUS-A */
 572:Generated_Source\PSoC4/CapSense_1_SensingCSD_LL.c ****         CapSense_1_WriteBitsSafe(CapSense_1_CMOD_HSIOM_PTR, CapSense_1_CMOD_HSIOM_MASK,
 573:Generated_Source\PSoC4/CapSense_1_SensingCSD_LL.c ****                     (uint32)(CapSense_1_HSIOM_SEL_AMUXA << CapSense_1_CMOD_HSIOM_SHIFT));
 574:Generated_Source\PSoC4/CapSense_1_SensingCSD_LL.c **** 
 575:Generated_Source\PSoC4/CapSense_1_SensingCSD_LL.c ****         /* Set output port register to 0 to connect to GND */
 576:Generated_Source\PSoC4/CapSense_1_SensingCSD_LL.c ****         CapSense_1_WriteBitsSafe(CapSense_1_CMOD_DR_PTR, CapSense_1_Cmod__0__MASK, 0u);
 577:Generated_Source\PSoC4/CapSense_1_SensingCSD_LL.c **** 
 578:Generated_Source\PSoC4/CapSense_1_SensingCSD_LL.c ****         /* Connect AMUXBUS-A to CSDBUS-A */
 579:Generated_Source\PSoC4/CapSense_1_SensingCSD_LL.c ****         newRegValue = CY_GET_REG32(CapSense_1_SW_BYP_SEL_PTR);
 580:Generated_Source\PSoC4/CapSense_1_SensingCSD_LL.c ****         newRegValue |= CapSense_1_SW_BYP_SEL_SW_BYA_MASK;
 581:Generated_Source\PSoC4/CapSense_1_SensingCSD_LL.c ****         CY_SET_REG32(CapSense_1_SW_BYP_SEL_PTR, newRegValue);
 582:Generated_Source\PSoC4/CapSense_1_SensingCSD_LL.c **** 
ARM GAS  C:\Users\exp32\AppData\Local\Temp\ccC3r0JH.s 			page 14


 583:Generated_Source\PSoC4/CapSense_1_SensingCSD_LL.c ****         /* Connect CMOD to (sense path) to CSDCOMP */
 584:Generated_Source\PSoC4/CapSense_1_SensingCSD_LL.c ****         #if (CapSense_1_CSD__CMOD_PAD == CapSense_1_CMOD_CONNECTION)
 585:Generated_Source\PSoC4/CapSense_1_SensingCSD_LL.c ****             CY_SET_REG32(CapSense_1_SW_CMP_P_SEL_PTR, CapSense_1_SW_CMP_P_SEL_SW_SFPM_STATIC_CLOSE)
 586:Generated_Source\PSoC4/CapSense_1_SensingCSD_LL.c ****         #elif (CapSense_1_CSD__CSHIELD_PAD == CapSense_1_CMOD_CONNECTION)
 587:Generated_Source\PSoC4/CapSense_1_SensingCSD_LL.c ****             CY_SET_REG32(CapSense_1_SW_CMP_P_SEL_PTR, CapSense_1_SW_CMP_P_SEL_SW_SFPS_STATIC_CLOSE)
 588:Generated_Source\PSoC4/CapSense_1_SensingCSD_LL.c ****         #else
 589:Generated_Source\PSoC4/CapSense_1_SensingCSD_LL.c ****             CY_SET_REG32(CapSense_1_SW_CMP_P_SEL_PTR, CapSense_1_SW_CMP_P_SEL_SW_SFPT_STATIC_CLOSE)
 590:Generated_Source\PSoC4/CapSense_1_SensingCSD_LL.c ****         #endif /* (CapSense_1_CSD__CMOD_PAD == CapSense_1_CMOD_CONNECTION) */
 591:Generated_Source\PSoC4/CapSense_1_SensingCSD_LL.c **** 
 592:Generated_Source\PSoC4/CapSense_1_SensingCSD_LL.c ****         /* Configure shield driving path */
 593:Generated_Source\PSoC4/CapSense_1_SensingCSD_LL.c ****         #if (CapSense_1_ENABLE == CapSense_1_CSD_SHIELD_EN)
 594:Generated_Source\PSoC4/CapSense_1_SensingCSD_LL.c ****             /* Connect AMUXBUS-B to CSDBUS-B (and AMUXBUS-A to CSDBUS-A ) */
 595:Generated_Source\PSoC4/CapSense_1_SensingCSD_LL.c ****             CY_SET_REG32(CapSense_1_SW_BYP_SEL_PTR, CapSense_1_SW_BYP_SEL_SW_BYA_MASK | CapSense_1_
 596:Generated_Source\PSoC4/CapSense_1_SensingCSD_LL.c **** 
 597:Generated_Source\PSoC4/CapSense_1_SensingCSD_LL.c ****             /* Connect AMUXBUS-B to HSCMP positive input */
 598:Generated_Source\PSoC4/CapSense_1_SensingCSD_LL.c ****             CY_SET_REG32(CapSense_1_SW_HS_P_SEL_PTR, 0x00000000uL);
 599:Generated_Source\PSoC4/CapSense_1_SensingCSD_LL.c ****         #endif /* (CapSense_1_ENABLE == CapSense_1_CSD_SHIELD_EN) */
 600:Generated_Source\PSoC4/CapSense_1_SensingCSD_LL.c **** 
 601:Generated_Source\PSoC4/CapSense_1_SensingCSD_LL.c ****         /* Configure VREF */
 602:Generated_Source\PSoC4/CapSense_1_SensingCSD_LL.c ****         #if (CapSense_1_ENABLE == CapSense_1_CSD_IDAC_COMP_EN)
 603:Generated_Source\PSoC4/CapSense_1_SensingCSD_LL.c ****             /* Connect VREF to REFGEN. Connect IDACB to CSDBUSA */
 604:Generated_Source\PSoC4/CapSense_1_SensingCSD_LL.c ****             newRegValue = CY_GET_REG32(CapSense_1_SW_REFGEN_SEL_PTR);
 605:Generated_Source\PSoC4/CapSense_1_SensingCSD_LL.c ****             newRegValue |= CapSense_1_SW_REFGEN_SEL_SW_SGR_MASK | CapSense_1_SW_REFGEN_SEL_SW_IAIB_
 606:Generated_Source\PSoC4/CapSense_1_SensingCSD_LL.c ****             CY_SET_REG32(CapSense_1_SW_REFGEN_SEL_PTR, newRegValue);
 607:Generated_Source\PSoC4/CapSense_1_SensingCSD_LL.c ****         #else
 608:Generated_Source\PSoC4/CapSense_1_SensingCSD_LL.c ****             /* Connect VREF to REFGEN (IAIB switch is open) */
 609:Generated_Source\PSoC4/CapSense_1_SensingCSD_LL.c ****             newRegValue = CY_GET_REG32(CapSense_1_SW_REFGEN_SEL_PTR);
 610:Generated_Source\PSoC4/CapSense_1_SensingCSD_LL.c ****             newRegValue |= CapSense_1_SW_REFGEN_SEL_SW_SGR_MASK;
 611:Generated_Source\PSoC4/CapSense_1_SensingCSD_LL.c ****             CY_SET_REG32(CapSense_1_SW_REFGEN_SEL_PTR, newRegValue);
 612:Generated_Source\PSoC4/CapSense_1_SensingCSD_LL.c ****         #endif /* (CapSense_1_ENABLE == CapSense_1_CSD_IDAC_COMP_EN) */
 613:Generated_Source\PSoC4/CapSense_1_SensingCSD_LL.c **** 
 614:Generated_Source\PSoC4/CapSense_1_SensingCSD_LL.c ****         /* Connect VREFHI (from RefGen) to CSDCOMP when Vdda >= 2 V */
 615:Generated_Source\PSoC4/CapSense_1_SensingCSD_LL.c ****         CY_SET_REG32(CapSense_1_SW_CMP_N_SEL_PTR, CapSense_1_SW_CMP_N_SEL_SW_SCRH_STATIC_CLOSE);
 616:Generated_Source\PSoC4/CapSense_1_SensingCSD_LL.c **** 
 617:Generated_Source\PSoC4/CapSense_1_SensingCSD_LL.c ****         #if (CapSense_1_2000_MV > CapSense_1_CYDEV_VDDA_MV)
 618:Generated_Source\PSoC4/CapSense_1_SensingCSD_LL.c **** 
 619:Generated_Source\PSoC4/CapSense_1_SensingCSD_LL.c ****             /* Configure REFGEN. Set reference voltage when Vdda < 2 V */
 620:Generated_Source\PSoC4/CapSense_1_SensingCSD_LL.c ****             CY_SET_REG32(CapSense_1_REFGEN_PTR, CapSense_1_REFGEN_LV);
 621:Generated_Source\PSoC4/CapSense_1_SensingCSD_LL.c **** 
 622:Generated_Source\PSoC4/CapSense_1_SensingCSD_LL.c ****             /* Connect Vrefhi to AMUBUF positive input when Vdaa < 2V
 623:Generated_Source\PSoC4/CapSense_1_SensingCSD_LL.c ****              *  Connect AMUBUF to SCDCMP negative input when Vdaa < 2V
 624:Generated_Source\PSoC4/CapSense_1_SensingCSD_LL.c ****              */
 625:Generated_Source\PSoC4/CapSense_1_SensingCSD_LL.c ****             #if (CapSense_1_ENABLE == CapSense_1_CSD_SHIELD_EN)
 626:Generated_Source\PSoC4/CapSense_1_SensingCSD_LL.c ****                 #if (CapSense_1_IDAC_SINKING == CapSense_1_CSD_IDAC_CONFIG)
 627:Generated_Source\PSoC4/CapSense_1_SensingCSD_LL.c ****                     CY_SET_REG32(CapSense_1_SW_AMUXBUF_SEL_PTR, CapSense_1_SW_AMUXBUF_SEL_SW_IRH_ST
 628:Generated_Source\PSoC4/CapSense_1_SensingCSD_LL.c ****                                                                           CapSense_1_SW_AMUXBUF_SEL
 629:Generated_Source\PSoC4/CapSense_1_SensingCSD_LL.c ****                 #else
 630:Generated_Source\PSoC4/CapSense_1_SensingCSD_LL.c ****                     CY_SET_REG32(CapSense_1_SW_AMUXBUF_SEL_PTR, CapSense_1_SW_AMUXBUF_SEL_SW_DEFAUL
 631:Generated_Source\PSoC4/CapSense_1_SensingCSD_LL.c ****                 #endif /* (CapSense_1_ENABLE == CapSense_1_CSD_SHIELD_EN) */
 632:Generated_Source\PSoC4/CapSense_1_SensingCSD_LL.c ****                 CY_SET_REG32(CapSense_1_AMBUF_PTR, CapSense_1_AMBUF_PWR_MODE_NORM);
 633:Generated_Source\PSoC4/CapSense_1_SensingCSD_LL.c ****             #else
 634:Generated_Source\PSoC4/CapSense_1_SensingCSD_LL.c ****                 CY_SET_REG32(CapSense_1_AMBUF_PTR, CapSense_1_AMBUF_PWR_MODE_OFF);
 635:Generated_Source\PSoC4/CapSense_1_SensingCSD_LL.c ****             #endif /* (CapSense_1_ENABLE == CapSense_1_CSD_SHIELD_EN) */
 636:Generated_Source\PSoC4/CapSense_1_SensingCSD_LL.c **** 
 637:Generated_Source\PSoC4/CapSense_1_SensingCSD_LL.c ****             /* Connect VREFHI to HSCOMP */
 638:Generated_Source\PSoC4/CapSense_1_SensingCSD_LL.c ****             CY_SET_REG32(CapSense_1_SW_HS_N_SEL_PTR, CapSense_1_SW_HS_N_SEL_SW_HCRH_STATIC_CLOSE);
 639:Generated_Source\PSoC4/CapSense_1_SensingCSD_LL.c ****         #else
ARM GAS  C:\Users\exp32\AppData\Local\Temp\ccC3r0JH.s 			page 15


 640:Generated_Source\PSoC4/CapSense_1_SensingCSD_LL.c **** 
 641:Generated_Source\PSoC4/CapSense_1_SensingCSD_LL.c ****             /* Configure REFGEN. Set reference voltage when Vdda >= 2 V */
 642:Generated_Source\PSoC4/CapSense_1_SensingCSD_LL.c ****             CY_SET_REG32(CapSense_1_REFGEN_PTR, CapSense_1_REFGEN_HV);
 643:Generated_Source\PSoC4/CapSense_1_SensingCSD_LL.c **** 
 644:Generated_Source\PSoC4/CapSense_1_SensingCSD_LL.c ****             #if (CapSense_1_ENABLE == CapSense_1_CSD_SHIELD_EN)
 645:Generated_Source\PSoC4/CapSense_1_SensingCSD_LL.c ****                 /* Turn on CSD_AMBUF high power level when Vdaa >= 2V */
 646:Generated_Source\PSoC4/CapSense_1_SensingCSD_LL.c ****                 CY_SET_REG32(CapSense_1_AMBUF_PTR, CapSense_1_AMBUF_PWR_MODE_HI);
 647:Generated_Source\PSoC4/CapSense_1_SensingCSD_LL.c **** 
 648:Generated_Source\PSoC4/CapSense_1_SensingCSD_LL.c ****                 #if (CapSense_1_IDAC_SINKING != CapSense_1_CSD_IDAC_CONFIG)
 649:Generated_Source\PSoC4/CapSense_1_SensingCSD_LL.c ****                     CY_SET_REG32(CapSense_1_SW_AMUXBUF_SEL_PTR, CapSense_1_SW_AMUXBUF_SEL_SW_IRH_ST
 650:Generated_Source\PSoC4/CapSense_1_SensingCSD_LL.c ****                                                                           CapSense_1_SW_AMUXBUF_SEL
 651:Generated_Source\PSoC4/CapSense_1_SensingCSD_LL.c ****                 #else
 652:Generated_Source\PSoC4/CapSense_1_SensingCSD_LL.c ****                     CY_SET_REG32(CapSense_1_SW_AMUXBUF_SEL_PTR, CapSense_1_SW_AMUXBUF_SEL_SW_DEFAUL
 653:Generated_Source\PSoC4/CapSense_1_SensingCSD_LL.c ****                 #endif /* (CapSense_1_IDAC_SINKING == CapSense_1_CSD_IDAC_CONFIG) */
 654:Generated_Source\PSoC4/CapSense_1_SensingCSD_LL.c ****             #else
 655:Generated_Source\PSoC4/CapSense_1_SensingCSD_LL.c ****                 CY_SET_REG32(CapSense_1_SW_AMUXBUF_SEL_PTR, CapSense_1_SW_AMUXBUF_SEL_SW_DEFAULT);
 656:Generated_Source\PSoC4/CapSense_1_SensingCSD_LL.c ****             #endif /* (CapSense_1_ENABLE == CapSense_1_CSD_SHIELD_EN) */
 657:Generated_Source\PSoC4/CapSense_1_SensingCSD_LL.c **** 
 658:Generated_Source\PSoC4/CapSense_1_SensingCSD_LL.c ****             /* Connect VREFHI to HSCOMP */
 659:Generated_Source\PSoC4/CapSense_1_SensingCSD_LL.c ****             CY_SET_REG32(CapSense_1_SW_HS_N_SEL_PTR, CapSense_1_SW_HS_N_SEL_SW_HCRH_STATIC_CLOSE);
 660:Generated_Source\PSoC4/CapSense_1_SensingCSD_LL.c ****         #endif /* (CapSense_1_2000_MV > CapSense_1_CYDEV_VDDA_MV) */
 661:Generated_Source\PSoC4/CapSense_1_SensingCSD_LL.c **** 
 662:Generated_Source\PSoC4/CapSense_1_SensingCSD_LL.c ****         /* Configure IDACs mode */
 663:Generated_Source\PSoC4/CapSense_1_SensingCSD_LL.c ****         CapSense_1_SsCSDConfigIDACs();
 664:Generated_Source\PSoC4/CapSense_1_SensingCSD_LL.c **** 
 665:Generated_Source\PSoC4/CapSense_1_SensingCSD_LL.c ****         /* Configure ModClk */
 666:Generated_Source\PSoC4/CapSense_1_SensingCSD_LL.c ****         CapSense_1_SsSetModClkClockDivider((uint32)CapSense_1_dsRam.modCsdClk);
 667:Generated_Source\PSoC4/CapSense_1_SensingCSD_LL.c **** 
 668:Generated_Source\PSoC4/CapSense_1_SensingCSD_LL.c ****         /* Set other CSD configurations */
 669:Generated_Source\PSoC4/CapSense_1_SensingCSD_LL.c ****         #if (CapSense_1_ENABLE == CapSense_1_CSD_SHIELD_EN)
 670:Generated_Source\PSoC4/CapSense_1_SensingCSD_LL.c ****             CapSense_1_SsSetShieldDelay(CapSense_1_CSD_SHIELD_DELAY);
 671:Generated_Source\PSoC4/CapSense_1_SensingCSD_LL.c ****         #endif /* (CapSense_1_ENABLE == CapSense_1_CSD_SHIELD_EN) */
 672:Generated_Source\PSoC4/CapSense_1_SensingCSD_LL.c **** 
 673:Generated_Source\PSoC4/CapSense_1_SensingCSD_LL.c ****         /* Configure HW block filter delay */
 674:Generated_Source\PSoC4/CapSense_1_SensingCSD_LL.c ****         CapSense_1_SsCSDSetFilterDelay();
 675:Generated_Source\PSoC4/CapSense_1_SensingCSD_LL.c **** 
 676:Generated_Source\PSoC4/CapSense_1_SensingCSD_LL.c ****         #if (CapSense_1_DISABLE == CapSense_1_BLOCK_OFF_AFTER_SCAN_EN)
 677:Generated_Source\PSoC4/CapSense_1_SensingCSD_LL.c ****             /* Enable power to sub-blocks */
 678:Generated_Source\PSoC4/CapSense_1_SensingCSD_LL.c ****             CY_SET_REG32(CapSense_1_CONFIG_PTR, CapSense_1_configCsd |
 679:Generated_Source\PSoC4/CapSense_1_SensingCSD_LL.c ****                                                       CapSense_1_CONFIG_SENSE_EN_MASK |
 680:Generated_Source\PSoC4/CapSense_1_SensingCSD_LL.c ****                                                       CapSense_1_CONFIG_ENABLE_MASK);
 681:Generated_Source\PSoC4/CapSense_1_SensingCSD_LL.c ****         #endif /* (CapSense_1_ENABLE == CapSense_1_BLOCK_OFF_AFTER_SCAN_EN) */
 682:Generated_Source\PSoC4/CapSense_1_SensingCSD_LL.c **** 
 683:Generated_Source\PSoC4/CapSense_1_SensingCSD_LL.c ****         /* Set Csd Auto Zero time (set AZ_TIME bitmask) */
 684:Generated_Source\PSoC4/CapSense_1_SensingCSD_LL.c ****         CY_SET_REG32(CapSense_1_SEQ_TIME_PTR, CapSense_1_CSD_AUTO_ZERO_TIME);
 685:Generated_Source\PSoC4/CapSense_1_SensingCSD_LL.c **** 
 686:Generated_Source\PSoC4/CapSense_1_SensingCSD_LL.c ****         /* Select CMOD and Csh_tank/shield initialization switch resistance */
 687:Generated_Source\PSoC4/CapSense_1_SensingCSD_LL.c ****         CY_SET_REG32(CapSense_1_SW_RES_PTR, 0x00000000);
 688:Generated_Source\PSoC4/CapSense_1_SensingCSD_LL.c **** 
 689:Generated_Source\PSoC4/CapSense_1_SensingCSD_LL.c ****         /* Set the number of dummy fine initialization cycles */
 690:Generated_Source\PSoC4/CapSense_1_SensingCSD_LL.c ****         CY_SET_REG32(CapSense_1_SEQ_INIT_CNT_PTR, CapSense_1_CSD_FINE_INIT_TIME);
 691:Generated_Source\PSoC4/CapSense_1_SensingCSD_LL.c **** 
 692:Generated_Source\PSoC4/CapSense_1_SensingCSD_LL.c ****     #else
 693:Generated_Source\PSoC4/CapSense_1_SensingCSD_LL.c **** 
 694:Generated_Source\PSoC4/CapSense_1_SensingCSD_LL.c ****         /* Configure IDACs mode */
 695:Generated_Source\PSoC4/CapSense_1_SensingCSD_LL.c ****         CapSense_1_SsCSDConfigIDACs();
 696:Generated_Source\PSoC4/CapSense_1_SensingCSD_LL.c **** 
ARM GAS  C:\Users\exp32\AppData\Local\Temp\ccC3r0JH.s 			page 16


 697:Generated_Source\PSoC4/CapSense_1_SensingCSD_LL.c ****         /* Connect Cmod to AMUXBUS-A using HSIOM registers */
 698:Generated_Source\PSoC4/CapSense_1_SensingCSD_LL.c ****         CapSense_1_WriteBitsSafe(CapSense_1_CMOD_HSIOM_PTR, CapSense_1_CMOD_HSIOM_MASK,
 699:Generated_Source\PSoC4/CapSense_1_SensingCSD_LL.c ****                     (uint32)(CapSense_1_HSIOM_SEL_AMUXA << CapSense_1_CMOD_HSIOM_SHIFT));
 700:Generated_Source\PSoC4/CapSense_1_SensingCSD_LL.c **** 
 701:Generated_Source\PSoC4/CapSense_1_SensingCSD_LL.c ****         #if (CapSense_1_ENABLE == CapSense_1_CSD_SHIELD_EN)
 702:Generated_Source\PSoC4/CapSense_1_SensingCSD_LL.c ****             CapSense_1_SsSetShieldDelay(CapSense_1_CSD_SHIELD_DELAY);
 703:Generated_Source\PSoC4/CapSense_1_SensingCSD_LL.c ****         #endif /* (CapSense_1_ENABLE == CapSense_1_CSD_SHIELD_EN) */
 704:Generated_Source\PSoC4/CapSense_1_SensingCSD_LL.c **** 
 705:Generated_Source\PSoC4/CapSense_1_SensingCSD_LL.c ****         /* Enable CSD block. Connect Vref Buffer to AMUX bus to make sure that Cmod is charged befo
 706:Generated_Source\PSoC4/CapSense_1_SensingCSD_LL.c ****         #if (CapSense_1_ENABLE == CapSense_1_BLOCK_OFF_AFTER_SCAN_EN)
 707:Generated_Source\PSoC4/CapSense_1_SensingCSD_LL.c ****             CY_SET_REG32(CapSense_1_CONFIG_PTR, CapSense_1_configCsd);
 708:Generated_Source\PSoC4/CapSense_1_SensingCSD_LL.c ****         #else
 709:Generated_Source\PSoC4/CapSense_1_SensingCSD_LL.c ****             CY_SET_REG32(CapSense_1_CONFIG_PTR, CapSense_1_configCsd | CapSense_1_CTANK_PRECHARGE_C
 710:Generated_Source\PSoC4/CapSense_1_SensingCSD_LL.c ****         #endif
 711:Generated_Source\PSoC4/CapSense_1_SensingCSD_LL.c ****     #endif /* (CapSense_1_ENABLE == CapSense_1_CSDV2) */
 712:Generated_Source\PSoC4/CapSense_1_SensingCSD_LL.c **** 
 713:Generated_Source\PSoC4/CapSense_1_SensingCSD_LL.c ****     #if ((CapSense_1_ENABLE == CapSense_1_CSD_COMMON_SNS_CLK_EN) &&\
 714:Generated_Source\PSoC4/CapSense_1_SensingCSD_LL.c ****          (CapSense_1_CLK_SOURCE_DIRECT == CapSense_1_CSD_SNS_CLK_SOURCE))
 715:Generated_Source\PSoC4/CapSense_1_SensingCSD_LL.c ****          /* Set clock dividers and clock source mode */
 716:Generated_Source\PSoC4/CapSense_1_SensingCSD_LL.c ****         CapSense_1_SsCSDConfigClock();
 717:Generated_Source\PSoC4/CapSense_1_SensingCSD_LL.c ****     #endif
 718:Generated_Source\PSoC4/CapSense_1_SensingCSD_LL.c **** }
 719:Generated_Source\PSoC4/CapSense_1_SensingCSD_LL.c **** 
 720:Generated_Source\PSoC4/CapSense_1_SensingCSD_LL.c **** 
 721:Generated_Source\PSoC4/CapSense_1_SensingCSD_LL.c **** /*******************************************************************************
 722:Generated_Source\PSoC4/CapSense_1_SensingCSD_LL.c **** * Function Name: CapSense_1_SsCSDElectrodeCheck
 723:Generated_Source\PSoC4/CapSense_1_SensingCSD_LL.c **** ****************************************************************************//**
 724:Generated_Source\PSoC4/CapSense_1_SensingCSD_LL.c **** *
 725:Generated_Source\PSoC4/CapSense_1_SensingCSD_LL.c **** * \brief
 726:Generated_Source\PSoC4/CapSense_1_SensingCSD_LL.c **** *   Checks if electrodes were previously connected using
 727:Generated_Source\PSoC4/CapSense_1_SensingCSD_LL.c ****  * CapSense_1_CSDSetupWidgetExt() API and if yes disconnects them.
 728:Generated_Source\PSoC4/CapSense_1_SensingCSD_LL.c **** *
 729:Generated_Source\PSoC4/CapSense_1_SensingCSD_LL.c **** * \details
 730:Generated_Source\PSoC4/CapSense_1_SensingCSD_LL.c **** *   This function checks if CapSense_1_eleCsdDisconnectFlag is set.
 731:Generated_Source\PSoC4/CapSense_1_SensingCSD_LL.c **** *   If it set, the function disconnects the previously connected electrode.
 732:Generated_Source\PSoC4/CapSense_1_SensingCSD_LL.c **** *   The previous IO is contained in CapSense_1_curSnsIOPtr and
 733:Generated_Source\PSoC4/CapSense_1_SensingCSD_LL.c **** *   CapSense_1_curFlashSnsPtr contains the previous data for Ganged
 734:Generated_Source\PSoC4/CapSense_1_SensingCSD_LL.c **** *   sensors.
 735:Generated_Source\PSoC4/CapSense_1_SensingCSD_LL.c **** *
 736:Generated_Source\PSoC4/CapSense_1_SensingCSD_LL.c **** *******************************************************************************/
 737:Generated_Source\PSoC4/CapSense_1_SensingCSD_LL.c **** void CapSense_1_SsCSDElectrodeCheck(void)
 738:Generated_Source\PSoC4/CapSense_1_SensingCSD_LL.c **** {
 739:Generated_Source\PSoC4/CapSense_1_SensingCSD_LL.c ****     #if (CapSense_1_ENABLE == CapSense_1_CSD_GANGED_SNS_EN)
 740:Generated_Source\PSoC4/CapSense_1_SensingCSD_LL.c ****         uint32 tempVal;
 741:Generated_Source\PSoC4/CapSense_1_SensingCSD_LL.c ****     #endif /* (CapSense_1_ENABLE == CapSense_1_CSD_GANGED_SNS_EN) */
 742:Generated_Source\PSoC4/CapSense_1_SensingCSD_LL.c **** 
 743:Generated_Source\PSoC4/CapSense_1_SensingCSD_LL.c ****     if (CapSense_1_ENABLE == CapSense_1_eleCsdDisconnectFlag)
 744:Generated_Source\PSoC4/CapSense_1_SensingCSD_LL.c ****     {
 745:Generated_Source\PSoC4/CapSense_1_SensingCSD_LL.c ****         /* Disconnect if electrodes were previous connected by CSDSetupWidgetExt() API */
 746:Generated_Source\PSoC4/CapSense_1_SensingCSD_LL.c ****         #if (CapSense_1_ENABLE == CapSense_1_CSD_GANGED_SNS_EN)
 747:Generated_Source\PSoC4/CapSense_1_SensingCSD_LL.c ****             /* Check ganged sns flag  */
 748:Generated_Source\PSoC4/CapSense_1_SensingCSD_LL.c ****             if (CapSense_1_GANGED_SNS_MASK == (CapSense_1_curFlashWdgtPtr->staticConfig & CapSense_
 749:Generated_Source\PSoC4/CapSense_1_SensingCSD_LL.c ****             {
 750:Generated_Source\PSoC4/CapSense_1_SensingCSD_LL.c ****                 /* Get number of ganged pins */
 751:Generated_Source\PSoC4/CapSense_1_SensingCSD_LL.c ****                 tempVal = CapSense_1_curFlashSnsPtr->numPins;
 752:Generated_Source\PSoC4/CapSense_1_SensingCSD_LL.c **** 
 753:Generated_Source\PSoC4/CapSense_1_SensingCSD_LL.c ****                 /* Get IO pointer  */
ARM GAS  C:\Users\exp32\AppData\Local\Temp\ccC3r0JH.s 			page 17


 754:Generated_Source\PSoC4/CapSense_1_SensingCSD_LL.c ****                 CapSense_1_curSnsIOPtr = &CapSense_1_ioList[CapSense_1_curFlashSnsPtr->firstPinId];
 755:Generated_Source\PSoC4/CapSense_1_SensingCSD_LL.c **** 
 756:Generated_Source\PSoC4/CapSense_1_SensingCSD_LL.c ****                 /* Disconnect all ganged sensors */
 757:Generated_Source\PSoC4/CapSense_1_SensingCSD_LL.c ****                 do
 758:Generated_Source\PSoC4/CapSense_1_SensingCSD_LL.c ****                 {
 759:Generated_Source\PSoC4/CapSense_1_SensingCSD_LL.c ****                     CapSense_1_CSDDisconnectSns(CapSense_1_curSnsIOPtr);
 760:Generated_Source\PSoC4/CapSense_1_SensingCSD_LL.c ****                     CapSense_1_curSnsIOPtr++;
 761:Generated_Source\PSoC4/CapSense_1_SensingCSD_LL.c ****                     tempVal--;
 762:Generated_Source\PSoC4/CapSense_1_SensingCSD_LL.c ****                 } while (0u != tempVal);
 763:Generated_Source\PSoC4/CapSense_1_SensingCSD_LL.c ****             }
 764:Generated_Source\PSoC4/CapSense_1_SensingCSD_LL.c ****             else
 765:Generated_Source\PSoC4/CapSense_1_SensingCSD_LL.c ****             {
 766:Generated_Source\PSoC4/CapSense_1_SensingCSD_LL.c ****                 /* Disconnect ganged sensor */
 767:Generated_Source\PSoC4/CapSense_1_SensingCSD_LL.c ****                 CapSense_1_CSDDisconnectSns(CapSense_1_curSnsIOPtr);
 768:Generated_Source\PSoC4/CapSense_1_SensingCSD_LL.c ****             }
 769:Generated_Source\PSoC4/CapSense_1_SensingCSD_LL.c ****         #else
 770:Generated_Source\PSoC4/CapSense_1_SensingCSD_LL.c ****             /* Disable sensor */
 771:Generated_Source\PSoC4/CapSense_1_SensingCSD_LL.c ****             CapSense_1_CSDDisconnectSns(CapSense_1_curSnsIOPtr);
 772:Generated_Source\PSoC4/CapSense_1_SensingCSD_LL.c ****         #endif /* (CapSense_1_ENABLE == CapSense_1_CSD_GANGED_SNS_EN)  */
 773:Generated_Source\PSoC4/CapSense_1_SensingCSD_LL.c **** 
 774:Generated_Source\PSoC4/CapSense_1_SensingCSD_LL.c ****         CapSense_1_eleCsdDisconnectFlag = 0u;
 775:Generated_Source\PSoC4/CapSense_1_SensingCSD_LL.c ****     }
 776:Generated_Source\PSoC4/CapSense_1_SensingCSD_LL.c **** }
 777:Generated_Source\PSoC4/CapSense_1_SensingCSD_LL.c **** 
 778:Generated_Source\PSoC4/CapSense_1_SensingCSD_LL.c **** 
 779:Generated_Source\PSoC4/CapSense_1_SensingCSD_LL.c **** /*******************************************************************************
 780:Generated_Source\PSoC4/CapSense_1_SensingCSD_LL.c **** * Function Name: CapSense_1_SsCSDSetUpIdacs
 781:Generated_Source\PSoC4/CapSense_1_SensingCSD_LL.c **** ****************************************************************************//**
 782:Generated_Source\PSoC4/CapSense_1_SensingCSD_LL.c **** *
 783:Generated_Source\PSoC4/CapSense_1_SensingCSD_LL.c **** * \brief
 784:Generated_Source\PSoC4/CapSense_1_SensingCSD_LL.c **** *  This internal function changes the IDACs values.
 785:Generated_Source\PSoC4/CapSense_1_SensingCSD_LL.c **** *
 786:Generated_Source\PSoC4/CapSense_1_SensingCSD_LL.c **** * \details
 787:Generated_Source\PSoC4/CapSense_1_SensingCSD_LL.c **** *  If Compensation IDAC is enabled, it updates two IDACs.
 788:Generated_Source\PSoC4/CapSense_1_SensingCSD_LL.c **** *  The Modulator IDAC is common for all the sensors of the widget.
 789:Generated_Source\PSoC4/CapSense_1_SensingCSD_LL.c **** *  The Compensation IDAC is updated for the sensor of the widget which
 790:Generated_Source\PSoC4/CapSense_1_SensingCSD_LL.c **** *  is available in the RAM_SNS_STRUCT structure.
 791:Generated_Source\PSoC4/CapSense_1_SensingCSD_LL.c **** *  If the Compensation IDAC is disabled, the function updates the Modulator IDAC
 792:Generated_Source\PSoC4/CapSense_1_SensingCSD_LL.c **** *  value only in the RAM_WD_BASE_STRUCT structure.
 793:Generated_Source\PSoC4/CapSense_1_SensingCSD_LL.c **** *
 794:Generated_Source\PSoC4/CapSense_1_SensingCSD_LL.c **** * \param
 795:Generated_Source\PSoC4/CapSense_1_SensingCSD_LL.c **** *  ptrWdgt The pointer to the RAM_WD_BASE_STRUCT structure.
 796:Generated_Source\PSoC4/CapSense_1_SensingCSD_LL.c **** *
 797:Generated_Source\PSoC4/CapSense_1_SensingCSD_LL.c **** *******************************************************************************/
 798:Generated_Source\PSoC4/CapSense_1_SensingCSD_LL.c **** void CapSense_1_SsCSDSetUpIdacs(CapSense_1_RAM_WD_BASE_STRUCT const *ptrWdgt)
 799:Generated_Source\PSoC4/CapSense_1_SensingCSD_LL.c **** {
 800:Generated_Source\PSoC4/CapSense_1_SensingCSD_LL.c ****     uint8 interruptState;
 801:Generated_Source\PSoC4/CapSense_1_SensingCSD_LL.c ****     uint32 idacGain;
 802:Generated_Source\PSoC4/CapSense_1_SensingCSD_LL.c **** 
 803:Generated_Source\PSoC4/CapSense_1_SensingCSD_LL.c ****     /* Getting IDAC gain */
 804:Generated_Source\PSoC4/CapSense_1_SensingCSD_LL.c ****     idacGain = CapSense_1_idacGainTable[ptrWdgt->idacGainIndex].gainReg;
 805:Generated_Source\PSoC4/CapSense_1_SensingCSD_LL.c **** 
 806:Generated_Source\PSoC4/CapSense_1_SensingCSD_LL.c ****     #if (CapSense_1_ENABLE == CapSense_1_CSDV2)
 807:Generated_Source\PSoC4/CapSense_1_SensingCSD_LL.c ****         uint32 idacARegValue;
 808:Generated_Source\PSoC4/CapSense_1_SensingCSD_LL.c ****         #if (CapSense_1_ENABLE == CapSense_1_CSD_IDAC_COMP_EN)
 809:Generated_Source\PSoC4/CapSense_1_SensingCSD_LL.c ****             uint32 idacBRegValue;
 810:Generated_Source\PSoC4/CapSense_1_SensingCSD_LL.c ****         #endif /* (CapSense_1_ENABLE == CapSense_1_CSD_IDAC_COMP_EN) */
ARM GAS  C:\Users\exp32\AppData\Local\Temp\ccC3r0JH.s 			page 18


 811:Generated_Source\PSoC4/CapSense_1_SensingCSD_LL.c **** 
 812:Generated_Source\PSoC4/CapSense_1_SensingCSD_LL.c ****         interruptState = CyEnterCriticalSection();
 813:Generated_Source\PSoC4/CapSense_1_SensingCSD_LL.c **** 
 814:Generated_Source\PSoC4/CapSense_1_SensingCSD_LL.c ****         /* Get IDACA Value */
 815:Generated_Source\PSoC4/CapSense_1_SensingCSD_LL.c ****         idacARegValue = CY_GET_REG32(CapSense_1_CSD_IDACA_PTR);
 816:Generated_Source\PSoC4/CapSense_1_SensingCSD_LL.c **** 
 817:Generated_Source\PSoC4/CapSense_1_SensingCSD_LL.c ****         /* Clear IDACA value and gain */
 818:Generated_Source\PSoC4/CapSense_1_SensingCSD_LL.c ****         idacARegValue &= ~(CapSense_1_IDAC_MOD_VAL_MASK | CapSense_1_IDAC_GAIN_MASK);
 819:Generated_Source\PSoC4/CapSense_1_SensingCSD_LL.c **** 
 820:Generated_Source\PSoC4/CapSense_1_SensingCSD_LL.c ****         /* Set IDACA value gain */
 821:Generated_Source\PSoC4/CapSense_1_SensingCSD_LL.c ****         #if (CapSense_1_CSD_MATRIX_WIDGET_EN || CapSense_1_CSD_TOUCHPAD_WIDGET_EN)
 822:Generated_Source\PSoC4/CapSense_1_SensingCSD_LL.c ****             if (CapSense_1_dsFlash.wdgtArray[(CapSense_1_widgetIndex)].numCols <= CapSense_1_sensor
 823:Generated_Source\PSoC4/CapSense_1_SensingCSD_LL.c ****             {
 824:Generated_Source\PSoC4/CapSense_1_SensingCSD_LL.c ****                 idacARegValue |= (uint32)ptrWdgt->rowIdacMod[CapSense_1_scanFreqIndex];
 825:Generated_Source\PSoC4/CapSense_1_SensingCSD_LL.c ****             }
 826:Generated_Source\PSoC4/CapSense_1_SensingCSD_LL.c ****             else
 827:Generated_Source\PSoC4/CapSense_1_SensingCSD_LL.c ****             {
 828:Generated_Source\PSoC4/CapSense_1_SensingCSD_LL.c ****                 idacARegValue |= (uint32)ptrWdgt->idacMod[CapSense_1_scanFreqIndex];
 829:Generated_Source\PSoC4/CapSense_1_SensingCSD_LL.c ****             }
 830:Generated_Source\PSoC4/CapSense_1_SensingCSD_LL.c ****         #else
 831:Generated_Source\PSoC4/CapSense_1_SensingCSD_LL.c ****             idacARegValue |= (uint32)ptrWdgt->idacMod[CapSense_1_scanFreqIndex];
 832:Generated_Source\PSoC4/CapSense_1_SensingCSD_LL.c ****         #endif /* (CapSense_1_CSD_MATRIX_WIDGET_EN | CapSense_1_CSD_TOUCHPAD_WIDGET_EN) */
 833:Generated_Source\PSoC4/CapSense_1_SensingCSD_LL.c ****         idacARegValue |= idacGain;
 834:Generated_Source\PSoC4/CapSense_1_SensingCSD_LL.c **** 
 835:Generated_Source\PSoC4/CapSense_1_SensingCSD_LL.c ****         /* Update IDACA register with new value */
 836:Generated_Source\PSoC4/CapSense_1_SensingCSD_LL.c ****         CY_SET_REG32(CapSense_1_CSD_IDACA_PTR, idacARegValue);
 837:Generated_Source\PSoC4/CapSense_1_SensingCSD_LL.c ****         CyExitCriticalSection(interruptState);
 838:Generated_Source\PSoC4/CapSense_1_SensingCSD_LL.c **** 
 839:Generated_Source\PSoC4/CapSense_1_SensingCSD_LL.c ****         #if (CapSense_1_ENABLE == CapSense_1_CSD_IDAC_COMP_EN)
 840:Generated_Source\PSoC4/CapSense_1_SensingCSD_LL.c ****             interruptState = CyEnterCriticalSection();
 841:Generated_Source\PSoC4/CapSense_1_SensingCSD_LL.c ****             /* Get IDACB Value */
 842:Generated_Source\PSoC4/CapSense_1_SensingCSD_LL.c ****             idacBRegValue = CY_GET_REG32(CapSense_1_CSD_IDACB_PTR);
 843:Generated_Source\PSoC4/CapSense_1_SensingCSD_LL.c **** 
 844:Generated_Source\PSoC4/CapSense_1_SensingCSD_LL.c ****             /* Clear IDACB value and gain */
 845:Generated_Source\PSoC4/CapSense_1_SensingCSD_LL.c ****             idacBRegValue &= ~(CapSense_1_IDAC_COMP_VAL_MASK | CapSense_1_IDAC_GAIN_MASK);
 846:Generated_Source\PSoC4/CapSense_1_SensingCSD_LL.c **** 
 847:Generated_Source\PSoC4/CapSense_1_SensingCSD_LL.c ****             /* Set IDACB value and gain */
 848:Generated_Source\PSoC4/CapSense_1_SensingCSD_LL.c ****             idacBRegValue |= (uint32)CapSense_1_curRamSnsPtr->idacComp[CapSense_1_scanFreqIndex];
 849:Generated_Source\PSoC4/CapSense_1_SensingCSD_LL.c ****             idacBRegValue |= idacGain;
 850:Generated_Source\PSoC4/CapSense_1_SensingCSD_LL.c **** 
 851:Generated_Source\PSoC4/CapSense_1_SensingCSD_LL.c ****             /* Update IDACA register with new value */
 852:Generated_Source\PSoC4/CapSense_1_SensingCSD_LL.c ****             CY_SET_REG32(CapSense_1_CSD_IDACB_PTR, idacBRegValue);
 853:Generated_Source\PSoC4/CapSense_1_SensingCSD_LL.c ****             CyExitCriticalSection(interruptState);
 854:Generated_Source\PSoC4/CapSense_1_SensingCSD_LL.c ****         #endif /* (CapSense_1_ENABLE == CapSense_1_CSD_IDAC_COMP_EN) */
 855:Generated_Source\PSoC4/CapSense_1_SensingCSD_LL.c **** 
 856:Generated_Source\PSoC4/CapSense_1_SensingCSD_LL.c ****     #else
 857:Generated_Source\PSoC4/CapSense_1_SensingCSD_LL.c **** 
 858:Generated_Source\PSoC4/CapSense_1_SensingCSD_LL.c ****         uint32 newRegValue;
 859:Generated_Source\PSoC4/CapSense_1_SensingCSD_LL.c ****         uint8 const *ptrIdacMod = ptrWdgt->idacMod;
 860:Generated_Source\PSoC4/CapSense_1_SensingCSD_LL.c **** 
 861:Generated_Source\PSoC4/CapSense_1_SensingCSD_LL.c ****         #if (CapSense_1_CSD_MATRIX_WIDGET_EN  | CapSense_1_CSD_TOUCHPAD_WIDGET_EN)
 862:Generated_Source\PSoC4/CapSense_1_SensingCSD_LL.c ****             if (CapSense_1_dsFlash.wdgtArray[(CapSense_1_widgetIndex)].numCols <= CapSense_1_sensor
 863:Generated_Source\PSoC4/CapSense_1_SensingCSD_LL.c ****             {
 864:Generated_Source\PSoC4/CapSense_1_SensingCSD_LL.c ****                 ptrIdacMod = &ptrWdgt->rowIdacMod[0u];
 865:Generated_Source\PSoC4/CapSense_1_SensingCSD_LL.c ****             }
 866:Generated_Source\PSoC4/CapSense_1_SensingCSD_LL.c ****         #endif /* (CapSense_1_CSD_MATRIX_WIDGET_EN  | CapSense_1_CSD_TOUCHPAD_WIDGET_EN) */
 867:Generated_Source\PSoC4/CapSense_1_SensingCSD_LL.c **** 
ARM GAS  C:\Users\exp32\AppData\Local\Temp\ccC3r0JH.s 			page 19


 868:Generated_Source\PSoC4/CapSense_1_SensingCSD_LL.c ****         interruptState = CyEnterCriticalSection();
 869:Generated_Source\PSoC4/CapSense_1_SensingCSD_LL.c **** 
 870:Generated_Source\PSoC4/CapSense_1_SensingCSD_LL.c ****         /* Get Idac Value */
 871:Generated_Source\PSoC4/CapSense_1_SensingCSD_LL.c ****         newRegValue = CY_GET_REG32(CapSense_1_IDAC_PTR);
 872:Generated_Source\PSoC4/CapSense_1_SensingCSD_LL.c **** 
 873:Generated_Source\PSoC4/CapSense_1_SensingCSD_LL.c ****         /* Clear Idac value and gain */
 874:Generated_Source\PSoC4/CapSense_1_SensingCSD_LL.c ****         #if (CapSense_1_ENABLE == CapSense_1_CSD_IDAC_COMP_EN)
 875:Generated_Source\PSoC4/CapSense_1_SensingCSD_LL.c ****             newRegValue &= ~(CapSense_1_IDAC_MOD_MASK | CapSense_1_IDAC_COMP_MASK |
 876:Generated_Source\PSoC4/CapSense_1_SensingCSD_LL.c ****                 CapSense_1_IDAC_GAIN_MASK | (CapSense_1_IDAC_GAIN_MASK << CapSense_1_IDAC_COMP_DATA
 877:Generated_Source\PSoC4/CapSense_1_SensingCSD_LL.c ****         #else
 878:Generated_Source\PSoC4/CapSense_1_SensingCSD_LL.c ****             newRegValue &= ~(CapSense_1_IDAC_MOD_MASK | CapSense_1_IDAC_GAIN_MASK);
 879:Generated_Source\PSoC4/CapSense_1_SensingCSD_LL.c ****         #endif /* (CapSense_1_ENABLE == CapSense_1_CSD_IDAC_COMP_EN) */
 880:Generated_Source\PSoC4/CapSense_1_SensingCSD_LL.c **** 
 881:Generated_Source\PSoC4/CapSense_1_SensingCSD_LL.c ****         /* Set Idac value and gain */
 882:Generated_Source\PSoC4/CapSense_1_SensingCSD_LL.c ****         #if (CapSense_1_ENABLE == CapSense_1_CSD_IDAC_COMP_EN)
 883:Generated_Source\PSoC4/CapSense_1_SensingCSD_LL.c ****             newRegValue |= (ptrIdacMod[CapSense_1_scanFreqIndex] |
 884:Generated_Source\PSoC4/CapSense_1_SensingCSD_LL.c ****                            (uint32)((uint32)CapSense_1_curRamSnsPtr->idacComp[CapSense_1_scanFreqIn
 885:Generated_Source\PSoC4/CapSense_1_SensingCSD_LL.c ****                            CapSense_1_IDAC_COMP_DATA_OFFSET));
 886:Generated_Source\PSoC4/CapSense_1_SensingCSD_LL.c ****             newRegValue |= idacGain;
 887:Generated_Source\PSoC4/CapSense_1_SensingCSD_LL.c ****             newRegValue |= (idacGain << CapSense_1_IDAC_COMP_DATA_OFFSET);
 888:Generated_Source\PSoC4/CapSense_1_SensingCSD_LL.c ****         #else
 889:Generated_Source\PSoC4/CapSense_1_SensingCSD_LL.c ****             newRegValue |= ptrIdacMod[CapSense_1_scanFreqIndex];
 890:Generated_Source\PSoC4/CapSense_1_SensingCSD_LL.c ****             newRegValue |= idacGain;
 891:Generated_Source\PSoC4/CapSense_1_SensingCSD_LL.c ****         #endif /* (CapSense_1_ENABLE == CapSense_1_CSD_IDAC_COMP_EN) */
 892:Generated_Source\PSoC4/CapSense_1_SensingCSD_LL.c ****         CY_SET_REG32(CapSense_1_IDAC_PTR, newRegValue);
 893:Generated_Source\PSoC4/CapSense_1_SensingCSD_LL.c **** 
 894:Generated_Source\PSoC4/CapSense_1_SensingCSD_LL.c ****         CyExitCriticalSection(interruptState);
 895:Generated_Source\PSoC4/CapSense_1_SensingCSD_LL.c **** 
 896:Generated_Source\PSoC4/CapSense_1_SensingCSD_LL.c ****     #endif /* (CapSense_1_ENABLE == CapSense_1_CSDV2) */
 897:Generated_Source\PSoC4/CapSense_1_SensingCSD_LL.c **** }
 898:Generated_Source\PSoC4/CapSense_1_SensingCSD_LL.c **** 
 899:Generated_Source\PSoC4/CapSense_1_SensingCSD_LL.c **** 
 900:Generated_Source\PSoC4/CapSense_1_SensingCSD_LL.c **** #if (CapSense_1_ENABLE == CapSense_1_CSDV2)
 901:Generated_Source\PSoC4/CapSense_1_SensingCSD_LL.c ****     /*******************************************************************************
 902:Generated_Source\PSoC4/CapSense_1_SensingCSD_LL.c ****     * Function Name: CapSense_1_SsCSDGetNumberOfConversions
 903:Generated_Source\PSoC4/CapSense_1_SensingCSD_LL.c ****     ****************************************************************************//**
 904:Generated_Source\PSoC4/CapSense_1_SensingCSD_LL.c ****     *
 905:Generated_Source\PSoC4/CapSense_1_SensingCSD_LL.c ****     * \brief
 906:Generated_Source\PSoC4/CapSense_1_SensingCSD_LL.c ****     *  This function gets Number of conversions.
 907:Generated_Source\PSoC4/CapSense_1_SensingCSD_LL.c ****     *
 908:Generated_Source\PSoC4/CapSense_1_SensingCSD_LL.c ****     * \details
 909:Generated_Source\PSoC4/CapSense_1_SensingCSD_LL.c ****     *  This function gets Number of conversions using foll.owing equation:
 910:Generated_Source\PSoC4/CapSense_1_SensingCSD_LL.c ****     *   conversionsNum = (2^resolution - 1) / snsClkDivider.
 911:Generated_Source\PSoC4/CapSense_1_SensingCSD_LL.c ****     *
 912:Generated_Source\PSoC4/CapSense_1_SensingCSD_LL.c ****     * \param
 913:Generated_Source\PSoC4/CapSense_1_SensingCSD_LL.c ****     *  snsClkDivider The divider value for the sense clock.
 914:Generated_Source\PSoC4/CapSense_1_SensingCSD_LL.c ****     *  resolution The widget resolution.
 915:Generated_Source\PSoC4/CapSense_1_SensingCSD_LL.c ****     *  snsClkSrc The current Sense Clock Source.
 916:Generated_Source\PSoC4/CapSense_1_SensingCSD_LL.c ****     *
 917:Generated_Source\PSoC4/CapSense_1_SensingCSD_LL.c ****     * \return Returns the Number of conversions.
 918:Generated_Source\PSoC4/CapSense_1_SensingCSD_LL.c ****     *
 919:Generated_Source\PSoC4/CapSense_1_SensingCSD_LL.c ****     *******************************************************************************/
 920:Generated_Source\PSoC4/CapSense_1_SensingCSD_LL.c ****     uint32 CapSense_1_SsCSDGetNumberOfConversions(uint32 snsClkDivider, uint32 resolution, uint32 s
 921:Generated_Source\PSoC4/CapSense_1_SensingCSD_LL.c ****     {
 922:Generated_Source\PSoC4/CapSense_1_SensingCSD_LL.c ****         uint32 conversionsNum;
 923:Generated_Source\PSoC4/CapSense_1_SensingCSD_LL.c ****         #if ((CapSense_1_MOD_CSD_CLK_12MHZ < CYDEV_BCLK__HFCLK__HZ) && (CapSense_1_ENABLE != CapSen
 924:Generated_Source\PSoC4/CapSense_1_SensingCSD_LL.c ****             uint32 sampleClkFreqHz;
ARM GAS  C:\Users\exp32\AppData\Local\Temp\ccC3r0JH.s 			page 20


 925:Generated_Source\PSoC4/CapSense_1_SensingCSD_LL.c ****         #endif /* ((CapSense_1_MOD_CSD_CLK_12MHZ < CYDEV_BCLK__HFCLK__HZ) && (CapSense_1_ENABLE != 
 926:Generated_Source\PSoC4/CapSense_1_SensingCSD_LL.c **** 
 927:Generated_Source\PSoC4/CapSense_1_SensingCSD_LL.c ****         /* Calculate scanning resolution value in register */
 928:Generated_Source\PSoC4/CapSense_1_SensingCSD_LL.c ****         conversionsNum = (uint32)(1uL << resolution);
 929:Generated_Source\PSoC4/CapSense_1_SensingCSD_LL.c **** 
 930:Generated_Source\PSoC4/CapSense_1_SensingCSD_LL.c ****         #if(CapSense_1_ENABLE != CapSense_1_CSDV2_REF9P6UA_EN)
 931:Generated_Source\PSoC4/CapSense_1_SensingCSD_LL.c ****             /* Apply correction to oveflow for 16 bit resolution */
 932:Generated_Source\PSoC4/CapSense_1_SensingCSD_LL.c ****             if (CapSense_1_RES16BIT == resolution)
 933:Generated_Source\PSoC4/CapSense_1_SensingCSD_LL.c ****             {
 934:Generated_Source\PSoC4/CapSense_1_SensingCSD_LL.c ****                 conversionsNum -= ((snsClkDivider + 1u) >> 1u);
 935:Generated_Source\PSoC4/CapSense_1_SensingCSD_LL.c **** 
 936:Generated_Source\PSoC4/CapSense_1_SensingCSD_LL.c ****                 #if (CapSense_1_MOD_CSD_CLK_12MHZ < CYDEV_BCLK__HFCLK__HZ)
 937:Generated_Source\PSoC4/CapSense_1_SensingCSD_LL.c ****                     sampleClkFreqHz = CYDEV_BCLK__HFCLK__HZ / (uint32)CapSense_1_dsRam.modCsdClk;
 938:Generated_Source\PSoC4/CapSense_1_SensingCSD_LL.c **** 
 939:Generated_Source\PSoC4/CapSense_1_SensingCSD_LL.c ****                     if (sampleClkFreqHz <= CapSense_1_MOD_CSD_CLK_12MHZ)
 940:Generated_Source\PSoC4/CapSense_1_SensingCSD_LL.c ****                     {
 941:Generated_Source\PSoC4/CapSense_1_SensingCSD_LL.c ****                         conversionsNum -= CapSense_1_CONFIG_FILTER_DELAY_2_CYCLES;
 942:Generated_Source\PSoC4/CapSense_1_SensingCSD_LL.c ****                     }
 943:Generated_Source\PSoC4/CapSense_1_SensingCSD_LL.c ****                     else if (sampleClkFreqHz <= CapSense_1_MOD_CSD_CLK_24MHZ)
 944:Generated_Source\PSoC4/CapSense_1_SensingCSD_LL.c ****                     {
 945:Generated_Source\PSoC4/CapSense_1_SensingCSD_LL.c ****                         conversionsNum -= CapSense_1_CONFIG_FILTER_DELAY_3_CYCLES;
 946:Generated_Source\PSoC4/CapSense_1_SensingCSD_LL.c ****                     }
 947:Generated_Source\PSoC4/CapSense_1_SensingCSD_LL.c ****                     else
 948:Generated_Source\PSoC4/CapSense_1_SensingCSD_LL.c ****                     {
 949:Generated_Source\PSoC4/CapSense_1_SensingCSD_LL.c ****                         conversionsNum -= CapSense_1_CONFIG_FILTER_DELAY_4_CYCLES;
 950:Generated_Source\PSoC4/CapSense_1_SensingCSD_LL.c ****                     }
 951:Generated_Source\PSoC4/CapSense_1_SensingCSD_LL.c ****                 #else
 952:Generated_Source\PSoC4/CapSense_1_SensingCSD_LL.c ****                     conversionsNum -= CapSense_1_CONFIG_FILTER_DELAY_2_CYCLES;
 953:Generated_Source\PSoC4/CapSense_1_SensingCSD_LL.c ****                 #endif /* (INSTANCE_NAME`_MOD_CSD_CLK_12MHZ < CYDEV_BCLK__HFCLK__HZ) */
 954:Generated_Source\PSoC4/CapSense_1_SensingCSD_LL.c ****             }
 955:Generated_Source\PSoC4/CapSense_1_SensingCSD_LL.c ****         #else
 956:Generated_Source\PSoC4/CapSense_1_SensingCSD_LL.c ****             /* CY_ID285392: Apply correction to oveflow for 16 bit resolution */
 957:Generated_Source\PSoC4/CapSense_1_SensingCSD_LL.c ****             if (CapSense_1_RES16BIT == resolution)
 958:Generated_Source\PSoC4/CapSense_1_SensingCSD_LL.c ****             {
 959:Generated_Source\PSoC4/CapSense_1_SensingCSD_LL.c ****                 conversionsNum -= CapSense_1_EXTRA_COUNTS_MAX;
 960:Generated_Source\PSoC4/CapSense_1_SensingCSD_LL.c ****             }
 961:Generated_Source\PSoC4/CapSense_1_SensingCSD_LL.c ****         #endif
 962:Generated_Source\PSoC4/CapSense_1_SensingCSD_LL.c **** 
 963:Generated_Source\PSoC4/CapSense_1_SensingCSD_LL.c ****         if (0u < snsClkDivider)
 964:Generated_Source\PSoC4/CapSense_1_SensingCSD_LL.c ****         {
 965:Generated_Source\PSoC4/CapSense_1_SensingCSD_LL.c ****             conversionsNum /= snsClkDivider;
 966:Generated_Source\PSoC4/CapSense_1_SensingCSD_LL.c ****         }
 967:Generated_Source\PSoC4/CapSense_1_SensingCSD_LL.c **** 
 968:Generated_Source\PSoC4/CapSense_1_SensingCSD_LL.c ****     #if((CapSense_1_CLK_SOURCE_PRS8  == CapSense_1_CSD_SNS_CLK_SOURCE) ||\
 969:Generated_Source\PSoC4/CapSense_1_SensingCSD_LL.c ****         (CapSense_1_CLK_SOURCE_PRS12 == CapSense_1_CSD_SNS_CLK_SOURCE) ||\
 970:Generated_Source\PSoC4/CapSense_1_SensingCSD_LL.c ****         (CapSense_1_CLK_SOURCE_PRSAUTO == CapSense_1_CSD_SNS_CLK_SOURCE))
 971:Generated_Source\PSoC4/CapSense_1_SensingCSD_LL.c ****         switch (snsClkSrc)
 972:Generated_Source\PSoC4/CapSense_1_SensingCSD_LL.c ****         {
 973:Generated_Source\PSoC4/CapSense_1_SensingCSD_LL.c ****             case CapSense_1_CLK_SOURCE_PRS8:
 974:Generated_Source\PSoC4/CapSense_1_SensingCSD_LL.c ****             case CapSense_1_CLK_SOURCE_PRS12:
 975:Generated_Source\PSoC4/CapSense_1_SensingCSD_LL.c ****                 /* Divide by 2 for PRS8/PRS12 mode */
 976:Generated_Source\PSoC4/CapSense_1_SensingCSD_LL.c ****                 conversionsNum >>= 1u;
 977:Generated_Source\PSoC4/CapSense_1_SensingCSD_LL.c ****                 break;
 978:Generated_Source\PSoC4/CapSense_1_SensingCSD_LL.c **** 
 979:Generated_Source\PSoC4/CapSense_1_SensingCSD_LL.c ****             default:
 980:Generated_Source\PSoC4/CapSense_1_SensingCSD_LL.c ****                 break;
 981:Generated_Source\PSoC4/CapSense_1_SensingCSD_LL.c ****         }
ARM GAS  C:\Users\exp32\AppData\Local\Temp\ccC3r0JH.s 			page 21


 982:Generated_Source\PSoC4/CapSense_1_SensingCSD_LL.c ****     #else
 983:Generated_Source\PSoC4/CapSense_1_SensingCSD_LL.c ****         (void)snsClkSrc;
 984:Generated_Source\PSoC4/CapSense_1_SensingCSD_LL.c ****     #endif
 985:Generated_Source\PSoC4/CapSense_1_SensingCSD_LL.c **** 
 986:Generated_Source\PSoC4/CapSense_1_SensingCSD_LL.c ****     return((conversionsNum > 0uL) ? (conversionsNum) : 1uL);
 987:Generated_Source\PSoC4/CapSense_1_SensingCSD_LL.c ****     }
 988:Generated_Source\PSoC4/CapSense_1_SensingCSD_LL.c **** #endif /* (CapSense_1_ENABLE == CapSense_1_CSDV2) */
 989:Generated_Source\PSoC4/CapSense_1_SensingCSD_LL.c **** 
 990:Generated_Source\PSoC4/CapSense_1_SensingCSD_LL.c **** 
 991:Generated_Source\PSoC4/CapSense_1_SensingCSD_LL.c **** /*******************************************************************************
 992:Generated_Source\PSoC4/CapSense_1_SensingCSD_LL.c **** * Function Name: CapSense_1_SsCSDConfigClock
 993:Generated_Source\PSoC4/CapSense_1_SensingCSD_LL.c **** ****************************************************************************//**
 994:Generated_Source\PSoC4/CapSense_1_SensingCSD_LL.c **** *
 995:Generated_Source\PSoC4/CapSense_1_SensingCSD_LL.c **** * \brief
 996:Generated_Source\PSoC4/CapSense_1_SensingCSD_LL.c **** *  This function configure sense clock for different modes.
 997:Generated_Source\PSoC4/CapSense_1_SensingCSD_LL.c **** *
 998:Generated_Source\PSoC4/CapSense_1_SensingCSD_LL.c **** * \details
 999:Generated_Source\PSoC4/CapSense_1_SensingCSD_LL.c **** *  Function sets the clock divider and configures the mode based on configuration.
1000:Generated_Source\PSoC4/CapSense_1_SensingCSD_LL.c **** *
1001:Generated_Source\PSoC4/CapSense_1_SensingCSD_LL.c **** *******************************************************************************/
1002:Generated_Source\PSoC4/CapSense_1_SensingCSD_LL.c **** void CapSense_1_SsCSDConfigClock(void)
1003:Generated_Source\PSoC4/CapSense_1_SensingCSD_LL.c **** {
1004:Generated_Source\PSoC4/CapSense_1_SensingCSD_LL.c ****     uint32 snsClkDivider;
1005:Generated_Source\PSoC4/CapSense_1_SensingCSD_LL.c ****     uint32 snsClkSrc;
1006:Generated_Source\PSoC4/CapSense_1_SensingCSD_LL.c ****     uint32 newRegValue;
1007:Generated_Source\PSoC4/CapSense_1_SensingCSD_LL.c **** 
1008:Generated_Source\PSoC4/CapSense_1_SensingCSD_LL.c ****     CapSense_1_RAM_WD_BASE_STRUCT const *ptrWdgt = (CapSense_1_RAM_WD_BASE_STRUCT *)
1009:Generated_Source\PSoC4/CapSense_1_SensingCSD_LL.c ****              CapSense_1_dsFlash.wdgtArray[CapSense_1_widgetIndex].ptr2WdgtRam;
1010:Generated_Source\PSoC4/CapSense_1_SensingCSD_LL.c **** 
1011:Generated_Source\PSoC4/CapSense_1_SensingCSD_LL.c ****     /* Get sense divider based on configuration */
1012:Generated_Source\PSoC4/CapSense_1_SensingCSD_LL.c ****     #if (CapSense_1_ENABLE == CapSense_1_CSD_COMMON_SNS_CLK_EN)
1013:Generated_Source\PSoC4/CapSense_1_SensingCSD_LL.c ****         snsClkDivider = (uint32)CapSense_1_dsRam.snsCsdClk;
1014:Generated_Source\PSoC4/CapSense_1_SensingCSD_LL.c ****     #else
1015:Generated_Source\PSoC4/CapSense_1_SensingCSD_LL.c ****         #if (CapSense_1_CSD_MATRIX_WIDGET_EN || CapSense_1_CSD_TOUCHPAD_WIDGET_EN)
1016:Generated_Source\PSoC4/CapSense_1_SensingCSD_LL.c ****             /* Get SnsClck divider for rows or columns */
1017:Generated_Source\PSoC4/CapSense_1_SensingCSD_LL.c ****             if (CapSense_1_dsFlash.wdgtArray[CapSense_1_widgetIndex].numCols <= CapSense_1_sensorIn
1018:Generated_Source\PSoC4/CapSense_1_SensingCSD_LL.c ****             {
1019:Generated_Source\PSoC4/CapSense_1_SensingCSD_LL.c ****                 snsClkDivider = (uint32)(ptrWdgt->rowSnsClk);
1020:Generated_Source\PSoC4/CapSense_1_SensingCSD_LL.c ****             }
1021:Generated_Source\PSoC4/CapSense_1_SensingCSD_LL.c ****             else
1022:Generated_Source\PSoC4/CapSense_1_SensingCSD_LL.c ****             {
1023:Generated_Source\PSoC4/CapSense_1_SensingCSD_LL.c ****                 snsClkDivider = (uint32)(ptrWdgt->snsClk);
1024:Generated_Source\PSoC4/CapSense_1_SensingCSD_LL.c ****             }
1025:Generated_Source\PSoC4/CapSense_1_SensingCSD_LL.c ****         #else
1026:Generated_Source\PSoC4/CapSense_1_SensingCSD_LL.c ****             snsClkDivider = (uint32)(ptrWdgt->snsClk);
1027:Generated_Source\PSoC4/CapSense_1_SensingCSD_LL.c ****         #endif /* (CapSense_1_CSD_MATRIX_WIDGET_EN || CapSense_1_CSD_TOUCHPAD_WIDGET_EN) */
1028:Generated_Source\PSoC4/CapSense_1_SensingCSD_LL.c ****     #endif /* (CapSense_1_ENABLE == CapSense_1_CSD_COMMON_SNS_CLK_EN) */
1029:Generated_Source\PSoC4/CapSense_1_SensingCSD_LL.c **** 
1030:Generated_Source\PSoC4/CapSense_1_SensingCSD_LL.c ****     /* Get sense clk source calculated in CapSense_1_SsCSDInitialize() before */
1031:Generated_Source\PSoC4/CapSense_1_SensingCSD_LL.c ****     #if (CapSense_1_CSD_MATRIX_WIDGET_EN || CapSense_1_CSD_TOUCHPAD_WIDGET_EN)
1032:Generated_Source\PSoC4/CapSense_1_SensingCSD_LL.c ****         /* Get SnsClc Source for rows or columns */
1033:Generated_Source\PSoC4/CapSense_1_SensingCSD_LL.c ****         if (CapSense_1_dsFlash.wdgtArray[CapSense_1_widgetIndex].numCols <= CapSense_1_sensorIndex)
1034:Generated_Source\PSoC4/CapSense_1_SensingCSD_LL.c ****         {
1035:Generated_Source\PSoC4/CapSense_1_SensingCSD_LL.c ****             snsClkSrc = (uint32)ptrWdgt->rowSnsClkSource;
1036:Generated_Source\PSoC4/CapSense_1_SensingCSD_LL.c ****         }
1037:Generated_Source\PSoC4/CapSense_1_SensingCSD_LL.c ****         else
1038:Generated_Source\PSoC4/CapSense_1_SensingCSD_LL.c ****         {
ARM GAS  C:\Users\exp32\AppData\Local\Temp\ccC3r0JH.s 			page 22


1039:Generated_Source\PSoC4/CapSense_1_SensingCSD_LL.c ****             snsClkSrc = (uint32)ptrWdgt->snsClkSource;
1040:Generated_Source\PSoC4/CapSense_1_SensingCSD_LL.c ****         }
1041:Generated_Source\PSoC4/CapSense_1_SensingCSD_LL.c ****     #else
1042:Generated_Source\PSoC4/CapSense_1_SensingCSD_LL.c ****         snsClkSrc = (uint32)ptrWdgt->snsClkSource;
1043:Generated_Source\PSoC4/CapSense_1_SensingCSD_LL.c ****     #endif /* (CapSense_1_CSD_MATRIX_WIDGET_EN || CapSense_1_CSD_TOUCHPAD_WIDGET_EN) */
1044:Generated_Source\PSoC4/CapSense_1_SensingCSD_LL.c **** 
1045:Generated_Source\PSoC4/CapSense_1_SensingCSD_LL.c ****     #if (CapSense_1_ENABLE == CapSense_1_CSDV2)
1046:Generated_Source\PSoC4/CapSense_1_SensingCSD_LL.c ****         newRegValue = (snsClkSrc << CYFLD_CSD_LFSR_SIZE__OFFSET);
1047:Generated_Source\PSoC4/CapSense_1_SensingCSD_LL.c **** 
1048:Generated_Source\PSoC4/CapSense_1_SensingCSD_LL.c ****         /* Configuring PRS SEL_BIT */
1049:Generated_Source\PSoC4/CapSense_1_SensingCSD_LL.c ****         if ((CapSense_1_CLK_SOURCE_PRS8 == snsClkSrc) ||
1050:Generated_Source\PSoC4/CapSense_1_SensingCSD_LL.c ****             (CapSense_1_CLK_SOURCE_PRS12 == snsClkSrc))
1051:Generated_Source\PSoC4/CapSense_1_SensingCSD_LL.c ****         {
1052:Generated_Source\PSoC4/CapSense_1_SensingCSD_LL.c ****             newRegValue |= CapSense_1_SENSE_PERIOD_SEL_LFSR_MSB_MASK;
1053:Generated_Source\PSoC4/CapSense_1_SensingCSD_LL.c ****         }
1054:Generated_Source\PSoC4/CapSense_1_SensingCSD_LL.c ****     #else
1055:Generated_Source\PSoC4/CapSense_1_SensingCSD_LL.c ****         newRegValue = snsClkSrc;
1056:Generated_Source\PSoC4/CapSense_1_SensingCSD_LL.c ****     #endif /* (CapSense_1_ENABLE == CapSense_1_CSDV2) */
1057:Generated_Source\PSoC4/CapSense_1_SensingCSD_LL.c **** 
1058:Generated_Source\PSoC4/CapSense_1_SensingCSD_LL.c ****     #if (CapSense_1_ENABLE == CapSense_1_CSDV2)
1059:Generated_Source\PSoC4/CapSense_1_SensingCSD_LL.c ****         #if((CapSense_1_CLK_SOURCE_PRS8  == CapSense_1_CSD_SNS_CLK_SOURCE) ||\
1060:Generated_Source\PSoC4/CapSense_1_SensingCSD_LL.c ****             (CapSense_1_CLK_SOURCE_PRS12 == CapSense_1_CSD_SNS_CLK_SOURCE) ||\
1061:Generated_Source\PSoC4/CapSense_1_SensingCSD_LL.c ****             (CapSense_1_CLK_SOURCE_PRSAUTO == CapSense_1_CSD_SNS_CLK_SOURCE))
1062:Generated_Source\PSoC4/CapSense_1_SensingCSD_LL.c ****             switch (snsClkSrc)
1063:Generated_Source\PSoC4/CapSense_1_SensingCSD_LL.c ****             {
1064:Generated_Source\PSoC4/CapSense_1_SensingCSD_LL.c ****             case CapSense_1_CLK_SOURCE_PRS8:
1065:Generated_Source\PSoC4/CapSense_1_SensingCSD_LL.c ****             case CapSense_1_CLK_SOURCE_PRS12:
1066:Generated_Source\PSoC4/CapSense_1_SensingCSD_LL.c ****                 /* Divide by 2 for PRS8/PRS12 mode */
1067:Generated_Source\PSoC4/CapSense_1_SensingCSD_LL.c ****                 snsClkDivider >>= 1;
1068:Generated_Source\PSoC4/CapSense_1_SensingCSD_LL.c ****                 if (snsClkDivider == 0u)
1069:Generated_Source\PSoC4/CapSense_1_SensingCSD_LL.c ****                 {
1070:Generated_Source\PSoC4/CapSense_1_SensingCSD_LL.c ****                     snsClkDivider = 1u;
1071:Generated_Source\PSoC4/CapSense_1_SensingCSD_LL.c ****                 }
1072:Generated_Source\PSoC4/CapSense_1_SensingCSD_LL.c ****                 break;
1073:Generated_Source\PSoC4/CapSense_1_SensingCSD_LL.c **** 
1074:Generated_Source\PSoC4/CapSense_1_SensingCSD_LL.c ****             default:
1075:Generated_Source\PSoC4/CapSense_1_SensingCSD_LL.c ****                 break;
1076:Generated_Source\PSoC4/CapSense_1_SensingCSD_LL.c ****             }
1077:Generated_Source\PSoC4/CapSense_1_SensingCSD_LL.c ****         #endif /* ((CapSense_1_CLK_SOURCE_PRS8  == CapSense_1_CSD_SNS_CLK_SOURCE) ||\
1078:Generated_Source\PSoC4/CapSense_1_SensingCSD_LL.c ****                    (CapSense_1_CLK_SOURCE_PRS12 == CapSense_1_CSD_SNS_CLK_SOURCE) ||\
1079:Generated_Source\PSoC4/CapSense_1_SensingCSD_LL.c ****                    (CapSense_1_CLK_SOURCE_PRSAUTO == CapSense_1_CSD_SNS_CLK_SOURCE)) */
1080:Generated_Source\PSoC4/CapSense_1_SensingCSD_LL.c ****     #endif
1081:Generated_Source\PSoC4/CapSense_1_SensingCSD_LL.c ****     CapSense_1_SsCSDSetModeSnsClockDivider(newRegValue, snsClkDivider);
1082:Generated_Source\PSoC4/CapSense_1_SensingCSD_LL.c **** }
1083:Generated_Source\PSoC4/CapSense_1_SensingCSD_LL.c **** 
1084:Generated_Source\PSoC4/CapSense_1_SensingCSD_LL.c **** 
1085:Generated_Source\PSoC4/CapSense_1_SensingCSD_LL.c **** /*******************************************************************************
1086:Generated_Source\PSoC4/CapSense_1_SensingCSD_LL.c **** * Function Name: CapSense_1_SsCSDCalculateScanDuration
1087:Generated_Source\PSoC4/CapSense_1_SensingCSD_LL.c **** ****************************************************************************//**
1088:Generated_Source\PSoC4/CapSense_1_SensingCSD_LL.c **** *
1089:Generated_Source\PSoC4/CapSense_1_SensingCSD_LL.c **** * \brief
1090:Generated_Source\PSoC4/CapSense_1_SensingCSD_LL.c **** *   Calculates Scan Duration which is defined by scan resolution
1091:Generated_Source\PSoC4/CapSense_1_SensingCSD_LL.c **** *
1092:Generated_Source\PSoC4/CapSense_1_SensingCSD_LL.c **** * \details
1093:Generated_Source\PSoC4/CapSense_1_SensingCSD_LL.c **** *   For Fourth-generation HW block: The function calculates the number of conversions and updates
1094:Generated_Source\PSoC4/CapSense_1_SensingCSD_LL.c **** *   SEQ_NORM_CNT register. The number of conversions depends on resolution and
1095:Generated_Source\PSoC4/CapSense_1_SensingCSD_LL.c **** *   snsClk divider.
ARM GAS  C:\Users\exp32\AppData\Local\Temp\ccC3r0JH.s 			page 23


1096:Generated_Source\PSoC4/CapSense_1_SensingCSD_LL.c **** *   For Third-generation HW block: The function recalculate the resolution using following equation
1097:Generated_Source\PSoC4/CapSense_1_SensingCSD_LL.c **** *   2^resolution - 1. The calculated value is contained in
1098:Generated_Source\PSoC4/CapSense_1_SensingCSD_LL.c **** *   CapSense_1_counterResolution global variable and used in
1099:Generated_Source\PSoC4/CapSense_1_SensingCSD_LL.c **** *   CapSense_1_SsCSDStartSample() function to trigger the scan process.
1100:Generated_Source\PSoC4/CapSense_1_SensingCSD_LL.c **** *
1101:Generated_Source\PSoC4/CapSense_1_SensingCSD_LL.c **** * \param wdgtIndex
1102:Generated_Source\PSoC4/CapSense_1_SensingCSD_LL.c **** *  ptrWdgt The pointer to the RAM_WD_BASE_STRUCT structure.
1103:Generated_Source\PSoC4/CapSense_1_SensingCSD_LL.c **** *
1104:Generated_Source\PSoC4/CapSense_1_SensingCSD_LL.c **** *******************************************************************************/
1105:Generated_Source\PSoC4/CapSense_1_SensingCSD_LL.c **** void CapSense_1_SsCSDCalculateScanDuration(CapSense_1_RAM_WD_BASE_STRUCT const *ptrWdgt)
1106:Generated_Source\PSoC4/CapSense_1_SensingCSD_LL.c **** {
1107:Generated_Source\PSoC4/CapSense_1_SensingCSD_LL.c ****     #if (CapSense_1_ENABLE == CapSense_1_CSDV2)
1108:Generated_Source\PSoC4/CapSense_1_SensingCSD_LL.c ****         uint32 conversionsNum;
1109:Generated_Source\PSoC4/CapSense_1_SensingCSD_LL.c ****         uint32 snsClkDivider;
1110:Generated_Source\PSoC4/CapSense_1_SensingCSD_LL.c **** 
1111:Generated_Source\PSoC4/CapSense_1_SensingCSD_LL.c ****         /* Get Number Of Conversions */
1112:Generated_Source\PSoC4/CapSense_1_SensingCSD_LL.c ****         #if (CapSense_1_ENABLE == CapSense_1_CSD_COMMON_SNS_CLK_EN)
1113:Generated_Source\PSoC4/CapSense_1_SensingCSD_LL.c ****             snsClkDivider = CapSense_1_dsRam.snsCsdClk;
1114:Generated_Source\PSoC4/CapSense_1_SensingCSD_LL.c ****         #else
1115:Generated_Source\PSoC4/CapSense_1_SensingCSD_LL.c ****             #if (CapSense_1_CSD_MATRIX_WIDGET_EN || CapSense_1_CSD_TOUCHPAD_WIDGET_EN)
1116:Generated_Source\PSoC4/CapSense_1_SensingCSD_LL.c ****                 /* Get SnsClck divider for rows or columns */
1117:Generated_Source\PSoC4/CapSense_1_SensingCSD_LL.c ****                 if (CapSense_1_dsFlash.wdgtArray[CapSense_1_widgetIndex].numCols <= CapSense_1_sens
1118:Generated_Source\PSoC4/CapSense_1_SensingCSD_LL.c ****                 {
1119:Generated_Source\PSoC4/CapSense_1_SensingCSD_LL.c ****                     snsClkDivider = (uint32)(ptrWdgt->rowSnsClk);
1120:Generated_Source\PSoC4/CapSense_1_SensingCSD_LL.c ****                 }
1121:Generated_Source\PSoC4/CapSense_1_SensingCSD_LL.c ****                 else
1122:Generated_Source\PSoC4/CapSense_1_SensingCSD_LL.c ****                 {
1123:Generated_Source\PSoC4/CapSense_1_SensingCSD_LL.c ****                     snsClkDivider = (uint32)(ptrWdgt->snsClk);
1124:Generated_Source\PSoC4/CapSense_1_SensingCSD_LL.c ****                 }
1125:Generated_Source\PSoC4/CapSense_1_SensingCSD_LL.c ****             #else
1126:Generated_Source\PSoC4/CapSense_1_SensingCSD_LL.c ****                 snsClkDivider = (uint32)(ptrWdgt->snsClk);
1127:Generated_Source\PSoC4/CapSense_1_SensingCSD_LL.c ****             #endif /* (CapSense_1_CSD_MATRIX_WIDGET_EN || CapSense_1_CSD_TOUCHPAD_WIDGET_EN) */
1128:Generated_Source\PSoC4/CapSense_1_SensingCSD_LL.c ****         #endif /* (CapSense_1_ENABLE == CapSense_1_CSD_COMMON_SNS_CLK_EN) */
1129:Generated_Source\PSoC4/CapSense_1_SensingCSD_LL.c **** 
1130:Generated_Source\PSoC4/CapSense_1_SensingCSD_LL.c ****         conversionsNum = CapSense_1_SsCSDGetNumberOfConversions(snsClkDivider, (uint32)ptrWdgt->res
1131:Generated_Source\PSoC4/CapSense_1_SensingCSD_LL.c **** 
1132:Generated_Source\PSoC4/CapSense_1_SensingCSD_LL.c ****         /* Set Number Of Conversions based on scanning resolution */
1133:Generated_Source\PSoC4/CapSense_1_SensingCSD_LL.c ****         CY_SET_REG32(CapSense_1_SEQ_NORM_CNT_PTR, (conversionsNum & CapSense_1_SEQ_NORM_CNT_CONV_CN
1134:Generated_Source\PSoC4/CapSense_1_SensingCSD_LL.c ****     #else
1135:Generated_Source\PSoC4/CapSense_1_SensingCSD_LL.c ****         /* Set up scanning resolution  */
1136:Generated_Source\PSoC4/CapSense_1_SensingCSD_LL.c ****         CapSense_1_counterResolution = (uint32)((0x00000001Lu << ptrWdgt->resolution) - 1u) << CapS
1137:Generated_Source\PSoC4/CapSense_1_SensingCSD_LL.c ****     #endif /* (CapSense_1_ENABLE == CapSense_1_CSDV2) */
1138:Generated_Source\PSoC4/CapSense_1_SensingCSD_LL.c **** }
1139:Generated_Source\PSoC4/CapSense_1_SensingCSD_LL.c **** 
1140:Generated_Source\PSoC4/CapSense_1_SensingCSD_LL.c **** 
1141:Generated_Source\PSoC4/CapSense_1_SensingCSD_LL.c **** /*******************************************************************************
1142:Generated_Source\PSoC4/CapSense_1_SensingCSD_LL.c **** * Function Name: CapSense_1_CSDSetupWidget
1143:Generated_Source\PSoC4/CapSense_1_SensingCSD_LL.c **** ****************************************************************************//**
1144:Generated_Source\PSoC4/CapSense_1_SensingCSD_LL.c **** *
1145:Generated_Source\PSoC4/CapSense_1_SensingCSD_LL.c **** * \brief
1146:Generated_Source\PSoC4/CapSense_1_SensingCSD_LL.c **** *  Performs hardware and firmware initialization required for scanning sensors
1147:Generated_Source\PSoC4/CapSense_1_SensingCSD_LL.c **** *  in a specific widget using the CSD sensing method. This function requires using
1148:Generated_Source\PSoC4/CapSense_1_SensingCSD_LL.c **** *  the CapSense_1_CSDScan() function to start scanning.
1149:Generated_Source\PSoC4/CapSense_1_SensingCSD_LL.c **** *
1150:Generated_Source\PSoC4/CapSense_1_SensingCSD_LL.c **** * \details
1151:Generated_Source\PSoC4/CapSense_1_SensingCSD_LL.c **** *  \note This function is obsolete and kept for backward compatibility only.
1152:Generated_Source\PSoC4/CapSense_1_SensingCSD_LL.c **** *  The CapSense_1_SetupWidget() function should be used instead.
ARM GAS  C:\Users\exp32\AppData\Local\Temp\ccC3r0JH.s 			page 24


1153:Generated_Source\PSoC4/CapSense_1_SensingCSD_LL.c **** *
1154:Generated_Source\PSoC4/CapSense_1_SensingCSD_LL.c **** *  This function initializes the specific widget common parameters to perform
1155:Generated_Source\PSoC4/CapSense_1_SensingCSD_LL.c **** *  the CSD scanning. The initialization includes setting up a Modulator and
1156:Generated_Source\PSoC4/CapSense_1_SensingCSD_LL.c **** *  Sense clock frequency and scanning resolution.
1157:Generated_Source\PSoC4/CapSense_1_SensingCSD_LL.c **** *
1158:Generated_Source\PSoC4/CapSense_1_SensingCSD_LL.c **** *  This function does not connect any specific sensors to the scanning hardware,
1159:Generated_Source\PSoC4/CapSense_1_SensingCSD_LL.c **** *  neither does it start a scanning process. The CapSense_1_CSDScan()
1160:Generated_Source\PSoC4/CapSense_1_SensingCSD_LL.c **** *  API must be called after initializing the widget to start scanning.
1161:Generated_Source\PSoC4/CapSense_1_SensingCSD_LL.c **** *
1162:Generated_Source\PSoC4/CapSense_1_SensingCSD_LL.c **** *  This function is called when no scanning is in progress. I.e.
1163:Generated_Source\PSoC4/CapSense_1_SensingCSD_LL.c **** *  CapSense_1_IsBusy() returns a non-busy status.
1164:Generated_Source\PSoC4/CapSense_1_SensingCSD_LL.c **** *
1165:Generated_Source\PSoC4/CapSense_1_SensingCSD_LL.c **** *  This function is called by the CapSense_1_SetupWidget() API if the
1166:Generated_Source\PSoC4/CapSense_1_SensingCSD_LL.c **** *  given widget uses the CSD sensing method.
1167:Generated_Source\PSoC4/CapSense_1_SensingCSD_LL.c **** *
1168:Generated_Source\PSoC4/CapSense_1_SensingCSD_LL.c **** *  Calling this function directly from the application layer is not
1169:Generated_Source\PSoC4/CapSense_1_SensingCSD_LL.c **** *  recommended. This function is used to implement only the user's specific
1170:Generated_Source\PSoC4/CapSense_1_SensingCSD_LL.c **** *  use cases (for faster execution time or pipeline scanning for example).
1171:Generated_Source\PSoC4/CapSense_1_SensingCSD_LL.c **** *
1172:Generated_Source\PSoC4/CapSense_1_SensingCSD_LL.c **** * \param  widgetId
1173:Generated_Source\PSoC4/CapSense_1_SensingCSD_LL.c **** *  Specifies the ID number of the widget to perform hardware and firmware
1174:Generated_Source\PSoC4/CapSense_1_SensingCSD_LL.c **** *  initialization required for scanning sensors in the specific widget.
1175:Generated_Source\PSoC4/CapSense_1_SensingCSD_LL.c **** *  A macro for the widget ID can be found in the CapSense_1 Configuration header
1176:Generated_Source\PSoC4/CapSense_1_SensingCSD_LL.c **** *  file defined as CapSense_1_<WidgetName>_WDGT_ID.
1177:Generated_Source\PSoC4/CapSense_1_SensingCSD_LL.c **** *
1178:Generated_Source\PSoC4/CapSense_1_SensingCSD_LL.c **** *******************************************************************************/
1179:Generated_Source\PSoC4/CapSense_1_SensingCSD_LL.c **** void CapSense_1_CSDSetupWidget(uint32 widgetId)
1180:Generated_Source\PSoC4/CapSense_1_SensingCSD_LL.c **** {
1181:Generated_Source\PSoC4/CapSense_1_SensingCSD_LL.c ****     CapSense_1_RAM_WD_BASE_STRUCT const *ptrWdgt = (CapSense_1_RAM_WD_BASE_STRUCT *)
1182:Generated_Source\PSoC4/CapSense_1_SensingCSD_LL.c ****                                                 CapSense_1_dsFlash.wdgtArray[widgetId].ptr2WdgtRam;
1183:Generated_Source\PSoC4/CapSense_1_SensingCSD_LL.c **** 
1184:Generated_Source\PSoC4/CapSense_1_SensingCSD_LL.c ****     /* Save widget Id to have assess to it after scanning  */
1185:Generated_Source\PSoC4/CapSense_1_SensingCSD_LL.c ****     CapSense_1_widgetIndex = (uint8)widgetId;
1186:Generated_Source\PSoC4/CapSense_1_SensingCSD_LL.c **** 
1187:Generated_Source\PSoC4/CapSense_1_SensingCSD_LL.c ****     CapSense_1_SsSwitchSensingMode(CapSense_1_SENSE_METHOD_CSD_E);
1188:Generated_Source\PSoC4/CapSense_1_SensingCSD_LL.c **** 
1189:Generated_Source\PSoC4/CapSense_1_SensingCSD_LL.c ****     #if (CapSense_1_ENABLE == CapSense_1_MULTI_FREQ_SCAN_EN)
1190:Generated_Source\PSoC4/CapSense_1_SensingCSD_LL.c ****         /* Reset the frequency scan channel if enabled */
1191:Generated_Source\PSoC4/CapSense_1_SensingCSD_LL.c ****         CapSense_1_scanFreqIndex = CapSense_1_FREQ_CHANNEL_0;
1192:Generated_Source\PSoC4/CapSense_1_SensingCSD_LL.c ****     #endif /* (CapSense_1_ENABLE == CapSense_1_MULTI_FREQ_SCAN_EN) */
1193:Generated_Source\PSoC4/CapSense_1_SensingCSD_LL.c **** 
1194:Generated_Source\PSoC4/CapSense_1_SensingCSD_LL.c ****     /* Disconnect previous electrode if it has been connected */
1195:Generated_Source\PSoC4/CapSense_1_SensingCSD_LL.c ****     CapSense_1_SsCSDElectrodeCheck();
1196:Generated_Source\PSoC4/CapSense_1_SensingCSD_LL.c **** 
1197:Generated_Source\PSoC4/CapSense_1_SensingCSD_LL.c ****     /* Initialize IO Sns electrode structure pointer to current widget */
1198:Generated_Source\PSoC4/CapSense_1_SensingCSD_LL.c ****     CapSense_1_curSnsIOPtr = (CapSense_1_FLASH_IO_STRUCT const *)
1199:Generated_Source\PSoC4/CapSense_1_SensingCSD_LL.c ****                                     CapSense_1_dsFlash.wdgtArray[CapSense_1_widgetIndex].ptr2SnsFla
1200:Generated_Source\PSoC4/CapSense_1_SensingCSD_LL.c **** 
1201:Generated_Source\PSoC4/CapSense_1_SensingCSD_LL.c ****     /* Update status register in Data structure */
1202:Generated_Source\PSoC4/CapSense_1_SensingCSD_LL.c ****     CapSense_1_dsRam.status &= ~CapSense_1_STATUS_WDGT0_MASK;
1203:Generated_Source\PSoC4/CapSense_1_SensingCSD_LL.c ****     CapSense_1_dsRam.status |= CapSense_1_widgetIndex;
1204:Generated_Source\PSoC4/CapSense_1_SensingCSD_LL.c **** 
1205:Generated_Source\PSoC4/CapSense_1_SensingCSD_LL.c ****     CapSense_1_SsCSDCalculateScanDuration(ptrWdgt);
1206:Generated_Source\PSoC4/CapSense_1_SensingCSD_LL.c ****     #if (((CapSense_1_DISABLE == CapSense_1_CSD_COMMON_SNS_CLK_EN) || \
1207:Generated_Source\PSoC4/CapSense_1_SensingCSD_LL.c ****           (CapSense_1_CLK_SOURCE_DIRECT != CapSense_1_CSD_SNS_CLK_SOURCE)) && \
1208:Generated_Source\PSoC4/CapSense_1_SensingCSD_LL.c ****          ((!(CapSense_1_CSD_MATRIX_WIDGET_EN || CapSense_1_CSD_TOUCHPAD_WIDGET_EN)) || \
1209:Generated_Source\PSoC4/CapSense_1_SensingCSD_LL.c ****           (CapSense_1_ENABLE == CapSense_1_CSD_COMMON_SNS_CLK_EN)))
ARM GAS  C:\Users\exp32\AppData\Local\Temp\ccC3r0JH.s 			page 25


1210:Generated_Source\PSoC4/CapSense_1_SensingCSD_LL.c ****         CapSense_1_SsCSDConfigClock();
1211:Generated_Source\PSoC4/CapSense_1_SensingCSD_LL.c ****     #endif
1212:Generated_Source\PSoC4/CapSense_1_SensingCSD_LL.c **** }
1213:Generated_Source\PSoC4/CapSense_1_SensingCSD_LL.c **** 
1214:Generated_Source\PSoC4/CapSense_1_SensingCSD_LL.c **** 
1215:Generated_Source\PSoC4/CapSense_1_SensingCSD_LL.c **** /*******************************************************************************
1216:Generated_Source\PSoC4/CapSense_1_SensingCSD_LL.c **** * Function Name: CapSense_1_CSDSetupWidgetExt
1217:Generated_Source\PSoC4/CapSense_1_SensingCSD_LL.c **** ****************************************************************************//**
1218:Generated_Source\PSoC4/CapSense_1_SensingCSD_LL.c **** *
1219:Generated_Source\PSoC4/CapSense_1_SensingCSD_LL.c **** * \brief
1220:Generated_Source\PSoC4/CapSense_1_SensingCSD_LL.c **** *  Performs extended initialization for the CSD widget and also performs
1221:Generated_Source\PSoC4/CapSense_1_SensingCSD_LL.c **** *  initialization required for a specific sensor in the widget. This function
1222:Generated_Source\PSoC4/CapSense_1_SensingCSD_LL.c **** *  requires using the CapSense_1_CSDScanExt() function to initiate a scan.
1223:Generated_Source\PSoC4/CapSense_1_SensingCSD_LL.c **** *
1224:Generated_Source\PSoC4/CapSense_1_SensingCSD_LL.c **** * \details
1225:Generated_Source\PSoC4/CapSense_1_SensingCSD_LL.c **** *  Performs extended initialization for the CSD widget and also performs
1226:Generated_Source\PSoC4/CapSense_1_SensingCSD_LL.c **** *  initialization required for a specific sensor in the widget. This function
1227:Generated_Source\PSoC4/CapSense_1_SensingCSD_LL.c **** *  requires using the CapSense_1_CSDScanExt() function to initiate a scan.
1228:Generated_Source\PSoC4/CapSense_1_SensingCSD_LL.c **** *
1229:Generated_Source\PSoC4/CapSense_1_SensingCSD_LL.c **** *  \note This function is obsolete and kept for backward compatibility only.
1230:Generated_Source\PSoC4/CapSense_1_SensingCSD_LL.c **** *  The CapSense_1_SetupWidgetExt() function should be used instead.
1231:Generated_Source\PSoC4/CapSense_1_SensingCSD_LL.c **** *
1232:Generated_Source\PSoC4/CapSense_1_SensingCSD_LL.c **** *  This function does the same as CapSense_1_CSDSetupWidget() and also
1233:Generated_Source\PSoC4/CapSense_1_SensingCSD_LL.c **** *  does the following tasks:
1234:Generated_Source\PSoC4/CapSense_1_SensingCSD_LL.c **** *    1. Connects the first sensor of the widget.
1235:Generated_Source\PSoC4/CapSense_1_SensingCSD_LL.c **** *    2. Configures the IDAC value.
1236:Generated_Source\PSoC4/CapSense_1_SensingCSD_LL.c **** *    3. Initializes an interrupt callback function to initialize a scan of the
1237:Generated_Source\PSoC4/CapSense_1_SensingCSD_LL.c **** *  next sensors in a widget.
1238:Generated_Source\PSoC4/CapSense_1_SensingCSD_LL.c **** *
1239:Generated_Source\PSoC4/CapSense_1_SensingCSD_LL.c **** *  Once this function is called to initialize a widget and a sensor, the
1240:Generated_Source\PSoC4/CapSense_1_SensingCSD_LL.c **** *  CapSense_1_CSDScanExt() function is called to scan the sensor.
1241:Generated_Source\PSoC4/CapSense_1_SensingCSD_LL.c **** *
1242:Generated_Source\PSoC4/CapSense_1_SensingCSD_LL.c **** *  This function is called when no scanning is in progress. I.e.
1243:Generated_Source\PSoC4/CapSense_1_SensingCSD_LL.c **** *  CapSense_1_IsBusy() returns a non-busy status.
1244:Generated_Source\PSoC4/CapSense_1_SensingCSD_LL.c **** *
1245:Generated_Source\PSoC4/CapSense_1_SensingCSD_LL.c **** *  Calling this function directly from the application layer is not
1246:Generated_Source\PSoC4/CapSense_1_SensingCSD_LL.c **** *  recommended. This function is used to implement only the user's specific
1247:Generated_Source\PSoC4/CapSense_1_SensingCSD_LL.c **** *  use cases (for faster execution time or pipeline scanning for example).
1248:Generated_Source\PSoC4/CapSense_1_SensingCSD_LL.c **** *
1249:Generated_Source\PSoC4/CapSense_1_SensingCSD_LL.c **** * \param widgetId
1250:Generated_Source\PSoC4/CapSense_1_SensingCSD_LL.c **** *  Specifies the ID number of the widget to perform hardware and firmware
1251:Generated_Source\PSoC4/CapSense_1_SensingCSD_LL.c **** *  initialization required for scanning the specific sensor in the specific
1252:Generated_Source\PSoC4/CapSense_1_SensingCSD_LL.c **** *  widget.
1253:Generated_Source\PSoC4/CapSense_1_SensingCSD_LL.c **** *  A macro for the widget ID can be found in the CapSense_1 Configuration header
1254:Generated_Source\PSoC4/CapSense_1_SensingCSD_LL.c **** *  file defined as CapSense_1_<WidgetName>_WDGT_ID.
1255:Generated_Source\PSoC4/CapSense_1_SensingCSD_LL.c **** *
1256:Generated_Source\PSoC4/CapSense_1_SensingCSD_LL.c **** * \param sensorId
1257:Generated_Source\PSoC4/CapSense_1_SensingCSD_LL.c **** *  Specifies the ID number of the sensor within the widget to perform hardware
1258:Generated_Source\PSoC4/CapSense_1_SensingCSD_LL.c **** *  and firmware initialization required for scanning a specific sensor in a
1259:Generated_Source\PSoC4/CapSense_1_SensingCSD_LL.c **** *  specific widget.
1260:Generated_Source\PSoC4/CapSense_1_SensingCSD_LL.c **** *  A macro for the sensor ID within a specified widget can be found in the
1261:Generated_Source\PSoC4/CapSense_1_SensingCSD_LL.c **** *  CapSense_1 Configuration header file defined as
1262:Generated_Source\PSoC4/CapSense_1_SensingCSD_LL.c **** *  CapSense_1_<WidgetName>_SNS<SensorNumber>_ID
1263:Generated_Source\PSoC4/CapSense_1_SensingCSD_LL.c **** *
1264:Generated_Source\PSoC4/CapSense_1_SensingCSD_LL.c **** *******************************************************************************/
1265:Generated_Source\PSoC4/CapSense_1_SensingCSD_LL.c **** void CapSense_1_CSDSetupWidgetExt(uint32 widgetId, uint32 sensorId)
1266:Generated_Source\PSoC4/CapSense_1_SensingCSD_LL.c **** {
ARM GAS  C:\Users\exp32\AppData\Local\Temp\ccC3r0JH.s 			page 26


1267:Generated_Source\PSoC4/CapSense_1_SensingCSD_LL.c ****     CapSense_1_RAM_WD_BASE_STRUCT const *ptrWdgt = (CapSense_1_RAM_WD_BASE_STRUCT *)
1268:Generated_Source\PSoC4/CapSense_1_SensingCSD_LL.c ****                                                     CapSense_1_dsFlash.wdgtArray[widgetId].ptr2Wdgt
1269:Generated_Source\PSoC4/CapSense_1_SensingCSD_LL.c **** 
1270:Generated_Source\PSoC4/CapSense_1_SensingCSD_LL.c ****     /* Save widget and sensor Ids to have access to it after scanning  */
1271:Generated_Source\PSoC4/CapSense_1_SensingCSD_LL.c ****     CapSense_1_sensorIndex = (uint8)sensorId;
1272:Generated_Source\PSoC4/CapSense_1_SensingCSD_LL.c **** 
1273:Generated_Source\PSoC4/CapSense_1_SensingCSD_LL.c ****     /* Update global pointer to CapSense_1_RAM_SNS_STRUCT to current sensor  */
1274:Generated_Source\PSoC4/CapSense_1_SensingCSD_LL.c ****     CapSense_1_curRamSnsPtr = (CapSense_1_RAM_SNS_STRUCT *)
1275:Generated_Source\PSoC4/CapSense_1_SensingCSD_LL.c ****                                               CapSense_1_dsFlash.wdgtArray[widgetId].ptr2SnsRam
1276:Generated_Source\PSoC4/CapSense_1_SensingCSD_LL.c ****                                               + CapSense_1_sensorIndex;
1277:Generated_Source\PSoC4/CapSense_1_SensingCSD_LL.c **** 
1278:Generated_Source\PSoC4/CapSense_1_SensingCSD_LL.c ****     CapSense_1_CSDSetupWidget(widgetId);
1279:Generated_Source\PSoC4/CapSense_1_SensingCSD_LL.c **** 
1280:Generated_Source\PSoC4/CapSense_1_SensingCSD_LL.c ****      /* Setup Idac Value */
1281:Generated_Source\PSoC4/CapSense_1_SensingCSD_LL.c ****     CapSense_1_SsCSDSetUpIdacs(ptrWdgt);
1282:Generated_Source\PSoC4/CapSense_1_SensingCSD_LL.c **** 
1283:Generated_Source\PSoC4/CapSense_1_SensingCSD_LL.c ****     #if (CapSense_1_ENABLE == CapSense_1_CSD_GANGED_SNS_EN)
1284:Generated_Source\PSoC4/CapSense_1_SensingCSD_LL.c ****         /* initialize access pointers for current pointer to widget configuration in Flash */
1285:Generated_Source\PSoC4/CapSense_1_SensingCSD_LL.c ****         CapSense_1_curFlashWdgtPtr = &CapSense_1_dsFlash.wdgtArray[widgetId];
1286:Generated_Source\PSoC4/CapSense_1_SensingCSD_LL.c ****     #endif /* (CapSense_1_ENABLE == CapSense_1_CSD_GANGED_SNS_EN)  */
1287:Generated_Source\PSoC4/CapSense_1_SensingCSD_LL.c **** 
1288:Generated_Source\PSoC4/CapSense_1_SensingCSD_LL.c ****     #if (CapSense_1_ENABLE == CapSense_1_CSD_GANGED_SNS_EN)
1289:Generated_Source\PSoC4/CapSense_1_SensingCSD_LL.c ****         CapSense_1_SsCSDConnectSensorExt(widgetId, sensorId);
1290:Generated_Source\PSoC4/CapSense_1_SensingCSD_LL.c ****     #else
1291:Generated_Source\PSoC4/CapSense_1_SensingCSD_LL.c ****         /* Enable sensor */
1292:Generated_Source\PSoC4/CapSense_1_SensingCSD_LL.c ****         CapSense_1_curSnsIOPtr += CapSense_1_sensorIndex;
1293:Generated_Source\PSoC4/CapSense_1_SensingCSD_LL.c ****         CapSense_1_CSDConnectSns(CapSense_1_curSnsIOPtr);
1294:Generated_Source\PSoC4/CapSense_1_SensingCSD_LL.c ****     #endif /* (CapSense_1_ENABLE == CapSense_1_CSD_GANGED_SNS_EN)  */
1295:Generated_Source\PSoC4/CapSense_1_SensingCSD_LL.c **** 
1296:Generated_Source\PSoC4/CapSense_1_SensingCSD_LL.c ****     #if (CapSense_1_ENABLE == CapSense_1_CSD_GANGED_SNS_EN)
1297:Generated_Source\PSoC4/CapSense_1_SensingCSD_LL.c ****         /* Save sns pointer */
1298:Generated_Source\PSoC4/CapSense_1_SensingCSD_LL.c ****         CapSense_1_curFlashSnsPtr = (CapSense_1_FLASH_SNS_STRUCT const *)
1299:Generated_Source\PSoC4/CapSense_1_SensingCSD_LL.c ****                                            CapSense_1_dsFlash.wdgtArray[CapSense_1_widgetIndex].ptr
1300:Generated_Source\PSoC4/CapSense_1_SensingCSD_LL.c ****                                            CapSense_1_sensorIndex;
1301:Generated_Source\PSoC4/CapSense_1_SensingCSD_LL.c ****     #endif /* (CapSense_1_ENABLE == CapSense_1_CSD_GANGED_SNS_EN) */
1302:Generated_Source\PSoC4/CapSense_1_SensingCSD_LL.c **** 
1303:Generated_Source\PSoC4/CapSense_1_SensingCSD_LL.c ****     CapSense_1_eleCsdDisconnectFlag = CapSense_1_DISCONNECT_IO_FLAG;
1304:Generated_Source\PSoC4/CapSense_1_SensingCSD_LL.c **** 
1305:Generated_Source\PSoC4/CapSense_1_SensingCSD_LL.c ****     /* Setup ISR handler to single-sensor scan function */
1306:Generated_Source\PSoC4/CapSense_1_SensingCSD_LL.c ****     CapSense_1_ISR_StartEx(&CapSense_1_CSDPostSingleScan);
1307:Generated_Source\PSoC4/CapSense_1_SensingCSD_LL.c **** }
1308:Generated_Source\PSoC4/CapSense_1_SensingCSD_LL.c **** 
1309:Generated_Source\PSoC4/CapSense_1_SensingCSD_LL.c **** /*******************************************************************************
1310:Generated_Source\PSoC4/CapSense_1_SensingCSD_LL.c **** * Function Name: CapSense_1_SsCSDStartSample
1311:Generated_Source\PSoC4/CapSense_1_SensingCSD_LL.c **** ****************************************************************************//**
1312:Generated_Source\PSoC4/CapSense_1_SensingCSD_LL.c **** *
1313:Generated_Source\PSoC4/CapSense_1_SensingCSD_LL.c **** * \brief
1314:Generated_Source\PSoC4/CapSense_1_SensingCSD_LL.c **** *   Starts the CSD conversion.
1315:Generated_Source\PSoC4/CapSense_1_SensingCSD_LL.c **** *
1316:Generated_Source\PSoC4/CapSense_1_SensingCSD_LL.c **** * \details
1317:Generated_Source\PSoC4/CapSense_1_SensingCSD_LL.c **** *   This function assumes that the CSD block is already set up using
1318:Generated_Source\PSoC4/CapSense_1_SensingCSD_LL.c **** *   the CapSense_1_CSDSetupWidget API and the sensor port-pin is connected to the CSD
1319:Generated_Source\PSoC4/CapSense_1_SensingCSD_LL.c **** *   block using CapSense_1_CSDConnectSns.
1320:Generated_Source\PSoC4/CapSense_1_SensingCSD_LL.c **** *   For Third-generation HW block the function performs the following tasks:
1321:Generated_Source\PSoC4/CapSense_1_SensingCSD_LL.c **** *   1. Disconnects the Vref buffer from AMUX;
1322:Generated_Source\PSoC4/CapSense_1_SensingCSD_LL.c **** *   2. Precharges Cmod;
1323:Generated_Source\PSoC4/CapSense_1_SensingCSD_LL.c **** *   3. Makes the PreSettling delay to have a stable Vref voltage;
ARM GAS  C:\Users\exp32\AppData\Local\Temp\ccC3r0JH.s 			page 27


1324:Generated_Source\PSoC4/CapSense_1_SensingCSD_LL.c **** *   4. Sets the resolution to the Counter register to start scanning.
1325:Generated_Source\PSoC4/CapSense_1_SensingCSD_LL.c **** *
1326:Generated_Source\PSoC4/CapSense_1_SensingCSD_LL.c **** *******************************************************************************/
1327:Generated_Source\PSoC4/CapSense_1_SensingCSD_LL.c **** void CapSense_1_SsCSDStartSample(void)
1328:Generated_Source\PSoC4/CapSense_1_SensingCSD_LL.c **** {
1329:Generated_Source\PSoC4/CapSense_1_SensingCSD_LL.c ****     #if (CapSense_1_ENABLE != CapSense_1_CSDV2)
1330:Generated_Source\PSoC4/CapSense_1_SensingCSD_LL.c ****         uint8 interruptState;
1331:Generated_Source\PSoC4/CapSense_1_SensingCSD_LL.c ****     #endif
1332:Generated_Source\PSoC4/CapSense_1_SensingCSD_LL.c **** 
1333:Generated_Source\PSoC4/CapSense_1_SensingCSD_LL.c ****     #ifdef CapSense_1_START_SAMPLE_CALLBACK
1334:Generated_Source\PSoC4/CapSense_1_SensingCSD_LL.c ****         CapSense_1_StartSampleCallback(CapSense_1_widgetIndex, CapSense_1_sensorIndex);
1335:Generated_Source\PSoC4/CapSense_1_SensingCSD_LL.c ****     #endif /* CapSense_1_START_SAMPLE_CALLBACK */
1336:Generated_Source\PSoC4/CapSense_1_SensingCSD_LL.c **** 
1337:Generated_Source\PSoC4/CapSense_1_SensingCSD_LL.c ****     #if (CapSense_1_ENABLE == CapSense_1_CSDV2)
1338:Generated_Source\PSoC4/CapSense_1_SensingCSD_LL.c ****         /* Fourth-generation HW block section */
1339:Generated_Source\PSoC4/CapSense_1_SensingCSD_LL.c **** 
1340:Generated_Source\PSoC4/CapSense_1_SensingCSD_LL.c ****         /* Disable CSD interrupt to prevent it during coarse initialization */
1341:Generated_Source\PSoC4/CapSense_1_SensingCSD_LL.c ****         CyIntDisable(CapSense_1_ISR_NUMBER);
1342:Generated_Source\PSoC4/CapSense_1_SensingCSD_LL.c **** 
1343:Generated_Source\PSoC4/CapSense_1_SensingCSD_LL.c ****         /* Enable power to sub-blocks */
1344:Generated_Source\PSoC4/CapSense_1_SensingCSD_LL.c ****         CY_SET_REG32(CapSense_1_HSCMP_PTR, CapSense_1_HSCMP_INIT_MASK);
1345:Generated_Source\PSoC4/CapSense_1_SensingCSD_LL.c **** 
1346:Generated_Source\PSoC4/CapSense_1_SensingCSD_LL.c ****         #if (CapSense_1_ENABLE == CapSense_1_BLOCK_OFF_AFTER_SCAN_EN)
1347:Generated_Source\PSoC4/CapSense_1_SensingCSD_LL.c ****             CY_SET_REG32(CapSense_1_CONFIG_PTR, CapSense_1_configCsd |
1348:Generated_Source\PSoC4/CapSense_1_SensingCSD_LL.c ****                                                       CapSense_1_CONFIG_SENSE_EN_MASK |
1349:Generated_Source\PSoC4/CapSense_1_SensingCSD_LL.c ****                                                       CapSense_1_CONFIG_ENABLE_MASK);
1350:Generated_Source\PSoC4/CapSense_1_SensingCSD_LL.c ****             #if(CapSense_1_CSD_ANALOG_STARTUP_DELAY_US > 0uL)
1351:Generated_Source\PSoC4/CapSense_1_SensingCSD_LL.c ****                 CyDelayUs(CapSense_1_CSD_ANALOG_STARTUP_DELAY_US);
1352:Generated_Source\PSoC4/CapSense_1_SensingCSD_LL.c ****             #endif /* (CapSense_1_CSD_ANALOG_STARTUP_DELAY_US > 0uL) */
1353:Generated_Source\PSoC4/CapSense_1_SensingCSD_LL.c ****         #endif /* (CapSense_1_ENABLE == CapSense_1_BLOCK_OFF_AFTER_SCAN_EN) */
1354:Generated_Source\PSoC4/CapSense_1_SensingCSD_LL.c **** 
1355:Generated_Source\PSoC4/CapSense_1_SensingCSD_LL.c ****         /* Precharging Cmod and Csh */
1356:Generated_Source\PSoC4/CapSense_1_SensingCSD_LL.c ****         CapSense_1_SsCSDCmodPrecharge();
1357:Generated_Source\PSoC4/CapSense_1_SensingCSD_LL.c **** 
1358:Generated_Source\PSoC4/CapSense_1_SensingCSD_LL.c ****         /* Trigger Scan */
1359:Generated_Source\PSoC4/CapSense_1_SensingCSD_LL.c ****         CapSense_1_SsCSDTriggerScan();
1360:Generated_Source\PSoC4/CapSense_1_SensingCSD_LL.c **** 
1361:Generated_Source\PSoC4/CapSense_1_SensingCSD_LL.c ****     #else
1362:Generated_Source\PSoC4/CapSense_1_SensingCSD_LL.c ****         /* Third-generation HW block section */
1363:Generated_Source\PSoC4/CapSense_1_SensingCSD_LL.c ****         interruptState = CyEnterCriticalSection();
1364:Generated_Source\PSoC4/CapSense_1_SensingCSD_LL.c **** 
1365:Generated_Source\PSoC4/CapSense_1_SensingCSD_LL.c ****         /* Enable CSD block. Disconnect Vref Buffer from AMUX */
1366:Generated_Source\PSoC4/CapSense_1_SensingCSD_LL.c ****         #if ((CapSense_1_CSH_PRECHARGE_IO_BUF == CapSense_1_CSD_CSH_PRECHARGE_SRC) &&\
1367:Generated_Source\PSoC4/CapSense_1_SensingCSD_LL.c ****              (CapSense_1_ENABLE == CapSense_1_CSD_SHIELD_TANK_EN))
1368:Generated_Source\PSoC4/CapSense_1_SensingCSD_LL.c ****             CY_SET_REG32(CapSense_1_CONFIG_PTR, CapSense_1_configCsd | CapSense_1_CMOD_PRECHARGE_CO
1369:Generated_Source\PSoC4/CapSense_1_SensingCSD_LL.c ****         #else
1370:Generated_Source\PSoC4/CapSense_1_SensingCSD_LL.c ****             CY_SET_REG32(CapSense_1_CONFIG_PTR, CapSense_1_configCsd | CapSense_1_CTANK_PRECHARGE_C
1371:Generated_Source\PSoC4/CapSense_1_SensingCSD_LL.c ****         #endif
1372:Generated_Source\PSoC4/CapSense_1_SensingCSD_LL.c **** 
1373:Generated_Source\PSoC4/CapSense_1_SensingCSD_LL.c ****         /* Restart the clocks. Scan one cycle to reset the flip-flop for Direct clock mode */
1374:Generated_Source\PSoC4/CapSense_1_SensingCSD_LL.c ****         CapSense_1_SsCSDClockRestart();
1375:Generated_Source\PSoC4/CapSense_1_SensingCSD_LL.c **** 
1376:Generated_Source\PSoC4/CapSense_1_SensingCSD_LL.c ****         /* Precharging Cmod to Vref */
1377:Generated_Source\PSoC4/CapSense_1_SensingCSD_LL.c ****         CapSense_1_SsCSDCmodPrecharge();
1378:Generated_Source\PSoC4/CapSense_1_SensingCSD_LL.c **** 
1379:Generated_Source\PSoC4/CapSense_1_SensingCSD_LL.c ****         #if (CapSense_1_CLK_SOURCE_DIRECT != CapSense_1_CSD_SNS_CLK_SOURCE)
1380:Generated_Source\PSoC4/CapSense_1_SensingCSD_LL.c ****             /* Set PreSettling delay to skip IDAC glitch before scanning */
ARM GAS  C:\Users\exp32\AppData\Local\Temp\ccC3r0JH.s 			page 28


1381:Generated_Source\PSoC4/CapSense_1_SensingCSD_LL.c ****             CyDelayCycles(CapSense_1_GLITCH_ELIMINATION_CYCLES);
1382:Generated_Source\PSoC4/CapSense_1_SensingCSD_LL.c ****         #endif /* (CapSense_1_CSD_SNS_CLK_SOURCE != CapSense_1_CLK_SOURCE_DIRECT) */
1383:Generated_Source\PSoC4/CapSense_1_SensingCSD_LL.c **** 
1384:Generated_Source\PSoC4/CapSense_1_SensingCSD_LL.c ****         /* Trigger Scan */
1385:Generated_Source\PSoC4/CapSense_1_SensingCSD_LL.c ****         CapSense_1_SsCSDTriggerScan();
1386:Generated_Source\PSoC4/CapSense_1_SensingCSD_LL.c **** 
1387:Generated_Source\PSoC4/CapSense_1_SensingCSD_LL.c ****         CyExitCriticalSection(interruptState);
1388:Generated_Source\PSoC4/CapSense_1_SensingCSD_LL.c ****     #endif /* (CapSense_1_ENABLE == CapSense_1_CSDV2) */
1389:Generated_Source\PSoC4/CapSense_1_SensingCSD_LL.c **** }
1390:Generated_Source\PSoC4/CapSense_1_SensingCSD_LL.c **** 
1391:Generated_Source\PSoC4/CapSense_1_SensingCSD_LL.c **** 
1392:Generated_Source\PSoC4/CapSense_1_SensingCSD_LL.c **** /*******************************************************************************
1393:Generated_Source\PSoC4/CapSense_1_SensingCSD_LL.c **** * Function Name: CapSense_1_CSDScanExt
1394:Generated_Source\PSoC4/CapSense_1_SensingCSD_LL.c **** ****************************************************************************//**
1395:Generated_Source\PSoC4/CapSense_1_SensingCSD_LL.c **** *
1396:Generated_Source\PSoC4/CapSense_1_SensingCSD_LL.c **** * \brief
1397:Generated_Source\PSoC4/CapSense_1_SensingCSD_LL.c **** *  Starts the CSD conversion on the preconfigured sensor. This function requires
1398:Generated_Source\PSoC4/CapSense_1_SensingCSD_LL.c **** *  using the CapSense_1_CSDSetupWidgetExt() function to set up the a
1399:Generated_Source\PSoC4/CapSense_1_SensingCSD_LL.c **** *  widget.
1400:Generated_Source\PSoC4/CapSense_1_SensingCSD_LL.c **** *
1401:Generated_Source\PSoC4/CapSense_1_SensingCSD_LL.c **** * \details
1402:Generated_Source\PSoC4/CapSense_1_SensingCSD_LL.c **** *  Starts the CSD conversion on the preconfigured sensor. This function requires
1403:Generated_Source\PSoC4/CapSense_1_SensingCSD_LL.c **** *  using the CapSense_1_CSDSetupWidgetExt() function to set up the a
1404:Generated_Source\PSoC4/CapSense_1_SensingCSD_LL.c **** *  widget.
1405:Generated_Source\PSoC4/CapSense_1_SensingCSD_LL.c **** *
1406:Generated_Source\PSoC4/CapSense_1_SensingCSD_LL.c **** *  \note This function is obsolete and kept for backward compatibility only.
1407:Generated_Source\PSoC4/CapSense_1_SensingCSD_LL.c **** *  The CapSense_1_ScanExt() function should be used instead.
1408:Generated_Source\PSoC4/CapSense_1_SensingCSD_LL.c **** *
1409:Generated_Source\PSoC4/CapSense_1_SensingCSD_LL.c **** *  This function performs single scanning of one sensor in the widget configured
1410:Generated_Source\PSoC4/CapSense_1_SensingCSD_LL.c **** *  by the CapSense_1_CSDSetupWidgetExt() function. It does the following
1411:Generated_Source\PSoC4/CapSense_1_SensingCSD_LL.c **** *  tasks:
1412:Generated_Source\PSoC4/CapSense_1_SensingCSD_LL.c **** *    1. Sets the busy flag in the CapSense_1_dsRam structure.
1413:Generated_Source\PSoC4/CapSense_1_SensingCSD_LL.c **** *    2. Performs the clock-phase alignment of the sense and modulator clocks.
1414:Generated_Source\PSoC4/CapSense_1_SensingCSD_LL.c **** *    3. Performs the Cmod pre-charging.
1415:Generated_Source\PSoC4/CapSense_1_SensingCSD_LL.c **** *    4. Starts single scanning.
1416:Generated_Source\PSoC4/CapSense_1_SensingCSD_LL.c **** *
1417:Generated_Source\PSoC4/CapSense_1_SensingCSD_LL.c **** *  Calling this function directly from the application layer is not
1418:Generated_Source\PSoC4/CapSense_1_SensingCSD_LL.c **** *  recommended. This function is used to implement only the user's specific
1419:Generated_Source\PSoC4/CapSense_1_SensingCSD_LL.c **** *  use cases (for faster execution time or pipeline scanning for example).
1420:Generated_Source\PSoC4/CapSense_1_SensingCSD_LL.c **** *  This function is called when no scanning is in progress. I.e.
1421:Generated_Source\PSoC4/CapSense_1_SensingCSD_LL.c **** *  CapSense_1_IsBusy() returns a non-busy status.
1422:Generated_Source\PSoC4/CapSense_1_SensingCSD_LL.c **** *
1423:Generated_Source\PSoC4/CapSense_1_SensingCSD_LL.c **** *  The sensor must be preconfigured by using the
1424:Generated_Source\PSoC4/CapSense_1_SensingCSD_LL.c **** *  CapSense_1_CSDSetupWidgetExt() API prior to calling this function.
1425:Generated_Source\PSoC4/CapSense_1_SensingCSD_LL.c **** *  The sensor remains ready for a next scan if a previous scan was triggered
1426:Generated_Source\PSoC4/CapSense_1_SensingCSD_LL.c **** *  by using the CapSense_1_CSDScanExt() function. In this case, calling
1427:Generated_Source\PSoC4/CapSense_1_SensingCSD_LL.c **** *  CapSense_1_CSDSetupWidgetExt() is not required every time before the
1428:Generated_Source\PSoC4/CapSense_1_SensingCSD_LL.c **** *  CapSense_1_CSDScanExt() function. If a previous scan was triggered in
1429:Generated_Source\PSoC4/CapSense_1_SensingCSD_LL.c **** *  any other way - CapSense_1_Scan(), CapSense_1_ScanAllWidgets() or
1430:Generated_Source\PSoC4/CapSense_1_SensingCSD_LL.c **** *  CapSense_1_RunTuner() - (see the CapSense_1_RunTuner() function
1431:Generated_Source\PSoC4/CapSense_1_SensingCSD_LL.c **** *  description for more details), the sensor must be preconfigured again by
1432:Generated_Source\PSoC4/CapSense_1_SensingCSD_LL.c **** *  using the CapSense_1_CSDSetupWidgetExt() API prior to calling the
1433:Generated_Source\PSoC4/CapSense_1_SensingCSD_LL.c **** *  CapSense_1_CSDScanExt() function.
1434:Generated_Source\PSoC4/CapSense_1_SensingCSD_LL.c **** *
1435:Generated_Source\PSoC4/CapSense_1_SensingCSD_LL.c **** *  If disconnection of the sensors is required after calling
1436:Generated_Source\PSoC4/CapSense_1_SensingCSD_LL.c **** *  CapSense_1_CSDScanExt(), the CapSense_1_CSDDisconnectSns()
1437:Generated_Source\PSoC4/CapSense_1_SensingCSD_LL.c **** *  function can be used.
ARM GAS  C:\Users\exp32\AppData\Local\Temp\ccC3r0JH.s 			page 29


1438:Generated_Source\PSoC4/CapSense_1_SensingCSD_LL.c **** *
1439:Generated_Source\PSoC4/CapSense_1_SensingCSD_LL.c **** *******************************************************************************/
1440:Generated_Source\PSoC4/CapSense_1_SensingCSD_LL.c **** void CapSense_1_CSDScanExt(void)
1441:Generated_Source\PSoC4/CapSense_1_SensingCSD_LL.c **** {
1442:Generated_Source\PSoC4/CapSense_1_SensingCSD_LL.c ****     #if ((CapSense_1_DISABLE == CapSense_1_CSD_COMMON_SNS_CLK_EN) && \
1443:Generated_Source\PSoC4/CapSense_1_SensingCSD_LL.c ****          (CapSense_1_CSD_MATRIX_WIDGET_EN || CapSense_1_CSD_TOUCHPAD_WIDGET_EN))
1444:Generated_Source\PSoC4/CapSense_1_SensingCSD_LL.c ****         CapSense_1_RAM_WD_BASE_STRUCT const *ptrWdgt = (CapSense_1_RAM_WD_BASE_STRUCT *)
1445:Generated_Source\PSoC4/CapSense_1_SensingCSD_LL.c ****                                                         CapSense_1_dsFlash.wdgtArray[CapSense_1_wid
1446:Generated_Source\PSoC4/CapSense_1_SensingCSD_LL.c **** 
1447:Generated_Source\PSoC4/CapSense_1_SensingCSD_LL.c ****         CapSense_1_SsCSDCalculateScanDuration(ptrWdgt);
1448:Generated_Source\PSoC4/CapSense_1_SensingCSD_LL.c ****         CapSense_1_SsCSDConfigClock();
1449:Generated_Source\PSoC4/CapSense_1_SensingCSD_LL.c ****     #endif
1450:Generated_Source\PSoC4/CapSense_1_SensingCSD_LL.c **** 
1451:Generated_Source\PSoC4/CapSense_1_SensingCSD_LL.c ****     /* Set Start of sensor scan flag */
1452:Generated_Source\PSoC4/CapSense_1_SensingCSD_LL.c ****     CapSense_1_dsRam.status |= (CapSense_1_SW_STS_BUSY | CapSense_1_WDGT_SW_STS_BUSY);
1453:Generated_Source\PSoC4/CapSense_1_SensingCSD_LL.c **** 
1454:Generated_Source\PSoC4/CapSense_1_SensingCSD_LL.c ****     #if (CapSense_1_ENABLE == CapSense_1_MULTI_FREQ_SCAN_EN)
1455:Generated_Source\PSoC4/CapSense_1_SensingCSD_LL.c ****         /* Reset the frequency scan channel if enabled */
1456:Generated_Source\PSoC4/CapSense_1_SensingCSD_LL.c ****         CapSense_1_scanFreqIndex = CapSense_1_FREQ_CHANNEL_0;
1457:Generated_Source\PSoC4/CapSense_1_SensingCSD_LL.c ****     #endif /* (CapSense_1_ENABLE == CapSense_1_MULTI_FREQ_SCAN_EN) */
1458:Generated_Source\PSoC4/CapSense_1_SensingCSD_LL.c **** 
1459:Generated_Source\PSoC4/CapSense_1_SensingCSD_LL.c ****     #if (CapSense_1_ENABLE != CapSense_1_BLOCK_OFF_AFTER_SCAN_EN) &&\
1460:Generated_Source\PSoC4/CapSense_1_SensingCSD_LL.c ****         (CapSense_1_ENABLE == CapSense_1_CSDV2)
1461:Generated_Source\PSoC4/CapSense_1_SensingCSD_LL.c ****         #if(CapSense_1_CSD_ANALOG_STARTUP_DELAY_US > 0uL)
1462:Generated_Source\PSoC4/CapSense_1_SensingCSD_LL.c ****             CyDelayUs(CapSense_1_CSD_ANALOG_STARTUP_DELAY_US);
1463:Generated_Source\PSoC4/CapSense_1_SensingCSD_LL.c ****         #endif /* (CapSense_1_CSD_ANALOG_STARTUP_DELAY_US > 0uL) */
1464:Generated_Source\PSoC4/CapSense_1_SensingCSD_LL.c ****     #endif /* (CapSense_1_ENABLE != CapSense_1_BLOCK_OFF_AFTER_SCAN_EN) &&\
1465:Generated_Source\PSoC4/CapSense_1_SensingCSD_LL.c ****               (CapSense_1_ENABLE == CapSense_1_CSDV2)*/
1466:Generated_Source\PSoC4/CapSense_1_SensingCSD_LL.c **** 
1467:Generated_Source\PSoC4/CapSense_1_SensingCSD_LL.c ****     CapSense_1_SsCSDStartSample();
1468:Generated_Source\PSoC4/CapSense_1_SensingCSD_LL.c **** }
1469:Generated_Source\PSoC4/CapSense_1_SensingCSD_LL.c **** 
1470:Generated_Source\PSoC4/CapSense_1_SensingCSD_LL.c **** 
1471:Generated_Source\PSoC4/CapSense_1_SensingCSD_LL.c **** /*******************************************************************************
1472:Generated_Source\PSoC4/CapSense_1_SensingCSD_LL.c **** * Function Name: CapSense_1_CSDScan
1473:Generated_Source\PSoC4/CapSense_1_SensingCSD_LL.c **** ****************************************************************************//**
1474:Generated_Source\PSoC4/CapSense_1_SensingCSD_LL.c **** *
1475:Generated_Source\PSoC4/CapSense_1_SensingCSD_LL.c **** * \brief
1476:Generated_Source\PSoC4/CapSense_1_SensingCSD_LL.c **** *  This function initiates a scan for the sensors of the widget initialized by the
1477:Generated_Source\PSoC4/CapSense_1_SensingCSD_LL.c **** *  CapSense_1_CSDSetupWidget() function.
1478:Generated_Source\PSoC4/CapSense_1_SensingCSD_LL.c **** *
1479:Generated_Source\PSoC4/CapSense_1_SensingCSD_LL.c **** * \details
1480:Generated_Source\PSoC4/CapSense_1_SensingCSD_LL.c **** *  This function initiates a scan for the sensors of the widget initialized by the
1481:Generated_Source\PSoC4/CapSense_1_SensingCSD_LL.c **** *  CapSense_1_CSDSetupWidget() function.
1482:Generated_Source\PSoC4/CapSense_1_SensingCSD_LL.c **** *
1483:Generated_Source\PSoC4/CapSense_1_SensingCSD_LL.c **** *  \note This function is obsolete and kept for backward compatibility only.
1484:Generated_Source\PSoC4/CapSense_1_SensingCSD_LL.c **** *  The CapSense_1_Scan() function should be used instead.
1485:Generated_Source\PSoC4/CapSense_1_SensingCSD_LL.c **** *
1486:Generated_Source\PSoC4/CapSense_1_SensingCSD_LL.c **** *  This function performs scanning of all the sensors in the widget configured by
1487:Generated_Source\PSoC4/CapSense_1_SensingCSD_LL.c **** *  the CapSense_1_CSDSetupWidget() function. It does the following tasks:
1488:Generated_Source\PSoC4/CapSense_1_SensingCSD_LL.c **** *    1. Connects the first sensor of the widget.
1489:Generated_Source\PSoC4/CapSense_1_SensingCSD_LL.c **** *    2. Configures the IDAC value.
1490:Generated_Source\PSoC4/CapSense_1_SensingCSD_LL.c **** *    3. Initializes the interrupt callback function to initialize a scan of
1491:Generated_Source\PSoC4/CapSense_1_SensingCSD_LL.c **** *       the next sensors in a widget.
1492:Generated_Source\PSoC4/CapSense_1_SensingCSD_LL.c **** *    4. Starts scanning for the first sensor in the widget.
1493:Generated_Source\PSoC4/CapSense_1_SensingCSD_LL.c **** *
1494:Generated_Source\PSoC4/CapSense_1_SensingCSD_LL.c **** *  This function is called by the CapSense_1_Scan() API if the given
ARM GAS  C:\Users\exp32\AppData\Local\Temp\ccC3r0JH.s 			page 30


1495:Generated_Source\PSoC4/CapSense_1_SensingCSD_LL.c **** *  widget uses the CSD sensing method.
1496:Generated_Source\PSoC4/CapSense_1_SensingCSD_LL.c **** *
1497:Generated_Source\PSoC4/CapSense_1_SensingCSD_LL.c **** *  Calling this function directly from the application layer is not
1498:Generated_Source\PSoC4/CapSense_1_SensingCSD_LL.c **** *  recommended. This function is used to implement only the user's specific
1499:Generated_Source\PSoC4/CapSense_1_SensingCSD_LL.c **** *  use cases (for faster execution time or pipeline scanning for example).
1500:Generated_Source\PSoC4/CapSense_1_SensingCSD_LL.c **** *
1501:Generated_Source\PSoC4/CapSense_1_SensingCSD_LL.c **** *  This function is called when no scanning is in progress. I.e.
1502:Generated_Source\PSoC4/CapSense_1_SensingCSD_LL.c **** *  CapSense_1_IsBusy() returns a non-busy status. The widget must be
1503:Generated_Source\PSoC4/CapSense_1_SensingCSD_LL.c **** *  preconfigured by the CapSense_1_CSDSetupWidget() function if any other
1504:Generated_Source\PSoC4/CapSense_1_SensingCSD_LL.c **** *  widget was previously scanned or any other type of the scan functions was used.
1505:Generated_Source\PSoC4/CapSense_1_SensingCSD_LL.c **** *
1506:Generated_Source\PSoC4/CapSense_1_SensingCSD_LL.c **** *******************************************************************************/
1507:Generated_Source\PSoC4/CapSense_1_SensingCSD_LL.c **** void CapSense_1_CSDScan(void)
1508:Generated_Source\PSoC4/CapSense_1_SensingCSD_LL.c **** {
1509:Generated_Source\PSoC4/CapSense_1_SensingCSD_LL.c ****     CapSense_1_RAM_WD_BASE_STRUCT const *ptrWdgt = (CapSense_1_RAM_WD_BASE_STRUCT *)
1510:Generated_Source\PSoC4/CapSense_1_SensingCSD_LL.c ****                                                     CapSense_1_dsFlash.wdgtArray[CapSense_1_widgetI
1511:Generated_Source\PSoC4/CapSense_1_SensingCSD_LL.c **** 
1512:Generated_Source\PSoC4/CapSense_1_SensingCSD_LL.c ****     /* Set all the sensors to inactive state */
1513:Generated_Source\PSoC4/CapSense_1_SensingCSD_LL.c ****     if(CapSense_1_dsRam.scanCurrentISC != CapSense_1_dsRam.scanCsdISC)
1514:Generated_Source\PSoC4/CapSense_1_SensingCSD_LL.c ****     {
1515:Generated_Source\PSoC4/CapSense_1_SensingCSD_LL.c ****         CapSense_1_SsSetAllIOsState((uint32)CapSense_1_dsRam.scanCsdISC);
1516:Generated_Source\PSoC4/CapSense_1_SensingCSD_LL.c ****         CapSense_1_dsRam.scanCurrentISC = CapSense_1_dsRam.scanCsdISC;
1517:Generated_Source\PSoC4/CapSense_1_SensingCSD_LL.c ****     }
1518:Generated_Source\PSoC4/CapSense_1_SensingCSD_LL.c **** 
1519:Generated_Source\PSoC4/CapSense_1_SensingCSD_LL.c ****      /*
1520:Generated_Source\PSoC4/CapSense_1_SensingCSD_LL.c ****       * Update CapSense_1_sensorIndex with the first sensor in
1521:Generated_Source\PSoC4/CapSense_1_SensingCSD_LL.c ****       * widget to use it in ISR handler to configure the next sensor
1522:Generated_Source\PSoC4/CapSense_1_SensingCSD_LL.c ****       */
1523:Generated_Source\PSoC4/CapSense_1_SensingCSD_LL.c ****     CapSense_1_sensorIndex = 0u;
1524:Generated_Source\PSoC4/CapSense_1_SensingCSD_LL.c **** 
1525:Generated_Source\PSoC4/CapSense_1_SensingCSD_LL.c ****     /* Update global pointer to CapSense_1_RAM_SNS_STRUCT to current sensor  */
1526:Generated_Source\PSoC4/CapSense_1_SensingCSD_LL.c ****     CapSense_1_curRamSnsPtr = (CapSense_1_RAM_SNS_STRUCT *)
1527:Generated_Source\PSoC4/CapSense_1_SensingCSD_LL.c ****                                               CapSense_1_dsFlash.wdgtArray[CapSense_1_widgetIndex].
1528:Generated_Source\PSoC4/CapSense_1_SensingCSD_LL.c ****                                               + CapSense_1_sensorIndex;
1529:Generated_Source\PSoC4/CapSense_1_SensingCSD_LL.c **** 
1530:Generated_Source\PSoC4/CapSense_1_SensingCSD_LL.c ****     #if (CapSense_1_ENABLE == CapSense_1_MULTI_FREQ_SCAN_EN)
1531:Generated_Source\PSoC4/CapSense_1_SensingCSD_LL.c ****         /* Reset the frequency scan channel if enabled */
1532:Generated_Source\PSoC4/CapSense_1_SensingCSD_LL.c ****         CapSense_1_scanFreqIndex = CapSense_1_FREQ_CHANNEL_0;
1533:Generated_Source\PSoC4/CapSense_1_SensingCSD_LL.c ****     #endif /* (CapSense_1_ENABLE == CapSense_1_MULTI_FREQ_SCAN_EN) */
1534:Generated_Source\PSoC4/CapSense_1_SensingCSD_LL.c **** 
1535:Generated_Source\PSoC4/CapSense_1_SensingCSD_LL.c ****     /* Setup Idac Value */
1536:Generated_Source\PSoC4/CapSense_1_SensingCSD_LL.c ****    CapSense_1_SsCSDSetUpIdacs(ptrWdgt);
1537:Generated_Source\PSoC4/CapSense_1_SensingCSD_LL.c **** 
1538:Generated_Source\PSoC4/CapSense_1_SensingCSD_LL.c ****     #if (CapSense_1_ENABLE == CapSense_1_CSD_GANGED_SNS_EN)
1539:Generated_Source\PSoC4/CapSense_1_SensingCSD_LL.c ****         /* Check ganged sns flag  */
1540:Generated_Source\PSoC4/CapSense_1_SensingCSD_LL.c ****         if (CapSense_1_GANGED_SNS_MASK == (CapSense_1_dsFlash.wdgtArray[CapSense_1_widgetIndex].sta
1541:Generated_Source\PSoC4/CapSense_1_SensingCSD_LL.c ****             CapSense_1_GANGED_SNS_MASK))
1542:Generated_Source\PSoC4/CapSense_1_SensingCSD_LL.c ****         {
1543:Generated_Source\PSoC4/CapSense_1_SensingCSD_LL.c ****             /* Setup ISR handler to multiple-sensor scan function with ganged sensors */
1544:Generated_Source\PSoC4/CapSense_1_SensingCSD_LL.c ****             CapSense_1_ISR_StartEx(&CapSense_1_CSDPostMultiScanGanged);
1545:Generated_Source\PSoC4/CapSense_1_SensingCSD_LL.c ****         }
1546:Generated_Source\PSoC4/CapSense_1_SensingCSD_LL.c ****         else
1547:Generated_Source\PSoC4/CapSense_1_SensingCSD_LL.c ****         {
1548:Generated_Source\PSoC4/CapSense_1_SensingCSD_LL.c ****             /* Set up ISR handler to multiple-sensor scan function without ganged sensors */
1549:Generated_Source\PSoC4/CapSense_1_SensingCSD_LL.c ****             CapSense_1_ISR_StartEx(&CapSense_1_CSDPostMultiScan);
1550:Generated_Source\PSoC4/CapSense_1_SensingCSD_LL.c ****         }
1551:Generated_Source\PSoC4/CapSense_1_SensingCSD_LL.c **** 
ARM GAS  C:\Users\exp32\AppData\Local\Temp\ccC3r0JH.s 			page 31


1552:Generated_Source\PSoC4/CapSense_1_SensingCSD_LL.c ****         CapSense_1_SsCSDConnectSensorExt((uint32)CapSense_1_widgetIndex, (uint32)CapSense_1_sensorI
1553:Generated_Source\PSoC4/CapSense_1_SensingCSD_LL.c ****     #else
1554:Generated_Source\PSoC4/CapSense_1_SensingCSD_LL.c ****         /* initialize ptr to sensor IO structure to appropriate address */
1555:Generated_Source\PSoC4/CapSense_1_SensingCSD_LL.c ****         CapSense_1_curSnsIOPtr = (CapSense_1_FLASH_IO_STRUCT const *)
1556:Generated_Source\PSoC4/CapSense_1_SensingCSD_LL.c ****                                         CapSense_1_dsFlash.wdgtArray[CapSense_1_widgetIndex].ptr2Sn
1557:Generated_Source\PSoC4/CapSense_1_SensingCSD_LL.c ****                                         + CapSense_1_sensorIndex;
1558:Generated_Source\PSoC4/CapSense_1_SensingCSD_LL.c **** 
1559:Generated_Source\PSoC4/CapSense_1_SensingCSD_LL.c ****         /* Enable sensor */
1560:Generated_Source\PSoC4/CapSense_1_SensingCSD_LL.c ****         CapSense_1_CSDConnectSns(CapSense_1_curSnsIOPtr);
1561:Generated_Source\PSoC4/CapSense_1_SensingCSD_LL.c **** 
1562:Generated_Source\PSoC4/CapSense_1_SensingCSD_LL.c ****         /* Set-up ISR handler to multiple-sensor scan function without ganged sensors */
1563:Generated_Source\PSoC4/CapSense_1_SensingCSD_LL.c ****         CapSense_1_ISR_StartEx(&CapSense_1_CSDPostMultiScan);
1564:Generated_Source\PSoC4/CapSense_1_SensingCSD_LL.c ****     #endif /* (CapSense_1_ENABLE == CapSense_1_CSD_GANGED_SNS_EN)  */
1565:Generated_Source\PSoC4/CapSense_1_SensingCSD_LL.c **** 
1566:Generated_Source\PSoC4/CapSense_1_SensingCSD_LL.c ****     /* Start scanning */
1567:Generated_Source\PSoC4/CapSense_1_SensingCSD_LL.c ****     CapSense_1_CSDScanExt();
1568:Generated_Source\PSoC4/CapSense_1_SensingCSD_LL.c **** }
1569:Generated_Source\PSoC4/CapSense_1_SensingCSD_LL.c **** 
1570:Generated_Source\PSoC4/CapSense_1_SensingCSD_LL.c **** 
1571:Generated_Source\PSoC4/CapSense_1_SensingCSD_LL.c **** /*******************************************************************************
1572:Generated_Source\PSoC4/CapSense_1_SensingCSD_LL.c **** * Function Name: CapSense_1_SsCSDConnectSensorExt
1573:Generated_Source\PSoC4/CapSense_1_SensingCSD_LL.c **** ****************************************************************************//**
1574:Generated_Source\PSoC4/CapSense_1_SensingCSD_LL.c **** *
1575:Generated_Source\PSoC4/CapSense_1_SensingCSD_LL.c **** * \brief
1576:Generated_Source\PSoC4/CapSense_1_SensingCSD_LL.c **** *  Connects a ganged sensor port-pin to the sensing HW block via the AMUX bus.
1577:Generated_Source\PSoC4/CapSense_1_SensingCSD_LL.c **** *
1578:Generated_Source\PSoC4/CapSense_1_SensingCSD_LL.c **** * \details
1579:Generated_Source\PSoC4/CapSense_1_SensingCSD_LL.c **** *   The function gets the IO configuration registers addresses, their shifts and
1580:Generated_Source\PSoC4/CapSense_1_SensingCSD_LL.c **** *   masks from the FLASH_IO_STRUCT object. Basing on this data, it updates the HSIOM and
1581:Generated_Source\PSoC4/CapSense_1_SensingCSD_LL.c **** *   PC registers.
1582:Generated_Source\PSoC4/CapSense_1_SensingCSD_LL.c **** *
1583:Generated_Source\PSoC4/CapSense_1_SensingCSD_LL.c **** * \param widgetId
1584:Generated_Source\PSoC4/CapSense_1_SensingCSD_LL.c **** *  Specifies ID of the widget.
1585:Generated_Source\PSoC4/CapSense_1_SensingCSD_LL.c **** *
1586:Generated_Source\PSoC4/CapSense_1_SensingCSD_LL.c **** * \param sensorId
1587:Generated_Source\PSoC4/CapSense_1_SensingCSD_LL.c **** *  Specifies ID of the sensor in the widget.
1588:Generated_Source\PSoC4/CapSense_1_SensingCSD_LL.c **** *
1589:Generated_Source\PSoC4/CapSense_1_SensingCSD_LL.c **** *******************************************************************************/
1590:Generated_Source\PSoC4/CapSense_1_SensingCSD_LL.c **** void CapSense_1_SsCSDConnectSensorExt(uint32 widgetId, uint32 sensorId)
1591:Generated_Source\PSoC4/CapSense_1_SensingCSD_LL.c **** {
1592:Generated_Source\PSoC4/CapSense_1_SensingCSD_LL.c ****     #if (CapSense_1_ENABLE == CapSense_1_CSD_GANGED_SNS_EN)
1593:Generated_Source\PSoC4/CapSense_1_SensingCSD_LL.c ****         uint32 tempVal;
1594:Generated_Source\PSoC4/CapSense_1_SensingCSD_LL.c ****     #endif /* (CapSense_1_ENABLE == CapSense_1_CSD_GANGED_SNS_EN) */
1595:Generated_Source\PSoC4/CapSense_1_SensingCSD_LL.c **** 
1596:Generated_Source\PSoC4/CapSense_1_SensingCSD_LL.c ****     /* initialize ptr to sensor IO structure to appropriate address */
1597:Generated_Source\PSoC4/CapSense_1_SensingCSD_LL.c ****     CapSense_1_curSnsIOPtr = (CapSense_1_FLASH_IO_STRUCT const *)
1598:Generated_Source\PSoC4/CapSense_1_SensingCSD_LL.c ****                                                       CapSense_1_dsFlash.wdgtArray[widgetId].ptr2Sn
1599:Generated_Source\PSoC4/CapSense_1_SensingCSD_LL.c ****                                                       + sensorId;
1600:Generated_Source\PSoC4/CapSense_1_SensingCSD_LL.c **** 
1601:Generated_Source\PSoC4/CapSense_1_SensingCSD_LL.c ****     #if (CapSense_1_ENABLE == CapSense_1_CSD_GANGED_SNS_EN)
1602:Generated_Source\PSoC4/CapSense_1_SensingCSD_LL.c ****         /* Check ganged sns flag  */
1603:Generated_Source\PSoC4/CapSense_1_SensingCSD_LL.c ****         if (CapSense_1_GANGED_SNS_MASK ==
1604:Generated_Source\PSoC4/CapSense_1_SensingCSD_LL.c ****            (CapSense_1_dsFlash.wdgtArray[widgetId].staticConfig &
1605:Generated_Source\PSoC4/CapSense_1_SensingCSD_LL.c ****             CapSense_1_GANGED_SNS_MASK))
1606:Generated_Source\PSoC4/CapSense_1_SensingCSD_LL.c ****         {
1607:Generated_Source\PSoC4/CapSense_1_SensingCSD_LL.c ****             /* Get sns pointer */
1608:Generated_Source\PSoC4/CapSense_1_SensingCSD_LL.c ****             CapSense_1_curFlashSnsPtr = (CapSense_1_FLASH_SNS_STRUCT const *)
ARM GAS  C:\Users\exp32\AppData\Local\Temp\ccC3r0JH.s 			page 32


1609:Generated_Source\PSoC4/CapSense_1_SensingCSD_LL.c ****                                                CapSense_1_dsFlash.wdgtArray[widgetId].ptr2SnsFlash 
1610:Generated_Source\PSoC4/CapSense_1_SensingCSD_LL.c ****                                                sensorId;
1611:Generated_Source\PSoC4/CapSense_1_SensingCSD_LL.c **** 
1612:Generated_Source\PSoC4/CapSense_1_SensingCSD_LL.c ****             /* Get number of ganged pins */
1613:Generated_Source\PSoC4/CapSense_1_SensingCSD_LL.c ****             tempVal = CapSense_1_curFlashSnsPtr->numPins;
1614:Generated_Source\PSoC4/CapSense_1_SensingCSD_LL.c **** 
1615:Generated_Source\PSoC4/CapSense_1_SensingCSD_LL.c ****             /* Get IO pointer  */
1616:Generated_Source\PSoC4/CapSense_1_SensingCSD_LL.c ****             CapSense_1_curSnsIOPtr = &CapSense_1_ioList[CapSense_1_curFlashSnsPtr->firstPinId];
1617:Generated_Source\PSoC4/CapSense_1_SensingCSD_LL.c **** 
1618:Generated_Source\PSoC4/CapSense_1_SensingCSD_LL.c ****             /* Connect all ganged sensors  */
1619:Generated_Source\PSoC4/CapSense_1_SensingCSD_LL.c ****             do
1620:Generated_Source\PSoC4/CapSense_1_SensingCSD_LL.c ****             {
1621:Generated_Source\PSoC4/CapSense_1_SensingCSD_LL.c ****                 CapSense_1_CSDConnectSns(CapSense_1_curSnsIOPtr);
1622:Generated_Source\PSoC4/CapSense_1_SensingCSD_LL.c ****                 CapSense_1_curSnsIOPtr++;
1623:Generated_Source\PSoC4/CapSense_1_SensingCSD_LL.c ****                 tempVal--;
1624:Generated_Source\PSoC4/CapSense_1_SensingCSD_LL.c ****             } while (0u != tempVal);
1625:Generated_Source\PSoC4/CapSense_1_SensingCSD_LL.c ****         }
1626:Generated_Source\PSoC4/CapSense_1_SensingCSD_LL.c ****         else
1627:Generated_Source\PSoC4/CapSense_1_SensingCSD_LL.c ****         {
1628:Generated_Source\PSoC4/CapSense_1_SensingCSD_LL.c ****             /* Connect sensor */
1629:Generated_Source\PSoC4/CapSense_1_SensingCSD_LL.c ****             CapSense_1_CSDConnectSns(CapSense_1_curSnsIOPtr);
1630:Generated_Source\PSoC4/CapSense_1_SensingCSD_LL.c ****         }
1631:Generated_Source\PSoC4/CapSense_1_SensingCSD_LL.c ****     #else
1632:Generated_Source\PSoC4/CapSense_1_SensingCSD_LL.c ****         /* Connect sensor */
1633:Generated_Source\PSoC4/CapSense_1_SensingCSD_LL.c ****         CapSense_1_CSDConnectSns(CapSense_1_curSnsIOPtr);
1634:Generated_Source\PSoC4/CapSense_1_SensingCSD_LL.c ****     #endif /* (CapSense_1_ENABLE == CapSense_1_CSD_GANGED_SNS_EN) */
1635:Generated_Source\PSoC4/CapSense_1_SensingCSD_LL.c **** }
1636:Generated_Source\PSoC4/CapSense_1_SensingCSD_LL.c **** 
1637:Generated_Source\PSoC4/CapSense_1_SensingCSD_LL.c **** 
1638:Generated_Source\PSoC4/CapSense_1_SensingCSD_LL.c **** /*******************************************************************************
1639:Generated_Source\PSoC4/CapSense_1_SensingCSD_LL.c **** * Function Name: CapSense_1_SsCSDDisconnectSnsExt
1640:Generated_Source\PSoC4/CapSense_1_SensingCSD_LL.c **** ****************************************************************************//**
1641:Generated_Source\PSoC4/CapSense_1_SensingCSD_LL.c **** *
1642:Generated_Source\PSoC4/CapSense_1_SensingCSD_LL.c **** * \brief
1643:Generated_Source\PSoC4/CapSense_1_SensingCSD_LL.c **** *  Disconnects a ganged sensor port-pin from the sensing HW block and AMUX bus.
1644:Generated_Source\PSoC4/CapSense_1_SensingCSD_LL.c **** *  Sets the default state of the un-scanned sensor.
1645:Generated_Source\PSoC4/CapSense_1_SensingCSD_LL.c **** *
1646:Generated_Source\PSoC4/CapSense_1_SensingCSD_LL.c **** * \details
1647:Generated_Source\PSoC4/CapSense_1_SensingCSD_LL.c **** *   The function gets the IO configuration registers addresses, their shifts and
1648:Generated_Source\PSoC4/CapSense_1_SensingCSD_LL.c **** *   masks from the FLASH_IO_STRUCT object. Basing on this data and Inactive sensor
1649:Generated_Source\PSoC4/CapSense_1_SensingCSD_LL.c **** *   connection parameter, it updates the HSIOM, PC and DR registers.
1650:Generated_Source\PSoC4/CapSense_1_SensingCSD_LL.c **** *   The HSIOM register is updated only when the Inactive sensor connection parameter
1651:Generated_Source\PSoC4/CapSense_1_SensingCSD_LL.c **** *   is set to Shield.
1652:Generated_Source\PSoC4/CapSense_1_SensingCSD_LL.c **** *
1653:Generated_Source\PSoC4/CapSense_1_SensingCSD_LL.c **** * \param widgetId
1654:Generated_Source\PSoC4/CapSense_1_SensingCSD_LL.c **** *  Specifies ID of the widget.
1655:Generated_Source\PSoC4/CapSense_1_SensingCSD_LL.c **** *
1656:Generated_Source\PSoC4/CapSense_1_SensingCSD_LL.c **** * \param sensorId
1657:Generated_Source\PSoC4/CapSense_1_SensingCSD_LL.c **** *  Specifies ID of the sensor in the widget.
1658:Generated_Source\PSoC4/CapSense_1_SensingCSD_LL.c **** *
1659:Generated_Source\PSoC4/CapSense_1_SensingCSD_LL.c **** *******************************************************************************/
1660:Generated_Source\PSoC4/CapSense_1_SensingCSD_LL.c **** void CapSense_1_SsCSDDisconnectSnsExt(uint32 widgetId, uint32 sensorId)
1661:Generated_Source\PSoC4/CapSense_1_SensingCSD_LL.c **** {
1662:Generated_Source\PSoC4/CapSense_1_SensingCSD_LL.c ****     #if (CapSense_1_ENABLE == CapSense_1_CSD_GANGED_SNS_EN)
1663:Generated_Source\PSoC4/CapSense_1_SensingCSD_LL.c ****         uint32 tempVal;
1664:Generated_Source\PSoC4/CapSense_1_SensingCSD_LL.c ****     #endif /* (CapSense_1_ENABLE == CapSense_1_CSD_GANGED_SNS_EN) */
1665:Generated_Source\PSoC4/CapSense_1_SensingCSD_LL.c **** 
ARM GAS  C:\Users\exp32\AppData\Local\Temp\ccC3r0JH.s 			page 33


1666:Generated_Source\PSoC4/CapSense_1_SensingCSD_LL.c ****     /* initialize ptr to sensor IO structure to appropriate address        */
1667:Generated_Source\PSoC4/CapSense_1_SensingCSD_LL.c ****     CapSense_1_curSnsIOPtr = (CapSense_1_FLASH_IO_STRUCT const *)
1668:Generated_Source\PSoC4/CapSense_1_SensingCSD_LL.c ****                                                       CapSense_1_dsFlash.wdgtArray[widgetId].ptr2Sn
1669:Generated_Source\PSoC4/CapSense_1_SensingCSD_LL.c ****                                                       + sensorId;
1670:Generated_Source\PSoC4/CapSense_1_SensingCSD_LL.c **** 
1671:Generated_Source\PSoC4/CapSense_1_SensingCSD_LL.c ****     #if (CapSense_1_ENABLE == CapSense_1_CSD_GANGED_SNS_EN)
1672:Generated_Source\PSoC4/CapSense_1_SensingCSD_LL.c ****         /* Check ganged sns flag  */
1673:Generated_Source\PSoC4/CapSense_1_SensingCSD_LL.c ****         if ((CapSense_1_dsFlash.wdgtArray[widgetId].staticConfig &
1674:Generated_Source\PSoC4/CapSense_1_SensingCSD_LL.c ****             CapSense_1_GANGED_SNS_MASK) == CapSense_1_GANGED_SNS_MASK)
1675:Generated_Source\PSoC4/CapSense_1_SensingCSD_LL.c ****         {
1676:Generated_Source\PSoC4/CapSense_1_SensingCSD_LL.c ****             /* Get sns pointer */
1677:Generated_Source\PSoC4/CapSense_1_SensingCSD_LL.c ****             CapSense_1_curFlashSnsPtr = (CapSense_1_FLASH_SNS_STRUCT const *)
1678:Generated_Source\PSoC4/CapSense_1_SensingCSD_LL.c ****                                                CapSense_1_dsFlash.wdgtArray[widgetId].ptr2SnsFlash 
1679:Generated_Source\PSoC4/CapSense_1_SensingCSD_LL.c ****                                                sensorId;
1680:Generated_Source\PSoC4/CapSense_1_SensingCSD_LL.c **** 
1681:Generated_Source\PSoC4/CapSense_1_SensingCSD_LL.c ****             /* Get number of ganged pins */
1682:Generated_Source\PSoC4/CapSense_1_SensingCSD_LL.c ****             tempVal = CapSense_1_curFlashSnsPtr->numPins;
1683:Generated_Source\PSoC4/CapSense_1_SensingCSD_LL.c **** 
1684:Generated_Source\PSoC4/CapSense_1_SensingCSD_LL.c ****             /* Get IO pointer  */
1685:Generated_Source\PSoC4/CapSense_1_SensingCSD_LL.c ****             CapSense_1_curSnsIOPtr = &CapSense_1_ioList[CapSense_1_curFlashSnsPtr->firstPinId];
1686:Generated_Source\PSoC4/CapSense_1_SensingCSD_LL.c **** 
1687:Generated_Source\PSoC4/CapSense_1_SensingCSD_LL.c ****             /* Disconnect all ganged sensors */
1688:Generated_Source\PSoC4/CapSense_1_SensingCSD_LL.c ****             do
1689:Generated_Source\PSoC4/CapSense_1_SensingCSD_LL.c ****             {
1690:Generated_Source\PSoC4/CapSense_1_SensingCSD_LL.c ****                 CapSense_1_CSDDisconnectSns(CapSense_1_curSnsIOPtr);
1691:Generated_Source\PSoC4/CapSense_1_SensingCSD_LL.c ****                 CapSense_1_curSnsIOPtr++;
1692:Generated_Source\PSoC4/CapSense_1_SensingCSD_LL.c ****                 tempVal--;
1693:Generated_Source\PSoC4/CapSense_1_SensingCSD_LL.c ****             } while (0u != tempVal);
1694:Generated_Source\PSoC4/CapSense_1_SensingCSD_LL.c ****         }
1695:Generated_Source\PSoC4/CapSense_1_SensingCSD_LL.c ****         else
1696:Generated_Source\PSoC4/CapSense_1_SensingCSD_LL.c ****         {
1697:Generated_Source\PSoC4/CapSense_1_SensingCSD_LL.c ****             /* Disconnect ganged sensor */
1698:Generated_Source\PSoC4/CapSense_1_SensingCSD_LL.c ****             CapSense_1_CSDDisconnectSns(CapSense_1_curSnsIOPtr);
1699:Generated_Source\PSoC4/CapSense_1_SensingCSD_LL.c ****         }
1700:Generated_Source\PSoC4/CapSense_1_SensingCSD_LL.c ****     #else
1701:Generated_Source\PSoC4/CapSense_1_SensingCSD_LL.c ****         /* Disconnect ganged sensor */
1702:Generated_Source\PSoC4/CapSense_1_SensingCSD_LL.c ****         CapSense_1_CSDDisconnectSns(CapSense_1_curSnsIOPtr);
1703:Generated_Source\PSoC4/CapSense_1_SensingCSD_LL.c ****     #endif /* (CapSense_1_ENABLE == CapSense_1_CSD_GANGED_SNS_EN) */
1704:Generated_Source\PSoC4/CapSense_1_SensingCSD_LL.c **** }
1705:Generated_Source\PSoC4/CapSense_1_SensingCSD_LL.c **** 
1706:Generated_Source\PSoC4/CapSense_1_SensingCSD_LL.c **** 
1707:Generated_Source\PSoC4/CapSense_1_SensingCSD_LL.c **** /*******************************************************************************
1708:Generated_Source\PSoC4/CapSense_1_SensingCSD_LL.c **** * Function Name: CapSense_1_CSDConnectSns
1709:Generated_Source\PSoC4/CapSense_1_SensingCSD_LL.c **** ****************************************************************************//**
1710:Generated_Source\PSoC4/CapSense_1_SensingCSD_LL.c **** *
1711:Generated_Source\PSoC4/CapSense_1_SensingCSD_LL.c **** * \brief
1712:Generated_Source\PSoC4/CapSense_1_SensingCSD_LL.c **** *  Connects a port pin used by the sensor to the AMUX bus of the sensing HW block.
1713:Generated_Source\PSoC4/CapSense_1_SensingCSD_LL.c **** *
1714:Generated_Source\PSoC4/CapSense_1_SensingCSD_LL.c **** * \details
1715:Generated_Source\PSoC4/CapSense_1_SensingCSD_LL.c **** *  Connects a port pin used by the sensor to the AMUX bus of the sensing HW block
1716:Generated_Source\PSoC4/CapSense_1_SensingCSD_LL.c **** *  while a sensor is being scanned. The function ignores the fact if
1717:Generated_Source\PSoC4/CapSense_1_SensingCSD_LL.c **** *  the sensor is a ganged sensor and connects only a specified pin.
1718:Generated_Source\PSoC4/CapSense_1_SensingCSD_LL.c **** *
1719:Generated_Source\PSoC4/CapSense_1_SensingCSD_LL.c **** *  Scanning should be completed before calling this API.
1720:Generated_Source\PSoC4/CapSense_1_SensingCSD_LL.c **** *
1721:Generated_Source\PSoC4/CapSense_1_SensingCSD_LL.c **** *  Calling this function directly from the application layer is not
1722:Generated_Source\PSoC4/CapSense_1_SensingCSD_LL.c **** *  recommended. This function is used to implement only the user's specific
ARM GAS  C:\Users\exp32\AppData\Local\Temp\ccC3r0JH.s 			page 34


1723:Generated_Source\PSoC4/CapSense_1_SensingCSD_LL.c **** *  use cases. Functions that perform a setup and scan of a sensor/widget,
1724:Generated_Source\PSoC4/CapSense_1_SensingCSD_LL.c **** *  automatically set the required pin states and perform the sensor connection.
1725:Generated_Source\PSoC4/CapSense_1_SensingCSD_LL.c **** *  They do not take into account changes in the design made by the
1726:Generated_Source\PSoC4/CapSense_1_SensingCSD_LL.c **** *  CapSense_1_CSDConnectSns() function.
1727:Generated_Source\PSoC4/CapSense_1_SensingCSD_LL.c **** *
1728:Generated_Source\PSoC4/CapSense_1_SensingCSD_LL.c **** * \param  snsAddrPtr
1729:Generated_Source\PSoC4/CapSense_1_SensingCSD_LL.c **** *  Specifies the pointer to the FLASH_IO_STRUCT object belonging to a sensor
1730:Generated_Source\PSoC4/CapSense_1_SensingCSD_LL.c **** *  which to be connected to the sensing HW block.
1731:Generated_Source\PSoC4/CapSense_1_SensingCSD_LL.c **** *
1732:Generated_Source\PSoC4/CapSense_1_SensingCSD_LL.c **** *******************************************************************************/
1733:Generated_Source\PSoC4/CapSense_1_SensingCSD_LL.c **** void CapSense_1_CSDConnectSns(CapSense_1_FLASH_IO_STRUCT const *snsAddrPtr)
1734:Generated_Source\PSoC4/CapSense_1_SensingCSD_LL.c **** {
1735:Generated_Source\PSoC4/CapSense_1_SensingCSD_LL.c ****     uint32 newRegisterValue;
1736:Generated_Source\PSoC4/CapSense_1_SensingCSD_LL.c ****     uint8  interruptState;
1737:Generated_Source\PSoC4/CapSense_1_SensingCSD_LL.c ****     uint32 pinModeShift;
1738:Generated_Source\PSoC4/CapSense_1_SensingCSD_LL.c ****     uint32 pinHSIOMShift;
1739:Generated_Source\PSoC4/CapSense_1_SensingCSD_LL.c **** 
1740:Generated_Source\PSoC4/CapSense_1_SensingCSD_LL.c ****     /* Get offsets for sensor */
1741:Generated_Source\PSoC4/CapSense_1_SensingCSD_LL.c ****     pinModeShift = (uint32)snsAddrPtr->shift;
1742:Generated_Source\PSoC4/CapSense_1_SensingCSD_LL.c ****     pinHSIOMShift = (uint32)snsAddrPtr->hsiomShift;
1743:Generated_Source\PSoC4/CapSense_1_SensingCSD_LL.c **** 
1744:Generated_Source\PSoC4/CapSense_1_SensingCSD_LL.c ****     interruptState = CyEnterCriticalSection();
1745:Generated_Source\PSoC4/CapSense_1_SensingCSD_LL.c **** 
1746:Generated_Source\PSoC4/CapSense_1_SensingCSD_LL.c ****     /* Use temporary variable to update registers without multiple writings to them */
1747:Generated_Source\PSoC4/CapSense_1_SensingCSD_LL.c ****     newRegisterValue = CY_GET_REG32(snsAddrPtr->hsiomPtr);
1748:Generated_Source\PSoC4/CapSense_1_SensingCSD_LL.c ****     newRegisterValue &= ~(CapSense_1_HSIOM_SEL_MASK << pinHSIOMShift);
1749:Generated_Source\PSoC4/CapSense_1_SensingCSD_LL.c ****     newRegisterValue |= (uint32)((uint32)CapSense_1_HSIOM_SEL_CSD_SENSE << pinHSIOMShift);
1750:Generated_Source\PSoC4/CapSense_1_SensingCSD_LL.c **** 
1751:Generated_Source\PSoC4/CapSense_1_SensingCSD_LL.c ****     /* Update port configuration register (drive mode) for sensor */
1752:Generated_Source\PSoC4/CapSense_1_SensingCSD_LL.c ****     CY_SET_REG32(snsAddrPtr->pcPtr, CY_GET_REG32(snsAddrPtr->pcPtr) & (uint32)~((uint32)CapSense_1_
1753:Generated_Source\PSoC4/CapSense_1_SensingCSD_LL.c **** 
1754:Generated_Source\PSoC4/CapSense_1_SensingCSD_LL.c ****     /* Update HSIOM register for sensor */
1755:Generated_Source\PSoC4/CapSense_1_SensingCSD_LL.c ****     CY_SET_REG32(snsAddrPtr->hsiomPtr, newRegisterValue);
1756:Generated_Source\PSoC4/CapSense_1_SensingCSD_LL.c **** 
1757:Generated_Source\PSoC4/CapSense_1_SensingCSD_LL.c ****     CyExitCriticalSection(interruptState);
1758:Generated_Source\PSoC4/CapSense_1_SensingCSD_LL.c **** }
1759:Generated_Source\PSoC4/CapSense_1_SensingCSD_LL.c **** 
1760:Generated_Source\PSoC4/CapSense_1_SensingCSD_LL.c **** 
1761:Generated_Source\PSoC4/CapSense_1_SensingCSD_LL.c **** /*******************************************************************************
1762:Generated_Source\PSoC4/CapSense_1_SensingCSD_LL.c **** * Function Name: CapSense_1_CSDDisconnectSns
1763:Generated_Source\PSoC4/CapSense_1_SensingCSD_LL.c **** ****************************************************************************//**
1764:Generated_Source\PSoC4/CapSense_1_SensingCSD_LL.c **** *
1765:Generated_Source\PSoC4/CapSense_1_SensingCSD_LL.c **** * \brief
1766:Generated_Source\PSoC4/CapSense_1_SensingCSD_LL.c **** *  Disconnects a sensor port pin from the sensing HW block and the AMUX bus. Sets
1767:Generated_Source\PSoC4/CapSense_1_SensingCSD_LL.c **** *  the default state of the un-scanned sensor.
1768:Generated_Source\PSoC4/CapSense_1_SensingCSD_LL.c **** *
1769:Generated_Source\PSoC4/CapSense_1_SensingCSD_LL.c **** * \details
1770:Generated_Source\PSoC4/CapSense_1_SensingCSD_LL.c **** *  This function works identically to CapSense_1_CSDConnectSns() except
1771:Generated_Source\PSoC4/CapSense_1_SensingCSD_LL.c **** *  it disconnects the specified port-pin used by the sensor.
1772:Generated_Source\PSoC4/CapSense_1_SensingCSD_LL.c **** *
1773:Generated_Source\PSoC4/CapSense_1_SensingCSD_LL.c **** *  Calling this function directly from the application layer is not
1774:Generated_Source\PSoC4/CapSense_1_SensingCSD_LL.c **** *  recommended. This function is used to implement only the user's specific
1775:Generated_Source\PSoC4/CapSense_1_SensingCSD_LL.c **** *  use cases. Functions that perform a setup and scan of sensor/widget
1776:Generated_Source\PSoC4/CapSense_1_SensingCSD_LL.c **** *  automatically set the required pin states and perform the sensor connection.
1777:Generated_Source\PSoC4/CapSense_1_SensingCSD_LL.c **** *  They ignore changes in the design made by the
1778:Generated_Source\PSoC4/CapSense_1_SensingCSD_LL.c **** *  CapSense_1_CSDDisconnectSns() function.
1779:Generated_Source\PSoC4/CapSense_1_SensingCSD_LL.c **** *
ARM GAS  C:\Users\exp32\AppData\Local\Temp\ccC3r0JH.s 			page 35


1780:Generated_Source\PSoC4/CapSense_1_SensingCSD_LL.c **** * \param  snsAddrPtr
1781:Generated_Source\PSoC4/CapSense_1_SensingCSD_LL.c **** *  Specifies the pointer to the FLASH_IO_STRUCT object belonging to a sensor
1782:Generated_Source\PSoC4/CapSense_1_SensingCSD_LL.c **** *  which should be disconnected from the sensing HW block.
1783:Generated_Source\PSoC4/CapSense_1_SensingCSD_LL.c **** *
1784:Generated_Source\PSoC4/CapSense_1_SensingCSD_LL.c **** *******************************************************************************/
1785:Generated_Source\PSoC4/CapSense_1_SensingCSD_LL.c **** void CapSense_1_CSDDisconnectSns(CapSense_1_FLASH_IO_STRUCT const *snsAddrPtr)
1786:Generated_Source\PSoC4/CapSense_1_SensingCSD_LL.c **** {
1787:Generated_Source\PSoC4/CapSense_1_SensingCSD_LL.c ****     uint8  interruptState;
1788:Generated_Source\PSoC4/CapSense_1_SensingCSD_LL.c ****     uint32 pinHSIOMShift;
1789:Generated_Source\PSoC4/CapSense_1_SensingCSD_LL.c ****     uint32 pinModeShift;
1790:Generated_Source\PSoC4/CapSense_1_SensingCSD_LL.c ****     uint32 newPcRegValue;
1791:Generated_Source\PSoC4/CapSense_1_SensingCSD_LL.c ****     uint32 newHsiomRegValue;
1792:Generated_Source\PSoC4/CapSense_1_SensingCSD_LL.c **** 
1793:Generated_Source\PSoC4/CapSense_1_SensingCSD_LL.c ****     pinHSIOMShift = (uint32)snsAddrPtr->hsiomShift;
1794:Generated_Source\PSoC4/CapSense_1_SensingCSD_LL.c ****     pinModeShift = (uint32)snsAddrPtr->shift;
1795:Generated_Source\PSoC4/CapSense_1_SensingCSD_LL.c **** 
1796:Generated_Source\PSoC4/CapSense_1_SensingCSD_LL.c ****     interruptState = CyEnterCriticalSection();
1797:Generated_Source\PSoC4/CapSense_1_SensingCSD_LL.c **** 
1798:Generated_Source\PSoC4/CapSense_1_SensingCSD_LL.c ****     newPcRegValue  = CY_GET_REG32(snsAddrPtr->pcPtr);
1799:Generated_Source\PSoC4/CapSense_1_SensingCSD_LL.c ****     newPcRegValue &= ~(CapSense_1_GPIO_PC_MASK << pinModeShift);
1800:Generated_Source\PSoC4/CapSense_1_SensingCSD_LL.c **** 
1801:Generated_Source\PSoC4/CapSense_1_SensingCSD_LL.c ****     newHsiomRegValue  = CY_GET_REG32(snsAddrPtr->hsiomPtr);
1802:Generated_Source\PSoC4/CapSense_1_SensingCSD_LL.c ****     newHsiomRegValue &= ~(CapSense_1_HSIOM_SEL_MASK << pinHSIOMShift);
1803:Generated_Source\PSoC4/CapSense_1_SensingCSD_LL.c ****     CY_SET_REG32(snsAddrPtr->hsiomPtr, newHsiomRegValue);
1804:Generated_Source\PSoC4/CapSense_1_SensingCSD_LL.c **** 
1805:Generated_Source\PSoC4/CapSense_1_SensingCSD_LL.c ****     if(CapSense_1_SNS_CONNECTION_GROUND == CapSense_1_dsRam.scanCurrentISC)
1806:Generated_Source\PSoC4/CapSense_1_SensingCSD_LL.c ****     {
1807:Generated_Source\PSoC4/CapSense_1_SensingCSD_LL.c ****         newPcRegValue |= (CY_SYS_PINS_DM_STRONG << pinModeShift);
1808:Generated_Source\PSoC4/CapSense_1_SensingCSD_LL.c ****         CY_SET_REG32(snsAddrPtr->pcPtr, newPcRegValue);
1809:Generated_Source\PSoC4/CapSense_1_SensingCSD_LL.c ****     }
1810:Generated_Source\PSoC4/CapSense_1_SensingCSD_LL.c ****     else
1811:Generated_Source\PSoC4/CapSense_1_SensingCSD_LL.c ****     {
1812:Generated_Source\PSoC4/CapSense_1_SensingCSD_LL.c ****         newPcRegValue |= (CY_SYS_PINS_DM_ALG_HIZ << pinModeShift);
1813:Generated_Source\PSoC4/CapSense_1_SensingCSD_LL.c ****         if(CapSense_1_SNS_CONNECTION_SHIELD == CapSense_1_dsRam.scanCurrentISC)
1814:Generated_Source\PSoC4/CapSense_1_SensingCSD_LL.c ****         {
1815:Generated_Source\PSoC4/CapSense_1_SensingCSD_LL.c ****             /* Connect to Shield */
1816:Generated_Source\PSoC4/CapSense_1_SensingCSD_LL.c ****             newHsiomRegValue |= (CapSense_1_HSIOM_SEL_CSD_SHIELD << pinHSIOMShift);
1817:Generated_Source\PSoC4/CapSense_1_SensingCSD_LL.c ****             CY_SET_REG32(snsAddrPtr->pcPtr, newPcRegValue);
1818:Generated_Source\PSoC4/CapSense_1_SensingCSD_LL.c ****             CY_SET_REG32(snsAddrPtr->hsiomPtr, newHsiomRegValue);
1819:Generated_Source\PSoC4/CapSense_1_SensingCSD_LL.c ****         }
1820:Generated_Source\PSoC4/CapSense_1_SensingCSD_LL.c ****     }
1821:Generated_Source\PSoC4/CapSense_1_SensingCSD_LL.c ****     /* Set logic 0 to port data register */
1822:Generated_Source\PSoC4/CapSense_1_SensingCSD_LL.c ****     CY_SET_REG32(snsAddrPtr->drPtr, CY_GET_REG32(snsAddrPtr->drPtr) & (uint32)~(uint32)((uint32)1u 
1823:Generated_Source\PSoC4/CapSense_1_SensingCSD_LL.c **** 
1824:Generated_Source\PSoC4/CapSense_1_SensingCSD_LL.c ****     CyExitCriticalSection(interruptState);
1825:Generated_Source\PSoC4/CapSense_1_SensingCSD_LL.c **** }
1826:Generated_Source\PSoC4/CapSense_1_SensingCSD_LL.c **** 
1827:Generated_Source\PSoC4/CapSense_1_SensingCSD_LL.c **** #if ((CapSense_1_CSD_SS_DIS != CapSense_1_CSD_AUTOTUNE) || \
1828:Generated_Source\PSoC4/CapSense_1_SensingCSD_LL.c ****      (CapSense_1_ENABLE == CapSense_1_CSD_IDAC_AUTOCAL_EN))
1829:Generated_Source\PSoC4/CapSense_1_SensingCSD_LL.c ****     /*******************************************************************************
1830:Generated_Source\PSoC4/CapSense_1_SensingCSD_LL.c ****     * Function Name: CapSense_1_SsCSDCalibrateCheck
1831:Generated_Source\PSoC4/CapSense_1_SensingCSD_LL.c ****     ****************************************************************************//**
1832:Generated_Source\PSoC4/CapSense_1_SensingCSD_LL.c ****     *
1833:Generated_Source\PSoC4/CapSense_1_SensingCSD_LL.c ****     * \brief
1834:Generated_Source\PSoC4/CapSense_1_SensingCSD_LL.c ****     *  This internal function checks if the calibration is performed successfully.
1835:Generated_Source\PSoC4/CapSense_1_SensingCSD_LL.c ****     *
1836:Generated_Source\PSoC4/CapSense_1_SensingCSD_LL.c ****     * \details
ARM GAS  C:\Users\exp32\AppData\Local\Temp\ccC3r0JH.s 			page 36


1837:Generated_Source\PSoC4/CapSense_1_SensingCSD_LL.c ****     *  The function verifies that raw counts are within acceptable range
1838:Generated_Source\PSoC4/CapSense_1_SensingCSD_LL.c ****     *  defined by target and calibration error parameters.
1839:Generated_Source\PSoC4/CapSense_1_SensingCSD_LL.c ****     *
1840:Generated_Source\PSoC4/CapSense_1_SensingCSD_LL.c ****     * \param widgetId
1841:Generated_Source\PSoC4/CapSense_1_SensingCSD_LL.c ****     *  The desired widget ID.
1842:Generated_Source\PSoC4/CapSense_1_SensingCSD_LL.c ****     *
1843:Generated_Source\PSoC4/CapSense_1_SensingCSD_LL.c ****     * \param target
1844:Generated_Source\PSoC4/CapSense_1_SensingCSD_LL.c ****     *  Raw count target in percentage.
1845:Generated_Source\PSoC4/CapSense_1_SensingCSD_LL.c ****     *
1846:Generated_Source\PSoC4/CapSense_1_SensingCSD_LL.c ****     * \return Returns the status of the operation:
1847:Generated_Source\PSoC4/CapSense_1_SensingCSD_LL.c ****     *   - Zero     - All the sensors in the widget are calibrated successfully.
1848:Generated_Source\PSoC4/CapSense_1_SensingCSD_LL.c ****     *   - Non-Zero - Calibration failed for any sensor in the widget.
1849:Generated_Source\PSoC4/CapSense_1_SensingCSD_LL.c ****     *
1850:Generated_Source\PSoC4/CapSense_1_SensingCSD_LL.c ****     *******************************************************************************/
1851:Generated_Source\PSoC4/CapSense_1_SensingCSD_LL.c ****     static cystatus CapSense_1_SsCSDCalibrateCheck(uint32 widgetId, uint32 target)
1852:Generated_Source\PSoC4/CapSense_1_SensingCSD_LL.c ****     {
 160              		.loc 1 1852 0
 161              		.cfi_startproc
 162              		@ args = 0, pretend = 0, frame = 8
 163              		@ frame_needed = 0, uses_anonymous_args = 0
 164              	.LVL4:
 165 0000 F0B5     		push	{r4, r5, r6, r7, lr}
 166              		.cfi_def_cfa_offset 20
 167              		.cfi_offset 4, -20
 168              		.cfi_offset 5, -16
 169              		.cfi_offset 6, -12
 170              		.cfi_offset 7, -8
 171              		.cfi_offset 14, -4
 172 0002 4746     		mov	r7, r8
 173 0004 80B4     		push	{r7}
 174              		.cfi_def_cfa_offset 24
 175              		.cfi_offset 8, -24
 176 0006 82B0     		sub	sp, sp, #8
 177              		.cfi_def_cfa_offset 32
 178 0008 0500     		movs	r5, r0
 179              	.LVL5:
1853:Generated_Source\PSoC4/CapSense_1_SensingCSD_LL.c ****         cystatus calibrateStatus = CYRET_SUCCESS;
1854:Generated_Source\PSoC4/CapSense_1_SensingCSD_LL.c ****         uint32 rawcount;
1855:Generated_Source\PSoC4/CapSense_1_SensingCSD_LL.c ****         uint32 snsIndex;
1856:Generated_Source\PSoC4/CapSense_1_SensingCSD_LL.c ****         uint32 freqChannel;
1857:Generated_Source\PSoC4/CapSense_1_SensingCSD_LL.c ****         uint32 upperLimit;
1858:Generated_Source\PSoC4/CapSense_1_SensingCSD_LL.c ****         uint32 lowerLimit;
1859:Generated_Source\PSoC4/CapSense_1_SensingCSD_LL.c **** 
1860:Generated_Source\PSoC4/CapSense_1_SensingCSD_LL.c ****         CapSense_1_FLASH_WD_STRUCT const *ptrFlashWidget = &CapSense_1_dsFlash.wdgtArray[widgetId];
1861:Generated_Source\PSoC4/CapSense_1_SensingCSD_LL.c ****         CapSense_1_RAM_WD_BASE_STRUCT *ptrRamWidget = (CapSense_1_RAM_WD_BASE_STRUCT *)ptrFlashWidg
 180              		.loc 1 1861 0
 181 000a 3423     		movs	r3, #52
 182 000c 4343     		muls	r3, r0
 183 000e 224A     		ldr	r2, .L25
 184 0010 D318     		adds	r3, r2, r3
 185              	.LVL6:
 186 0012 5A68     		ldr	r2, [r3, #4]
 187              	.LVL7:
1862:Generated_Source\PSoC4/CapSense_1_SensingCSD_LL.c ****         CapSense_1_RAM_SNS_STRUCT *ptrRamSensor = ptrFlashWidget->ptr2SnsRam;
 188              		.loc 1 1862 0
 189 0014 9C68     		ldr	r4, [r3, #8]
 190              	.LVL8:
ARM GAS  C:\Users\exp32\AppData\Local\Temp\ccC3r0JH.s 			page 37


1863:Generated_Source\PSoC4/CapSense_1_SensingCSD_LL.c **** 
1864:Generated_Source\PSoC4/CapSense_1_SensingCSD_LL.c ****         /* Calculate acceptable raw count range based on the resolution, target and error */
1865:Generated_Source\PSoC4/CapSense_1_SensingCSD_LL.c ****         rawcount = (0x00000001Lu << ptrRamWidget->resolution) - 1u;
 191              		.loc 1 1865 0
 192 0016 1388     		ldrh	r3, [r2]
 193              	.LVL9:
 194 0018 0127     		movs	r7, #1
 195 001a 9F40     		lsls	r7, r7, r3
 196 001c 013F     		subs	r7, r7, #1
 197              	.LVL10:
1866:Generated_Source\PSoC4/CapSense_1_SensingCSD_LL.c ****         lowerLimit = 0u;
1867:Generated_Source\PSoC4/CapSense_1_SensingCSD_LL.c ****         if (target > CapSense_1_CSD_CALIBRATION_ERROR)
 198              		.loc 1 1867 0
 199 001e 0A29     		cmp	r1, #10
 200 0020 02D9     		bls	.L20
1868:Generated_Source\PSoC4/CapSense_1_SensingCSD_LL.c ****         {
1869:Generated_Source\PSoC4/CapSense_1_SensingCSD_LL.c ****             lowerLimit = target - CapSense_1_CSD_CALIBRATION_ERROR;
 201              		.loc 1 1869 0
 202 0022 0800     		movs	r0, r1
 203              	.LVL11:
 204 0024 0A38     		subs	r0, r0, #10
 205              	.LVL12:
 206 0026 00E0     		b	.L14
 207              	.LVL13:
 208              	.L20:
1866:Generated_Source\PSoC4/CapSense_1_SensingCSD_LL.c ****         lowerLimit = 0u;
 209              		.loc 1 1866 0
 210 0028 0020     		movs	r0, #0
 211              	.LVL14:
 212              	.L14:
1870:Generated_Source\PSoC4/CapSense_1_SensingCSD_LL.c ****         }
1871:Generated_Source\PSoC4/CapSense_1_SensingCSD_LL.c ****         upperLimit = target + CapSense_1_CSD_CALIBRATION_ERROR;
 213              		.loc 1 1871 0
 214 002a 0A23     		movs	r3, #10
 215 002c 9846     		mov	r8, r3
 216 002e 8844     		add	r8, r8, r1
 217              	.LVL15:
1872:Generated_Source\PSoC4/CapSense_1_SensingCSD_LL.c ****         if (upperLimit > CapSense_1_PERCENTAGE_100)
 218              		.loc 1 1872 0
 219 0030 4346     		mov	r3, r8
 220 0032 642B     		cmp	r3, #100
 221 0034 01D9     		bls	.L15
1873:Generated_Source\PSoC4/CapSense_1_SensingCSD_LL.c ****         {
1874:Generated_Source\PSoC4/CapSense_1_SensingCSD_LL.c ****             upperLimit = CapSense_1_PERCENTAGE_100;
 222              		.loc 1 1874 0
 223 0036 6423     		movs	r3, #100
 224 0038 9846     		mov	r8, r3
 225              	.LVL16:
 226              	.L15:
1875:Generated_Source\PSoC4/CapSense_1_SensingCSD_LL.c ****         }
1876:Generated_Source\PSoC4/CapSense_1_SensingCSD_LL.c ****         lowerLimit = (rawcount * lowerLimit) / CapSense_1_PERCENTAGE_100;
 227              		.loc 1 1876 0
 228 003a 7843     		muls	r0, r7
 229              	.LVL17:
 230 003c 6421     		movs	r1, #100
 231              	.LVL18:
 232 003e FFF7FEFF 		bl	__aeabi_uidiv
ARM GAS  C:\Users\exp32\AppData\Local\Temp\ccC3r0JH.s 			page 38


 233              	.LVL19:
 234 0042 0600     		movs	r6, r0
 235              	.LVL20:
1877:Generated_Source\PSoC4/CapSense_1_SensingCSD_LL.c ****         upperLimit = (rawcount * upperLimit) / CapSense_1_PERCENTAGE_100;
 236              		.loc 1 1877 0
 237 0044 4046     		mov	r0, r8
 238              	.LVL21:
 239 0046 7843     		muls	r0, r7
 240 0048 6421     		movs	r1, #100
 241 004a FFF7FEFF 		bl	__aeabi_uidiv
 242              	.LVL22:
 243 004e 0200     		movs	r2, r0
 244              	.LVL23:
1878:Generated_Source\PSoC4/CapSense_1_SensingCSD_LL.c **** 
1879:Generated_Source\PSoC4/CapSense_1_SensingCSD_LL.c ****         /* Check if raw count is in the defined range */
1880:Generated_Source\PSoC4/CapSense_1_SensingCSD_LL.c ****         for(snsIndex = 0u; snsIndex < ptrFlashWidget->totalNumSns; snsIndex++)
 245              		.loc 1 1880 0
 246 0050 0027     		movs	r7, #0
 247              	.LVL24:
1853:Generated_Source\PSoC4/CapSense_1_SensingCSD_LL.c ****         uint32 rawcount;
 248              		.loc 1 1853 0
 249 0052 0023     		movs	r3, #0
 250 0054 0193     		str	r3, [sp, #4]
 251              		.loc 1 1880 0
 252 0056 13E0     		b	.L16
 253              	.LVL25:
 254              	.L18:
1881:Generated_Source\PSoC4/CapSense_1_SensingCSD_LL.c ****         {
1882:Generated_Source\PSoC4/CapSense_1_SensingCSD_LL.c ****             for(freqChannel = CapSense_1_NUM_SCAN_FREQS; freqChannel-- > 0u;)
1883:Generated_Source\PSoC4/CapSense_1_SensingCSD_LL.c ****             {
1884:Generated_Source\PSoC4/CapSense_1_SensingCSD_LL.c ****                 rawcount = ptrRamSensor->raw[freqChannel];
 255              		.loc 1 1884 0
 256 0058 4B00     		lsls	r3, r1, #1
 257 005a 185B     		ldrh	r0, [r3, r4]
 258              	.LVL26:
1885:Generated_Source\PSoC4/CapSense_1_SensingCSD_LL.c ****                 if ((rawcount < lowerLimit) || (rawcount > upperLimit))
 259              		.loc 1 1885 0
 260 005c 8642     		cmp	r6, r0
 261 005e 08D8     		bhi	.L22
1882:Generated_Source\PSoC4/CapSense_1_SensingCSD_LL.c ****             {
 262              		.loc 1 1882 0 discriminator 1
 263 0060 0B00     		movs	r3, r1
 264              		.loc 1 1885 0 discriminator 1
 265 0062 8242     		cmp	r2, r0
 266 0064 01D2     		bcs	.L19
 267 0066 07E0     		b	.L23
 268              	.LVL27:
 269              	.L24:
 270 0068 0123     		movs	r3, #1
 271              	.L19:
 272              	.LVL28:
1882:Generated_Source\PSoC4/CapSense_1_SensingCSD_LL.c ****             {
 273              		.loc 1 1882 0 discriminator 1
 274 006a 591E     		subs	r1, r3, #1
 275              	.LVL29:
 276 006c 002B     		cmp	r3, #0
 277 006e F3D1     		bne	.L18
ARM GAS  C:\Users\exp32\AppData\Local\Temp\ccC3r0JH.s 			page 39


 278 0070 04E0     		b	.L17
 279              	.LVL30:
 280              	.L22:
1886:Generated_Source\PSoC4/CapSense_1_SensingCSD_LL.c ****                 {
1887:Generated_Source\PSoC4/CapSense_1_SensingCSD_LL.c ****                     calibrateStatus = CYRET_BAD_DATA;
 281              		.loc 1 1887 0
 282 0072 0623     		movs	r3, #6
 283 0074 0193     		str	r3, [sp, #4]
 284              	.LVL31:
 285 0076 01E0     		b	.L17
 286              	.LVL32:
 287              	.L23:
 288 0078 0623     		movs	r3, #6
 289 007a 0193     		str	r3, [sp, #4]
 290              	.LVL33:
 291              	.L17:
1888:Generated_Source\PSoC4/CapSense_1_SensingCSD_LL.c ****                     break;
1889:Generated_Source\PSoC4/CapSense_1_SensingCSD_LL.c ****                 }
1890:Generated_Source\PSoC4/CapSense_1_SensingCSD_LL.c ****             }
1891:Generated_Source\PSoC4/CapSense_1_SensingCSD_LL.c ****             ptrRamSensor++;
 292              		.loc 1 1891 0 discriminator 2
 293 007c 0A34     		adds	r4, r4, #10
 294              	.LVL34:
1880:Generated_Source\PSoC4/CapSense_1_SensingCSD_LL.c ****         {
 295              		.loc 1 1880 0 discriminator 2
 296 007e 0137     		adds	r7, r7, #1
 297              	.LVL35:
 298              	.L16:
1880:Generated_Source\PSoC4/CapSense_1_SensingCSD_LL.c ****         {
 299              		.loc 1 1880 0 is_stmt 0 discriminator 1
 300 0080 3423     		movs	r3, #52
 301 0082 6B43     		muls	r3, r5
 302 0084 0449     		ldr	r1, .L25
 303 0086 CB18     		adds	r3, r1, r3
 304 0088 1B8B     		ldrh	r3, [r3, #24]
 305 008a 9F42     		cmp	r7, r3
 306 008c ECD3     		bcc	.L24
1892:Generated_Source\PSoC4/CapSense_1_SensingCSD_LL.c ****         }
1893:Generated_Source\PSoC4/CapSense_1_SensingCSD_LL.c ****         return (calibrateStatus);
1894:Generated_Source\PSoC4/CapSense_1_SensingCSD_LL.c ****     }
 307              		.loc 1 1894 0 is_stmt 1
 308 008e 0198     		ldr	r0, [sp, #4]
 309 0090 02B0     		add	sp, sp, #8
 310              		@ sp needed
 311              	.LVL36:
 312              	.LVL37:
 313              	.LVL38:
 314              	.LVL39:
 315 0092 04BC     		pop	{r2}
 316 0094 9046     		mov	r8, r2
 317 0096 F0BD     		pop	{r4, r5, r6, r7, pc}
 318              	.L26:
 319              		.align	2
 320              	.L25:
 321 0098 00000000 		.word	CapSense_1_dsFlash
 322              		.cfi_endproc
 323              	.LFE19:
ARM GAS  C:\Users\exp32\AppData\Local\Temp\ccC3r0JH.s 			page 40


 324              		.size	CapSense_1_SsCSDCalibrateCheck, .-CapSense_1_SsCSDCalibrateCheck
 325              		.section	.text.CapSense_1_SsCSDSwitchIdacGain,"ax",%progbits
 326              		.align	2
 327              		.code	16
 328              		.thumb_func
 329              		.type	CapSense_1_SsCSDSwitchIdacGain, %function
 330              	CapSense_1_SsCSDSwitchIdacGain:
 331              	.LFB20:
1895:Generated_Source\PSoC4/CapSense_1_SensingCSD_LL.c **** 
1896:Generated_Source\PSoC4/CapSense_1_SensingCSD_LL.c **** 
1897:Generated_Source\PSoC4/CapSense_1_SensingCSD_LL.c ****     #if (CapSense_1_ENABLE == CapSense_1_CSD_IDAC_AUTO_GAIN_EN)
1898:Generated_Source\PSoC4/CapSense_1_SensingCSD_LL.c ****         /*******************************************************************************
1899:Generated_Source\PSoC4/CapSense_1_SensingCSD_LL.c ****         * Function Name: CapSense_1_SsCSDSwitchIdacGain
1900:Generated_Source\PSoC4/CapSense_1_SensingCSD_LL.c ****         ****************************************************************************//**
1901:Generated_Source\PSoC4/CapSense_1_SensingCSD_LL.c ****         *
1902:Generated_Source\PSoC4/CapSense_1_SensingCSD_LL.c ****         * \brief
1903:Generated_Source\PSoC4/CapSense_1_SensingCSD_LL.c ****         *  This internal function switches to the lower IDAC gain is possible.
1904:Generated_Source\PSoC4/CapSense_1_SensingCSD_LL.c ****         *
1905:Generated_Source\PSoC4/CapSense_1_SensingCSD_LL.c ****         * \details
1906:Generated_Source\PSoC4/CapSense_1_SensingCSD_LL.c ****         *  This internal function switches to the lower IDAC gain is possible.
1907:Generated_Source\PSoC4/CapSense_1_SensingCSD_LL.c ****         *  Conditions of switching to the lower IDAC gains:
1908:Generated_Source\PSoC4/CapSense_1_SensingCSD_LL.c ****         *  1. The current IDAC gain is not the lowest one.
1909:Generated_Source\PSoC4/CapSense_1_SensingCSD_LL.c ****         *  2. The maximum IDAC at gain switching will not be out of range.
1910:Generated_Source\PSoC4/CapSense_1_SensingCSD_LL.c ****         *  3. The minimum IDAC is still below the acceptable range.
1911:Generated_Source\PSoC4/CapSense_1_SensingCSD_LL.c ****         *
1912:Generated_Source\PSoC4/CapSense_1_SensingCSD_LL.c ****         * \param ptrFlashWidget
1913:Generated_Source\PSoC4/CapSense_1_SensingCSD_LL.c ****         *  Specifies the pointer to a widget.
1914:Generated_Source\PSoC4/CapSense_1_SensingCSD_LL.c ****         *
1915:Generated_Source\PSoC4/CapSense_1_SensingCSD_LL.c ****         * \return Returns the status of the operation:
1916:Generated_Source\PSoC4/CapSense_1_SensingCSD_LL.c ****         *   - Zero     - Gain switching is not needed.
1917:Generated_Source\PSoC4/CapSense_1_SensingCSD_LL.c ****         *   - Non-Zero - Gain was switched to the lower one.
1918:Generated_Source\PSoC4/CapSense_1_SensingCSD_LL.c ****         *
1919:Generated_Source\PSoC4/CapSense_1_SensingCSD_LL.c ****         *******************************************************************************/
1920:Generated_Source\PSoC4/CapSense_1_SensingCSD_LL.c ****         static uint32 CapSense_1_SsCSDSwitchIdacGain(CapSense_1_FLASH_WD_STRUCT const *ptrFlashWidg
1921:Generated_Source\PSoC4/CapSense_1_SensingCSD_LL.c ****         {
 332              		.loc 1 1921 0
 333              		.cfi_startproc
 334              		@ args = 0, pretend = 0, frame = 0
 335              		@ frame_needed = 0, uses_anonymous_args = 0
 336              	.LVL40:
 337 0000 F8B5     		push	{r3, r4, r5, r6, r7, lr}
 338              		.cfi_def_cfa_offset 24
 339              		.cfi_offset 3, -24
 340              		.cfi_offset 4, -20
 341              		.cfi_offset 5, -16
 342              		.cfi_offset 6, -12
 343              		.cfi_offset 7, -8
 344              		.cfi_offset 14, -4
 345 0002 4F46     		mov	r7, r9
 346 0004 4646     		mov	r6, r8
 347 0006 C0B4     		push	{r6, r7}
 348              		.cfi_def_cfa_offset 32
 349              		.cfi_offset 8, -32
 350              		.cfi_offset 9, -28
 351 0008 0600     		movs	r6, r0
 352              	.LVL41:
1922:Generated_Source\PSoC4/CapSense_1_SensingCSD_LL.c ****             uint32 ratio;
ARM GAS  C:\Users\exp32\AppData\Local\Temp\ccC3r0JH.s 			page 41


1923:Generated_Source\PSoC4/CapSense_1_SensingCSD_LL.c ****             uint32 maxIdac;
1924:Generated_Source\PSoC4/CapSense_1_SensingCSD_LL.c ****             uint32 minIdac;
1925:Generated_Source\PSoC4/CapSense_1_SensingCSD_LL.c ****             uint32 status = 0u;
1926:Generated_Source\PSoC4/CapSense_1_SensingCSD_LL.c ****             uint32 freqChannel;
1927:Generated_Source\PSoC4/CapSense_1_SensingCSD_LL.c ****             uint32 gainIndex;
1928:Generated_Source\PSoC4/CapSense_1_SensingCSD_LL.c **** 
1929:Generated_Source\PSoC4/CapSense_1_SensingCSD_LL.c ****             CapSense_1_RAM_WD_BASE_STRUCT *ptrRamWidget = (CapSense_1_RAM_WD_BASE_STRUCT *)ptrFlash
 353              		.loc 1 1929 0
 354 000a 4568     		ldr	r5, [r0, #4]
 355              	.LVL42:
1930:Generated_Source\PSoC4/CapSense_1_SensingCSD_LL.c ****             #if (CapSense_1_ENABLE == CapSense_1_CSD_IDAC_COMP_EN)
1931:Generated_Source\PSoC4/CapSense_1_SensingCSD_LL.c ****                 uint32 snsIndex;
1932:Generated_Source\PSoC4/CapSense_1_SensingCSD_LL.c ****                 CapSense_1_RAM_SNS_STRUCT *ptrRamSensor = ptrFlashWidget->ptr2SnsRam;
 356              		.loc 1 1932 0
 357 000c 8468     		ldr	r4, [r0, #8]
 358              	.LVL43:
1933:Generated_Source\PSoC4/CapSense_1_SensingCSD_LL.c ****             #endif
1934:Generated_Source\PSoC4/CapSense_1_SensingCSD_LL.c **** 
1935:Generated_Source\PSoC4/CapSense_1_SensingCSD_LL.c ****             gainIndex = ptrRamWidget->idacGainIndex;
 359              		.loc 1 1935 0
 360 000e EB7A     		ldrb	r3, [r5, #11]
 361 0010 9946     		mov	r9, r3
 362 0012 9846     		mov	r8, r3
 363              	.LVL44:
1936:Generated_Source\PSoC4/CapSense_1_SensingCSD_LL.c **** 
1937:Generated_Source\PSoC4/CapSense_1_SensingCSD_LL.c ****             /* Find maximum and minimum IDACs */
1938:Generated_Source\PSoC4/CapSense_1_SensingCSD_LL.c ****             maxIdac = 0u;
1939:Generated_Source\PSoC4/CapSense_1_SensingCSD_LL.c ****             minIdac = CapSense_1_CSD_CAL_IDAC_MAX_VALUE;
1940:Generated_Source\PSoC4/CapSense_1_SensingCSD_LL.c ****             for(freqChannel = CapSense_1_NUM_SCAN_FREQS; freqChannel-- > 0u;)
 364              		.loc 1 1940 0
 365 0014 0123     		movs	r3, #1
 366              	.LVL45:
1939:Generated_Source\PSoC4/CapSense_1_SensingCSD_LL.c ****             for(freqChannel = CapSense_1_NUM_SCAN_FREQS; freqChannel-- > 0u;)
 367              		.loc 1 1939 0
 368 0016 7F20     		movs	r0, #127
 369              	.LVL46:
1938:Generated_Source\PSoC4/CapSense_1_SensingCSD_LL.c ****             minIdac = CapSense_1_CSD_CAL_IDAC_MAX_VALUE;
 370              		.loc 1 1938 0
 371 0018 0027     		movs	r7, #0
 372              		.loc 1 1940 0
 373 001a 16E0     		b	.L28
 374              	.LVL47:
 375              	.L33:
1941:Generated_Source\PSoC4/CapSense_1_SensingCSD_LL.c ****             {
1942:Generated_Source\PSoC4/CapSense_1_SensingCSD_LL.c ****                 if (maxIdac < ptrRamWidget->idacMod[freqChannel])
 376              		.loc 1 1942 0
 377 001c 6B18     		adds	r3, r5, r1
 378 001e 5A7A     		ldrb	r2, [r3, #9]
 379 0020 9742     		cmp	r7, r2
 380 0022 00D2     		bcs	.L29
1943:Generated_Source\PSoC4/CapSense_1_SensingCSD_LL.c ****                 {
1944:Generated_Source\PSoC4/CapSense_1_SensingCSD_LL.c ****                     maxIdac = ptrRamWidget->idacMod[freqChannel];
 381              		.loc 1 1944 0
 382 0024 1700     		movs	r7, r2
 383              	.LVL48:
 384              	.L29:
1945:Generated_Source\PSoC4/CapSense_1_SensingCSD_LL.c ****                 }
ARM GAS  C:\Users\exp32\AppData\Local\Temp\ccC3r0JH.s 			page 42


1946:Generated_Source\PSoC4/CapSense_1_SensingCSD_LL.c ****                 if (minIdac > ptrRamWidget->idacMod[freqChannel])
 385              		.loc 1 1946 0
 386 0026 9042     		cmp	r0, r2
 387 0028 00D8     		bhi	.L30
 388 002a 0200     		movs	r2, r0
 389              	.L30:
 390              	.LVL49:
1947:Generated_Source\PSoC4/CapSense_1_SensingCSD_LL.c ****                 {
1948:Generated_Source\PSoC4/CapSense_1_SensingCSD_LL.c ****                     minIdac = ptrRamWidget->idacMod[freqChannel];
1949:Generated_Source\PSoC4/CapSense_1_SensingCSD_LL.c ****                 }
1950:Generated_Source\PSoC4/CapSense_1_SensingCSD_LL.c ****                 #if (CapSense_1_CSD_MATRIX_WIDGET_EN || CapSense_1_CSD_TOUCHPAD_WIDGET_EN)
1951:Generated_Source\PSoC4/CapSense_1_SensingCSD_LL.c ****                     if ((CapSense_1_WD_TOUCHPAD_E == CapSense_1_GET_WIDGET_TYPE(ptrFlashWidget)) ||
 391              		.loc 1 1951 0
 392 002c B37E     		ldrb	r3, [r6, #26]
 393 002e 043B     		subs	r3, r3, #4
 394 0030 DBB2     		uxtb	r3, r3
 395 0032 012B     		cmp	r3, #1
 396 0034 07D8     		bhi	.L31
1952:Generated_Source\PSoC4/CapSense_1_SensingCSD_LL.c ****                         (CapSense_1_WD_MATRIX_BUTTON_E == CapSense_1_GET_WIDGET_TYPE(ptrFlashWidget
1953:Generated_Source\PSoC4/CapSense_1_SensingCSD_LL.c ****                     {
1954:Generated_Source\PSoC4/CapSense_1_SensingCSD_LL.c ****                         if (maxIdac < ptrRamWidget->rowIdacMod[freqChannel])
 397              		.loc 1 1954 0
 398 0036 6B18     		adds	r3, r5, r1
 399 0038 9B7A     		ldrb	r3, [r3, #10]
 400 003a 9F42     		cmp	r7, r3
 401 003c 00D2     		bcs	.L32
1955:Generated_Source\PSoC4/CapSense_1_SensingCSD_LL.c ****                         {
1956:Generated_Source\PSoC4/CapSense_1_SensingCSD_LL.c ****                             maxIdac = ptrRamWidget->rowIdacMod[freqChannel];
 402              		.loc 1 1956 0
 403 003e 1F00     		movs	r7, r3
 404              	.LVL50:
 405              	.L32:
1957:Generated_Source\PSoC4/CapSense_1_SensingCSD_LL.c ****                         }
1958:Generated_Source\PSoC4/CapSense_1_SensingCSD_LL.c ****                         if (minIdac > ptrRamWidget->rowIdacMod[freqChannel])
 406              		.loc 1 1958 0
 407 0040 9A42     		cmp	r2, r3
 408 0042 00D9     		bls	.L31
1959:Generated_Source\PSoC4/CapSense_1_SensingCSD_LL.c ****                         {
1960:Generated_Source\PSoC4/CapSense_1_SensingCSD_LL.c ****                             minIdac = ptrRamWidget->rowIdacMod[freqChannel];
 409              		.loc 1 1960 0
 410 0044 1A00     		movs	r2, r3
 411              	.LVL51:
 412              	.L31:
 413 0046 0B00     		movs	r3, r1
 414              		.loc 1 1960 0 is_stmt 0 discriminator 1
 415 0048 1000     		movs	r0, r2
 416              	.LVL52:
 417              	.L28:
1940:Generated_Source\PSoC4/CapSense_1_SensingCSD_LL.c ****             {
 418              		.loc 1 1940 0 is_stmt 1 discriminator 1
 419 004a 591E     		subs	r1, r3, #1
 420              	.LVL53:
 421 004c 002B     		cmp	r3, #0
 422 004e E5D1     		bne	.L33
 423 0050 0021     		movs	r1, #0
 424              	.LVL54:
 425 0052 0CE0     		b	.L34
ARM GAS  C:\Users\exp32\AppData\Local\Temp\ccC3r0JH.s 			page 43


 426              	.LVL55:
 427              	.L36:
1961:Generated_Source\PSoC4/CapSense_1_SensingCSD_LL.c ****                         }
1962:Generated_Source\PSoC4/CapSense_1_SensingCSD_LL.c ****                     }
1963:Generated_Source\PSoC4/CapSense_1_SensingCSD_LL.c ****                 #endif
1964:Generated_Source\PSoC4/CapSense_1_SensingCSD_LL.c ****             }
1965:Generated_Source\PSoC4/CapSense_1_SensingCSD_LL.c ****             #if (CapSense_1_ENABLE == CapSense_1_CSD_IDAC_COMP_EN)
1966:Generated_Source\PSoC4/CapSense_1_SensingCSD_LL.c ****                 for(snsIndex = 0u; snsIndex < ptrFlashWidget->totalNumSns; snsIndex++)
1967:Generated_Source\PSoC4/CapSense_1_SensingCSD_LL.c ****                 {
1968:Generated_Source\PSoC4/CapSense_1_SensingCSD_LL.c ****                     for(freqChannel = CapSense_1_NUM_SCAN_FREQS; freqChannel-- > 0u;)
1969:Generated_Source\PSoC4/CapSense_1_SensingCSD_LL.c ****                     {
1970:Generated_Source\PSoC4/CapSense_1_SensingCSD_LL.c ****                         if (minIdac > ptrRamSensor->idacComp[freqChannel])
 428              		.loc 1 1970 0
 429 0054 A318     		adds	r3, r4, r2
 430 0056 5B7A     		ldrb	r3, [r3, #9]
 431 0058 9842     		cmp	r0, r3
 432 005a 00D9     		bls	.L35
1971:Generated_Source\PSoC4/CapSense_1_SensingCSD_LL.c ****                         {
1972:Generated_Source\PSoC4/CapSense_1_SensingCSD_LL.c ****                             minIdac = ptrRamSensor->idacComp[freqChannel];
 433              		.loc 1 1972 0
 434 005c 1800     		movs	r0, r3
 435              	.LVL56:
 436              	.L35:
 437 005e 1300     		movs	r3, r2
 438 0060 00E0     		b	.L37
 439              	.LVL57:
 440              	.L43:
 441 0062 0123     		movs	r3, #1
 442              	.LVL58:
 443              	.L37:
1968:Generated_Source\PSoC4/CapSense_1_SensingCSD_LL.c ****                     {
 444              		.loc 1 1968 0 discriminator 1
 445 0064 5A1E     		subs	r2, r3, #1
 446              	.LVL59:
 447 0066 002B     		cmp	r3, #0
 448 0068 F4D1     		bne	.L36
1973:Generated_Source\PSoC4/CapSense_1_SensingCSD_LL.c ****                         }
1974:Generated_Source\PSoC4/CapSense_1_SensingCSD_LL.c ****                     }
1975:Generated_Source\PSoC4/CapSense_1_SensingCSD_LL.c ****                     ptrRamSensor++;
 449              		.loc 1 1975 0 discriminator 2
 450 006a 0A34     		adds	r4, r4, #10
 451              	.LVL60:
1966:Generated_Source\PSoC4/CapSense_1_SensingCSD_LL.c ****                 {
 452              		.loc 1 1966 0 discriminator 2
 453 006c 0131     		adds	r1, r1, #1
 454              	.LVL61:
 455              	.L34:
1966:Generated_Source\PSoC4/CapSense_1_SensingCSD_LL.c ****                 {
 456              		.loc 1 1966 0 is_stmt 0 discriminator 1
 457 006e 338B     		ldrh	r3, [r6, #24]
 458 0070 9942     		cmp	r1, r3
 459 0072 F6D3     		bcc	.L43
1976:Generated_Source\PSoC4/CapSense_1_SensingCSD_LL.c ****                 }
1977:Generated_Source\PSoC4/CapSense_1_SensingCSD_LL.c ****             #endif
1978:Generated_Source\PSoC4/CapSense_1_SensingCSD_LL.c **** 
1979:Generated_Source\PSoC4/CapSense_1_SensingCSD_LL.c ****             /* Check gain switch conditions */
1980:Generated_Source\PSoC4/CapSense_1_SensingCSD_LL.c ****             if (gainIndex != 0u)
ARM GAS  C:\Users\exp32\AppData\Local\Temp\ccC3r0JH.s 			page 44


 460              		.loc 1 1980 0 is_stmt 1
 461 0074 4346     		mov	r3, r8
 462 0076 002B     		cmp	r3, #0
 463 0078 14D0     		beq	.L44
 464              	.LVL62:
1981:Generated_Source\PSoC4/CapSense_1_SensingCSD_LL.c ****             {
1982:Generated_Source\PSoC4/CapSense_1_SensingCSD_LL.c ****                 if (minIdac < CapSense_1_CSD_IDAC_MIN)
 465              		.loc 1 1982 0
 466 007a 1328     		cmp	r0, #19
 467 007c 14D8     		bhi	.L45
1983:Generated_Source\PSoC4/CapSense_1_SensingCSD_LL.c ****                 {
1984:Generated_Source\PSoC4/CapSense_1_SensingCSD_LL.c ****                     ratio = CapSense_1_idacGainTable[gainIndex].gainValue /
 468              		.loc 1 1984 0
 469 007e 0E49     		ldr	r1, .L47
 470              	.LVL63:
 471 0080 4B46     		mov	r3, r9
 472              	.LVL64:
 473 0082 DA00     		lsls	r2, r3, #3
 474 0084 8A18     		adds	r2, r1, r2
 475 0086 5068     		ldr	r0, [r2, #4]
 476              	.LVL65:
1985:Generated_Source\PSoC4/CapSense_1_SensingCSD_LL.c ****                             CapSense_1_idacGainTable[gainIndex - 1u].gainValue;
 477              		.loc 1 1985 0
 478 0088 013B     		subs	r3, r3, #1
 479 008a DB00     		lsls	r3, r3, #3
 480 008c CB18     		adds	r3, r1, r3
 481 008e 5968     		ldr	r1, [r3, #4]
1984:Generated_Source\PSoC4/CapSense_1_SensingCSD_LL.c ****                             CapSense_1_idacGainTable[gainIndex - 1u].gainValue;
 482              		.loc 1 1984 0
 483 0090 FFF7FEFF 		bl	__aeabi_uidiv
 484              	.LVL66:
1986:Generated_Source\PSoC4/CapSense_1_SensingCSD_LL.c ****                     if ((maxIdac * ratio) < CapSense_1_CSD_CAL_IDAC_MAX_VALUE)
 485              		.loc 1 1986 0
 486 0094 4743     		muls	r7, r0
 487              	.LVL67:
 488 0096 7E2F     		cmp	r7, #126
 489 0098 08D8     		bhi	.L46
1987:Generated_Source\PSoC4/CapSense_1_SensingCSD_LL.c ****                     {
1988:Generated_Source\PSoC4/CapSense_1_SensingCSD_LL.c ****                         /* Switch to lower idac gain */
1989:Generated_Source\PSoC4/CapSense_1_SensingCSD_LL.c ****                         ptrRamWidget->idacGainIndex--;
 490              		.loc 1 1989 0
 491 009a 4E46     		mov	r6, r9
 492              	.LVL68:
 493 009c 013E     		subs	r6, r6, #1
 494 009e EE72     		strb	r6, [r5, #11]
 495              	.LVL69:
1990:Generated_Source\PSoC4/CapSense_1_SensingCSD_LL.c ****                         status = 1u;
 496              		.loc 1 1990 0
 497 00a0 0120     		movs	r0, #1
 498              	.LVL70:
 499 00a2 04E0     		b	.L38
 500              	.LVL71:
 501              	.L44:
1925:Generated_Source\PSoC4/CapSense_1_SensingCSD_LL.c ****             uint32 freqChannel;
 502              		.loc 1 1925 0
 503 00a4 0020     		movs	r0, #0
 504              	.LVL72:
ARM GAS  C:\Users\exp32\AppData\Local\Temp\ccC3r0JH.s 			page 45


 505 00a6 02E0     		b	.L38
 506              	.LVL73:
 507              	.L45:
 508 00a8 0020     		movs	r0, #0
 509              	.LVL74:
 510 00aa 00E0     		b	.L38
 511              	.LVL75:
 512              	.L46:
 513 00ac 0020     		movs	r0, #0
 514              	.LVL76:
 515              	.L38:
1991:Generated_Source\PSoC4/CapSense_1_SensingCSD_LL.c ****                     }
1992:Generated_Source\PSoC4/CapSense_1_SensingCSD_LL.c ****                 }
1993:Generated_Source\PSoC4/CapSense_1_SensingCSD_LL.c ****             }
1994:Generated_Source\PSoC4/CapSense_1_SensingCSD_LL.c **** 
1995:Generated_Source\PSoC4/CapSense_1_SensingCSD_LL.c ****             return (status);
1996:Generated_Source\PSoC4/CapSense_1_SensingCSD_LL.c ****         }
 516              		.loc 1 1996 0
 517              		@ sp needed
 518              	.LVL77:
 519              	.LVL78:
 520              	.LVL79:
 521              	.LVL80:
 522 00ae 0CBC     		pop	{r2, r3}
 523 00b0 9046     		mov	r8, r2
 524 00b2 9946     		mov	r9, r3
 525 00b4 F8BD     		pop	{r3, r4, r5, r6, r7, pc}
 526              	.L48:
 527 00b6 C046     		.align	2
 528              	.L47:
 529 00b8 00000000 		.word	CapSense_1_idacGainTable
 530              		.cfi_endproc
 531              	.LFE20:
 532              		.size	CapSense_1_SsCSDSwitchIdacGain, .-CapSense_1_SsCSDSwitchIdacGain
 533              		.section	.text.CapSense_1_SsCSDNormalizeIdac,"ax",%progbits
 534              		.align	2
 535              		.code	16
 536              		.thumb_func
 537              		.type	CapSense_1_SsCSDNormalizeIdac, %function
 538              	CapSense_1_SsCSDNormalizeIdac:
 539              	.LFB21:
1997:Generated_Source\PSoC4/CapSense_1_SensingCSD_LL.c ****     #endif /* (CapSense_1_ENABLE == CapSense_1_CSD_IDAC_AUTO_GAIN_EN) */
1998:Generated_Source\PSoC4/CapSense_1_SensingCSD_LL.c **** 
1999:Generated_Source\PSoC4/CapSense_1_SensingCSD_LL.c **** 
2000:Generated_Source\PSoC4/CapSense_1_SensingCSD_LL.c ****     #if (CapSense_1_ENABLE == CapSense_1_CSD_IDAC_COMP_EN)
2001:Generated_Source\PSoC4/CapSense_1_SensingCSD_LL.c ****         /*******************************************************************************
2002:Generated_Source\PSoC4/CapSense_1_SensingCSD_LL.c ****         * Function Name: CapSense_1_SsCSDNormalizeIdac
2003:Generated_Source\PSoC4/CapSense_1_SensingCSD_LL.c ****         ****************************************************************************//**
2004:Generated_Source\PSoC4/CapSense_1_SensingCSD_LL.c ****         *
2005:Generated_Source\PSoC4/CapSense_1_SensingCSD_LL.c ****         * \brief
2006:Generated_Source\PSoC4/CapSense_1_SensingCSD_LL.c ****         *  This function normalizes compensation IDAC.
2007:Generated_Source\PSoC4/CapSense_1_SensingCSD_LL.c ****         *
2008:Generated_Source\PSoC4/CapSense_1_SensingCSD_LL.c ****         * \details
2009:Generated_Source\PSoC4/CapSense_1_SensingCSD_LL.c ****         *  This function normalizes compensation IDAC.
2010:Generated_Source\PSoC4/CapSense_1_SensingCSD_LL.c ****         *
2011:Generated_Source\PSoC4/CapSense_1_SensingCSD_LL.c ****         * \param ptrFlashWidget
2012:Generated_Source\PSoC4/CapSense_1_SensingCSD_LL.c ****         *  Specifies the pointer to a widget.
ARM GAS  C:\Users\exp32\AppData\Local\Temp\ccC3r0JH.s 			page 46


2013:Generated_Source\PSoC4/CapSense_1_SensingCSD_LL.c ****         *
2014:Generated_Source\PSoC4/CapSense_1_SensingCSD_LL.c ****         * \param target
2015:Generated_Source\PSoC4/CapSense_1_SensingCSD_LL.c ****         *  Raw count target in percentage.
2016:Generated_Source\PSoC4/CapSense_1_SensingCSD_LL.c ****         *
2017:Generated_Source\PSoC4/CapSense_1_SensingCSD_LL.c ****         *******************************************************************************/
2018:Generated_Source\PSoC4/CapSense_1_SensingCSD_LL.c ****         static void CapSense_1_SsCSDNormalizeIdac(CapSense_1_FLASH_WD_STRUCT const *ptrFlashWidget,
2019:Generated_Source\PSoC4/CapSense_1_SensingCSD_LL.c ****         {
 540              		.loc 1 2019 0
 541              		.cfi_startproc
 542              		@ args = 0, pretend = 0, frame = 8
 543              		@ frame_needed = 0, uses_anonymous_args = 0
 544              	.LVL81:
 545 0000 F0B5     		push	{r4, r5, r6, r7, lr}
 546              		.cfi_def_cfa_offset 20
 547              		.cfi_offset 4, -20
 548              		.cfi_offset 5, -16
 549              		.cfi_offset 6, -12
 550              		.cfi_offset 7, -8
 551              		.cfi_offset 14, -4
 552 0002 5F46     		mov	r7, fp
 553 0004 5646     		mov	r6, r10
 554 0006 4D46     		mov	r5, r9
 555 0008 4446     		mov	r4, r8
 556 000a F0B4     		push	{r4, r5, r6, r7}
 557              		.cfi_def_cfa_offset 36
 558              		.cfi_offset 8, -36
 559              		.cfi_offset 9, -32
 560              		.cfi_offset 10, -28
 561              		.cfi_offset 11, -24
 562 000c 83B0     		sub	sp, sp, #12
 563              		.cfi_def_cfa_offset 48
 564 000e 0600     		movs	r6, r0
 565 0010 8946     		mov	r9, r1
2020:Generated_Source\PSoC4/CapSense_1_SensingCSD_LL.c ****             uint32 snsIndex;
2021:Generated_Source\PSoC4/CapSense_1_SensingCSD_LL.c ****             uint32 freqChannel;
2022:Generated_Source\PSoC4/CapSense_1_SensingCSD_LL.c ****             uint32 maxIdac;
2023:Generated_Source\PSoC4/CapSense_1_SensingCSD_LL.c ****             uint32 minIdac;
2024:Generated_Source\PSoC4/CapSense_1_SensingCSD_LL.c ****             uint32 minRaw;
2025:Generated_Source\PSoC4/CapSense_1_SensingCSD_LL.c ****             uint32 maxRawLevel;
2026:Generated_Source\PSoC4/CapSense_1_SensingCSD_LL.c ****             uint32 rawLevel;
2027:Generated_Source\PSoC4/CapSense_1_SensingCSD_LL.c ****             uint32 iMod;
2028:Generated_Source\PSoC4/CapSense_1_SensingCSD_LL.c **** 
2029:Generated_Source\PSoC4/CapSense_1_SensingCSD_LL.c ****             CapSense_1_RAM_WD_BASE_STRUCT *ptrRamWidget = (CapSense_1_RAM_WD_BASE_STRUCT *)ptrFlash
 566              		.loc 1 2029 0
 567 0012 4368     		ldr	r3, [r0, #4]
 568 0014 9B46     		mov	fp, r3
 569              	.LVL82:
2030:Generated_Source\PSoC4/CapSense_1_SensingCSD_LL.c ****             CapSense_1_RAM_SNS_STRUCT *ptrRamSensor;
2031:Generated_Source\PSoC4/CapSense_1_SensingCSD_LL.c **** 
2032:Generated_Source\PSoC4/CapSense_1_SensingCSD_LL.c ****             /* Calculate raw count level based on resolution and target */
2033:Generated_Source\PSoC4/CapSense_1_SensingCSD_LL.c ****             maxRawLevel = (0x00000001Lu << ptrRamWidget->resolution) - 1u;
 570              		.loc 1 2033 0
 571 0016 1B88     		ldrh	r3, [r3]
 572              	.LVL83:
 573 0018 0122     		movs	r2, #1
 574 001a 9A40     		lsls	r2, r2, r3
 575 001c 1300     		movs	r3, r2
ARM GAS  C:\Users\exp32\AppData\Local\Temp\ccC3r0JH.s 			page 47


 576 001e 013B     		subs	r3, r3, #1
 577 0020 0193     		str	r3, [sp, #4]
 578              	.LVL84:
2034:Generated_Source\PSoC4/CapSense_1_SensingCSD_LL.c **** 
2035:Generated_Source\PSoC4/CapSense_1_SensingCSD_LL.c ****             /*
2036:Generated_Source\PSoC4/CapSense_1_SensingCSD_LL.c ****             * IDAC Normalization is performed separately for each multi-frequency channel
2037:Generated_Source\PSoC4/CapSense_1_SensingCSD_LL.c ****             * and separately for row and column
2038:Generated_Source\PSoC4/CapSense_1_SensingCSD_LL.c ****             */
2039:Generated_Source\PSoC4/CapSense_1_SensingCSD_LL.c ****             for(freqChannel = CapSense_1_NUM_SCAN_FREQS; freqChannel-- > 0u;)
 579              		.loc 1 2039 0
 580 0022 0123     		movs	r3, #1
 581              	.LVL85:
 582 0024 A6E0     		b	.L50
 583              	.LVL86:
 584              	.L68:
2040:Generated_Source\PSoC4/CapSense_1_SensingCSD_LL.c ****             {
2041:Generated_Source\PSoC4/CapSense_1_SensingCSD_LL.c ****                 /* Find maximum and minimum IDACs */
2042:Generated_Source\PSoC4/CapSense_1_SensingCSD_LL.c ****                 maxIdac = ptrRamWidget->idacMod[freqChannel];
 585              		.loc 1 2042 0
 586 0026 5B46     		mov	r3, fp
 587 0028 1B19     		adds	r3, r3, r4
 588 002a 5B7A     		ldrb	r3, [r3, #9]
 589 002c 9A46     		mov	r10, r3
 590              	.LVL87:
2043:Generated_Source\PSoC4/CapSense_1_SensingCSD_LL.c ****                 minIdac = ptrRamWidget->idacMod[freqChannel];
2044:Generated_Source\PSoC4/CapSense_1_SensingCSD_LL.c ****                 ptrRamSensor = ptrFlashWidget->ptr2SnsRam;
 591              		.loc 1 2044 0
 592 002e B368     		ldr	r3, [r6, #8]
 593              	.LVL88:
2045:Generated_Source\PSoC4/CapSense_1_SensingCSD_LL.c ****                 minRaw = ptrRamSensor->raw[freqChannel];
 594              		.loc 1 2045 0
 595 0030 6200     		lsls	r2, r4, #1
 596 0032 D05A     		ldrh	r0, [r2, r3]
 597              	.LVL89:
2043:Generated_Source\PSoC4/CapSense_1_SensingCSD_LL.c ****                 minIdac = ptrRamWidget->idacMod[freqChannel];
 598              		.loc 1 2043 0
 599 0034 5546     		mov	r5, r10
2046:Generated_Source\PSoC4/CapSense_1_SensingCSD_LL.c ****                 for(snsIndex = 0u; snsIndex < ptrFlashWidget->numCols; snsIndex++)
 600              		.loc 1 2046 0
 601 0036 0022     		movs	r2, #0
 602 0038 08E0     		b	.L51
 603              	.LVL90:
 604              	.L53:
2047:Generated_Source\PSoC4/CapSense_1_SensingCSD_LL.c ****                 {
2048:Generated_Source\PSoC4/CapSense_1_SensingCSD_LL.c ****                     if (minIdac > ptrRamSensor->idacComp[freqChannel])
 605              		.loc 1 2048 0
 606 003a 1919     		adds	r1, r3, r4
 607 003c 497A     		ldrb	r1, [r1, #9]
 608 003e 8D42     		cmp	r5, r1
 609 0040 02D9     		bls	.L52
 610              	.LVL91:
2049:Generated_Source\PSoC4/CapSense_1_SensingCSD_LL.c ****                     {
2050:Generated_Source\PSoC4/CapSense_1_SensingCSD_LL.c ****                         minIdac = ptrRamSensor->idacComp[freqChannel];
2051:Generated_Source\PSoC4/CapSense_1_SensingCSD_LL.c ****                         minRaw = ptrRamSensor->raw[freqChannel];
 611              		.loc 1 2051 0
 612 0042 6000     		lsls	r0, r4, #1
 613              	.LVL92:
ARM GAS  C:\Users\exp32\AppData\Local\Temp\ccC3r0JH.s 			page 48


 614 0044 C05A     		ldrh	r0, [r0, r3]
 615              	.LVL93:
2050:Generated_Source\PSoC4/CapSense_1_SensingCSD_LL.c ****                         minRaw = ptrRamSensor->raw[freqChannel];
 616              		.loc 1 2050 0
 617 0046 0D00     		movs	r5, r1
 618              	.LVL94:
 619              	.L52:
2052:Generated_Source\PSoC4/CapSense_1_SensingCSD_LL.c ****                     }
2053:Generated_Source\PSoC4/CapSense_1_SensingCSD_LL.c ****                     ptrRamSensor++;
 620              		.loc 1 2053 0 discriminator 2
 621 0048 0A33     		adds	r3, r3, #10
 622              	.LVL95:
2046:Generated_Source\PSoC4/CapSense_1_SensingCSD_LL.c ****                 {
 623              		.loc 1 2046 0 discriminator 2
 624 004a 0132     		adds	r2, r2, #1
 625              	.LVL96:
 626              	.L51:
2046:Generated_Source\PSoC4/CapSense_1_SensingCSD_LL.c ****                 {
 627              		.loc 1 2046 0 is_stmt 0 discriminator 1
 628 004c F17E     		ldrb	r1, [r6, #27]
 629 004e 8A42     		cmp	r2, r1
 630 0050 F3D3     		bcc	.L53
2054:Generated_Source\PSoC4/CapSense_1_SensingCSD_LL.c ****                 }
2055:Generated_Source\PSoC4/CapSense_1_SensingCSD_LL.c **** 
2056:Generated_Source\PSoC4/CapSense_1_SensingCSD_LL.c ****                 /* Define new modulator IDAC */
2057:Generated_Source\PSoC4/CapSense_1_SensingCSD_LL.c ****                 rawLevel = ((minRaw * CapSense_1_PERCENTAGE_100) / maxRawLevel) + CapSense_1_PERCEN
 631              		.loc 1 2057 0 is_stmt 1
 632 0052 6423     		movs	r3, #100
 633              	.LVL97:
 634 0054 5843     		muls	r0, r3
 635              	.LVL98:
 636 0056 0199     		ldr	r1, [sp, #4]
 637 0058 FFF7FEFF 		bl	__aeabi_uidiv
 638              	.LVL99:
 639 005c 6430     		adds	r0, r0, #100
 640              	.LVL100:
2058:Generated_Source\PSoC4/CapSense_1_SensingCSD_LL.c ****                 iMod = (rawLevel * minIdac) / target;
 641              		.loc 1 2058 0
 642 005e 6843     		muls	r0, r5
 643              	.LVL101:
 644 0060 4946     		mov	r1, r9
 645 0062 FFF7FEFF 		bl	__aeabi_uidiv
 646              	.LVL102:
2059:Generated_Source\PSoC4/CapSense_1_SensingCSD_LL.c **** 
2060:Generated_Source\PSoC4/CapSense_1_SensingCSD_LL.c ****                 if (iMod > maxIdac)
 647              		.loc 1 2060 0
 648 0066 8245     		cmp	r10, r0
 649 0068 00D3     		bcc	.L54
2058:Generated_Source\PSoC4/CapSense_1_SensingCSD_LL.c ****                 iMod = (rawLevel * minIdac) / target;
 650              		.loc 1 2058 0
 651 006a 8246     		mov	r10, r0
 652              	.LVL103:
 653              	.L54:
2061:Generated_Source\PSoC4/CapSense_1_SensingCSD_LL.c ****                 {
2062:Generated_Source\PSoC4/CapSense_1_SensingCSD_LL.c ****                     iMod = maxIdac;
2063:Generated_Source\PSoC4/CapSense_1_SensingCSD_LL.c ****                 }
2064:Generated_Source\PSoC4/CapSense_1_SensingCSD_LL.c ****                 ptrRamWidget->idacMod[freqChannel] = (uint8)iMod;
ARM GAS  C:\Users\exp32\AppData\Local\Temp\ccC3r0JH.s 			page 49


 654              		.loc 1 2064 0
 655 006c 5B46     		mov	r3, fp
 656 006e 1B19     		adds	r3, r3, r4
 657 0070 5246     		mov	r2, r10
 658 0072 5A72     		strb	r2, [r3, #9]
2065:Generated_Source\PSoC4/CapSense_1_SensingCSD_LL.c **** 
2066:Generated_Source\PSoC4/CapSense_1_SensingCSD_LL.c ****                 /* Re-calculate compensation IDAC */
2067:Generated_Source\PSoC4/CapSense_1_SensingCSD_LL.c ****                 ptrRamSensor = ptrFlashWidget->ptr2SnsRam;
 659              		.loc 1 2067 0
 660 0074 B568     		ldr	r5, [r6, #8]
 661              	.LVL104:
2068:Generated_Source\PSoC4/CapSense_1_SensingCSD_LL.c ****                 for(snsIndex = 0u; snsIndex < ptrFlashWidget->numCols; snsIndex++)
 662              		.loc 1 2068 0
 663 0076 0027     		movs	r7, #0
 664 0078 1CE0     		b	.L55
 665              	.LVL105:
 666              	.L58:
2069:Generated_Source\PSoC4/CapSense_1_SensingCSD_LL.c ****                 {
2070:Generated_Source\PSoC4/CapSense_1_SensingCSD_LL.c ****                     rawLevel = (((ptrRamSensor->raw[freqChannel] * CapSense_1_PERCENTAGE_100) / max
 667              		.loc 1 2070 0
 668 007a 6300     		lsls	r3, r4, #1
 669 007c 585B     		ldrh	r0, [r3, r5]
 670 007e 6423     		movs	r3, #100
 671 0080 5843     		muls	r0, r3
 672 0082 0199     		ldr	r1, [sp, #4]
 673 0084 FFF7FEFF 		bl	__aeabi_uidiv
 674              	.LVL106:
 675 0088 6430     		adds	r0, r0, #100
2071:Generated_Source\PSoC4/CapSense_1_SensingCSD_LL.c ****                         CapSense_1_PERCENTAGE_100) * ptrRamSensor->idacComp[freqChannel];
 676              		.loc 1 2071 0
 677 008a 2B19     		adds	r3, r5, r4
 678 008c 5B7A     		ldrb	r3, [r3, #9]
2070:Generated_Source\PSoC4/CapSense_1_SensingCSD_LL.c ****                         CapSense_1_PERCENTAGE_100) * ptrRamSensor->idacComp[freqChannel];
 679              		.loc 1 2070 0
 680 008e 5843     		muls	r0, r3
 681              	.LVL107:
2072:Generated_Source\PSoC4/CapSense_1_SensingCSD_LL.c ****                     if (rawLevel < (iMod * target))
 682              		.loc 1 2072 0
 683 0090 4B46     		mov	r3, r9
 684 0092 5246     		mov	r2, r10
 685 0094 5343     		muls	r3, r2
 686 0096 9842     		cmp	r0, r3
 687 0098 03D2     		bcs	.L56
 688              	.LVL108:
2073:Generated_Source\PSoC4/CapSense_1_SensingCSD_LL.c ****                     {
2074:Generated_Source\PSoC4/CapSense_1_SensingCSD_LL.c ****                         ptrRamSensor->idacComp[freqChannel] = 0u;
 689              		.loc 1 2074 0
 690 009a 2B19     		adds	r3, r5, r4
 691 009c 0022     		movs	r2, #0
 692              	.LVL109:
 693 009e 5A72     		strb	r2, [r3, #9]
 694 00a0 06E0     		b	.L57
 695              	.LVL110:
 696              	.L56:
2075:Generated_Source\PSoC4/CapSense_1_SensingCSD_LL.c ****                     }
2076:Generated_Source\PSoC4/CapSense_1_SensingCSD_LL.c ****                     else
2077:Generated_Source\PSoC4/CapSense_1_SensingCSD_LL.c ****                     {
ARM GAS  C:\Users\exp32\AppData\Local\Temp\ccC3r0JH.s 			page 50


2078:Generated_Source\PSoC4/CapSense_1_SensingCSD_LL.c ****                         ptrRamSensor->idacComp[freqChannel] = (uint8)(((rawLevel - (iMod * target))
 697              		.loc 1 2078 0
 698 00a2 C01A     		subs	r0, r0, r3
 699              	.LVL111:
 700 00a4 3230     		adds	r0, r0, #50
2079:Generated_Source\PSoC4/CapSense_1_SensingCSD_LL.c ****                             (CapSense_1_PERCENTAGE_100 >> 1u)) / CapSense_1_PERCENTAGE_100);
 701              		.loc 1 2079 0
 702 00a6 6421     		movs	r1, #100
 703 00a8 FFF7FEFF 		bl	__aeabi_uidiv
 704              	.LVL112:
2078:Generated_Source\PSoC4/CapSense_1_SensingCSD_LL.c ****                             (CapSense_1_PERCENTAGE_100 >> 1u)) / CapSense_1_PERCENTAGE_100);
 705              		.loc 1 2078 0
 706 00ac 2B19     		adds	r3, r5, r4
 707 00ae 5872     		strb	r0, [r3, #9]
 708              	.L57:
2080:Generated_Source\PSoC4/CapSense_1_SensingCSD_LL.c ****                     }
2081:Generated_Source\PSoC4/CapSense_1_SensingCSD_LL.c ****                     ptrRamSensor++;
 709              		.loc 1 2081 0 discriminator 2
 710 00b0 0A35     		adds	r5, r5, #10
 711              	.LVL113:
2068:Generated_Source\PSoC4/CapSense_1_SensingCSD_LL.c ****                 {
 712              		.loc 1 2068 0 discriminator 2
 713 00b2 0137     		adds	r7, r7, #1
 714              	.LVL114:
 715              	.L55:
2068:Generated_Source\PSoC4/CapSense_1_SensingCSD_LL.c ****                 {
 716              		.loc 1 2068 0 is_stmt 0 discriminator 1
 717 00b4 F37E     		ldrb	r3, [r6, #27]
 718 00b6 9F42     		cmp	r7, r3
 719 00b8 DFD3     		bcc	.L58
2082:Generated_Source\PSoC4/CapSense_1_SensingCSD_LL.c ****                 }
2083:Generated_Source\PSoC4/CapSense_1_SensingCSD_LL.c **** 
2084:Generated_Source\PSoC4/CapSense_1_SensingCSD_LL.c ****                 #if (CapSense_1_CSD_MATRIX_WIDGET_EN || CapSense_1_CSD_TOUCHPAD_WIDGET_EN)
2085:Generated_Source\PSoC4/CapSense_1_SensingCSD_LL.c ****                     if ((CapSense_1_WD_TOUCHPAD_E == CapSense_1_GET_WIDGET_TYPE(ptrFlashWidget)) ||
 720              		.loc 1 2085 0 is_stmt 1
 721 00ba B27E     		ldrb	r2, [r6, #26]
 722 00bc 043A     		subs	r2, r2, #4
 723 00be D2B2     		uxtb	r2, r2
 724 00c0 012A     		cmp	r2, #1
 725 00c2 56D8     		bhi	.L59
2086:Generated_Source\PSoC4/CapSense_1_SensingCSD_LL.c ****                         (CapSense_1_WD_MATRIX_BUTTON_E == CapSense_1_GET_WIDGET_TYPE(ptrFlashWidget
2087:Generated_Source\PSoC4/CapSense_1_SensingCSD_LL.c ****                     {
2088:Generated_Source\PSoC4/CapSense_1_SensingCSD_LL.c ****                         /* Find maximum and minimum IDACs */
2089:Generated_Source\PSoC4/CapSense_1_SensingCSD_LL.c ****                         maxIdac = ptrRamWidget->rowIdacMod[freqChannel];
 726              		.loc 1 2089 0
 727 00c4 5A46     		mov	r2, fp
 728 00c6 1219     		adds	r2, r2, r4
 729 00c8 927A     		ldrb	r2, [r2, #10]
 730 00ca 9046     		mov	r8, r2
 731              	.LVL115:
2090:Generated_Source\PSoC4/CapSense_1_SensingCSD_LL.c ****                         minIdac = ptrRamWidget->rowIdacMod[freqChannel];
2091:Generated_Source\PSoC4/CapSense_1_SensingCSD_LL.c ****                         ptrRamSensor = &(ptrFlashWidget->ptr2SnsRam[ptrFlashWidget->numCols]);
 732              		.loc 1 2091 0
 733 00cc 9900     		lsls	r1, r3, #2
 734 00ce C918     		adds	r1, r1, r3
 735 00d0 4A00     		lsls	r2, r1, #1
 736              	.LVL116:
ARM GAS  C:\Users\exp32\AppData\Local\Temp\ccC3r0JH.s 			page 51


 737 00d2 B168     		ldr	r1, [r6, #8]
 738 00d4 8C46     		mov	ip, r1
 739 00d6 6244     		add	r2, r2, ip
 740              	.LVL117:
2092:Generated_Source\PSoC4/CapSense_1_SensingCSD_LL.c ****                         minRaw = ptrRamSensor->raw[freqChannel];
 741              		.loc 1 2092 0
 742 00d8 6100     		lsls	r1, r4, #1
 743 00da 885A     		ldrh	r0, [r1, r2]
 744              	.LVL118:
