ARM GAS  C:\Users\exp32\AppData\Local\Temp\cc6N2LT5.s 			page 1


   1              		.syntax unified
   2              		.cpu cortex-m0plus
   3              		.fpu softvfp
   4              		.eabi_attribute 20, 1
   5              		.eabi_attribute 21, 1
   6              		.eabi_attribute 23, 3
   7              		.eabi_attribute 24, 1
   8              		.eabi_attribute 25, 1
   9              		.eabi_attribute 26, 1
  10              		.eabi_attribute 30, 1
  11              		.eabi_attribute 34, 0
  12              		.eabi_attribute 18, 4
  13              		.thumb
  14              		.syntax unified
  15              		.file	"CapSense_1_Structure.c"
  16              		.text
  17              	.Ltext0:
  18              		.cfi_sections	.debug_frame
  19              		.section	.text.DsParseParamId,"ax",%progbits
  20              		.align	2
  21              		.code	16
  22              		.thumb_func
  23              		.type	DsParseParamId, %function
  24              	DsParseParamId:
  25              	.LFB2:
  26              		.file 1 "Generated_Source\\PSoC4\\CapSense_1_Structure.c"
   1:Generated_Source\PSoC4/CapSense_1_Structure.c **** /***************************************************************************//**
   2:Generated_Source\PSoC4/CapSense_1_Structure.c **** * \file CapSense_1_Structure.c
   3:Generated_Source\PSoC4/CapSense_1_Structure.c **** * \version 7.0
   4:Generated_Source\PSoC4/CapSense_1_Structure.c **** *
   5:Generated_Source\PSoC4/CapSense_1_Structure.c **** * \brief
   6:Generated_Source\PSoC4/CapSense_1_Structure.c **** *   This file defines the data structure global variables and provides implementation
   7:Generated_Source\PSoC4/CapSense_1_Structure.c **** *   for the high-level and low-level APIs of the Data Structure module.
   8:Generated_Source\PSoC4/CapSense_1_Structure.c **** *
   9:Generated_Source\PSoC4/CapSense_1_Structure.c **** * \see CapSense_1 v7.0 Datasheet
  10:Generated_Source\PSoC4/CapSense_1_Structure.c **** *
  11:Generated_Source\PSoC4/CapSense_1_Structure.c **** *//*****************************************************************************
  12:Generated_Source\PSoC4/CapSense_1_Structure.c **** * Copyright (2016-2019), Cypress Semiconductor Corporation.
  13:Generated_Source\PSoC4/CapSense_1_Structure.c **** ********************************************************************************
  14:Generated_Source\PSoC4/CapSense_1_Structure.c **** * This software is owned by Cypress Semiconductor Corporation (Cypress) and is
  15:Generated_Source\PSoC4/CapSense_1_Structure.c **** * protected by and subject to worldwide patent protection (United States and
  16:Generated_Source\PSoC4/CapSense_1_Structure.c **** * foreign), United States copyright laws and international treaty provisions.
  17:Generated_Source\PSoC4/CapSense_1_Structure.c **** * Cypress hereby grants to licensee a personal, non-exclusive, non-transferable
  18:Generated_Source\PSoC4/CapSense_1_Structure.c **** * license to copy, use, modify, create derivative works of, and compile the
  19:Generated_Source\PSoC4/CapSense_1_Structure.c **** * Cypress Source Code and derivative works for the sole purpose of creating
  20:Generated_Source\PSoC4/CapSense_1_Structure.c **** * custom software in support of licensee product to be used only in conjunction
  21:Generated_Source\PSoC4/CapSense_1_Structure.c **** * with a Cypress integrated circuit as specified in the applicable agreement.
  22:Generated_Source\PSoC4/CapSense_1_Structure.c **** * Any reproduction, modification, translation, compilation, or representation of
  23:Generated_Source\PSoC4/CapSense_1_Structure.c **** * this software except as specified above is prohibited without the express
  24:Generated_Source\PSoC4/CapSense_1_Structure.c **** * written permission of Cypress.
  25:Generated_Source\PSoC4/CapSense_1_Structure.c **** *
  26:Generated_Source\PSoC4/CapSense_1_Structure.c **** * Disclaimer: CYPRESS MAKES NO WARRANTY OF ANY KIND, EXPRESS OR IMPLIED, WITH
  27:Generated_Source\PSoC4/CapSense_1_Structure.c **** * REGARD TO THIS MATERIAL, INCLUDING, BUT NOT LIMITED TO, THE IMPLIED
  28:Generated_Source\PSoC4/CapSense_1_Structure.c **** * WARRANTIES OF MERCHANTABILITY AND FITNESS FOR A PARTICULAR PURPOSE.
  29:Generated_Source\PSoC4/CapSense_1_Structure.c **** * Cypress reserves the right to make changes without further notice to the
  30:Generated_Source\PSoC4/CapSense_1_Structure.c **** * materials described herein. Cypress does not assume any liability arising out
  31:Generated_Source\PSoC4/CapSense_1_Structure.c **** * of the application or use of any product or circuit described herein. Cypress
ARM GAS  C:\Users\exp32\AppData\Local\Temp\cc6N2LT5.s 			page 2


  32:Generated_Source\PSoC4/CapSense_1_Structure.c **** * does not authorize its products for use as critical components in life-support
  33:Generated_Source\PSoC4/CapSense_1_Structure.c **** * systems where a malfunction or failure may reasonably be expected to result in
  34:Generated_Source\PSoC4/CapSense_1_Structure.c **** * significant injury to the user. The inclusion of Cypress' product in a life-
  35:Generated_Source\PSoC4/CapSense_1_Structure.c **** * support systems application implies that the manufacturer assumes all risk of
  36:Generated_Source\PSoC4/CapSense_1_Structure.c **** * such use and in doing so indemnifies Cypress against all charges. Use may be
  37:Generated_Source\PSoC4/CapSense_1_Structure.c **** * limited by and subject to the applicable Cypress software license agreement.
  38:Generated_Source\PSoC4/CapSense_1_Structure.c **** *******************************************************************************/
  39:Generated_Source\PSoC4/CapSense_1_Structure.c **** 
  40:Generated_Source\PSoC4/CapSense_1_Structure.c **** #include <cytypes.h>
  41:Generated_Source\PSoC4/CapSense_1_Structure.c **** #include "CyLib.h"
  42:Generated_Source\PSoC4/CapSense_1_Structure.c **** #include "CapSense_1_Structure.h"
  43:Generated_Source\PSoC4/CapSense_1_Structure.c **** #include "CapSense_1_Configuration.h"
  44:Generated_Source\PSoC4/CapSense_1_Structure.c **** 
  45:Generated_Source\PSoC4/CapSense_1_Structure.c **** #if (0u != CapSense_1_ADC_EN)
  46:Generated_Source\PSoC4/CapSense_1_Structure.c ****     #include "CapSense_1_Adc.h"
  47:Generated_Source\PSoC4/CapSense_1_Structure.c **** #endif /* (0u != CapSense_1_ADC_EN) */
  48:Generated_Source\PSoC4/CapSense_1_Structure.c **** 
  49:Generated_Source\PSoC4/CapSense_1_Structure.c **** #if (CapSense_1_ENABLE == CapSense_1_SELF_TEST_EN)
  50:Generated_Source\PSoC4/CapSense_1_Structure.c ****     #include "CapSense_1_SelfTest.h"
  51:Generated_Source\PSoC4/CapSense_1_Structure.c **** #endif
  52:Generated_Source\PSoC4/CapSense_1_Structure.c **** 
  53:Generated_Source\PSoC4/CapSense_1_Structure.c **** #if (CapSense_1_ENABLE == CapSense_1_CENTROID_5X5_CSD_EN)
  54:Generated_Source\PSoC4/CapSense_1_Structure.c ****     #include "CapSense_1_AdvancedCentroid_LL.h"
  55:Generated_Source\PSoC4/CapSense_1_Structure.c **** #endif
  56:Generated_Source\PSoC4/CapSense_1_Structure.c **** 
  57:Generated_Source\PSoC4/CapSense_1_Structure.c **** #if (CapSense_1_ENABLE == CapSense_1_GES_GLOBAL_EN)
  58:Generated_Source\PSoC4/CapSense_1_Structure.c ****     #include "CapSense_1_Gesture.h"
  59:Generated_Source\PSoC4/CapSense_1_Structure.c **** #endif /* (CapSense_1_ENABLE == CapSense_1_GES_GLOBAL_EN) */
  60:Generated_Source\PSoC4/CapSense_1_Structure.c **** 
  61:Generated_Source\PSoC4/CapSense_1_Structure.c **** /*******************************************************************************
  62:Generated_Source\PSoC4/CapSense_1_Structure.c **** * Defines the RAM Data Structure variables and their init data in flash
  63:Generated_Source\PSoC4/CapSense_1_Structure.c **** *******************************************************************************/
  64:Generated_Source\PSoC4/CapSense_1_Structure.c **** /**
  65:Generated_Source\PSoC4/CapSense_1_Structure.c **** * \cond SECTION_GLOBAL_VARIABLES
  66:Generated_Source\PSoC4/CapSense_1_Structure.c **** * \addtogroup group_global_variables
  67:Generated_Source\PSoC4/CapSense_1_Structure.c **** * \{
  68:Generated_Source\PSoC4/CapSense_1_Structure.c **** */
  69:Generated_Source\PSoC4/CapSense_1_Structure.c **** 
  70:Generated_Source\PSoC4/CapSense_1_Structure.c **** /**
  71:Generated_Source\PSoC4/CapSense_1_Structure.c **** * The variable that contains the CapSense_1 configuration, settings and
  72:Generated_Source\PSoC4/CapSense_1_Structure.c **** * scanning results. CapSense_1_dsRam represents RAM Data Structure.
  73:Generated_Source\PSoC4/CapSense_1_Structure.c **** */
  74:Generated_Source\PSoC4/CapSense_1_Structure.c **** CapSense_1_RAM_STRUCT CapSense_1_dsRam;
  75:Generated_Source\PSoC4/CapSense_1_Structure.c **** /** \}
  76:Generated_Source\PSoC4/CapSense_1_Structure.c **** * \endcond */
  77:Generated_Source\PSoC4/CapSense_1_Structure.c **** 
  78:Generated_Source\PSoC4/CapSense_1_Structure.c **** /*******************************************************************************
  79:Generated_Source\PSoC4/CapSense_1_Structure.c **** * Declares Widget's De-bounce Counters
  80:Generated_Source\PSoC4/CapSense_1_Structure.c **** *******************************************************************************/
  81:Generated_Source\PSoC4/CapSense_1_Structure.c **** static uint8 CapSense_1_debounceButton0[CapSense_1_BUTTON0_NUM_SENSORS];
  82:Generated_Source\PSoC4/CapSense_1_Structure.c **** static uint8 CapSense_1_debounceButton1[CapSense_1_BUTTON1_NUM_SENSORS];
  83:Generated_Source\PSoC4/CapSense_1_Structure.c **** static uint8 CapSense_1_debounceTouchpad0[1u];
  84:Generated_Source\PSoC4/CapSense_1_Structure.c **** static uint8 CapSense_1_debounceButton2[CapSense_1_BUTTON2_NUM_SENSORS];
  85:Generated_Source\PSoC4/CapSense_1_Structure.c **** static uint8 CapSense_1_debounceButton3[CapSense_1_BUTTON3_NUM_SENSORS];
  86:Generated_Source\PSoC4/CapSense_1_Structure.c **** static uint8 CapSense_1_debounceButton4[CapSense_1_BUTTON4_NUM_SENSORS];
  87:Generated_Source\PSoC4/CapSense_1_Structure.c **** static uint8 CapSense_1_debounceButton5[CapSense_1_BUTTON5_NUM_SENSORS];
  88:Generated_Source\PSoC4/CapSense_1_Structure.c **** 
ARM GAS  C:\Users\exp32\AppData\Local\Temp\cc6N2LT5.s 			page 3


  89:Generated_Source\PSoC4/CapSense_1_Structure.c **** 
  90:Generated_Source\PSoC4/CapSense_1_Structure.c **** /***************************************************************************//**
  91:Generated_Source\PSoC4/CapSense_1_Structure.c **** * Declares Noise Envelope data structures
  92:Generated_Source\PSoC4/CapSense_1_Structure.c **** *******************************************************************************/
  93:Generated_Source\PSoC4/CapSense_1_Structure.c **** static SMARTSENSE_CSD_NOISE_ENVELOPE_STRUCT CapSense_1_noiseEnvlpButton0[CapSense_1_BUTTON0_NUM_SEN
  94:Generated_Source\PSoC4/CapSense_1_Structure.c **** static SMARTSENSE_CSD_NOISE_ENVELOPE_STRUCT CapSense_1_noiseEnvlpButton1[CapSense_1_BUTTON1_NUM_SEN
  95:Generated_Source\PSoC4/CapSense_1_Structure.c **** static SMARTSENSE_CSD_NOISE_ENVELOPE_STRUCT CapSense_1_noiseEnvlpTouchpad0[CapSense_1_TOUCHPAD0_NUM
  96:Generated_Source\PSoC4/CapSense_1_Structure.c **** static SMARTSENSE_CSD_NOISE_ENVELOPE_STRUCT CapSense_1_noiseEnvlpButton2[CapSense_1_BUTTON2_NUM_SEN
  97:Generated_Source\PSoC4/CapSense_1_Structure.c **** static SMARTSENSE_CSD_NOISE_ENVELOPE_STRUCT CapSense_1_noiseEnvlpButton3[CapSense_1_BUTTON3_NUM_SEN
  98:Generated_Source\PSoC4/CapSense_1_Structure.c **** static SMARTSENSE_CSD_NOISE_ENVELOPE_STRUCT CapSense_1_noiseEnvlpButton4[CapSense_1_BUTTON4_NUM_SEN
  99:Generated_Source\PSoC4/CapSense_1_Structure.c **** static SMARTSENSE_CSD_NOISE_ENVELOPE_STRUCT CapSense_1_noiseEnvlpButton5[CapSense_1_BUTTON5_NUM_SEN
 100:Generated_Source\PSoC4/CapSense_1_Structure.c **** 
 101:Generated_Source\PSoC4/CapSense_1_Structure.c **** /*******************************************************************************
 102:Generated_Source\PSoC4/CapSense_1_Structure.c **** * Defines and initializes the Flash Data Structure
 103:Generated_Source\PSoC4/CapSense_1_Structure.c **** *******************************************************************************/
 104:Generated_Source\PSoC4/CapSense_1_Structure.c **** 
 105:Generated_Source\PSoC4/CapSense_1_Structure.c **** 
 106:Generated_Source\PSoC4/CapSense_1_Structure.c **** 
 107:Generated_Source\PSoC4/CapSense_1_Structure.c **** /**
 108:Generated_Source\PSoC4/CapSense_1_Structure.c **** * \cond SECTION_API_CONSTANTS
 109:Generated_Source\PSoC4/CapSense_1_Structure.c **** * \addtogroup group_api_constants
 110:Generated_Source\PSoC4/CapSense_1_Structure.c **** * \{
 111:Generated_Source\PSoC4/CapSense_1_Structure.c **** */
 112:Generated_Source\PSoC4/CapSense_1_Structure.c **** /**
 113:Generated_Source\PSoC4/CapSense_1_Structure.c **** * Constant for the FLASH Data Structure
 114:Generated_Source\PSoC4/CapSense_1_Structure.c **** */
 115:Generated_Source\PSoC4/CapSense_1_Structure.c **** const CapSense_1_FLASH_STRUCT CapSense_1_dsFlash =
 116:Generated_Source\PSoC4/CapSense_1_Structure.c **** {
 117:Generated_Source\PSoC4/CapSense_1_Structure.c ****     /* Flash Widget Initialization Data */
 118:Generated_Source\PSoC4/CapSense_1_Structure.c ****     {
 119:Generated_Source\PSoC4/CapSense_1_Structure.c ****         { /* Button0 */
 120:Generated_Source\PSoC4/CapSense_1_Structure.c ****             &CapSense_1_ioList[0u],
 121:Generated_Source\PSoC4/CapSense_1_Structure.c ****             (void *)&CapSense_1_dsRam.wdgtList.button0,
 122:Generated_Source\PSoC4/CapSense_1_Structure.c ****             CapSense_1_dsRam.snsList.button0,
 123:Generated_Source\PSoC4/CapSense_1_Structure.c ****             (void *)0u,
 124:Generated_Source\PSoC4/CapSense_1_Structure.c ****             CapSense_1_debounceButton0,
 125:Generated_Source\PSoC4/CapSense_1_Structure.c ****             CapSense_1_BUTTON0_STATIC_CONFIG,
 126:Generated_Source\PSoC4/CapSense_1_Structure.c ****             CapSense_1_BUTTON0_NUM_SENSORS,
 127:Generated_Source\PSoC4/CapSense_1_Structure.c ****             (uint8)CapSense_1_WD_BUTTON_E,
 128:Generated_Source\PSoC4/CapSense_1_Structure.c ****             CapSense_1_BUTTON0_NUM_SENSORS,
 129:Generated_Source\PSoC4/CapSense_1_Structure.c ****             0u,
 130:Generated_Source\PSoC4/CapSense_1_Structure.c ****             0u,
 131:Generated_Source\PSoC4/CapSense_1_Structure.c ****             0u,
 132:Generated_Source\PSoC4/CapSense_1_Structure.c ****             0u,
 133:Generated_Source\PSoC4/CapSense_1_Structure.c ****             0u,
 134:Generated_Source\PSoC4/CapSense_1_Structure.c ****             CapSense_1_noiseEnvlpButton0,
 135:Generated_Source\PSoC4/CapSense_1_Structure.c ****             0u,
 136:Generated_Source\PSoC4/CapSense_1_Structure.c ****         },
 137:Generated_Source\PSoC4/CapSense_1_Structure.c ****         { /* Button1 */
 138:Generated_Source\PSoC4/CapSense_1_Structure.c ****             &CapSense_1_ioList[1u],
 139:Generated_Source\PSoC4/CapSense_1_Structure.c ****             (void *)&CapSense_1_dsRam.wdgtList.button1,
 140:Generated_Source\PSoC4/CapSense_1_Structure.c ****             CapSense_1_dsRam.snsList.button1,
 141:Generated_Source\PSoC4/CapSense_1_Structure.c ****             (void *)0u,
 142:Generated_Source\PSoC4/CapSense_1_Structure.c ****             CapSense_1_debounceButton1,
 143:Generated_Source\PSoC4/CapSense_1_Structure.c ****             CapSense_1_BUTTON1_STATIC_CONFIG,
 144:Generated_Source\PSoC4/CapSense_1_Structure.c ****             CapSense_1_BUTTON1_NUM_SENSORS,
 145:Generated_Source\PSoC4/CapSense_1_Structure.c ****             (uint8)CapSense_1_WD_BUTTON_E,
ARM GAS  C:\Users\exp32\AppData\Local\Temp\cc6N2LT5.s 			page 4


 146:Generated_Source\PSoC4/CapSense_1_Structure.c ****             CapSense_1_BUTTON1_NUM_SENSORS,
 147:Generated_Source\PSoC4/CapSense_1_Structure.c ****             0u,
 148:Generated_Source\PSoC4/CapSense_1_Structure.c ****             0u,
 149:Generated_Source\PSoC4/CapSense_1_Structure.c ****             0u,
 150:Generated_Source\PSoC4/CapSense_1_Structure.c ****             0u,
 151:Generated_Source\PSoC4/CapSense_1_Structure.c ****             0u,
 152:Generated_Source\PSoC4/CapSense_1_Structure.c ****             CapSense_1_noiseEnvlpButton1,
 153:Generated_Source\PSoC4/CapSense_1_Structure.c ****             0u,
 154:Generated_Source\PSoC4/CapSense_1_Structure.c ****         },
 155:Generated_Source\PSoC4/CapSense_1_Structure.c ****         { /* Touchpad0 */
 156:Generated_Source\PSoC4/CapSense_1_Structure.c ****             &CapSense_1_ioList[2u],
 157:Generated_Source\PSoC4/CapSense_1_Structure.c ****             (void *)&CapSense_1_dsRam.wdgtList.touchpad0,
 158:Generated_Source\PSoC4/CapSense_1_Structure.c ****             CapSense_1_dsRam.snsList.touchpad0,
 159:Generated_Source\PSoC4/CapSense_1_Structure.c ****             (void *)0u,
 160:Generated_Source\PSoC4/CapSense_1_Structure.c ****             CapSense_1_debounceTouchpad0,
 161:Generated_Source\PSoC4/CapSense_1_Structure.c ****             CapSense_1_TOUCHPAD0_STATIC_CONFIG,
 162:Generated_Source\PSoC4/CapSense_1_Structure.c ****             CapSense_1_TOUCHPAD0_NUM_COLS + CapSense_1_TOUCHPAD0_NUM_ROWS,
 163:Generated_Source\PSoC4/CapSense_1_Structure.c ****             (uint8)CapSense_1_WD_TOUCHPAD_E,
 164:Generated_Source\PSoC4/CapSense_1_Structure.c ****             CapSense_1_TOUCHPAD0_NUM_COLS,
 165:Generated_Source\PSoC4/CapSense_1_Structure.c ****             CapSense_1_TOUCHPAD0_NUM_ROWS,
 166:Generated_Source\PSoC4/CapSense_1_Structure.c ****             CapSense_1_TOUCHPAD0_X_RESOLUTION,
 167:Generated_Source\PSoC4/CapSense_1_Structure.c ****             CapSense_1_TOUCHPAD0_Y_RESOLUTION,
 168:Generated_Source\PSoC4/CapSense_1_Structure.c ****             CapSense_1_TOUCHPAD0_X_CENT_MULT,
 169:Generated_Source\PSoC4/CapSense_1_Structure.c ****             CapSense_1_TOUCHPAD0_Y_CENT_MULT,
 170:Generated_Source\PSoC4/CapSense_1_Structure.c ****             CapSense_1_noiseEnvlpTouchpad0,
 171:Generated_Source\PSoC4/CapSense_1_Structure.c ****             CapSense_1_TOUCHPAD0_IIR_FILTER_COEFF,
 172:Generated_Source\PSoC4/CapSense_1_Structure.c ****         },
 173:Generated_Source\PSoC4/CapSense_1_Structure.c ****         { /* Button2 */
 174:Generated_Source\PSoC4/CapSense_1_Structure.c ****             &CapSense_1_ioList[14u],
 175:Generated_Source\PSoC4/CapSense_1_Structure.c ****             (void *)&CapSense_1_dsRam.wdgtList.button2,
 176:Generated_Source\PSoC4/CapSense_1_Structure.c ****             CapSense_1_dsRam.snsList.button2,
 177:Generated_Source\PSoC4/CapSense_1_Structure.c ****             (void *)0u,
 178:Generated_Source\PSoC4/CapSense_1_Structure.c ****             CapSense_1_debounceButton2,
 179:Generated_Source\PSoC4/CapSense_1_Structure.c ****             CapSense_1_BUTTON2_STATIC_CONFIG,
 180:Generated_Source\PSoC4/CapSense_1_Structure.c ****             CapSense_1_BUTTON2_NUM_SENSORS,
 181:Generated_Source\PSoC4/CapSense_1_Structure.c ****             (uint8)CapSense_1_WD_BUTTON_E,
 182:Generated_Source\PSoC4/CapSense_1_Structure.c ****             CapSense_1_BUTTON2_NUM_SENSORS,
 183:Generated_Source\PSoC4/CapSense_1_Structure.c ****             0u,
 184:Generated_Source\PSoC4/CapSense_1_Structure.c ****             0u,
 185:Generated_Source\PSoC4/CapSense_1_Structure.c ****             0u,
 186:Generated_Source\PSoC4/CapSense_1_Structure.c ****             0u,
 187:Generated_Source\PSoC4/CapSense_1_Structure.c ****             0u,
 188:Generated_Source\PSoC4/CapSense_1_Structure.c ****             CapSense_1_noiseEnvlpButton2,
 189:Generated_Source\PSoC4/CapSense_1_Structure.c ****             0u,
 190:Generated_Source\PSoC4/CapSense_1_Structure.c ****         },
 191:Generated_Source\PSoC4/CapSense_1_Structure.c ****         { /* Button3 */
 192:Generated_Source\PSoC4/CapSense_1_Structure.c ****             &CapSense_1_ioList[15u],
 193:Generated_Source\PSoC4/CapSense_1_Structure.c ****             (void *)&CapSense_1_dsRam.wdgtList.button3,
 194:Generated_Source\PSoC4/CapSense_1_Structure.c ****             CapSense_1_dsRam.snsList.button3,
 195:Generated_Source\PSoC4/CapSense_1_Structure.c ****             (void *)0u,
 196:Generated_Source\PSoC4/CapSense_1_Structure.c ****             CapSense_1_debounceButton3,
 197:Generated_Source\PSoC4/CapSense_1_Structure.c ****             CapSense_1_BUTTON3_STATIC_CONFIG,
 198:Generated_Source\PSoC4/CapSense_1_Structure.c ****             CapSense_1_BUTTON3_NUM_SENSORS,
 199:Generated_Source\PSoC4/CapSense_1_Structure.c ****             (uint8)CapSense_1_WD_BUTTON_E,
 200:Generated_Source\PSoC4/CapSense_1_Structure.c ****             CapSense_1_BUTTON3_NUM_SENSORS,
 201:Generated_Source\PSoC4/CapSense_1_Structure.c ****             0u,
 202:Generated_Source\PSoC4/CapSense_1_Structure.c ****             0u,
ARM GAS  C:\Users\exp32\AppData\Local\Temp\cc6N2LT5.s 			page 5


 203:Generated_Source\PSoC4/CapSense_1_Structure.c ****             0u,
 204:Generated_Source\PSoC4/CapSense_1_Structure.c ****             0u,
 205:Generated_Source\PSoC4/CapSense_1_Structure.c ****             0u,
 206:Generated_Source\PSoC4/CapSense_1_Structure.c ****             CapSense_1_noiseEnvlpButton3,
 207:Generated_Source\PSoC4/CapSense_1_Structure.c ****             0u,
 208:Generated_Source\PSoC4/CapSense_1_Structure.c ****         },
 209:Generated_Source\PSoC4/CapSense_1_Structure.c ****         { /* Button4 */
 210:Generated_Source\PSoC4/CapSense_1_Structure.c ****             &CapSense_1_ioList[16u],
 211:Generated_Source\PSoC4/CapSense_1_Structure.c ****             (void *)&CapSense_1_dsRam.wdgtList.button4,
 212:Generated_Source\PSoC4/CapSense_1_Structure.c ****             CapSense_1_dsRam.snsList.button4,
 213:Generated_Source\PSoC4/CapSense_1_Structure.c ****             (void *)0u,
 214:Generated_Source\PSoC4/CapSense_1_Structure.c ****             CapSense_1_debounceButton4,
 215:Generated_Source\PSoC4/CapSense_1_Structure.c ****             CapSense_1_BUTTON4_STATIC_CONFIG,
 216:Generated_Source\PSoC4/CapSense_1_Structure.c ****             CapSense_1_BUTTON4_NUM_SENSORS,
 217:Generated_Source\PSoC4/CapSense_1_Structure.c ****             (uint8)CapSense_1_WD_BUTTON_E,
 218:Generated_Source\PSoC4/CapSense_1_Structure.c ****             CapSense_1_BUTTON4_NUM_SENSORS,
 219:Generated_Source\PSoC4/CapSense_1_Structure.c ****             0u,
 220:Generated_Source\PSoC4/CapSense_1_Structure.c ****             0u,
 221:Generated_Source\PSoC4/CapSense_1_Structure.c ****             0u,
 222:Generated_Source\PSoC4/CapSense_1_Structure.c ****             0u,
 223:Generated_Source\PSoC4/CapSense_1_Structure.c ****             0u,
 224:Generated_Source\PSoC4/CapSense_1_Structure.c ****             CapSense_1_noiseEnvlpButton4,
 225:Generated_Source\PSoC4/CapSense_1_Structure.c ****             0u,
 226:Generated_Source\PSoC4/CapSense_1_Structure.c ****         },
 227:Generated_Source\PSoC4/CapSense_1_Structure.c ****         { /* Button5 */
 228:Generated_Source\PSoC4/CapSense_1_Structure.c ****             &CapSense_1_ioList[17u],
 229:Generated_Source\PSoC4/CapSense_1_Structure.c ****             (void *)&CapSense_1_dsRam.wdgtList.button5,
 230:Generated_Source\PSoC4/CapSense_1_Structure.c ****             CapSense_1_dsRam.snsList.button5,
 231:Generated_Source\PSoC4/CapSense_1_Structure.c ****             (void *)0u,
 232:Generated_Source\PSoC4/CapSense_1_Structure.c ****             CapSense_1_debounceButton5,
 233:Generated_Source\PSoC4/CapSense_1_Structure.c ****             CapSense_1_BUTTON5_STATIC_CONFIG,
 234:Generated_Source\PSoC4/CapSense_1_Structure.c ****             CapSense_1_BUTTON5_NUM_SENSORS,
 235:Generated_Source\PSoC4/CapSense_1_Structure.c ****             (uint8)CapSense_1_WD_BUTTON_E,
 236:Generated_Source\PSoC4/CapSense_1_Structure.c ****             CapSense_1_BUTTON5_NUM_SENSORS,
 237:Generated_Source\PSoC4/CapSense_1_Structure.c ****             0u,
 238:Generated_Source\PSoC4/CapSense_1_Structure.c ****             0u,
 239:Generated_Source\PSoC4/CapSense_1_Structure.c ****             0u,
 240:Generated_Source\PSoC4/CapSense_1_Structure.c ****             0u,
 241:Generated_Source\PSoC4/CapSense_1_Structure.c ****             0u,
 242:Generated_Source\PSoC4/CapSense_1_Structure.c ****             CapSense_1_noiseEnvlpButton5,
 243:Generated_Source\PSoC4/CapSense_1_Structure.c ****             0u,
 244:Generated_Source\PSoC4/CapSense_1_Structure.c ****         },
 245:Generated_Source\PSoC4/CapSense_1_Structure.c ****     },
 246:Generated_Source\PSoC4/CapSense_1_Structure.c **** };
 247:Generated_Source\PSoC4/CapSense_1_Structure.c **** 
 248:Generated_Source\PSoC4/CapSense_1_Structure.c **** /**
 249:Generated_Source\PSoC4/CapSense_1_Structure.c **** * The array of the pointers to the electrode specific register.
 250:Generated_Source\PSoC4/CapSense_1_Structure.c **** */
 251:Generated_Source\PSoC4/CapSense_1_Structure.c **** const CapSense_1_FLASH_IO_STRUCT CapSense_1_ioList[CapSense_1_TOTAL_ELECTRODES] =
 252:Generated_Source\PSoC4/CapSense_1_Structure.c **** {
 253:Generated_Source\PSoC4/CapSense_1_Structure.c ****     { /* 0: Button0_Sns0 */
 254:Generated_Source\PSoC4/CapSense_1_Structure.c ****         (reg32 *)CapSense_1_Sns__0__HSIOM,
 255:Generated_Source\PSoC4/CapSense_1_Structure.c ****         (reg32 *)CapSense_1_Sns__0__PC,
 256:Generated_Source\PSoC4/CapSense_1_Structure.c ****         (reg32 *)CapSense_1_Sns__0__DR,
 257:Generated_Source\PSoC4/CapSense_1_Structure.c ****         (reg32 *)CapSense_1_Sns__0__PS,
 258:Generated_Source\PSoC4/CapSense_1_Structure.c ****         CapSense_1_Sns__0__HSIOM_MASK,
 259:Generated_Source\PSoC4/CapSense_1_Structure.c ****         CapSense_1_Sns__0__MASK,
ARM GAS  C:\Users\exp32\AppData\Local\Temp\cc6N2LT5.s 			page 6


 260:Generated_Source\PSoC4/CapSense_1_Structure.c ****         CapSense_1_Sns__0__HSIOM_SHIFT,
 261:Generated_Source\PSoC4/CapSense_1_Structure.c ****         (uint8)CapSense_1_Sns__0__SHIFT,
 262:Generated_Source\PSoC4/CapSense_1_Structure.c ****         (uint8)CapSense_1_Sns__0__SHIFT * 3u,
 263:Generated_Source\PSoC4/CapSense_1_Structure.c ****     },
 264:Generated_Source\PSoC4/CapSense_1_Structure.c ****     { /* 1: Button1_Sns0 */
 265:Generated_Source\PSoC4/CapSense_1_Structure.c ****         (reg32 *)CapSense_1_Sns__1__HSIOM,
 266:Generated_Source\PSoC4/CapSense_1_Structure.c ****         (reg32 *)CapSense_1_Sns__1__PC,
 267:Generated_Source\PSoC4/CapSense_1_Structure.c ****         (reg32 *)CapSense_1_Sns__1__DR,
 268:Generated_Source\PSoC4/CapSense_1_Structure.c ****         (reg32 *)CapSense_1_Sns__1__PS,
 269:Generated_Source\PSoC4/CapSense_1_Structure.c ****         CapSense_1_Sns__1__HSIOM_MASK,
 270:Generated_Source\PSoC4/CapSense_1_Structure.c ****         CapSense_1_Sns__1__MASK,
 271:Generated_Source\PSoC4/CapSense_1_Structure.c ****         CapSense_1_Sns__1__HSIOM_SHIFT,
 272:Generated_Source\PSoC4/CapSense_1_Structure.c ****         (uint8)CapSense_1_Sns__1__SHIFT,
 273:Generated_Source\PSoC4/CapSense_1_Structure.c ****         (uint8)CapSense_1_Sns__1__SHIFT * 3u,
 274:Generated_Source\PSoC4/CapSense_1_Structure.c ****     },
 275:Generated_Source\PSoC4/CapSense_1_Structure.c ****     { /* 2: Touchpad0_Col0 */
 276:Generated_Source\PSoC4/CapSense_1_Structure.c ****         (reg32 *)CapSense_1_Sns__2__HSIOM,
 277:Generated_Source\PSoC4/CapSense_1_Structure.c ****         (reg32 *)CapSense_1_Sns__2__PC,
 278:Generated_Source\PSoC4/CapSense_1_Structure.c ****         (reg32 *)CapSense_1_Sns__2__DR,
 279:Generated_Source\PSoC4/CapSense_1_Structure.c ****         (reg32 *)CapSense_1_Sns__2__PS,
 280:Generated_Source\PSoC4/CapSense_1_Structure.c ****         CapSense_1_Sns__2__HSIOM_MASK,
 281:Generated_Source\PSoC4/CapSense_1_Structure.c ****         CapSense_1_Sns__2__MASK,
 282:Generated_Source\PSoC4/CapSense_1_Structure.c ****         CapSense_1_Sns__2__HSIOM_SHIFT,
 283:Generated_Source\PSoC4/CapSense_1_Structure.c ****         (uint8)CapSense_1_Sns__2__SHIFT,
 284:Generated_Source\PSoC4/CapSense_1_Structure.c ****         (uint8)CapSense_1_Sns__2__SHIFT * 3u,
 285:Generated_Source\PSoC4/CapSense_1_Structure.c ****     },
 286:Generated_Source\PSoC4/CapSense_1_Structure.c ****     { /* 3: Touchpad0_Col1 */
 287:Generated_Source\PSoC4/CapSense_1_Structure.c ****         (reg32 *)CapSense_1_Sns__3__HSIOM,
 288:Generated_Source\PSoC4/CapSense_1_Structure.c ****         (reg32 *)CapSense_1_Sns__3__PC,
 289:Generated_Source\PSoC4/CapSense_1_Structure.c ****         (reg32 *)CapSense_1_Sns__3__DR,
 290:Generated_Source\PSoC4/CapSense_1_Structure.c ****         (reg32 *)CapSense_1_Sns__3__PS,
 291:Generated_Source\PSoC4/CapSense_1_Structure.c ****         CapSense_1_Sns__3__HSIOM_MASK,
 292:Generated_Source\PSoC4/CapSense_1_Structure.c ****         CapSense_1_Sns__3__MASK,
 293:Generated_Source\PSoC4/CapSense_1_Structure.c ****         CapSense_1_Sns__3__HSIOM_SHIFT,
 294:Generated_Source\PSoC4/CapSense_1_Structure.c ****         (uint8)CapSense_1_Sns__3__SHIFT,
 295:Generated_Source\PSoC4/CapSense_1_Structure.c ****         (uint8)CapSense_1_Sns__3__SHIFT * 3u,
 296:Generated_Source\PSoC4/CapSense_1_Structure.c ****     },
 297:Generated_Source\PSoC4/CapSense_1_Structure.c ****     { /* 4: Touchpad0_Col2 */
 298:Generated_Source\PSoC4/CapSense_1_Structure.c ****         (reg32 *)CapSense_1_Sns__4__HSIOM,
 299:Generated_Source\PSoC4/CapSense_1_Structure.c ****         (reg32 *)CapSense_1_Sns__4__PC,
 300:Generated_Source\PSoC4/CapSense_1_Structure.c ****         (reg32 *)CapSense_1_Sns__4__DR,
 301:Generated_Source\PSoC4/CapSense_1_Structure.c ****         (reg32 *)CapSense_1_Sns__4__PS,
 302:Generated_Source\PSoC4/CapSense_1_Structure.c ****         CapSense_1_Sns__4__HSIOM_MASK,
 303:Generated_Source\PSoC4/CapSense_1_Structure.c ****         CapSense_1_Sns__4__MASK,
 304:Generated_Source\PSoC4/CapSense_1_Structure.c ****         CapSense_1_Sns__4__HSIOM_SHIFT,
 305:Generated_Source\PSoC4/CapSense_1_Structure.c ****         (uint8)CapSense_1_Sns__4__SHIFT,
 306:Generated_Source\PSoC4/CapSense_1_Structure.c ****         (uint8)CapSense_1_Sns__4__SHIFT * 3u,
 307:Generated_Source\PSoC4/CapSense_1_Structure.c ****     },
 308:Generated_Source\PSoC4/CapSense_1_Structure.c ****     { /* 5: Touchpad0_Col3 */
 309:Generated_Source\PSoC4/CapSense_1_Structure.c ****         (reg32 *)CapSense_1_Sns__5__HSIOM,
 310:Generated_Source\PSoC4/CapSense_1_Structure.c ****         (reg32 *)CapSense_1_Sns__5__PC,
 311:Generated_Source\PSoC4/CapSense_1_Structure.c ****         (reg32 *)CapSense_1_Sns__5__DR,
 312:Generated_Source\PSoC4/CapSense_1_Structure.c ****         (reg32 *)CapSense_1_Sns__5__PS,
 313:Generated_Source\PSoC4/CapSense_1_Structure.c ****         CapSense_1_Sns__5__HSIOM_MASK,
 314:Generated_Source\PSoC4/CapSense_1_Structure.c ****         CapSense_1_Sns__5__MASK,
 315:Generated_Source\PSoC4/CapSense_1_Structure.c ****         CapSense_1_Sns__5__HSIOM_SHIFT,
 316:Generated_Source\PSoC4/CapSense_1_Structure.c ****         (uint8)CapSense_1_Sns__5__SHIFT,
ARM GAS  C:\Users\exp32\AppData\Local\Temp\cc6N2LT5.s 			page 7


 317:Generated_Source\PSoC4/CapSense_1_Structure.c ****         (uint8)CapSense_1_Sns__5__SHIFT * 3u,
 318:Generated_Source\PSoC4/CapSense_1_Structure.c ****     },
 319:Generated_Source\PSoC4/CapSense_1_Structure.c ****     { /* 6: Touchpad0_Col4 */
 320:Generated_Source\PSoC4/CapSense_1_Structure.c ****         (reg32 *)CapSense_1_Sns__6__HSIOM,
 321:Generated_Source\PSoC4/CapSense_1_Structure.c ****         (reg32 *)CapSense_1_Sns__6__PC,
 322:Generated_Source\PSoC4/CapSense_1_Structure.c ****         (reg32 *)CapSense_1_Sns__6__DR,
 323:Generated_Source\PSoC4/CapSense_1_Structure.c ****         (reg32 *)CapSense_1_Sns__6__PS,
 324:Generated_Source\PSoC4/CapSense_1_Structure.c ****         CapSense_1_Sns__6__HSIOM_MASK,
 325:Generated_Source\PSoC4/CapSense_1_Structure.c ****         CapSense_1_Sns__6__MASK,
 326:Generated_Source\PSoC4/CapSense_1_Structure.c ****         CapSense_1_Sns__6__HSIOM_SHIFT,
 327:Generated_Source\PSoC4/CapSense_1_Structure.c ****         (uint8)CapSense_1_Sns__6__SHIFT,
 328:Generated_Source\PSoC4/CapSense_1_Structure.c ****         (uint8)CapSense_1_Sns__6__SHIFT * 3u,
 329:Generated_Source\PSoC4/CapSense_1_Structure.c ****     },
 330:Generated_Source\PSoC4/CapSense_1_Structure.c ****     { /* 7: Touchpad0_Col5 */
 331:Generated_Source\PSoC4/CapSense_1_Structure.c ****         (reg32 *)CapSense_1_Sns__7__HSIOM,
 332:Generated_Source\PSoC4/CapSense_1_Structure.c ****         (reg32 *)CapSense_1_Sns__7__PC,
 333:Generated_Source\PSoC4/CapSense_1_Structure.c ****         (reg32 *)CapSense_1_Sns__7__DR,
 334:Generated_Source\PSoC4/CapSense_1_Structure.c ****         (reg32 *)CapSense_1_Sns__7__PS,
 335:Generated_Source\PSoC4/CapSense_1_Structure.c ****         CapSense_1_Sns__7__HSIOM_MASK,
 336:Generated_Source\PSoC4/CapSense_1_Structure.c ****         CapSense_1_Sns__7__MASK,
 337:Generated_Source\PSoC4/CapSense_1_Structure.c ****         CapSense_1_Sns__7__HSIOM_SHIFT,
 338:Generated_Source\PSoC4/CapSense_1_Structure.c ****         (uint8)CapSense_1_Sns__7__SHIFT,
 339:Generated_Source\PSoC4/CapSense_1_Structure.c ****         (uint8)CapSense_1_Sns__7__SHIFT * 3u,
 340:Generated_Source\PSoC4/CapSense_1_Structure.c ****     },
 341:Generated_Source\PSoC4/CapSense_1_Structure.c ****     { /* 8: Touchpad0_Row0 */
 342:Generated_Source\PSoC4/CapSense_1_Structure.c ****         (reg32 *)CapSense_1_Sns__8__HSIOM,
 343:Generated_Source\PSoC4/CapSense_1_Structure.c ****         (reg32 *)CapSense_1_Sns__8__PC,
 344:Generated_Source\PSoC4/CapSense_1_Structure.c ****         (reg32 *)CapSense_1_Sns__8__DR,
 345:Generated_Source\PSoC4/CapSense_1_Structure.c ****         (reg32 *)CapSense_1_Sns__8__PS,
 346:Generated_Source\PSoC4/CapSense_1_Structure.c ****         CapSense_1_Sns__8__HSIOM_MASK,
 347:Generated_Source\PSoC4/CapSense_1_Structure.c ****         CapSense_1_Sns__8__MASK,
 348:Generated_Source\PSoC4/CapSense_1_Structure.c ****         CapSense_1_Sns__8__HSIOM_SHIFT,
 349:Generated_Source\PSoC4/CapSense_1_Structure.c ****         (uint8)CapSense_1_Sns__8__SHIFT,
 350:Generated_Source\PSoC4/CapSense_1_Structure.c ****         (uint8)CapSense_1_Sns__8__SHIFT * 3u,
 351:Generated_Source\PSoC4/CapSense_1_Structure.c ****     },
 352:Generated_Source\PSoC4/CapSense_1_Structure.c ****     { /* 9: Touchpad0_Row1 */
 353:Generated_Source\PSoC4/CapSense_1_Structure.c ****         (reg32 *)CapSense_1_Sns__9__HSIOM,
 354:Generated_Source\PSoC4/CapSense_1_Structure.c ****         (reg32 *)CapSense_1_Sns__9__PC,
 355:Generated_Source\PSoC4/CapSense_1_Structure.c ****         (reg32 *)CapSense_1_Sns__9__DR,
 356:Generated_Source\PSoC4/CapSense_1_Structure.c ****         (reg32 *)CapSense_1_Sns__9__PS,
 357:Generated_Source\PSoC4/CapSense_1_Structure.c ****         CapSense_1_Sns__9__HSIOM_MASK,
 358:Generated_Source\PSoC4/CapSense_1_Structure.c ****         CapSense_1_Sns__9__MASK,
 359:Generated_Source\PSoC4/CapSense_1_Structure.c ****         CapSense_1_Sns__9__HSIOM_SHIFT,
 360:Generated_Source\PSoC4/CapSense_1_Structure.c ****         (uint8)CapSense_1_Sns__9__SHIFT,
 361:Generated_Source\PSoC4/CapSense_1_Structure.c ****         (uint8)CapSense_1_Sns__9__SHIFT * 3u,
 362:Generated_Source\PSoC4/CapSense_1_Structure.c ****     },
 363:Generated_Source\PSoC4/CapSense_1_Structure.c ****     { /* 10: Touchpad0_Row2 */
 364:Generated_Source\PSoC4/CapSense_1_Structure.c ****         (reg32 *)CapSense_1_Sns__10__HSIOM,
 365:Generated_Source\PSoC4/CapSense_1_Structure.c ****         (reg32 *)CapSense_1_Sns__10__PC,
 366:Generated_Source\PSoC4/CapSense_1_Structure.c ****         (reg32 *)CapSense_1_Sns__10__DR,
 367:Generated_Source\PSoC4/CapSense_1_Structure.c ****         (reg32 *)CapSense_1_Sns__10__PS,
 368:Generated_Source\PSoC4/CapSense_1_Structure.c ****         CapSense_1_Sns__10__HSIOM_MASK,
 369:Generated_Source\PSoC4/CapSense_1_Structure.c ****         CapSense_1_Sns__10__MASK,
 370:Generated_Source\PSoC4/CapSense_1_Structure.c ****         CapSense_1_Sns__10__HSIOM_SHIFT,
 371:Generated_Source\PSoC4/CapSense_1_Structure.c ****         (uint8)CapSense_1_Sns__10__SHIFT,
 372:Generated_Source\PSoC4/CapSense_1_Structure.c ****         (uint8)CapSense_1_Sns__10__SHIFT * 3u,
 373:Generated_Source\PSoC4/CapSense_1_Structure.c ****     },
ARM GAS  C:\Users\exp32\AppData\Local\Temp\cc6N2LT5.s 			page 8


 374:Generated_Source\PSoC4/CapSense_1_Structure.c ****     { /* 11: Touchpad0_Row3 */
 375:Generated_Source\PSoC4/CapSense_1_Structure.c ****         (reg32 *)CapSense_1_Sns__11__HSIOM,
 376:Generated_Source\PSoC4/CapSense_1_Structure.c ****         (reg32 *)CapSense_1_Sns__11__PC,
 377:Generated_Source\PSoC4/CapSense_1_Structure.c ****         (reg32 *)CapSense_1_Sns__11__DR,
 378:Generated_Source\PSoC4/CapSense_1_Structure.c ****         (reg32 *)CapSense_1_Sns__11__PS,
 379:Generated_Source\PSoC4/CapSense_1_Structure.c ****         CapSense_1_Sns__11__HSIOM_MASK,
 380:Generated_Source\PSoC4/CapSense_1_Structure.c ****         CapSense_1_Sns__11__MASK,
 381:Generated_Source\PSoC4/CapSense_1_Structure.c ****         CapSense_1_Sns__11__HSIOM_SHIFT,
 382:Generated_Source\PSoC4/CapSense_1_Structure.c ****         (uint8)CapSense_1_Sns__11__SHIFT,
 383:Generated_Source\PSoC4/CapSense_1_Structure.c ****         (uint8)CapSense_1_Sns__11__SHIFT * 3u,
 384:Generated_Source\PSoC4/CapSense_1_Structure.c ****     },
 385:Generated_Source\PSoC4/CapSense_1_Structure.c ****     { /* 12: Touchpad0_Row4 */
 386:Generated_Source\PSoC4/CapSense_1_Structure.c ****         (reg32 *)CapSense_1_Sns__12__HSIOM,
 387:Generated_Source\PSoC4/CapSense_1_Structure.c ****         (reg32 *)CapSense_1_Sns__12__PC,
 388:Generated_Source\PSoC4/CapSense_1_Structure.c ****         (reg32 *)CapSense_1_Sns__12__DR,
 389:Generated_Source\PSoC4/CapSense_1_Structure.c ****         (reg32 *)CapSense_1_Sns__12__PS,
 390:Generated_Source\PSoC4/CapSense_1_Structure.c ****         CapSense_1_Sns__12__HSIOM_MASK,
 391:Generated_Source\PSoC4/CapSense_1_Structure.c ****         CapSense_1_Sns__12__MASK,
 392:Generated_Source\PSoC4/CapSense_1_Structure.c ****         CapSense_1_Sns__12__HSIOM_SHIFT,
 393:Generated_Source\PSoC4/CapSense_1_Structure.c ****         (uint8)CapSense_1_Sns__12__SHIFT,
 394:Generated_Source\PSoC4/CapSense_1_Structure.c ****         (uint8)CapSense_1_Sns__12__SHIFT * 3u,
 395:Generated_Source\PSoC4/CapSense_1_Structure.c ****     },
 396:Generated_Source\PSoC4/CapSense_1_Structure.c ****     { /* 13: Touchpad0_Row5 */
 397:Generated_Source\PSoC4/CapSense_1_Structure.c ****         (reg32 *)CapSense_1_Sns__13__HSIOM,
 398:Generated_Source\PSoC4/CapSense_1_Structure.c ****         (reg32 *)CapSense_1_Sns__13__PC,
 399:Generated_Source\PSoC4/CapSense_1_Structure.c ****         (reg32 *)CapSense_1_Sns__13__DR,
 400:Generated_Source\PSoC4/CapSense_1_Structure.c ****         (reg32 *)CapSense_1_Sns__13__PS,
 401:Generated_Source\PSoC4/CapSense_1_Structure.c ****         CapSense_1_Sns__13__HSIOM_MASK,
 402:Generated_Source\PSoC4/CapSense_1_Structure.c ****         CapSense_1_Sns__13__MASK,
 403:Generated_Source\PSoC4/CapSense_1_Structure.c ****         CapSense_1_Sns__13__HSIOM_SHIFT,
 404:Generated_Source\PSoC4/CapSense_1_Structure.c ****         (uint8)CapSense_1_Sns__13__SHIFT,
 405:Generated_Source\PSoC4/CapSense_1_Structure.c ****         (uint8)CapSense_1_Sns__13__SHIFT * 3u,
 406:Generated_Source\PSoC4/CapSense_1_Structure.c ****     },
 407:Generated_Source\PSoC4/CapSense_1_Structure.c ****     { /* 14: Button2_Sns0 */
 408:Generated_Source\PSoC4/CapSense_1_Structure.c ****         (reg32 *)CapSense_1_Sns__14__HSIOM,
 409:Generated_Source\PSoC4/CapSense_1_Structure.c ****         (reg32 *)CapSense_1_Sns__14__PC,
 410:Generated_Source\PSoC4/CapSense_1_Structure.c ****         (reg32 *)CapSense_1_Sns__14__DR,
 411:Generated_Source\PSoC4/CapSense_1_Structure.c ****         (reg32 *)CapSense_1_Sns__14__PS,
 412:Generated_Source\PSoC4/CapSense_1_Structure.c ****         CapSense_1_Sns__14__HSIOM_MASK,
 413:Generated_Source\PSoC4/CapSense_1_Structure.c ****         CapSense_1_Sns__14__MASK,
 414:Generated_Source\PSoC4/CapSense_1_Structure.c ****         CapSense_1_Sns__14__HSIOM_SHIFT,
 415:Generated_Source\PSoC4/CapSense_1_Structure.c ****         (uint8)CapSense_1_Sns__14__SHIFT,
 416:Generated_Source\PSoC4/CapSense_1_Structure.c ****         (uint8)CapSense_1_Sns__14__SHIFT * 3u,
 417:Generated_Source\PSoC4/CapSense_1_Structure.c ****     },
 418:Generated_Source\PSoC4/CapSense_1_Structure.c ****     { /* 15: Button3_Sns0 */
 419:Generated_Source\PSoC4/CapSense_1_Structure.c ****         (reg32 *)CapSense_1_Sns__15__HSIOM,
 420:Generated_Source\PSoC4/CapSense_1_Structure.c ****         (reg32 *)CapSense_1_Sns__15__PC,
 421:Generated_Source\PSoC4/CapSense_1_Structure.c ****         (reg32 *)CapSense_1_Sns__15__DR,
 422:Generated_Source\PSoC4/CapSense_1_Structure.c ****         (reg32 *)CapSense_1_Sns__15__PS,
 423:Generated_Source\PSoC4/CapSense_1_Structure.c ****         CapSense_1_Sns__15__HSIOM_MASK,
 424:Generated_Source\PSoC4/CapSense_1_Structure.c ****         CapSense_1_Sns__15__MASK,
 425:Generated_Source\PSoC4/CapSense_1_Structure.c ****         CapSense_1_Sns__15__HSIOM_SHIFT,
 426:Generated_Source\PSoC4/CapSense_1_Structure.c ****         (uint8)CapSense_1_Sns__15__SHIFT,
 427:Generated_Source\PSoC4/CapSense_1_Structure.c ****         (uint8)CapSense_1_Sns__15__SHIFT * 3u,
 428:Generated_Source\PSoC4/CapSense_1_Structure.c ****     },
 429:Generated_Source\PSoC4/CapSense_1_Structure.c ****     { /* 16: Button4_Sns0 */
 430:Generated_Source\PSoC4/CapSense_1_Structure.c ****         (reg32 *)CapSense_1_Sns__16__HSIOM,
ARM GAS  C:\Users\exp32\AppData\Local\Temp\cc6N2LT5.s 			page 9


 431:Generated_Source\PSoC4/CapSense_1_Structure.c ****         (reg32 *)CapSense_1_Sns__16__PC,
 432:Generated_Source\PSoC4/CapSense_1_Structure.c ****         (reg32 *)CapSense_1_Sns__16__DR,
 433:Generated_Source\PSoC4/CapSense_1_Structure.c ****         (reg32 *)CapSense_1_Sns__16__PS,
 434:Generated_Source\PSoC4/CapSense_1_Structure.c ****         CapSense_1_Sns__16__HSIOM_MASK,
 435:Generated_Source\PSoC4/CapSense_1_Structure.c ****         CapSense_1_Sns__16__MASK,
 436:Generated_Source\PSoC4/CapSense_1_Structure.c ****         CapSense_1_Sns__16__HSIOM_SHIFT,
 437:Generated_Source\PSoC4/CapSense_1_Structure.c ****         (uint8)CapSense_1_Sns__16__SHIFT,
 438:Generated_Source\PSoC4/CapSense_1_Structure.c ****         (uint8)CapSense_1_Sns__16__SHIFT * 3u,
 439:Generated_Source\PSoC4/CapSense_1_Structure.c ****     },
 440:Generated_Source\PSoC4/CapSense_1_Structure.c ****     { /* 17: Button5_Sns0 */
 441:Generated_Source\PSoC4/CapSense_1_Structure.c ****         (reg32 *)CapSense_1_Sns__17__HSIOM,
 442:Generated_Source\PSoC4/CapSense_1_Structure.c ****         (reg32 *)CapSense_1_Sns__17__PC,
 443:Generated_Source\PSoC4/CapSense_1_Structure.c ****         (reg32 *)CapSense_1_Sns__17__DR,
 444:Generated_Source\PSoC4/CapSense_1_Structure.c ****         (reg32 *)CapSense_1_Sns__17__PS,
 445:Generated_Source\PSoC4/CapSense_1_Structure.c ****         CapSense_1_Sns__17__HSIOM_MASK,
 446:Generated_Source\PSoC4/CapSense_1_Structure.c ****         CapSense_1_Sns__17__MASK,
 447:Generated_Source\PSoC4/CapSense_1_Structure.c ****         CapSense_1_Sns__17__HSIOM_SHIFT,
 448:Generated_Source\PSoC4/CapSense_1_Structure.c ****         (uint8)CapSense_1_Sns__17__SHIFT,
 449:Generated_Source\PSoC4/CapSense_1_Structure.c ****         (uint8)CapSense_1_Sns__17__SHIFT * 3u,
 450:Generated_Source\PSoC4/CapSense_1_Structure.c ****     },
 451:Generated_Source\PSoC4/CapSense_1_Structure.c **** };
 452:Generated_Source\PSoC4/CapSense_1_Structure.c **** 
 453:Generated_Source\PSoC4/CapSense_1_Structure.c **** 
 454:Generated_Source\PSoC4/CapSense_1_Structure.c **** 
 455:Generated_Source\PSoC4/CapSense_1_Structure.c **** /** \}
 456:Generated_Source\PSoC4/CapSense_1_Structure.c **** * \endcond */
 457:Generated_Source\PSoC4/CapSense_1_Structure.c **** 
 458:Generated_Source\PSoC4/CapSense_1_Structure.c **** /* Initialization data for RAM widget list */
 459:Generated_Source\PSoC4/CapSense_1_Structure.c **** const CapSense_1_RAM_WD_LIST_STRUCT CapSense_1_ramWidgetInit =
 460:Generated_Source\PSoC4/CapSense_1_Structure.c **** {
 461:Generated_Source\PSoC4/CapSense_1_Structure.c ****     { /* Button0 */
 462:Generated_Source\PSoC4/CapSense_1_Structure.c ****         CapSense_1_BUTTON0_RESOLUTION,
 463:Generated_Source\PSoC4/CapSense_1_Structure.c ****         CapSense_1_BUTTON0_FINGER_TH,
 464:Generated_Source\PSoC4/CapSense_1_Structure.c ****         CapSense_1_BUTTON0_NOISE_TH,
 465:Generated_Source\PSoC4/CapSense_1_Structure.c ****         CapSense_1_BUTTON0_NNOISE_TH,
 466:Generated_Source\PSoC4/CapSense_1_Structure.c ****         CapSense_1_BUTTON0_HYSTERESIS,
 467:Generated_Source\PSoC4/CapSense_1_Structure.c ****         CapSense_1_BUTTON0_ON_DEBOUNCE,
 468:Generated_Source\PSoC4/CapSense_1_Structure.c ****         CapSense_1_BUTTON0_LOW_BSLN_RST,
 469:Generated_Source\PSoC4/CapSense_1_Structure.c ****         {
 470:Generated_Source\PSoC4/CapSense_1_Structure.c ****             CapSense_1_BUTTON0_IDAC_MOD0,
 471:Generated_Source\PSoC4/CapSense_1_Structure.c ****         },
 472:Generated_Source\PSoC4/CapSense_1_Structure.c ****         {
 473:Generated_Source\PSoC4/CapSense_1_Structure.c ****             CapSense_1_BUTTON0_ROW_IDAC_MOD0,
 474:Generated_Source\PSoC4/CapSense_1_Structure.c ****         },
 475:Generated_Source\PSoC4/CapSense_1_Structure.c ****         CapSense_1_BUTTON0_IDAC_GAIN_INDEX,
 476:Generated_Source\PSoC4/CapSense_1_Structure.c ****         CapSense_1_BUTTON0_SNS_CLK,
 477:Generated_Source\PSoC4/CapSense_1_Structure.c ****         CapSense_1_BUTTON0_ROW_SNS_CLK,
 478:Generated_Source\PSoC4/CapSense_1_Structure.c ****         CapSense_1_BUTTON0_SNS_CLK_SOURCE,
 479:Generated_Source\PSoC4/CapSense_1_Structure.c ****         CapSense_1_BUTTON0_ROW_SNS_CLK_SOURCE,
 480:Generated_Source\PSoC4/CapSense_1_Structure.c ****         CapSense_1_BUTTON0_FINGER_CAP,
 481:Generated_Source\PSoC4/CapSense_1_Structure.c ****         CapSense_1_BUTTON0_SIGPFC,
 482:Generated_Source\PSoC4/CapSense_1_Structure.c ****     },
 483:Generated_Source\PSoC4/CapSense_1_Structure.c ****     { /* Button1 */
 484:Generated_Source\PSoC4/CapSense_1_Structure.c ****         CapSense_1_BUTTON1_RESOLUTION,
 485:Generated_Source\PSoC4/CapSense_1_Structure.c ****         CapSense_1_BUTTON1_FINGER_TH,
 486:Generated_Source\PSoC4/CapSense_1_Structure.c ****         CapSense_1_BUTTON1_NOISE_TH,
 487:Generated_Source\PSoC4/CapSense_1_Structure.c ****         CapSense_1_BUTTON1_NNOISE_TH,
ARM GAS  C:\Users\exp32\AppData\Local\Temp\cc6N2LT5.s 			page 10


 488:Generated_Source\PSoC4/CapSense_1_Structure.c ****         CapSense_1_BUTTON1_HYSTERESIS,
 489:Generated_Source\PSoC4/CapSense_1_Structure.c ****         CapSense_1_BUTTON1_ON_DEBOUNCE,
 490:Generated_Source\PSoC4/CapSense_1_Structure.c ****         CapSense_1_BUTTON1_LOW_BSLN_RST,
 491:Generated_Source\PSoC4/CapSense_1_Structure.c ****         {
 492:Generated_Source\PSoC4/CapSense_1_Structure.c ****             CapSense_1_BUTTON1_IDAC_MOD0,
 493:Generated_Source\PSoC4/CapSense_1_Structure.c ****         },
 494:Generated_Source\PSoC4/CapSense_1_Structure.c ****         {
 495:Generated_Source\PSoC4/CapSense_1_Structure.c ****             CapSense_1_BUTTON1_ROW_IDAC_MOD0,
 496:Generated_Source\PSoC4/CapSense_1_Structure.c ****         },
 497:Generated_Source\PSoC4/CapSense_1_Structure.c ****         CapSense_1_BUTTON1_IDAC_GAIN_INDEX,
 498:Generated_Source\PSoC4/CapSense_1_Structure.c ****         CapSense_1_BUTTON1_SNS_CLK,
 499:Generated_Source\PSoC4/CapSense_1_Structure.c ****         CapSense_1_BUTTON1_ROW_SNS_CLK,
 500:Generated_Source\PSoC4/CapSense_1_Structure.c ****         CapSense_1_BUTTON1_SNS_CLK_SOURCE,
 501:Generated_Source\PSoC4/CapSense_1_Structure.c ****         CapSense_1_BUTTON1_ROW_SNS_CLK_SOURCE,
 502:Generated_Source\PSoC4/CapSense_1_Structure.c ****         CapSense_1_BUTTON1_FINGER_CAP,
 503:Generated_Source\PSoC4/CapSense_1_Structure.c ****         CapSense_1_BUTTON1_SIGPFC,
 504:Generated_Source\PSoC4/CapSense_1_Structure.c ****     },
 505:Generated_Source\PSoC4/CapSense_1_Structure.c ****     { /* Touchpad0 */
 506:Generated_Source\PSoC4/CapSense_1_Structure.c ****         CapSense_1_TOUCHPAD0_RESOLUTION,
 507:Generated_Source\PSoC4/CapSense_1_Structure.c ****         CapSense_1_TOUCHPAD0_FINGER_TH,
 508:Generated_Source\PSoC4/CapSense_1_Structure.c ****         CapSense_1_TOUCHPAD0_NOISE_TH,
 509:Generated_Source\PSoC4/CapSense_1_Structure.c ****         CapSense_1_TOUCHPAD0_NNOISE_TH,
 510:Generated_Source\PSoC4/CapSense_1_Structure.c ****         CapSense_1_TOUCHPAD0_HYSTERESIS,
 511:Generated_Source\PSoC4/CapSense_1_Structure.c ****         CapSense_1_TOUCHPAD0_ON_DEBOUNCE,
 512:Generated_Source\PSoC4/CapSense_1_Structure.c ****         CapSense_1_TOUCHPAD0_LOW_BSLN_RST,
 513:Generated_Source\PSoC4/CapSense_1_Structure.c ****         {
 514:Generated_Source\PSoC4/CapSense_1_Structure.c ****             CapSense_1_TOUCHPAD0_IDAC_MOD0,
 515:Generated_Source\PSoC4/CapSense_1_Structure.c ****         },
 516:Generated_Source\PSoC4/CapSense_1_Structure.c ****         {
 517:Generated_Source\PSoC4/CapSense_1_Structure.c ****             CapSense_1_TOUCHPAD0_ROW_IDAC_MOD0,
 518:Generated_Source\PSoC4/CapSense_1_Structure.c ****         },
 519:Generated_Source\PSoC4/CapSense_1_Structure.c ****         CapSense_1_TOUCHPAD0_IDAC_GAIN_INDEX,
 520:Generated_Source\PSoC4/CapSense_1_Structure.c ****         CapSense_1_TOUCHPAD0_SNS_CLK,
 521:Generated_Source\PSoC4/CapSense_1_Structure.c ****         CapSense_1_TOUCHPAD0_ROW_SNS_CLK,
 522:Generated_Source\PSoC4/CapSense_1_Structure.c ****         CapSense_1_TOUCHPAD0_SNS_CLK_SOURCE,
 523:Generated_Source\PSoC4/CapSense_1_Structure.c ****         CapSense_1_TOUCHPAD0_ROW_SNS_CLK_SOURCE,
 524:Generated_Source\PSoC4/CapSense_1_Structure.c ****         CapSense_1_TOUCHPAD0_FINGER_CAP,
 525:Generated_Source\PSoC4/CapSense_1_Structure.c ****         CapSense_1_TOUCHPAD0_SIGPFC,
 526:Generated_Source\PSoC4/CapSense_1_Structure.c ****         CapSense_1_TOUCHPAD0_POS_X,
 527:Generated_Source\PSoC4/CapSense_1_Structure.c ****         CapSense_1_TOUCHPAD0_POS_Y,
 528:Generated_Source\PSoC4/CapSense_1_Structure.c ****     },
 529:Generated_Source\PSoC4/CapSense_1_Structure.c ****     { /* Button2 */
 530:Generated_Source\PSoC4/CapSense_1_Structure.c ****         CapSense_1_BUTTON2_RESOLUTION,
 531:Generated_Source\PSoC4/CapSense_1_Structure.c ****         CapSense_1_BUTTON2_FINGER_TH,
 532:Generated_Source\PSoC4/CapSense_1_Structure.c ****         CapSense_1_BUTTON2_NOISE_TH,
 533:Generated_Source\PSoC4/CapSense_1_Structure.c ****         CapSense_1_BUTTON2_NNOISE_TH,
 534:Generated_Source\PSoC4/CapSense_1_Structure.c ****         CapSense_1_BUTTON2_HYSTERESIS,
 535:Generated_Source\PSoC4/CapSense_1_Structure.c ****         CapSense_1_BUTTON2_ON_DEBOUNCE,
 536:Generated_Source\PSoC4/CapSense_1_Structure.c ****         CapSense_1_BUTTON2_LOW_BSLN_RST,
 537:Generated_Source\PSoC4/CapSense_1_Structure.c ****         {
 538:Generated_Source\PSoC4/CapSense_1_Structure.c ****             CapSense_1_BUTTON2_IDAC_MOD0,
 539:Generated_Source\PSoC4/CapSense_1_Structure.c ****         },
 540:Generated_Source\PSoC4/CapSense_1_Structure.c ****         {
 541:Generated_Source\PSoC4/CapSense_1_Structure.c ****             CapSense_1_BUTTON2_ROW_IDAC_MOD0,
 542:Generated_Source\PSoC4/CapSense_1_Structure.c ****         },
 543:Generated_Source\PSoC4/CapSense_1_Structure.c ****         CapSense_1_BUTTON2_IDAC_GAIN_INDEX,
 544:Generated_Source\PSoC4/CapSense_1_Structure.c ****         CapSense_1_BUTTON2_SNS_CLK,
ARM GAS  C:\Users\exp32\AppData\Local\Temp\cc6N2LT5.s 			page 11


 545:Generated_Source\PSoC4/CapSense_1_Structure.c ****         CapSense_1_BUTTON2_ROW_SNS_CLK,
 546:Generated_Source\PSoC4/CapSense_1_Structure.c ****         CapSense_1_BUTTON2_SNS_CLK_SOURCE,
 547:Generated_Source\PSoC4/CapSense_1_Structure.c ****         CapSense_1_BUTTON2_ROW_SNS_CLK_SOURCE,
 548:Generated_Source\PSoC4/CapSense_1_Structure.c ****         CapSense_1_BUTTON2_FINGER_CAP,
 549:Generated_Source\PSoC4/CapSense_1_Structure.c ****         CapSense_1_BUTTON2_SIGPFC,
 550:Generated_Source\PSoC4/CapSense_1_Structure.c ****     },
 551:Generated_Source\PSoC4/CapSense_1_Structure.c ****     { /* Button3 */
 552:Generated_Source\PSoC4/CapSense_1_Structure.c ****         CapSense_1_BUTTON3_RESOLUTION,
 553:Generated_Source\PSoC4/CapSense_1_Structure.c ****         CapSense_1_BUTTON3_FINGER_TH,
 554:Generated_Source\PSoC4/CapSense_1_Structure.c ****         CapSense_1_BUTTON3_NOISE_TH,
 555:Generated_Source\PSoC4/CapSense_1_Structure.c ****         CapSense_1_BUTTON3_NNOISE_TH,
 556:Generated_Source\PSoC4/CapSense_1_Structure.c ****         CapSense_1_BUTTON3_HYSTERESIS,
 557:Generated_Source\PSoC4/CapSense_1_Structure.c ****         CapSense_1_BUTTON3_ON_DEBOUNCE,
 558:Generated_Source\PSoC4/CapSense_1_Structure.c ****         CapSense_1_BUTTON3_LOW_BSLN_RST,
 559:Generated_Source\PSoC4/CapSense_1_Structure.c ****         {
 560:Generated_Source\PSoC4/CapSense_1_Structure.c ****             CapSense_1_BUTTON3_IDAC_MOD0,
 561:Generated_Source\PSoC4/CapSense_1_Structure.c ****         },
 562:Generated_Source\PSoC4/CapSense_1_Structure.c ****         {
 563:Generated_Source\PSoC4/CapSense_1_Structure.c ****             CapSense_1_BUTTON3_ROW_IDAC_MOD0,
 564:Generated_Source\PSoC4/CapSense_1_Structure.c ****         },
 565:Generated_Source\PSoC4/CapSense_1_Structure.c ****         CapSense_1_BUTTON3_IDAC_GAIN_INDEX,
 566:Generated_Source\PSoC4/CapSense_1_Structure.c ****         CapSense_1_BUTTON3_SNS_CLK,
 567:Generated_Source\PSoC4/CapSense_1_Structure.c ****         CapSense_1_BUTTON3_ROW_SNS_CLK,
 568:Generated_Source\PSoC4/CapSense_1_Structure.c ****         CapSense_1_BUTTON3_SNS_CLK_SOURCE,
 569:Generated_Source\PSoC4/CapSense_1_Structure.c ****         CapSense_1_BUTTON3_ROW_SNS_CLK_SOURCE,
 570:Generated_Source\PSoC4/CapSense_1_Structure.c ****         CapSense_1_BUTTON3_FINGER_CAP,
 571:Generated_Source\PSoC4/CapSense_1_Structure.c ****         CapSense_1_BUTTON3_SIGPFC,
 572:Generated_Source\PSoC4/CapSense_1_Structure.c ****     },
 573:Generated_Source\PSoC4/CapSense_1_Structure.c ****     { /* Button4 */
 574:Generated_Source\PSoC4/CapSense_1_Structure.c ****         CapSense_1_BUTTON4_RESOLUTION,
 575:Generated_Source\PSoC4/CapSense_1_Structure.c ****         CapSense_1_BUTTON4_FINGER_TH,
 576:Generated_Source\PSoC4/CapSense_1_Structure.c ****         CapSense_1_BUTTON4_NOISE_TH,
 577:Generated_Source\PSoC4/CapSense_1_Structure.c ****         CapSense_1_BUTTON4_NNOISE_TH,
 578:Generated_Source\PSoC4/CapSense_1_Structure.c ****         CapSense_1_BUTTON4_HYSTERESIS,
 579:Generated_Source\PSoC4/CapSense_1_Structure.c ****         CapSense_1_BUTTON4_ON_DEBOUNCE,
 580:Generated_Source\PSoC4/CapSense_1_Structure.c ****         CapSense_1_BUTTON4_LOW_BSLN_RST,
 581:Generated_Source\PSoC4/CapSense_1_Structure.c ****         {
 582:Generated_Source\PSoC4/CapSense_1_Structure.c ****             CapSense_1_BUTTON4_IDAC_MOD0,
 583:Generated_Source\PSoC4/CapSense_1_Structure.c ****         },
 584:Generated_Source\PSoC4/CapSense_1_Structure.c ****         {
 585:Generated_Source\PSoC4/CapSense_1_Structure.c ****             CapSense_1_BUTTON4_ROW_IDAC_MOD0,
 586:Generated_Source\PSoC4/CapSense_1_Structure.c ****         },
 587:Generated_Source\PSoC4/CapSense_1_Structure.c ****         CapSense_1_BUTTON4_IDAC_GAIN_INDEX,
 588:Generated_Source\PSoC4/CapSense_1_Structure.c ****         CapSense_1_BUTTON4_SNS_CLK,
 589:Generated_Source\PSoC4/CapSense_1_Structure.c ****         CapSense_1_BUTTON4_ROW_SNS_CLK,
 590:Generated_Source\PSoC4/CapSense_1_Structure.c ****         CapSense_1_BUTTON4_SNS_CLK_SOURCE,
 591:Generated_Source\PSoC4/CapSense_1_Structure.c ****         CapSense_1_BUTTON4_ROW_SNS_CLK_SOURCE,
 592:Generated_Source\PSoC4/CapSense_1_Structure.c ****         CapSense_1_BUTTON4_FINGER_CAP,
 593:Generated_Source\PSoC4/CapSense_1_Structure.c ****         CapSense_1_BUTTON4_SIGPFC,
 594:Generated_Source\PSoC4/CapSense_1_Structure.c ****     },
 595:Generated_Source\PSoC4/CapSense_1_Structure.c ****     { /* Button5 */
 596:Generated_Source\PSoC4/CapSense_1_Structure.c ****         CapSense_1_BUTTON5_RESOLUTION,
 597:Generated_Source\PSoC4/CapSense_1_Structure.c ****         CapSense_1_BUTTON5_FINGER_TH,
 598:Generated_Source\PSoC4/CapSense_1_Structure.c ****         CapSense_1_BUTTON5_NOISE_TH,
 599:Generated_Source\PSoC4/CapSense_1_Structure.c ****         CapSense_1_BUTTON5_NNOISE_TH,
 600:Generated_Source\PSoC4/CapSense_1_Structure.c ****         CapSense_1_BUTTON5_HYSTERESIS,
 601:Generated_Source\PSoC4/CapSense_1_Structure.c ****         CapSense_1_BUTTON5_ON_DEBOUNCE,
ARM GAS  C:\Users\exp32\AppData\Local\Temp\cc6N2LT5.s 			page 12


 602:Generated_Source\PSoC4/CapSense_1_Structure.c ****         CapSense_1_BUTTON5_LOW_BSLN_RST,
 603:Generated_Source\PSoC4/CapSense_1_Structure.c ****         {
 604:Generated_Source\PSoC4/CapSense_1_Structure.c ****             CapSense_1_BUTTON5_IDAC_MOD0,
 605:Generated_Source\PSoC4/CapSense_1_Structure.c ****         },
 606:Generated_Source\PSoC4/CapSense_1_Structure.c ****         {
 607:Generated_Source\PSoC4/CapSense_1_Structure.c ****             CapSense_1_BUTTON5_ROW_IDAC_MOD0,
 608:Generated_Source\PSoC4/CapSense_1_Structure.c ****         },
 609:Generated_Source\PSoC4/CapSense_1_Structure.c ****         CapSense_1_BUTTON5_IDAC_GAIN_INDEX,
 610:Generated_Source\PSoC4/CapSense_1_Structure.c ****         CapSense_1_BUTTON5_SNS_CLK,
 611:Generated_Source\PSoC4/CapSense_1_Structure.c ****         CapSense_1_BUTTON5_ROW_SNS_CLK,
 612:Generated_Source\PSoC4/CapSense_1_Structure.c ****         CapSense_1_BUTTON5_SNS_CLK_SOURCE,
 613:Generated_Source\PSoC4/CapSense_1_Structure.c ****         CapSense_1_BUTTON5_ROW_SNS_CLK_SOURCE,
 614:Generated_Source\PSoC4/CapSense_1_Structure.c ****         CapSense_1_BUTTON5_FINGER_CAP,
 615:Generated_Source\PSoC4/CapSense_1_Structure.c ****         CapSense_1_BUTTON5_SIGPFC,
 616:Generated_Source\PSoC4/CapSense_1_Structure.c ****     },
 617:Generated_Source\PSoC4/CapSense_1_Structure.c **** };
 618:Generated_Source\PSoC4/CapSense_1_Structure.c **** 
 619:Generated_Source\PSoC4/CapSense_1_Structure.c **** 
 620:Generated_Source\PSoC4/CapSense_1_Structure.c **** /* IDAC Initialization Data */
 621:Generated_Source\PSoC4/CapSense_1_Structure.c **** const uint8 CapSense_1_ramIdacInit[CapSense_1_TOTAL_SENSORS] =
 622:Generated_Source\PSoC4/CapSense_1_Structure.c **** {
 623:Generated_Source\PSoC4/CapSense_1_Structure.c ****     /* Button0 */
 624:Generated_Source\PSoC4/CapSense_1_Structure.c ****     CapSense_1_BUTTON0_SNS0_IDAC_COMP0,
 625:Generated_Source\PSoC4/CapSense_1_Structure.c **** 
 626:Generated_Source\PSoC4/CapSense_1_Structure.c ****     /* Button1 */
 627:Generated_Source\PSoC4/CapSense_1_Structure.c ****     CapSense_1_BUTTON1_SNS0_IDAC_COMP0,
 628:Generated_Source\PSoC4/CapSense_1_Structure.c **** 
 629:Generated_Source\PSoC4/CapSense_1_Structure.c ****     /* Touchpad0 */
 630:Generated_Source\PSoC4/CapSense_1_Structure.c ****     CapSense_1_TOUCHPAD0_COL0_IDAC_COMP0,
 631:Generated_Source\PSoC4/CapSense_1_Structure.c ****     CapSense_1_TOUCHPAD0_COL1_IDAC_COMP0,
 632:Generated_Source\PSoC4/CapSense_1_Structure.c ****     CapSense_1_TOUCHPAD0_COL2_IDAC_COMP0,
 633:Generated_Source\PSoC4/CapSense_1_Structure.c ****     CapSense_1_TOUCHPAD0_COL3_IDAC_COMP0,
 634:Generated_Source\PSoC4/CapSense_1_Structure.c ****     CapSense_1_TOUCHPAD0_COL4_IDAC_COMP0,
 635:Generated_Source\PSoC4/CapSense_1_Structure.c ****     CapSense_1_TOUCHPAD0_COL5_IDAC_COMP0,
 636:Generated_Source\PSoC4/CapSense_1_Structure.c ****     CapSense_1_TOUCHPAD0_ROW0_IDAC_COMP0,
 637:Generated_Source\PSoC4/CapSense_1_Structure.c ****     CapSense_1_TOUCHPAD0_ROW1_IDAC_COMP0,
 638:Generated_Source\PSoC4/CapSense_1_Structure.c ****     CapSense_1_TOUCHPAD0_ROW2_IDAC_COMP0,
 639:Generated_Source\PSoC4/CapSense_1_Structure.c ****     CapSense_1_TOUCHPAD0_ROW3_IDAC_COMP0,
 640:Generated_Source\PSoC4/CapSense_1_Structure.c ****     CapSense_1_TOUCHPAD0_ROW4_IDAC_COMP0,
 641:Generated_Source\PSoC4/CapSense_1_Structure.c ****     CapSense_1_TOUCHPAD0_ROW5_IDAC_COMP0,
 642:Generated_Source\PSoC4/CapSense_1_Structure.c **** 
 643:Generated_Source\PSoC4/CapSense_1_Structure.c ****     /* Button2 */
 644:Generated_Source\PSoC4/CapSense_1_Structure.c ****     CapSense_1_BUTTON2_SNS0_IDAC_COMP0,
 645:Generated_Source\PSoC4/CapSense_1_Structure.c **** 
 646:Generated_Source\PSoC4/CapSense_1_Structure.c ****     /* Button3 */
 647:Generated_Source\PSoC4/CapSense_1_Structure.c ****     CapSense_1_BUTTON3_SNS0_IDAC_COMP0,
 648:Generated_Source\PSoC4/CapSense_1_Structure.c **** 
 649:Generated_Source\PSoC4/CapSense_1_Structure.c ****     /* Button4 */
 650:Generated_Source\PSoC4/CapSense_1_Structure.c ****     CapSense_1_BUTTON4_SNS0_IDAC_COMP0,
 651:Generated_Source\PSoC4/CapSense_1_Structure.c **** 
 652:Generated_Source\PSoC4/CapSense_1_Structure.c ****     /* Button5 */
 653:Generated_Source\PSoC4/CapSense_1_Structure.c ****     CapSense_1_BUTTON5_SNS0_IDAC_COMP0,
 654:Generated_Source\PSoC4/CapSense_1_Structure.c **** };
 655:Generated_Source\PSoC4/CapSense_1_Structure.c **** 
 656:Generated_Source\PSoC4/CapSense_1_Structure.c **** 
 657:Generated_Source\PSoC4/CapSense_1_Structure.c **** 
 658:Generated_Source\PSoC4/CapSense_1_Structure.c **** 
ARM GAS  C:\Users\exp32\AppData\Local\Temp\cc6N2LT5.s 			page 13


 659:Generated_Source\PSoC4/CapSense_1_Structure.c **** 
 660:Generated_Source\PSoC4/CapSense_1_Structure.c **** /*******************************************************************************
 661:Generated_Source\PSoC4/CapSense_1_Structure.c **** * Defines internal data types and statements
 662:Generated_Source\PSoC4/CapSense_1_Structure.c **** *******************************************************************************/
 663:Generated_Source\PSoC4/CapSense_1_Structure.c **** #define PARAM_TYPE_OFFSET       (30u)
 664:Generated_Source\PSoC4/CapSense_1_Structure.c **** #define PARAM_TYPE_MASK         (3Lu << PARAM_TYPE_OFFSET)
 665:Generated_Source\PSoC4/CapSense_1_Structure.c **** #define PARAM_RWBIT_OFFSET      (29u)
 666:Generated_Source\PSoC4/CapSense_1_Structure.c **** #define PARAM_RWBIT_MASK        (1Lu << PARAM_RWBIT_OFFSET)
 667:Generated_Source\PSoC4/CapSense_1_Structure.c **** #define PARAM_FBIT_OFFSET       (28u)
 668:Generated_Source\PSoC4/CapSense_1_Structure.c **** #define PARAM_FBIT_MASK         (1Lu << PARAM_FBIT_OFFSET)
 669:Generated_Source\PSoC4/CapSense_1_Structure.c **** #define PARAM_UBIT_OFFSET       (23u)
 670:Generated_Source\PSoC4/CapSense_1_Structure.c **** #define PARAM_UBIT_MASK         (1Lu << PARAM_UBIT_OFFSET)
 671:Generated_Source\PSoC4/CapSense_1_Structure.c **** #define PARAM_WDID_OFFSET       (16u)
 672:Generated_Source\PSoC4/CapSense_1_Structure.c **** #define PARAM_WDID_MASK         (0x7FLu << PARAM_WDID_OFFSET)
 673:Generated_Source\PSoC4/CapSense_1_Structure.c **** #define PARAM_CRC_OFFSET        (24u)
 674:Generated_Source\PSoC4/CapSense_1_Structure.c **** #define PARAM_CRC_MASK          (0x0FLu << PARAM_CRC_OFFSET)
 675:Generated_Source\PSoC4/CapSense_1_Structure.c **** 
 676:Generated_Source\PSoC4/CapSense_1_Structure.c **** /* Defines align masks for uint16 and uint32 */
 677:Generated_Source\PSoC4/CapSense_1_Structure.c **** #define UINT16_ALIGN_MASK       (1Lu)
 678:Generated_Source\PSoC4/CapSense_1_Structure.c **** #define UINT32_ALIGN_MASK       (3Lu)
 679:Generated_Source\PSoC4/CapSense_1_Structure.c **** 
 680:Generated_Source\PSoC4/CapSense_1_Structure.c **** /* Defines supported parameter types */
 681:Generated_Source\PSoC4/CapSense_1_Structure.c **** #define DS_PARAM_TYPE_UINT8     (0x01u)
 682:Generated_Source\PSoC4/CapSense_1_Structure.c **** #define DS_PARAM_TYPE_UINT16    (0x02u)
 683:Generated_Source\PSoC4/CapSense_1_Structure.c **** #define DS_PARAM_TYPE_UINT32    (0x03u)
 684:Generated_Source\PSoC4/CapSense_1_Structure.c **** 
 685:Generated_Source\PSoC4/CapSense_1_Structure.c **** 
 686:Generated_Source\PSoC4/CapSense_1_Structure.c **** /* Defines PARAM_ID structure */
 687:Generated_Source\PSoC4/CapSense_1_Structure.c **** typedef struct
 688:Generated_Source\PSoC4/CapSense_1_Structure.c **** {
 689:Generated_Source\PSoC4/CapSense_1_Structure.c ****     uint16 offset;      /* parameter offset */
 690:Generated_Source\PSoC4/CapSense_1_Structure.c ****     uint8  widgetId;    /* widget Id parameter belongs to */
 691:Generated_Source\PSoC4/CapSense_1_Structure.c ****     uint8  affectsCrc;  /* parameter affects widget CRC */
 692:Generated_Source\PSoC4/CapSense_1_Structure.c ****     uint8  crc;         /* parameter CRC */
 693:Generated_Source\PSoC4/CapSense_1_Structure.c ****     uint8  flash;       /* parameter located in FLASH flag */
 694:Generated_Source\PSoC4/CapSense_1_Structure.c ****     uint8  rw;          /* parameter is read/write flag */
 695:Generated_Source\PSoC4/CapSense_1_Structure.c ****     uint8  type;        /* parameter type: uint8/uint16/uint32 */
 696:Generated_Source\PSoC4/CapSense_1_Structure.c **** } PARAM_ID_STRUCT;
 697:Generated_Source\PSoC4/CapSense_1_Structure.c **** 
 698:Generated_Source\PSoC4/CapSense_1_Structure.c **** 
 699:Generated_Source\PSoC4/CapSense_1_Structure.c **** /*******************************************************************************
 700:Generated_Source\PSoC4/CapSense_1_Structure.c **** * Static Function Prototypes
 701:Generated_Source\PSoC4/CapSense_1_Structure.c **** *******************************************************************************/
 702:Generated_Source\PSoC4/CapSense_1_Structure.c **** /**
 703:Generated_Source\PSoC4/CapSense_1_Structure.c **** * \cond SECTION_C_INTERNAL
 704:Generated_Source\PSoC4/CapSense_1_Structure.c **** * \addtogroup group_c_internal
 705:Generated_Source\PSoC4/CapSense_1_Structure.c **** * \{
 706:Generated_Source\PSoC4/CapSense_1_Structure.c **** */
 707:Generated_Source\PSoC4/CapSense_1_Structure.c **** 
 708:Generated_Source\PSoC4/CapSense_1_Structure.c **** 
 709:Generated_Source\PSoC4/CapSense_1_Structure.c **** 
 710:Generated_Source\PSoC4/CapSense_1_Structure.c **** static cystatus DsParseParamId(uint32 paramId, PARAM_ID_STRUCT *pData);
 711:Generated_Source\PSoC4/CapSense_1_Structure.c **** 
 712:Generated_Source\PSoC4/CapSense_1_Structure.c **** /** \}
 713:Generated_Source\PSoC4/CapSense_1_Structure.c **** * \endcond */
 714:Generated_Source\PSoC4/CapSense_1_Structure.c **** 
 715:Generated_Source\PSoC4/CapSense_1_Structure.c **** 
ARM GAS  C:\Users\exp32\AppData\Local\Temp\cc6N2LT5.s 			page 14


 716:Generated_Source\PSoC4/CapSense_1_Structure.c **** /*******************************************************************************
 717:Generated_Source\PSoC4/CapSense_1_Structure.c **** * Function Name: CapSense_1_DsInitialize
 718:Generated_Source\PSoC4/CapSense_1_Structure.c **** ****************************************************************************//**
 719:Generated_Source\PSoC4/CapSense_1_Structure.c **** *
 720:Generated_Source\PSoC4/CapSense_1_Structure.c **** * \brief
 721:Generated_Source\PSoC4/CapSense_1_Structure.c **** *   This function initializes the Data Structure storage.
 722:Generated_Source\PSoC4/CapSense_1_Structure.c **** *
 723:Generated_Source\PSoC4/CapSense_1_Structure.c **** * \details
 724:Generated_Source\PSoC4/CapSense_1_Structure.c **** *   This function copies the default widget configuration parameters
 725:Generated_Source\PSoC4/CapSense_1_Structure.c **** *   from the Flash storage into the RAM Data Structure.
 726:Generated_Source\PSoC4/CapSense_1_Structure.c **** *
 727:Generated_Source\PSoC4/CapSense_1_Structure.c **** *******************************************************************************/
 728:Generated_Source\PSoC4/CapSense_1_Structure.c **** void CapSense_1_DsInitialize(void)
 729:Generated_Source\PSoC4/CapSense_1_Structure.c **** {
 730:Generated_Source\PSoC4/CapSense_1_Structure.c ****     #if ((CapSense_1_ENABLE == CapSense_1_CSX_EN) || \
 731:Generated_Source\PSoC4/CapSense_1_Structure.c ****          (CapSense_1_ENABLE == CapSense_1_CSD_IDAC_COMP_EN) || \
 732:Generated_Source\PSoC4/CapSense_1_Structure.c ****         ((CapSense_1_ENABLE == CapSense_1_CSX_EN) && \
 733:Generated_Source\PSoC4/CapSense_1_Structure.c ****          (CapSense_1_ENABLE == CapSense_1_CSX_SKIP_OVSMPL_SPECIFIC_NODES)))
 734:Generated_Source\PSoC4/CapSense_1_Structure.c ****         uint32 snsId;
 735:Generated_Source\PSoC4/CapSense_1_Structure.c ****         uint32 wdgtId;
 736:Generated_Source\PSoC4/CapSense_1_Structure.c ****         CapSense_1_RAM_SNS_STRUCT * ptrSnsTmp;
 737:Generated_Source\PSoC4/CapSense_1_Structure.c ****         CapSense_1_FLASH_WD_STRUCT const * ptrFlashWdgt;
 738:Generated_Source\PSoC4/CapSense_1_Structure.c ****     #endif
 739:Generated_Source\PSoC4/CapSense_1_Structure.c **** 
 740:Generated_Source\PSoC4/CapSense_1_Structure.c ****     #if ((CapSense_1_ENABLE == CapSense_1_CSX_EN) && \
 741:Generated_Source\PSoC4/CapSense_1_Structure.c ****          (CapSense_1_ENABLE == CapSense_1_CSX_SKIP_OVSMPL_SPECIFIC_NODES))
 742:Generated_Source\PSoC4/CapSense_1_Structure.c ****         uint16 subConvNumber;
 743:Generated_Source\PSoC4/CapSense_1_Structure.c ****     #endif
 744:Generated_Source\PSoC4/CapSense_1_Structure.c **** 
 745:Generated_Source\PSoC4/CapSense_1_Structure.c ****     #if ((0u != CapSense_1_CSX_EN) || (0 != CapSense_1_CSD_IDAC_COMP_EN))
 746:Generated_Source\PSoC4/CapSense_1_Structure.c ****         uint8 const * ptrIdacInit = CapSense_1_ramIdacInit;
 747:Generated_Source\PSoC4/CapSense_1_Structure.c ****     #endif
 748:Generated_Source\PSoC4/CapSense_1_Structure.c **** 
 749:Generated_Source\PSoC4/CapSense_1_Structure.c ****     /* Reset RAM data structure content */
 750:Generated_Source\PSoC4/CapSense_1_Structure.c ****     (void)memset(&CapSense_1_dsRam, 0, sizeof(CapSense_1_dsRam));
 751:Generated_Source\PSoC4/CapSense_1_Structure.c **** 
 752:Generated_Source\PSoC4/CapSense_1_Structure.c ****     /* Initialize configId, deviceId and hwClock registers */
 753:Generated_Source\PSoC4/CapSense_1_Structure.c ****     CapSense_1_dsRam.configId = CapSense_1_CONFIG_ID;
 754:Generated_Source\PSoC4/CapSense_1_Structure.c ****     CapSense_1_dsRam.deviceId = CapSense_1_DEVICE_ID;
 755:Generated_Source\PSoC4/CapSense_1_Structure.c ****     CapSense_1_dsRam.hwClock = CapSense_1_HW_CLOCK;
 756:Generated_Source\PSoC4/CapSense_1_Structure.c **** 
 757:Generated_Source\PSoC4/CapSense_1_Structure.c ****     /* Initialize global RAM data */
 758:Generated_Source\PSoC4/CapSense_1_Structure.c ****     CapSense_1_dsRam.csd0Config = CapSense_1_CSD0_CONFIG;
 759:Generated_Source\PSoC4/CapSense_1_Structure.c **** 
 760:Generated_Source\PSoC4/CapSense_1_Structure.c ****     CapSense_1_dsRam.scanCurrentISC = CapSense_1_SNS_CONNECTION_UNDEFINED;
 761:Generated_Source\PSoC4/CapSense_1_Structure.c ****     #if (0u != CapSense_1_TOTAL_CSD_WIDGETS)
 762:Generated_Source\PSoC4/CapSense_1_Structure.c ****         CapSense_1_dsRam.modCsdClk = CapSense_1_CSD_SCANSPEED_DIVIDER;
 763:Generated_Source\PSoC4/CapSense_1_Structure.c ****         CapSense_1_dsRam.scanCsdISC = CapSense_1_CSD_INACTIVE_SNS_CONNECTION;
 764:Generated_Source\PSoC4/CapSense_1_Structure.c **** 
 765:Generated_Source\PSoC4/CapSense_1_Structure.c ****         #if (0u != CapSense_1_CSD_COMMON_SNS_CLK_EN)
 766:Generated_Source\PSoC4/CapSense_1_Structure.c ****             CapSense_1_dsRam.snsCsdClk = CapSense_1_CSD_SNS_CLK_DIVIDER;
 767:Generated_Source\PSoC4/CapSense_1_Structure.c ****         #endif /* #if (0u != CapSense_1_CSD_COMMON_SNS_CLK_EN) */
 768:Generated_Source\PSoC4/CapSense_1_Structure.c ****     #endif /* #if (0u != CapSense_1_TOTAL_CSD_WIDGETS) */
 769:Generated_Source\PSoC4/CapSense_1_Structure.c **** 
 770:Generated_Source\PSoC4/CapSense_1_Structure.c ****     #if (CapSense_1_ENABLE == CapSense_1_CSX_EN)
 771:Generated_Source\PSoC4/CapSense_1_Structure.c ****         CapSense_1_dsRam.modCsxClk = CapSense_1_CSX_SCANSPEED_DIVIDER;
 772:Generated_Source\PSoC4/CapSense_1_Structure.c ****         CapSense_1_dsRam.scanCsxISC = CapSense_1_CSX_INACTIVE_SNS_CONNECTION;
ARM GAS  C:\Users\exp32\AppData\Local\Temp\cc6N2LT5.s 			page 15


 773:Generated_Source\PSoC4/CapSense_1_Structure.c **** 
 774:Generated_Source\PSoC4/CapSense_1_Structure.c ****         #if (0u != CapSense_1_CSX_COMMON_TX_CLK_EN)
 775:Generated_Source\PSoC4/CapSense_1_Structure.c ****             CapSense_1_dsRam.snsCsxClk = CapSense_1_CSX_TX_CLK_DIVIDER;
 776:Generated_Source\PSoC4/CapSense_1_Structure.c ****         #endif /* #if (0u != CapSense_1_CSX_COMMON_TX_CLK_EN) */
 777:Generated_Source\PSoC4/CapSense_1_Structure.c ****     #endif /* #if (CapSense_1_ENABLE == CapSense_1_CSX_EN) */
 778:Generated_Source\PSoC4/CapSense_1_Structure.c **** 
 779:Generated_Source\PSoC4/CapSense_1_Structure.c ****     #if (CapSense_1_ENABLE == CapSense_1_ISX_EN)
 780:Generated_Source\PSoC4/CapSense_1_Structure.c ****         CapSense_1_dsRam.modIsxClk = CapSense_1_ISX_SCANSPEED_DIVIDER;
 781:Generated_Source\PSoC4/CapSense_1_Structure.c ****     #endif /* #if (0u != CapSense_1_ISX_EN) */
 782:Generated_Source\PSoC4/CapSense_1_Structure.c **** 
 783:Generated_Source\PSoC4/CapSense_1_Structure.c ****     #if (0u != CapSense_1_SELF_TEST_EN)
 784:Generated_Source\PSoC4/CapSense_1_Structure.c **** 
 785:Generated_Source\PSoC4/CapSense_1_Structure.c ****         CapSense_1_dsRam.glbCrc = CapSense_1_GLB_CRC;
 786:Generated_Source\PSoC4/CapSense_1_Structure.c ****         CapSense_1_dsRam.selfTestConfig.fineInitTime = (uint8)CapSense_1_TST_FINE_INIT_TIME;
 787:Generated_Source\PSoC4/CapSense_1_Structure.c ****         CapSense_1_dsRam.selfTestConfig.startupDelay = CapSense_1_TST_ANALOG_STARTUP_DELAY_US;
 788:Generated_Source\PSoC4/CapSense_1_Structure.c **** 
 789:Generated_Source\PSoC4/CapSense_1_Structure.c ****         #if (0u != CapSense_1_TST_SNS_SHORT_EN)
 790:Generated_Source\PSoC4/CapSense_1_Structure.c ****             CapSense_1_dsRam.selfTestConfig.snsShortTimeUs = CapSense_1_TST_SNS_SHORT_TIME;
 791:Generated_Source\PSoC4/CapSense_1_Structure.c ****         #endif
 792:Generated_Source\PSoC4/CapSense_1_Structure.c **** 
 793:Generated_Source\PSoC4/CapSense_1_Structure.c ****         #if ((0u != CapSense_1_TST_SNS_CAP_EN) ||\
 794:Generated_Source\PSoC4/CapSense_1_Structure.c ****              (0u != CapSense_1_TST_SH_CAP_EN))
 795:Generated_Source\PSoC4/CapSense_1_Structure.c ****             CapSense_1_dsRam.selfTestConfig.snsCapSnsClkDivider = CapSense_1_TST_SNS_CAP_SNS_CLK_DI
 796:Generated_Source\PSoC4/CapSense_1_Structure.c ****             CapSense_1_dsRam.selfTestConfig.snsCapSnsClkHz = CapSense_1_TST_SNS_CAP_SNS_CLK_HZ;
 797:Generated_Source\PSoC4/CapSense_1_Structure.c ****             CapSense_1_dsRam.selfTestConfig.snsCapResolution = CapSense_1_TST_SNS_CAP_RESOLUTION;
 798:Generated_Source\PSoC4/CapSense_1_Structure.c ****             CapSense_1_dsRam.selfTestConfig.snsCapVrefGain = CapSense_1_TST_SNS_CAP_VREF_GAIN ;
 799:Generated_Source\PSoC4/CapSense_1_Structure.c ****             CapSense_1_dsRam.selfTestConfig.snsCapVrefVoltage = CapSense_1_TST_SNS_CAP_VREF_MV;
 800:Generated_Source\PSoC4/CapSense_1_Structure.c ****             CapSense_1_dsRam.selfTestConfig.snsCapModClkDivider = CapSense_1_TST_MOD_CLK_DIVIDER ;
 801:Generated_Source\PSoC4/CapSense_1_Structure.c ****             CapSense_1_dsRam.selfTestConfig.snsCapModClkKHz = CapSense_1_TST_MOD_CLK_KHZ ;
 802:Generated_Source\PSoC4/CapSense_1_Structure.c ****         #endif /* ((0u != CapSense_1_TST_SNS_CAP_EN) ||
 803:Generated_Source\PSoC4/CapSense_1_Structure.c ****                    (0u != CapSense_1_TST_SH_CAP_EN)) */
 804:Generated_Source\PSoC4/CapSense_1_Structure.c **** 
 805:Generated_Source\PSoC4/CapSense_1_Structure.c ****         #if (0u != CapSense_1_TST_SNS_CAP_EN)
 806:Generated_Source\PSoC4/CapSense_1_Structure.c ****             #if (0u != CapSense_1_CSD_EN)
 807:Generated_Source\PSoC4/CapSense_1_Structure.c ****                 CapSense_1_dsRam.selfTestConfig.bistCsdSnsCapISC = CapSense_1_SNS_CAP_CSD_INACTIVE_
 808:Generated_Source\PSoC4/CapSense_1_Structure.c ****             #endif /* (0u != CapSense_1_CSD_EN) */
 809:Generated_Source\PSoC4/CapSense_1_Structure.c ****             #if (0u != CapSense_1_CSX_EN)
 810:Generated_Source\PSoC4/CapSense_1_Structure.c ****                 CapSense_1_dsRam.selfTestConfig.bistCsxSnsCapISC = CapSense_1_SNS_CAP_CSX_INACTIVE_
 811:Generated_Source\PSoC4/CapSense_1_Structure.c ****             #endif /* (0u != CapSense_1_CSX_EN) */
 812:Generated_Source\PSoC4/CapSense_1_Structure.c ****         #endif /* (0u != CapSense_1_TST_SNS_CAP_EN) */
 813:Generated_Source\PSoC4/CapSense_1_Structure.c **** 
 814:Generated_Source\PSoC4/CapSense_1_Structure.c ****         #if (0u != CapSense_1_TST_SH_CAP_EN)
 815:Generated_Source\PSoC4/CapSense_1_Structure.c ****             #if ((0u != CapSense_1_CSD_EN) && (0u != CapSense_1_CSD_SHIELD_EN))
 816:Generated_Source\PSoC4/CapSense_1_Structure.c ****                 CapSense_1_dsRam.selfTestConfig.bistCsdShCapISC = CapSense_1_SHIELD_CAP_INACTIVE_CO
 817:Generated_Source\PSoC4/CapSense_1_Structure.c ****             #endif /* ((0u != CapSense_1_CSD_EN) && (0u != CapSense_1_CSD_SHIELD_EN)) */
 818:Generated_Source\PSoC4/CapSense_1_Structure.c ****         #endif /* (0u != CapSense_1_TST_SH_CAP_EN) */
 819:Generated_Source\PSoC4/CapSense_1_Structure.c **** 
 820:Generated_Source\PSoC4/CapSense_1_Structure.c ****         #if (0u != CapSense_1_TST_EXTERNAL_CAP_EN)
 821:Generated_Source\PSoC4/CapSense_1_Structure.c ****             CapSense_1_dsRam.selfTestConfig.extCapVrefGain = CapSense_1_TST_EXT_CAP_VREF_GAIN;
 822:Generated_Source\PSoC4/CapSense_1_Structure.c ****             CapSense_1_dsRam.selfTestConfig.extCapVrefVoltage = CapSense_1_TST_EXT_CAP_VREF_MV;
 823:Generated_Source\PSoC4/CapSense_1_Structure.c ****         #endif /* #if (0u != CapSense_1_TST_EXTERNAL_CAP_EN) */
 824:Generated_Source\PSoC4/CapSense_1_Structure.c **** 
 825:Generated_Source\PSoC4/CapSense_1_Structure.c ****         #if (0u != CapSense_1_TST_VDDA_EN)
 826:Generated_Source\PSoC4/CapSense_1_Structure.c ****             CapSense_1_dsRam.selfTestConfig.vddaResolution = CapSense_1_TST_VDDA_RESOLUTION;
 827:Generated_Source\PSoC4/CapSense_1_Structure.c ****             CapSense_1_dsRam.selfTestConfig.vddaModClkDivider = CapSense_1_TST_VDDA_MOD_CLK_DIVIDER
 828:Generated_Source\PSoC4/CapSense_1_Structure.c **** 
 829:Generated_Source\PSoC4/CapSense_1_Structure.c ****             CapSense_1_dsRam.selfTestConfig.vddaVrefGain = CapSense_1_TST_VDDA_VREF_GAIN;
ARM GAS  C:\Users\exp32\AppData\Local\Temp\cc6N2LT5.s 			page 16


 830:Generated_Source\PSoC4/CapSense_1_Structure.c ****             CapSense_1_dsRam.selfTestConfig.vddaVrefVoltage = CapSense_1_TST_VDDA_VREF_MV;
 831:Generated_Source\PSoC4/CapSense_1_Structure.c ****         #endif /* #if (0u != CapSense_1_TST_VDDA_EN) */
 832:Generated_Source\PSoC4/CapSense_1_Structure.c **** 
 833:Generated_Source\PSoC4/CapSense_1_Structure.c ****     #endif /* #if (0u != CapSense_1_SELF_TEST_EN) */
 834:Generated_Source\PSoC4/CapSense_1_Structure.c **** 
 835:Generated_Source\PSoC4/CapSense_1_Structure.c ****     /* Initialize RAM widget data */
 836:Generated_Source\PSoC4/CapSense_1_Structure.c ****     CapSense_1_dsRam.wdgtList = CapSense_1_ramWidgetInit;
 837:Generated_Source\PSoC4/CapSense_1_Structure.c **** 
 838:Generated_Source\PSoC4/CapSense_1_Structure.c ****     /* Initialize Gesture configuration structure */
 839:Generated_Source\PSoC4/CapSense_1_Structure.c ****     #if ((0u != CapSense_1_GES_GLOBAL_EN) || (0u != CapSense_1_BALLISTIC_MULTIPLIER_EN))
 840:Generated_Source\PSoC4/CapSense_1_Structure.c ****         CapSense_1_dsRam.timestampInterval = CapSense_1_TIMESTAMP_INTERVAL;
 841:Generated_Source\PSoC4/CapSense_1_Structure.c ****     #endif /* ((0u != CapSense_1_GES_GLOBAL_EN) || (0u != CapSense_1_BALLISTIC_MULTIPLIER_EN)) */
 842:Generated_Source\PSoC4/CapSense_1_Structure.c **** 
 843:Generated_Source\PSoC4/CapSense_1_Structure.c ****     #if (0u != CapSense_1_GES_GLOBAL_EN)
 844:Generated_Source\PSoC4/CapSense_1_Structure.c ****         CapSense_1_dsRam.gestures = CapSense_1_ramGesturesInit;
 845:Generated_Source\PSoC4/CapSense_1_Structure.c ****     #endif /* (0u != CapSense_1_GES_GLOBAL_EN) */
 846:Generated_Source\PSoC4/CapSense_1_Structure.c **** 
 847:Generated_Source\PSoC4/CapSense_1_Structure.c ****     #if (0u != CapSense_1_BALLISTIC_MULTIPLIER_EN)
 848:Generated_Source\PSoC4/CapSense_1_Structure.c ****         CapSense_1_dsRam.ballisticConfig = CapSense_1_ramBallisticInit;
 849:Generated_Source\PSoC4/CapSense_1_Structure.c ****     #endif /* (0u != CapSense_1_BALLISTIC_MULTIPLIER_EN) */
 850:Generated_Source\PSoC4/CapSense_1_Structure.c **** 
 851:Generated_Source\PSoC4/CapSense_1_Structure.c ****     #if (0u != CapSense_1_CSX_EN) || (0 != CapSense_1_CSD_IDAC_COMP_EN)
 852:Generated_Source\PSoC4/CapSense_1_Structure.c ****         /* Initialize IDAC data */
 853:Generated_Source\PSoC4/CapSense_1_Structure.c ****         ptrFlashWdgt = CapSense_1_dsFlash.wdgtArray;
 854:Generated_Source\PSoC4/CapSense_1_Structure.c **** 
 855:Generated_Source\PSoC4/CapSense_1_Structure.c ****         for (wdgtId = CapSense_1_TOTAL_WIDGETS; wdgtId-- > 0u; )
 856:Generated_Source\PSoC4/CapSense_1_Structure.c ****         {
 857:Generated_Source\PSoC4/CapSense_1_Structure.c ****             ptrSnsTmp = ptrFlashWdgt->ptr2SnsRam;
 858:Generated_Source\PSoC4/CapSense_1_Structure.c **** 
 859:Generated_Source\PSoC4/CapSense_1_Structure.c ****             for (snsId = CapSense_1_GET_SNS_CNT_BY_PTR(ptrFlashWdgt); snsId-- > 0u;)
 860:Generated_Source\PSoC4/CapSense_1_Structure.c ****             {
 861:Generated_Source\PSoC4/CapSense_1_Structure.c ****                 ptrSnsTmp->idacComp[0u] = *ptrIdacInit;
 862:Generated_Source\PSoC4/CapSense_1_Structure.c ****                 ptrIdacInit++;
 863:Generated_Source\PSoC4/CapSense_1_Structure.c **** 
 864:Generated_Source\PSoC4/CapSense_1_Structure.c ****                 #if (0u != CapSense_1_MULTI_FREQ_SCAN_EN)
 865:Generated_Source\PSoC4/CapSense_1_Structure.c ****                     ptrSnsTmp->idacComp[1u] = *ptrIdacInit;
 866:Generated_Source\PSoC4/CapSense_1_Structure.c ****                     ptrIdacInit++;
 867:Generated_Source\PSoC4/CapSense_1_Structure.c **** 
 868:Generated_Source\PSoC4/CapSense_1_Structure.c ****                     ptrSnsTmp->idacComp[2u] = *ptrIdacInit;
 869:Generated_Source\PSoC4/CapSense_1_Structure.c ****                     ptrIdacInit++;
 870:Generated_Source\PSoC4/CapSense_1_Structure.c ****                 #endif /* #if (0u != CapSense_1_MULTI_FREQ_SCAN_EN) */
 871:Generated_Source\PSoC4/CapSense_1_Structure.c **** 
 872:Generated_Source\PSoC4/CapSense_1_Structure.c ****                 ptrSnsTmp++;
 873:Generated_Source\PSoC4/CapSense_1_Structure.c ****             }
 874:Generated_Source\PSoC4/CapSense_1_Structure.c **** 
 875:Generated_Source\PSoC4/CapSense_1_Structure.c ****             ptrFlashWdgt++; /* Move to next widget */
 876:Generated_Source\PSoC4/CapSense_1_Structure.c ****         }
 877:Generated_Source\PSoC4/CapSense_1_Structure.c ****     #endif /*(0u != CapSense_1_CSX_EN) || (0 != CapSense_1_CSD_IDAC_COMP_EN)*/
 878:Generated_Source\PSoC4/CapSense_1_Structure.c **** 
 879:Generated_Source\PSoC4/CapSense_1_Structure.c ****     #if ((CapSense_1_ENABLE == CapSense_1_CSX_EN) && \
 880:Generated_Source\PSoC4/CapSense_1_Structure.c ****          (CapSense_1_ENABLE == CapSense_1_CSX_SKIP_OVSMPL_SPECIFIC_NODES))
 881:Generated_Source\PSoC4/CapSense_1_Structure.c ****         /* Initialize Sub-Conversion Number for each node of each CSX widget */
 882:Generated_Source\PSoC4/CapSense_1_Structure.c ****         ptrFlashWdgt = CapSense_1_dsFlash.wdgtArray;
 883:Generated_Source\PSoC4/CapSense_1_Structure.c ****         for (wdgtId = CapSense_1_TOTAL_WIDGETS; wdgtId-- > 0u;)
 884:Generated_Source\PSoC4/CapSense_1_Structure.c ****         {
 885:Generated_Source\PSoC4/CapSense_1_Structure.c ****             /* Check for widget sense method */
 886:Generated_Source\PSoC4/CapSense_1_Structure.c ****             if (CapSense_1_SENSE_METHOD_CSX_E == CapSense_1_GET_SENSE_METHOD(ptrFlashWdgt))
ARM GAS  C:\Users\exp32\AppData\Local\Temp\cc6N2LT5.s 			page 17


 887:Generated_Source\PSoC4/CapSense_1_Structure.c ****             {
 888:Generated_Source\PSoC4/CapSense_1_Structure.c ****                 /* Take the sub-convesion number of a CSX widget and initialize each node of this w
 889:Generated_Source\PSoC4/CapSense_1_Structure.c ****                 subConvNumber = ((CapSense_1_RAM_WD_BASE_STRUCT *)(ptrFlashWdgt->ptr2WdgtRam))->res
 890:Generated_Source\PSoC4/CapSense_1_Structure.c ****                 ptrSnsTmp = ptrFlashWdgt->ptr2SnsRam;
 891:Generated_Source\PSoC4/CapSense_1_Structure.c ****                 for (snsId = CapSense_1_GET_SNS_CNT_BY_PTR(ptrFlashWdgt); snsId-- > 0u;)
 892:Generated_Source\PSoC4/CapSense_1_Structure.c ****                 {
 893:Generated_Source\PSoC4/CapSense_1_Structure.c ****                     ptrSnsTmp->subConvNum = subConvNumber;
 894:Generated_Source\PSoC4/CapSense_1_Structure.c ****                     ptrSnsTmp++;
 895:Generated_Source\PSoC4/CapSense_1_Structure.c ****                 }
 896:Generated_Source\PSoC4/CapSense_1_Structure.c ****             }
 897:Generated_Source\PSoC4/CapSense_1_Structure.c ****             /* Move to the next widget */
 898:Generated_Source\PSoC4/CapSense_1_Structure.c ****             ptrFlashWdgt++;
 899:Generated_Source\PSoC4/CapSense_1_Structure.c ****         }
 900:Generated_Source\PSoC4/CapSense_1_Structure.c ****     #endif /* ((CapSense_1_ENABLE == CapSense_1_CSX_EN) && \
 901:Generated_Source\PSoC4/CapSense_1_Structure.c ****                (CapSense_1_ENABLE == CapSense_1_CSX_SKIP_OVSMPL_SPECIFIC_NODES)) */
 902:Generated_Source\PSoC4/CapSense_1_Structure.c **** 
 903:Generated_Source\PSoC4/CapSense_1_Structure.c ****     #if (0u != CapSense_1_ADC_EN)
 904:Generated_Source\PSoC4/CapSense_1_Structure.c ****         CapSense_1_AdcDsInitialize();
 905:Generated_Source\PSoC4/CapSense_1_Structure.c ****     #endif /* (0u != CapSense_1_ADC_EN) */
 906:Generated_Source\PSoC4/CapSense_1_Structure.c **** }
 907:Generated_Source\PSoC4/CapSense_1_Structure.c **** 
 908:Generated_Source\PSoC4/CapSense_1_Structure.c **** 
 909:Generated_Source\PSoC4/CapSense_1_Structure.c **** #if (0u != CapSense_1_ADC_EN)
 910:Generated_Source\PSoC4/CapSense_1_Structure.c ****     /*******************************************************************************
 911:Generated_Source\PSoC4/CapSense_1_Structure.c ****     * Function Name: CapSense_1_AdcDsInitialize
 912:Generated_Source\PSoC4/CapSense_1_Structure.c ****     ****************************************************************************//**
 913:Generated_Source\PSoC4/CapSense_1_Structure.c ****     *
 914:Generated_Source\PSoC4/CapSense_1_Structure.c ****     * \brief
 915:Generated_Source\PSoC4/CapSense_1_Structure.c ****     *   Configures the initial Adc datastructure members.
 916:Generated_Source\PSoC4/CapSense_1_Structure.c ****     *
 917:Generated_Source\PSoC4/CapSense_1_Structure.c ****     *******************************************************************************/
 918:Generated_Source\PSoC4/CapSense_1_Structure.c ****     void CapSense_1_AdcDsInitialize(void)
 919:Generated_Source\PSoC4/CapSense_1_Structure.c ****     {
 920:Generated_Source\PSoC4/CapSense_1_Structure.c ****         CapSense_1_dsRam.adcResolution = CapSense_1_ADC_RESOLUTION;
 921:Generated_Source\PSoC4/CapSense_1_Structure.c ****         CapSense_1_dsRam.adcIdac = (uint8)(CapSense_1_ADC_IDAC_DEFAULT);
 922:Generated_Source\PSoC4/CapSense_1_Structure.c ****         CapSense_1_dsRam.adcActiveCh = CapSense_1_AdcNO_CHANNEL;
 923:Generated_Source\PSoC4/CapSense_1_Structure.c ****     }
 924:Generated_Source\PSoC4/CapSense_1_Structure.c **** #endif /* (0u != CapSense_1_ADC_EN) */
 925:Generated_Source\PSoC4/CapSense_1_Structure.c **** 
 926:Generated_Source\PSoC4/CapSense_1_Structure.c **** 
 927:Generated_Source\PSoC4/CapSense_1_Structure.c **** /*******************************************************************************
 928:Generated_Source\PSoC4/CapSense_1_Structure.c **** * Function Name: DsParseParamId
 929:Generated_Source\PSoC4/CapSense_1_Structure.c **** ****************************************************************************//**
 930:Generated_Source\PSoC4/CapSense_1_Structure.c **** *
 931:Generated_Source\PSoC4/CapSense_1_Structure.c **** * \brief
 932:Generated_Source\PSoC4/CapSense_1_Structure.c **** *   This function parses the parameter ID and checks its correctness.
 933:Generated_Source\PSoC4/CapSense_1_Structure.c **** *
 934:Generated_Source\PSoC4/CapSense_1_Structure.c **** * \details
 935:Generated_Source\PSoC4/CapSense_1_Structure.c **** *   This function checks the parameter CRC if the self-test is enabled,
 936:Generated_Source\PSoC4/CapSense_1_Structure.c **** *   validates the offset value and parameter type.
 937:Generated_Source\PSoC4/CapSense_1_Structure.c **** *
 938:Generated_Source\PSoC4/CapSense_1_Structure.c **** * \param paramId The parameter to parse.
 939:Generated_Source\PSoC4/CapSense_1_Structure.c **** * \param pData   The pointer to the structure that will hold parsed data.
 940:Generated_Source\PSoC4/CapSense_1_Structure.c **** *
 941:Generated_Source\PSoC4/CapSense_1_Structure.c **** * \return CYRET_SUCCESS     If the parameter is valid
 942:Generated_Source\PSoC4/CapSense_1_Structure.c **** *         CYRET_BAD_PARAM   If the parameter is invalid
 943:Generated_Source\PSoC4/CapSense_1_Structure.c **** *
ARM GAS  C:\Users\exp32\AppData\Local\Temp\cc6N2LT5.s 			page 18


 944:Generated_Source\PSoC4/CapSense_1_Structure.c **** *******************************************************************************/
 945:Generated_Source\PSoC4/CapSense_1_Structure.c **** static cystatus DsParseParamId(uint32 paramId, PARAM_ID_STRUCT *pData)
 946:Generated_Source\PSoC4/CapSense_1_Structure.c **** {
  27              		.loc 1 946 0
  28              		.cfi_startproc
  29              		@ args = 0, pretend = 0, frame = 0
  30              		@ frame_needed = 0, uses_anonymous_args = 0
  31              	.LVL0:
  32 0000 70B5     		push	{r4, r5, r6, lr}
  33              		.cfi_def_cfa_offset 16
  34              		.cfi_offset 4, -16
  35              		.cfi_offset 5, -12
  36              		.cfi_offset 6, -8
  37              		.cfi_offset 14, -4
  38              	.LVL1:
 947:Generated_Source\PSoC4/CapSense_1_Structure.c ****     cystatus result = CYRET_SUCCESS;
 948:Generated_Source\PSoC4/CapSense_1_Structure.c **** 
 949:Generated_Source\PSoC4/CapSense_1_Structure.c ****     #if (0u != CapSense_1_SELF_TEST_EN)
 950:Generated_Source\PSoC4/CapSense_1_Structure.c ****         const uint8 crcTable[] =
 951:Generated_Source\PSoC4/CapSense_1_Structure.c ****         {
 952:Generated_Source\PSoC4/CapSense_1_Structure.c ****             0x00u, 0x09u, 0x0Bu, 0x02u, 0x0Fu, 0x06u, 0x04u, 0x0Du,
 953:Generated_Source\PSoC4/CapSense_1_Structure.c ****             0x07u, 0x0Eu, 0x0Cu, 0x05u, 0x08u, 0x01u, 0x03u, 0x0Au
 954:Generated_Source\PSoC4/CapSense_1_Structure.c ****         };
 955:Generated_Source\PSoC4/CapSense_1_Structure.c **** 
 956:Generated_Source\PSoC4/CapSense_1_Structure.c ****         uint32 i;
 957:Generated_Source\PSoC4/CapSense_1_Structure.c ****         uint32 actualCrc = 0u;
 958:Generated_Source\PSoC4/CapSense_1_Structure.c ****         uint32 crcIndex;
 959:Generated_Source\PSoC4/CapSense_1_Structure.c ****     #endif /* #if (0u != CapSense_1_SELF_TEST_EN) */
 960:Generated_Source\PSoC4/CapSense_1_Structure.c **** 
 961:Generated_Source\PSoC4/CapSense_1_Structure.c ****     /* Extract parameter data */
 962:Generated_Source\PSoC4/CapSense_1_Structure.c ****     pData->offset     = LO16(paramId);
  39              		.loc 1 962 0
  40 0002 85B2     		uxth	r5, r0
  41 0004 0D80     		strh	r5, [r1]
 963:Generated_Source\PSoC4/CapSense_1_Structure.c ****     pData->affectsCrc = LO8((paramId & PARAM_UBIT_MASK)  >> PARAM_UBIT_OFFSET);
  42              		.loc 1 963 0
  43 0006 C30D     		lsrs	r3, r0, #23
  44 0008 0124     		movs	r4, #1
  45 000a 2340     		ands	r3, r4
  46 000c CB70     		strb	r3, [r1, #3]
 964:Generated_Source\PSoC4/CapSense_1_Structure.c ****     pData->widgetId   = LO8((paramId & PARAM_WDID_MASK)  >> PARAM_WDID_OFFSET);
  47              		.loc 1 964 0
  48 000e 030C     		lsrs	r3, r0, #16
  49 0010 7F22     		movs	r2, #127
  50 0012 1340     		ands	r3, r2
  51 0014 8B70     		strb	r3, [r1, #2]
 965:Generated_Source\PSoC4/CapSense_1_Structure.c ****     pData->type       = LO8((paramId & PARAM_TYPE_MASK)  >> PARAM_TYPE_OFFSET);
  52              		.loc 1 965 0
  53 0016 860F     		lsrs	r6, r0, #30
  54 0018 CE71     		strb	r6, [r1, #7]
 966:Generated_Source\PSoC4/CapSense_1_Structure.c ****     pData->flash      = LO8((paramId & PARAM_FBIT_MASK)  >> PARAM_FBIT_OFFSET);
  55              		.loc 1 966 0
  56 001a 030F     		lsrs	r3, r0, #28
  57 001c 2340     		ands	r3, r4
  58 001e 4B71     		strb	r3, [r1, #5]
 967:Generated_Source\PSoC4/CapSense_1_Structure.c ****     pData->rw         = LO8((paramId & PARAM_RWBIT_MASK) >> PARAM_RWBIT_OFFSET);
  59              		.loc 1 967 0
ARM GAS  C:\Users\exp32\AppData\Local\Temp\cc6N2LT5.s 			page 19


  60 0020 420F     		lsrs	r2, r0, #29
  61 0022 2240     		ands	r2, r4
  62 0024 8A71     		strb	r2, [r1, #6]
 968:Generated_Source\PSoC4/CapSense_1_Structure.c ****     pData->crc        = LO8((paramId & PARAM_CRC_MASK)   >> PARAM_CRC_OFFSET);
  63              		.loc 1 968 0
  64 0026 000E     		lsrs	r0, r0, #24
  65              	.LVL2:
  66 0028 0E34     		adds	r4, r4, #14
  67 002a 2040     		ands	r0, r4
  68 002c 0871     		strb	r0, [r1, #4]
 969:Generated_Source\PSoC4/CapSense_1_Structure.c **** 
 970:Generated_Source\PSoC4/CapSense_1_Structure.c ****     /* Check parameter CRC if self-test is enabled */
 971:Generated_Source\PSoC4/CapSense_1_Structure.c ****     #if (0u != CapSense_1_SELF_TEST_EN)
 972:Generated_Source\PSoC4/CapSense_1_Structure.c **** 
 973:Generated_Source\PSoC4/CapSense_1_Structure.c ****         /* Calculate CRC for bits 0..24.
 974:Generated_Source\PSoC4/CapSense_1_Structure.c ****          * The CRC is calculated using nibbles (4-bits).
 975:Generated_Source\PSoC4/CapSense_1_Structure.c ****          * So for 0..24 bits there are in total 6 nibbles. */
 976:Generated_Source\PSoC4/CapSense_1_Structure.c ****         for (i = 6u; i > 0u; i--)
 977:Generated_Source\PSoC4/CapSense_1_Structure.c ****         {
 978:Generated_Source\PSoC4/CapSense_1_Structure.c ****             crcIndex = actualCrc ^ (paramId & 0x0Fu);
 979:Generated_Source\PSoC4/CapSense_1_Structure.c ****             actualCrc = crcTable[crcIndex];
 980:Generated_Source\PSoC4/CapSense_1_Structure.c ****             paramId >>= 4u;
 981:Generated_Source\PSoC4/CapSense_1_Structure.c ****         }
 982:Generated_Source\PSoC4/CapSense_1_Structure.c **** 
 983:Generated_Source\PSoC4/CapSense_1_Structure.c ****         /* Add bits 28..32 */
 984:Generated_Source\PSoC4/CapSense_1_Structure.c ****         crcIndex = actualCrc ^ ((paramId >> 4u) & 0x0Fu);
 985:Generated_Source\PSoC4/CapSense_1_Structure.c ****         actualCrc = crcTable[crcIndex];
 986:Generated_Source\PSoC4/CapSense_1_Structure.c **** 
 987:Generated_Source\PSoC4/CapSense_1_Structure.c ****         /* Add bits 24..28 (CRC) */
 988:Generated_Source\PSoC4/CapSense_1_Structure.c ****         crcIndex = actualCrc ^ (paramId & 0x0Fu);
 989:Generated_Source\PSoC4/CapSense_1_Structure.c ****         actualCrc = crcTable[crcIndex];
 990:Generated_Source\PSoC4/CapSense_1_Structure.c **** 
 991:Generated_Source\PSoC4/CapSense_1_Structure.c ****         if (0u != actualCrc)
 992:Generated_Source\PSoC4/CapSense_1_Structure.c ****         {
 993:Generated_Source\PSoC4/CapSense_1_Structure.c ****             /* CRC mismatch */
 994:Generated_Source\PSoC4/CapSense_1_Structure.c ****             result = CYRET_BAD_PARAM;
 995:Generated_Source\PSoC4/CapSense_1_Structure.c ****         }
 996:Generated_Source\PSoC4/CapSense_1_Structure.c **** 
 997:Generated_Source\PSoC4/CapSense_1_Structure.c ****         if ((CYRET_SUCCESS == result) &&
 998:Generated_Source\PSoC4/CapSense_1_Structure.c ****             (0u != pData->affectsCrc) && (pData->widgetId >= CapSense_1_TOTAL_WIDGETS ))
 999:Generated_Source\PSoC4/CapSense_1_Structure.c ****         {
1000:Generated_Source\PSoC4/CapSense_1_Structure.c ****             /* Wrong widgetId for protected parameter */
1001:Generated_Source\PSoC4/CapSense_1_Structure.c ****             result = CYRET_BAD_PARAM;
1002:Generated_Source\PSoC4/CapSense_1_Structure.c ****         }
1003:Generated_Source\PSoC4/CapSense_1_Structure.c **** 
1004:Generated_Source\PSoC4/CapSense_1_Structure.c ****         /* Check offset value range */
1005:Generated_Source\PSoC4/CapSense_1_Structure.c ****         if (CYRET_SUCCESS == result)
1006:Generated_Source\PSoC4/CapSense_1_Structure.c ****         {
1007:Generated_Source\PSoC4/CapSense_1_Structure.c ****             if (0u == pData->flash)
1008:Generated_Source\PSoC4/CapSense_1_Structure.c ****             {
1009:Generated_Source\PSoC4/CapSense_1_Structure.c ****                 /* Check offset for RAM Data Structure range */
1010:Generated_Source\PSoC4/CapSense_1_Structure.c ****                 if (pData->offset >= sizeof(CapSense_1_dsRam))
1011:Generated_Source\PSoC4/CapSense_1_Structure.c ****                 {
1012:Generated_Source\PSoC4/CapSense_1_Structure.c ****                     result = CYRET_BAD_PARAM;
1013:Generated_Source\PSoC4/CapSense_1_Structure.c ****                 }
1014:Generated_Source\PSoC4/CapSense_1_Structure.c ****             }
1015:Generated_Source\PSoC4/CapSense_1_Structure.c ****             else
ARM GAS  C:\Users\exp32\AppData\Local\Temp\cc6N2LT5.s 			page 20


1016:Generated_Source\PSoC4/CapSense_1_Structure.c ****             {
1017:Generated_Source\PSoC4/CapSense_1_Structure.c ****                 /* Check offset for Flash Data Structure range */
1018:Generated_Source\PSoC4/CapSense_1_Structure.c ****                 if (pData->offset >= sizeof(CapSense_1_dsFlash))
1019:Generated_Source\PSoC4/CapSense_1_Structure.c ****                 {
1020:Generated_Source\PSoC4/CapSense_1_Structure.c ****                     result = CYRET_BAD_PARAM;
1021:Generated_Source\PSoC4/CapSense_1_Structure.c ****                 }
1022:Generated_Source\PSoC4/CapSense_1_Structure.c **** 
1023:Generated_Source\PSoC4/CapSense_1_Structure.c ****                 /* Check if it is marked as Read Only */
1024:Generated_Source\PSoC4/CapSense_1_Structure.c ****                 if (0u != pData->rw)
1025:Generated_Source\PSoC4/CapSense_1_Structure.c ****                 {
1026:Generated_Source\PSoC4/CapSense_1_Structure.c ****                     result = CYRET_BAD_PARAM;
1027:Generated_Source\PSoC4/CapSense_1_Structure.c ****                 }
1028:Generated_Source\PSoC4/CapSense_1_Structure.c ****             }
1029:Generated_Source\PSoC4/CapSense_1_Structure.c ****         }
1030:Generated_Source\PSoC4/CapSense_1_Structure.c ****     #else /* #if (0u != CapSense_1_SELF_TEST_EN) */
1031:Generated_Source\PSoC4/CapSense_1_Structure.c ****         /* Check offset value range */
1032:Generated_Source\PSoC4/CapSense_1_Structure.c ****         if (0u == pData->flash)
  69              		.loc 1 1032 0
  70 002e 002B     		cmp	r3, #0
  71 0030 05D1     		bne	.L2
1033:Generated_Source\PSoC4/CapSense_1_Structure.c ****         {
1034:Generated_Source\PSoC4/CapSense_1_Structure.c ****             /* Check offset for RAM Data Structure range */
1035:Generated_Source\PSoC4/CapSense_1_Structure.c ****             if (pData->offset >= sizeof(CapSense_1_dsRam))
  72              		.loc 1 1035 0
  73 0032 8423     		movs	r3, #132
  74 0034 FF33     		adds	r3, r3, #255
  75 0036 9D42     		cmp	r5, r3
  76 0038 0BD8     		bhi	.L9
 947:Generated_Source\PSoC4/CapSense_1_Structure.c **** 
  77              		.loc 1 947 0
  78 003a 0020     		movs	r0, #0
  79 003c 0CE0     		b	.L3
  80              	.L2:
1036:Generated_Source\PSoC4/CapSense_1_Structure.c ****             {
1037:Generated_Source\PSoC4/CapSense_1_Structure.c ****                 result = CYRET_BAD_PARAM;
1038:Generated_Source\PSoC4/CapSense_1_Structure.c ****             }
1039:Generated_Source\PSoC4/CapSense_1_Structure.c ****         }
1040:Generated_Source\PSoC4/CapSense_1_Structure.c ****         else
1041:Generated_Source\PSoC4/CapSense_1_Structure.c ****         {
1042:Generated_Source\PSoC4/CapSense_1_Structure.c ****             /* Check offset for Flash Data Structure range */
1043:Generated_Source\PSoC4/CapSense_1_Structure.c ****             if (pData->offset >= sizeof(CapSense_1_dsFlash))
  81              		.loc 1 1043 0
  82 003e 6C23     		movs	r3, #108
  83 0040 FF33     		adds	r3, r3, #255
  84 0042 9D42     		cmp	r5, r3
  85 0044 01D8     		bhi	.L10
 947:Generated_Source\PSoC4/CapSense_1_Structure.c **** 
  86              		.loc 1 947 0
  87 0046 0020     		movs	r0, #0
  88 0048 00E0     		b	.L4
  89              	.L10:
1044:Generated_Source\PSoC4/CapSense_1_Structure.c ****             {
1045:Generated_Source\PSoC4/CapSense_1_Structure.c ****                 result = CYRET_BAD_PARAM;
  90              		.loc 1 1045 0
  91 004a 0120     		movs	r0, #1
  92              	.L4:
  93              	.LVL3:
ARM GAS  C:\Users\exp32\AppData\Local\Temp\cc6N2LT5.s 			page 21


1046:Generated_Source\PSoC4/CapSense_1_Structure.c ****             }
1047:Generated_Source\PSoC4/CapSense_1_Structure.c **** 
1048:Generated_Source\PSoC4/CapSense_1_Structure.c ****             /* Check if it is marked as Read Only */
1049:Generated_Source\PSoC4/CapSense_1_Structure.c ****             if (0u != pData->rw)
  94              		.loc 1 1049 0
  95 004c 002A     		cmp	r2, #0
  96 004e 02D1     		bne	.L11
  97 0050 02E0     		b	.L3
  98              	.LVL4:
  99              	.L9:
1037:Generated_Source\PSoC4/CapSense_1_Structure.c ****             }
 100              		.loc 1 1037 0
 101 0052 0120     		movs	r0, #1
 102 0054 00E0     		b	.L3
 103              	.LVL5:
 104              	.L11:
1050:Generated_Source\PSoC4/CapSense_1_Structure.c ****             {
1051:Generated_Source\PSoC4/CapSense_1_Structure.c ****                 result = CYRET_BAD_PARAM;
 105              		.loc 1 1051 0
 106 0056 0120     		movs	r0, #1
 107              	.LVL6:
 108              	.L3:
1052:Generated_Source\PSoC4/CapSense_1_Structure.c ****             }
1053:Generated_Source\PSoC4/CapSense_1_Structure.c ****         }
1054:Generated_Source\PSoC4/CapSense_1_Structure.c ****     #endif /* #if (0u != CapSense_1_SELF_TEST_EN) */
1055:Generated_Source\PSoC4/CapSense_1_Structure.c **** 
1056:Generated_Source\PSoC4/CapSense_1_Structure.c ****     if (CYRET_SUCCESS == result)
 109              		.loc 1 1056 0
 110 0058 0028     		cmp	r0, #0
 111 005a 11D1     		bne	.L5
1057:Generated_Source\PSoC4/CapSense_1_Structure.c ****     {
1058:Generated_Source\PSoC4/CapSense_1_Structure.c ****         /* Check parameter type, offset alignment */
1059:Generated_Source\PSoC4/CapSense_1_Structure.c ****         switch (pData->type)
 112              		.loc 1 1059 0
 113 005c 022E     		cmp	r6, #2
 114 005e 04D0     		beq	.L6
 115 0060 032E     		cmp	r6, #3
 116 0062 05D0     		beq	.L7
 117 0064 012E     		cmp	r6, #1
 118 0066 06D1     		bne	.L15
 119 0068 0AE0     		b	.L5
 120              	.L6:
1060:Generated_Source\PSoC4/CapSense_1_Structure.c ****         {
1061:Generated_Source\PSoC4/CapSense_1_Structure.c ****         case DS_PARAM_TYPE_UINT16:
1062:Generated_Source\PSoC4/CapSense_1_Structure.c ****             if (0u != (pData->offset & UINT16_ALIGN_MASK))
 121              		.loc 1 1062 0
 122 006a EB07     		lsls	r3, r5, #31
 123 006c 05D4     		bmi	.L13
 124 006e 07E0     		b	.L5
 125              	.L7:
1063:Generated_Source\PSoC4/CapSense_1_Structure.c ****             {
1064:Generated_Source\PSoC4/CapSense_1_Structure.c ****                 result = CYRET_BAD_PARAM;
1065:Generated_Source\PSoC4/CapSense_1_Structure.c ****             }
1066:Generated_Source\PSoC4/CapSense_1_Structure.c ****             break;
1067:Generated_Source\PSoC4/CapSense_1_Structure.c **** 
1068:Generated_Source\PSoC4/CapSense_1_Structure.c ****         case DS_PARAM_TYPE_UINT32:
1069:Generated_Source\PSoC4/CapSense_1_Structure.c ****             if (0u != (pData->offset & UINT32_ALIGN_MASK))
ARM GAS  C:\Users\exp32\AppData\Local\Temp\cc6N2LT5.s 			page 22


 126              		.loc 1 1069 0
 127 0070 AB07     		lsls	r3, r5, #30
 128 0072 04D1     		bne	.L14
 129 0074 04E0     		b	.L5
 130              	.L15:
1070:Generated_Source\PSoC4/CapSense_1_Structure.c ****             {
1071:Generated_Source\PSoC4/CapSense_1_Structure.c ****                 result = CYRET_BAD_PARAM;
1072:Generated_Source\PSoC4/CapSense_1_Structure.c ****             }
1073:Generated_Source\PSoC4/CapSense_1_Structure.c ****             break;
1074:Generated_Source\PSoC4/CapSense_1_Structure.c **** 
1075:Generated_Source\PSoC4/CapSense_1_Structure.c ****         case DS_PARAM_TYPE_UINT8:
1076:Generated_Source\PSoC4/CapSense_1_Structure.c ****             break;
1077:Generated_Source\PSoC4/CapSense_1_Structure.c **** 
1078:Generated_Source\PSoC4/CapSense_1_Structure.c ****         default:
1079:Generated_Source\PSoC4/CapSense_1_Structure.c ****             result = CYRET_BAD_PARAM;
 131              		.loc 1 1079 0
 132 0076 0120     		movs	r0, #1
 133              	.LVL7:
 134 0078 02E0     		b	.L5
 135              	.LVL8:
 136              	.L13:
1064:Generated_Source\PSoC4/CapSense_1_Structure.c ****             }
 137              		.loc 1 1064 0
 138 007a 0120     		movs	r0, #1
 139              	.LVL9:
 140 007c 00E0     		b	.L5
 141              	.LVL10:
 142              	.L14:
1071:Generated_Source\PSoC4/CapSense_1_Structure.c ****             }
 143              		.loc 1 1071 0
 144 007e 0120     		movs	r0, #1
 145              	.LVL11:
 146              	.L5:
1080:Generated_Source\PSoC4/CapSense_1_Structure.c ****             break;
1081:Generated_Source\PSoC4/CapSense_1_Structure.c ****         }
1082:Generated_Source\PSoC4/CapSense_1_Structure.c ****     }
1083:Generated_Source\PSoC4/CapSense_1_Structure.c **** 
1084:Generated_Source\PSoC4/CapSense_1_Structure.c ****     return result;
1085:Generated_Source\PSoC4/CapSense_1_Structure.c **** }
 147              		.loc 1 1085 0
 148              		@ sp needed
 149 0080 70BD     		pop	{r4, r5, r6, pc}
 150              		.cfi_endproc
 151              	.LFE2:
 152              		.size	DsParseParamId, .-DsParseParamId
 153 0082 C046     		.section	.text.CapSense_1_DsInitialize,"ax",%progbits
 154              		.align	2
 155              		.global	CapSense_1_DsInitialize
 156              		.code	16
 157              		.thumb_func
 158              		.type	CapSense_1_DsInitialize, %function
 159              	CapSense_1_DsInitialize:
 160              	.LFB1:
 729:Generated_Source\PSoC4/CapSense_1_Structure.c ****     #if ((CapSense_1_ENABLE == CapSense_1_CSX_EN) || \
 161              		.loc 1 729 0
 162              		.cfi_startproc
 163              		@ args = 0, pretend = 0, frame = 0
ARM GAS  C:\Users\exp32\AppData\Local\Temp\cc6N2LT5.s 			page 23


 164              		@ frame_needed = 0, uses_anonymous_args = 0
 165 0000 70B5     		push	{r4, r5, r6, lr}
 166              		.cfi_def_cfa_offset 16
 167              		.cfi_offset 4, -16
 168              		.cfi_offset 5, -12
 169              		.cfi_offset 6, -8
 170              		.cfi_offset 14, -4
 171              	.LVL12:
 750:Generated_Source\PSoC4/CapSense_1_Structure.c **** 
 172              		.loc 1 750 0
 173 0002 1A4C     		ldr	r4, .L21
 174 0004 C222     		movs	r2, #194
 175 0006 5200     		lsls	r2, r2, #1
 176 0008 0021     		movs	r1, #0
 177 000a 2000     		movs	r0, r4
 178 000c FFF7FEFF 		bl	memset
 179              	.LVL13:
 753:Generated_Source\PSoC4/CapSense_1_Structure.c ****     CapSense_1_dsRam.deviceId = CapSense_1_DEVICE_ID;
 180              		.loc 1 753 0
 181 0010 174B     		ldr	r3, .L21+4
 182 0012 2380     		strh	r3, [r4]
 754:Generated_Source\PSoC4/CapSense_1_Structure.c ****     CapSense_1_dsRam.hwClock = CapSense_1_HW_CLOCK;
 183              		.loc 1 754 0
 184 0014 9023     		movs	r3, #144
 185 0016 1B01     		lsls	r3, r3, #4
 186 0018 6380     		strh	r3, [r4, #2]
 755:Generated_Source\PSoC4/CapSense_1_Structure.c **** 
 187              		.loc 1 755 0
 188 001a 164B     		ldr	r3, .L21+8
 189 001c A380     		strh	r3, [r4, #4]
 758:Generated_Source\PSoC4/CapSense_1_Structure.c **** 
 190              		.loc 1 758 0
 191 001e 0823     		movs	r3, #8
 192 0020 E384     		strh	r3, [r4, #38]
 760:Generated_Source\PSoC4/CapSense_1_Structure.c ****     #if (0u != CapSense_1_TOTAL_CSD_WIDGETS)
 193              		.loc 1 760 0
 194 0022 0322     		movs	r2, #3
 195 0024 8423     		movs	r3, #132
 196 0026 FF33     		adds	r3, r3, #255
 197 0028 E254     		strb	r2, [r4, r3]
 762:Generated_Source\PSoC4/CapSense_1_Structure.c ****         CapSense_1_dsRam.scanCsdISC = CapSense_1_CSD_INACTIVE_SNS_CONNECTION;
 198              		.loc 1 762 0
 199 002a 023A     		subs	r2, r2, #2
 200 002c 5C3B     		subs	r3, r3, #92
 201 002e FF3B     		subs	r3, r3, #255
 202 0030 E254     		strb	r2, [r4, r3]
 836:Generated_Source\PSoC4/CapSense_1_Structure.c **** 
 203              		.loc 1 836 0
 204 0032 2000     		movs	r0, r4
 205 0034 2A30     		adds	r0, r0, #42
 206 0036 9D32     		adds	r2, r2, #157
 207 0038 0F49     		ldr	r1, .L21+12
 208 003a FFF7FEFF 		bl	memcpy
 209              	.LVL14:
 746:Generated_Source\PSoC4/CapSense_1_Structure.c ****     #endif
 210              		.loc 1 746 0
 211 003e 0F49     		ldr	r1, .L21+16
ARM GAS  C:\Users\exp32\AppData\Local\Temp\cc6N2LT5.s 			page 24


 853:Generated_Source\PSoC4/CapSense_1_Structure.c **** 
 212              		.loc 1 853 0
 213 0040 0C00     		movs	r4, r1
 214 0042 1434     		adds	r4, r4, #20
 855:Generated_Source\PSoC4/CapSense_1_Structure.c ****         {
 215              		.loc 1 855 0
 216 0044 0723     		movs	r3, #7
 217 0046 0CE0     		b	.L17
 218              	.LVL15:
 219              	.L20:
 857:Generated_Source\PSoC4/CapSense_1_Structure.c **** 
 220              		.loc 1 857 0
 221 0048 A268     		ldr	r2, [r4, #8]
 222              	.LVL16:
 859:Generated_Source\PSoC4/CapSense_1_Structure.c ****             {
 223              		.loc 1 859 0
 224 004a 238B     		ldrh	r3, [r4, #24]
 225              	.LVL17:
 226 004c 04E0     		b	.L18
 227              	.LVL18:
 228              	.L19:
 861:Generated_Source\PSoC4/CapSense_1_Structure.c ****                 ptrIdacInit++;
 229              		.loc 1 861 0
 230 004e 0B78     		ldrb	r3, [r1]
 231 0050 5372     		strb	r3, [r2, #9]
 862:Generated_Source\PSoC4/CapSense_1_Structure.c **** 
 232              		.loc 1 862 0
 233 0052 0131     		adds	r1, r1, #1
 234              	.LVL19:
 872:Generated_Source\PSoC4/CapSense_1_Structure.c ****             }
 235              		.loc 1 872 0
 236 0054 0A32     		adds	r2, r2, #10
 237              	.LVL20:
 859:Generated_Source\PSoC4/CapSense_1_Structure.c ****             {
 238              		.loc 1 859 0
 239 0056 0300     		movs	r3, r0
 240              	.LVL21:
 241              	.L18:
 859:Generated_Source\PSoC4/CapSense_1_Structure.c ****             {
 242              		.loc 1 859 0 is_stmt 0 discriminator 1
 243 0058 581E     		subs	r0, r3, #1
 244              	.LVL22:
 245 005a 002B     		cmp	r3, #0
 246 005c F7D1     		bne	.L19
 875:Generated_Source\PSoC4/CapSense_1_Structure.c ****         }
 247              		.loc 1 875 0 is_stmt 1
 248 005e 3434     		adds	r4, r4, #52
 249              	.LVL23:
 855:Generated_Source\PSoC4/CapSense_1_Structure.c ****         {
 250              		.loc 1 855 0
 251 0060 2B00     		movs	r3, r5
 252              	.LVL24:
 253              	.L17:
 855:Generated_Source\PSoC4/CapSense_1_Structure.c ****         {
 254              		.loc 1 855 0 is_stmt 0 discriminator 1
 255 0062 5D1E     		subs	r5, r3, #1
 256              	.LVL25:
ARM GAS  C:\Users\exp32\AppData\Local\Temp\cc6N2LT5.s 			page 25


 257 0064 002B     		cmp	r3, #0
 258 0066 EFD1     		bne	.L20
 906:Generated_Source\PSoC4/CapSense_1_Structure.c **** 
 259              		.loc 1 906 0 is_stmt 1
 260              		@ sp needed
 261              	.LVL26:
 262              	.LVL27:
 263 0068 70BD     		pop	{r4, r5, r6, pc}
 264              	.L22:
 265 006a C046     		.align	2
 266              	.L21:
 267 006c 00000000 		.word	CapSense_1_dsRam
 268 0070 E48EFFFF 		.word	-28956
 269 0074 B80B0000 		.word	3000
 270 0078 80010000 		.word	.LANCHOR1
 271 007c 00000000 		.word	.LANCHOR0
 272              		.cfi_endproc
 273              	.LFE1:
 274              		.size	CapSense_1_DsInitialize, .-CapSense_1_DsInitialize
 275              		.section	.text.CapSense_1_GetParam,"ax",%progbits
 276              		.align	2
 277              		.global	CapSense_1_GetParam
 278              		.code	16
 279              		.thumb_func
 280              		.type	CapSense_1_GetParam, %function
 281              	CapSense_1_GetParam:
 282              	.LFB3:
1086:Generated_Source\PSoC4/CapSense_1_Structure.c **** 
1087:Generated_Source\PSoC4/CapSense_1_Structure.c **** /*******************************************************************************
1088:Generated_Source\PSoC4/CapSense_1_Structure.c **** * Function Name: CapSense_1_GetParam
1089:Generated_Source\PSoC4/CapSense_1_Structure.c **** ****************************************************************************//**
1090:Generated_Source\PSoC4/CapSense_1_Structure.c **** *
1091:Generated_Source\PSoC4/CapSense_1_Structure.c **** * \brief
1092:Generated_Source\PSoC4/CapSense_1_Structure.c **** *  Gets the specified parameter value from the \ref group_structures.
1093:Generated_Source\PSoC4/CapSense_1_Structure.c **** *
1094:Generated_Source\PSoC4/CapSense_1_Structure.c **** * \details
1095:Generated_Source\PSoC4/CapSense_1_Structure.c **** *  This function gets the value of the specified parameter by the paramId
1096:Generated_Source\PSoC4/CapSense_1_Structure.c **** *  argument. The paramId for each register is available in the
1097:Generated_Source\PSoC4/CapSense_1_Structure.c **** *  CapSense_1 RegisterMap header file as
1098:Generated_Source\PSoC4/CapSense_1_Structure.c **** *  CapSense_1_<ParameterName>_PARAM_ID. The paramId is a special
1099:Generated_Source\PSoC4/CapSense_1_Structure.c **** *  enumerated value generated by the customizer. The format of paramId is as
1100:Generated_Source\PSoC4/CapSense_1_Structure.c **** *  follows:
1101:Generated_Source\PSoC4/CapSense_1_Structure.c **** *    1. [ byte 3 byte 2 byte 1 byte 0 ]
1102:Generated_Source\PSoC4/CapSense_1_Structure.c **** *    2. [ TTWFCCCC UIIIIIII MMMMMMMM LLLLLLLL ]
1103:Generated_Source\PSoC4/CapSense_1_Structure.c **** *    3. T - encodes the parameter type:
1104:Generated_Source\PSoC4/CapSense_1_Structure.c **** *      - 01b: uint8
1105:Generated_Source\PSoC4/CapSense_1_Structure.c **** *      - 10b: uint16
1106:Generated_Source\PSoC4/CapSense_1_Structure.c **** *      - 11b: uint32
1107:Generated_Source\PSoC4/CapSense_1_Structure.c **** *    4. W - indicates whether the parameter is writable:
1108:Generated_Source\PSoC4/CapSense_1_Structure.c **** *      - 0: ReadOnly
1109:Generated_Source\PSoC4/CapSense_1_Structure.c **** *      - 1: Read/Write
1110:Generated_Source\PSoC4/CapSense_1_Structure.c **** *    5. C - 4 bit CRC (X^3 + 1) of the whole paramId word, the C bits are
1111:Generated_Source\PSoC4/CapSense_1_Structure.c **** *       filled with 0s when the CRC is calculated.
1112:Generated_Source\PSoC4/CapSense_1_Structure.c **** *    6. U - indicates if the parameter affects the RAM Widget Object CRC.
1113:Generated_Source\PSoC4/CapSense_1_Structure.c **** *    7. I - specifies that the widgetId parameter belongs to
1114:Generated_Source\PSoC4/CapSense_1_Structure.c **** *    8. M,L - the parameter offset MSB and LSB accordingly in:
1115:Generated_Source\PSoC4/CapSense_1_Structure.c **** *      - Flash Data Structure if W bit is 0.
ARM GAS  C:\Users\exp32\AppData\Local\Temp\cc6N2LT5.s 			page 26


1116:Generated_Source\PSoC4/CapSense_1_Structure.c **** *      - RAM Data Structure if W bit is 1.
1117:Generated_Source\PSoC4/CapSense_1_Structure.c **** *
1118:Generated_Source\PSoC4/CapSense_1_Structure.c **** *  Refer to the \ref group_structures section for details of the data structure
1119:Generated_Source\PSoC4/CapSense_1_Structure.c **** *  organization and examples of its register access.
1120:Generated_Source\PSoC4/CapSense_1_Structure.c **** *
1121:Generated_Source\PSoC4/CapSense_1_Structure.c **** * \param paramId
1122:Generated_Source\PSoC4/CapSense_1_Structure.c **** *  Specifies the ID of parameter to get its value.
1123:Generated_Source\PSoC4/CapSense_1_Structure.c **** *  A macro for the parameter ID can be found in the CapSense_1 RegisterMap header
1124:Generated_Source\PSoC4/CapSense_1_Structure.c **** *  file defined as CapSense_1_<ParameterName>_PARAM_ID.
1125:Generated_Source\PSoC4/CapSense_1_Structure.c **** *
1126:Generated_Source\PSoC4/CapSense_1_Structure.c **** * \param value
1127:Generated_Source\PSoC4/CapSense_1_Structure.c **** *  The pointer to a variable to be updated with the obtained value.
1128:Generated_Source\PSoC4/CapSense_1_Structure.c **** *
1129:Generated_Source\PSoC4/CapSense_1_Structure.c **** * \return
1130:Generated_Source\PSoC4/CapSense_1_Structure.c **** *  Returns the status of the operation:
1131:Generated_Source\PSoC4/CapSense_1_Structure.c **** *    - CYRET_SUCCESS - The operation is successfully completed.
1132:Generated_Source\PSoC4/CapSense_1_Structure.c **** *    - CYRET_BAD_PARAM - The input parameter is invalid.
1133:Generated_Source\PSoC4/CapSense_1_Structure.c **** *
1134:Generated_Source\PSoC4/CapSense_1_Structure.c **** *******************************************************************************/
1135:Generated_Source\PSoC4/CapSense_1_Structure.c **** cystatus CapSense_1_GetParam(uint32 paramId, uint32 *value)
1136:Generated_Source\PSoC4/CapSense_1_Structure.c **** {
 283              		.loc 1 1136 0
 284              		.cfi_startproc
 285              		@ args = 0, pretend = 0, frame = 8
 286              		@ frame_needed = 0, uses_anonymous_args = 0
 287              	.LVL28:
 288 0000 30B5     		push	{r4, r5, lr}
 289              		.cfi_def_cfa_offset 12
 290              		.cfi_offset 4, -12
 291              		.cfi_offset 5, -8
 292              		.cfi_offset 14, -4
 293 0002 83B0     		sub	sp, sp, #12
 294              		.cfi_def_cfa_offset 24
 295 0004 0D00     		movs	r5, r1
1137:Generated_Source\PSoC4/CapSense_1_Structure.c ****     PARAM_ID_STRUCT pData;
1138:Generated_Source\PSoC4/CapSense_1_Structure.c ****     cystatus result;
1139:Generated_Source\PSoC4/CapSense_1_Structure.c **** 
1140:Generated_Source\PSoC4/CapSense_1_Structure.c ****     union
1141:Generated_Source\PSoC4/CapSense_1_Structure.c ****     {
1142:Generated_Source\PSoC4/CapSense_1_Structure.c ****         volatile void   const * ptr;
1143:Generated_Source\PSoC4/CapSense_1_Structure.c ****         volatile uint8  const * ptrUint8;
1144:Generated_Source\PSoC4/CapSense_1_Structure.c ****         volatile uint16 const * ptrUint16;
1145:Generated_Source\PSoC4/CapSense_1_Structure.c ****         volatile uint32 const * ptrUint32;
1146:Generated_Source\PSoC4/CapSense_1_Structure.c ****     } ptrData;
1147:Generated_Source\PSoC4/CapSense_1_Structure.c **** 
1148:Generated_Source\PSoC4/CapSense_1_Structure.c ****     result = DsParseParamId(paramId, &pData);
 296              		.loc 1 1148 0
 297 0006 6946     		mov	r1, sp
 298              	.LVL29:
 299 0008 FFF7FEFF 		bl	DsParseParamId
 300              	.LVL30:
 301 000c 041E     		subs	r4, r0, #0
 302              	.LVL31:
1149:Generated_Source\PSoC4/CapSense_1_Structure.c **** 
1150:Generated_Source\PSoC4/CapSense_1_Structure.c ****     /* Parse and validate paramId */
1151:Generated_Source\PSoC4/CapSense_1_Structure.c ****     if (CYRET_SUCCESS == result)
 303              		.loc 1 1151 0
ARM GAS  C:\Users\exp32\AppData\Local\Temp\cc6N2LT5.s 			page 27


 304 000e 1FD1     		bne	.L24
1152:Generated_Source\PSoC4/CapSense_1_Structure.c ****     {
1153:Generated_Source\PSoC4/CapSense_1_Structure.c ****         /* Get base address of parameter */
1154:Generated_Source\PSoC4/CapSense_1_Structure.c ****         if (0u == pData.flash)
 305              		.loc 1 1154 0
 306 0010 6B46     		mov	r3, sp
 307 0012 5B79     		ldrb	r3, [r3, #5]
 308 0014 002B     		cmp	r3, #0
 309 0016 01D1     		bne	.L25
1155:Generated_Source\PSoC4/CapSense_1_Structure.c ****         {
1156:Generated_Source\PSoC4/CapSense_1_Structure.c ****             ptrData.ptr = &CapSense_1_dsRam;
 310              		.loc 1 1156 0
 311 0018 0F4A     		ldr	r2, .L30
 312              	.LVL32:
 313 001a 02E0     		b	.L26
 314              	.L25:
1157:Generated_Source\PSoC4/CapSense_1_Structure.c ****         }
1158:Generated_Source\PSoC4/CapSense_1_Structure.c ****         else
1159:Generated_Source\PSoC4/CapSense_1_Structure.c ****         {
1160:Generated_Source\PSoC4/CapSense_1_Structure.c ****             ptrData.ptr = &CapSense_1_dsFlash;
 315              		.loc 1 1160 0
 316 001c 0F4B     		ldr	r3, .L30+4
 317 001e 1433     		adds	r3, r3, #20
 318 0020 1A00     		movs	r2, r3
 319              	.L26:
1161:Generated_Source\PSoC4/CapSense_1_Structure.c ****         }
1162:Generated_Source\PSoC4/CapSense_1_Structure.c **** 
1163:Generated_Source\PSoC4/CapSense_1_Structure.c ****         /* Add offset to base address */
1164:Generated_Source\PSoC4/CapSense_1_Structure.c ****         ptrData.ptrUint8 += pData.offset;
 320              		.loc 1 1164 0
 321 0022 6B46     		mov	r3, sp
 322 0024 1B88     		ldrh	r3, [r3]
 323              	.LVL33:
 324 0026 D318     		adds	r3, r2, r3
1165:Generated_Source\PSoC4/CapSense_1_Structure.c **** 
1166:Generated_Source\PSoC4/CapSense_1_Structure.c ****         /* Read data */
1167:Generated_Source\PSoC4/CapSense_1_Structure.c ****         if (DS_PARAM_TYPE_UINT8 == pData.type)
 325              		.loc 1 1167 0
 326 0028 6A46     		mov	r2, sp
 327              	.LVL34:
 328 002a D279     		ldrb	r2, [r2, #7]
 329 002c 012A     		cmp	r2, #1
 330 002e 02D1     		bne	.L27
1168:Generated_Source\PSoC4/CapSense_1_Structure.c ****         {
1169:Generated_Source\PSoC4/CapSense_1_Structure.c ****             *value = (uint32) (*ptrData.ptrUint8);
 331              		.loc 1 1169 0
 332 0030 1B78     		ldrb	r3, [r3]
 333 0032 2B60     		str	r3, [r5]
 334 0034 0CE0     		b	.L24
 335              	.L27:
1170:Generated_Source\PSoC4/CapSense_1_Structure.c ****         }
1171:Generated_Source\PSoC4/CapSense_1_Structure.c ****         else if (DS_PARAM_TYPE_UINT16 == pData.type)
 336              		.loc 1 1171 0
 337 0036 022A     		cmp	r2, #2
 338 0038 02D1     		bne	.L28
1172:Generated_Source\PSoC4/CapSense_1_Structure.c ****         {
1173:Generated_Source\PSoC4/CapSense_1_Structure.c ****             *value = (uint32) (*ptrData.ptrUint16);
ARM GAS  C:\Users\exp32\AppData\Local\Temp\cc6N2LT5.s 			page 28


 339              		.loc 1 1173 0
 340 003a 1B88     		ldrh	r3, [r3]
 341 003c 2B60     		str	r3, [r5]
 342 003e 07E0     		b	.L24
 343              	.L28:
1174:Generated_Source\PSoC4/CapSense_1_Structure.c ****         }
1175:Generated_Source\PSoC4/CapSense_1_Structure.c ****         else if (DS_PARAM_TYPE_UINT32 == pData.type)
 344              		.loc 1 1175 0
 345 0040 032A     		cmp	r2, #3
 346 0042 02D1     		bne	.L29
1176:Generated_Source\PSoC4/CapSense_1_Structure.c ****         {
1177:Generated_Source\PSoC4/CapSense_1_Structure.c ****             *value = *ptrData.ptrUint32;
 347              		.loc 1 1177 0
 348 0044 1B68     		ldr	r3, [r3]
 349 0046 2B60     		str	r3, [r5]
 350 0048 02E0     		b	.L24
 351              	.L29:
1178:Generated_Source\PSoC4/CapSense_1_Structure.c ****         }
1179:Generated_Source\PSoC4/CapSense_1_Structure.c ****         else
1180:Generated_Source\PSoC4/CapSense_1_Structure.c ****         {
1181:Generated_Source\PSoC4/CapSense_1_Structure.c ****             /* Parameter comes here already validated. */
1182:Generated_Source\PSoC4/CapSense_1_Structure.c ****             CYASSERT(0u);
 352              		.loc 1 1182 0 discriminator 1
 353 004a 0020     		movs	r0, #0
 354              	.LVL35:
 355 004c FFF7FEFF 		bl	CyHalt
 356              	.LVL36:
 357              	.L24:
1183:Generated_Source\PSoC4/CapSense_1_Structure.c ****         }
1184:Generated_Source\PSoC4/CapSense_1_Structure.c ****     }
1185:Generated_Source\PSoC4/CapSense_1_Structure.c **** 
1186:Generated_Source\PSoC4/CapSense_1_Structure.c ****     return result;
1187:Generated_Source\PSoC4/CapSense_1_Structure.c **** }
 358              		.loc 1 1187 0
 359 0050 2000     		movs	r0, r4
 360 0052 03B0     		add	sp, sp, #12
 361              		@ sp needed
 362              	.LVL37:
 363              	.LVL38:
 364 0054 30BD     		pop	{r4, r5, pc}
 365              	.L31:
 366 0056 C046     		.align	2
 367              	.L30:
 368 0058 00000000 		.word	CapSense_1_dsRam
 369 005c 00000000 		.word	.LANCHOR0
 370              		.cfi_endproc
 371              	.LFE3:
 372              		.size	CapSense_1_GetParam, .-CapSense_1_GetParam
 373              		.section	.text.CapSense_1_SetParam,"ax",%progbits
 374              		.align	2
 375              		.global	CapSense_1_SetParam
 376              		.code	16
 377              		.thumb_func
 378              		.type	CapSense_1_SetParam, %function
 379              	CapSense_1_SetParam:
 380              	.LFB4:
1188:Generated_Source\PSoC4/CapSense_1_Structure.c **** 
ARM GAS  C:\Users\exp32\AppData\Local\Temp\cc6N2LT5.s 			page 29


1189:Generated_Source\PSoC4/CapSense_1_Structure.c **** 
1190:Generated_Source\PSoC4/CapSense_1_Structure.c **** /*******************************************************************************
1191:Generated_Source\PSoC4/CapSense_1_Structure.c **** * Function Name: CapSense_1_SetParam
1192:Generated_Source\PSoC4/CapSense_1_Structure.c **** ****************************************************************************//**
1193:Generated_Source\PSoC4/CapSense_1_Structure.c **** *
1194:Generated_Source\PSoC4/CapSense_1_Structure.c **** * \brief
1195:Generated_Source\PSoC4/CapSense_1_Structure.c **** *  Sets a new value for the specified parameter in the \ref group_structures.
1196:Generated_Source\PSoC4/CapSense_1_Structure.c **** *
1197:Generated_Source\PSoC4/CapSense_1_Structure.c **** * \details
1198:Generated_Source\PSoC4/CapSense_1_Structure.c **** *  This function sets the value of the specified parameter by the paramId
1199:Generated_Source\PSoC4/CapSense_1_Structure.c **** *  argument. The paramId for each register is available in the
1200:Generated_Source\PSoC4/CapSense_1_Structure.c **** *  CapSense_1 RegisterMap header file as
1201:Generated_Source\PSoC4/CapSense_1_Structure.c **** *  CapSense_1_<ParameterName>_PARAM_ID. The paramId is a special
1202:Generated_Source\PSoC4/CapSense_1_Structure.c **** *  enumerated value generated by the customizer. The format of paramId is as
1203:Generated_Source\PSoC4/CapSense_1_Structure.c **** *  follows:
1204:Generated_Source\PSoC4/CapSense_1_Structure.c **** *    1. [ byte 3 byte 2 byte 1 byte 0 ]
1205:Generated_Source\PSoC4/CapSense_1_Structure.c **** *    2. [ TTWFCCCC UIIIIIII MMMMMMMM LLLLLLLL ]
1206:Generated_Source\PSoC4/CapSense_1_Structure.c **** *    3. T - encodes the parameter type:
1207:Generated_Source\PSoC4/CapSense_1_Structure.c **** *      - 01b: uint8
1208:Generated_Source\PSoC4/CapSense_1_Structure.c **** *      - 10b: uint16
1209:Generated_Source\PSoC4/CapSense_1_Structure.c **** *      - 11b: uint32
1210:Generated_Source\PSoC4/CapSense_1_Structure.c **** *    4. W - indicates whether the parameter is writable:
1211:Generated_Source\PSoC4/CapSense_1_Structure.c **** *      - 0: ReadOnly
1212:Generated_Source\PSoC4/CapSense_1_Structure.c **** *      - 1: Read/Write
1213:Generated_Source\PSoC4/CapSense_1_Structure.c **** *    5. C - 4 bit CRC (X^3 + 1) of the whole paramId word, the C bits are
1214:Generated_Source\PSoC4/CapSense_1_Structure.c **** *       filled with 0s when the CRC is calculated.
1215:Generated_Source\PSoC4/CapSense_1_Structure.c **** *    6. U - indicates if the parameter affects the RAM Widget Object CRC.
1216:Generated_Source\PSoC4/CapSense_1_Structure.c **** *    7. I - specifies that the widgetId parameter belongs to
1217:Generated_Source\PSoC4/CapSense_1_Structure.c **** *    8. M,L - the parameter offset MSB and LSB accordingly in:
1218:Generated_Source\PSoC4/CapSense_1_Structure.c **** *      - Flash Data Structure if W bit is 0.
1219:Generated_Source\PSoC4/CapSense_1_Structure.c **** *      - RAM Data Structure if W bit is 1.
1220:Generated_Source\PSoC4/CapSense_1_Structure.c **** *
1221:Generated_Source\PSoC4/CapSense_1_Structure.c **** *  Refer to the \ref group_structures section for details of the data structure
1222:Generated_Source\PSoC4/CapSense_1_Structure.c **** *  organization and examples of its register access.
1223:Generated_Source\PSoC4/CapSense_1_Structure.c **** *
1224:Generated_Source\PSoC4/CapSense_1_Structure.c **** *  This function writes specified value into the desired register without
1225:Generated_Source\PSoC4/CapSense_1_Structure.c **** *  other registers update. It is application layer responsibility to keep all
1226:Generated_Source\PSoC4/CapSense_1_Structure.c **** *  the data structure registers aligned. Repeated call of
1227:Generated_Source\PSoC4/CapSense_1_Structure.c **** *  CapSense_1_Start() function helps aligning dependent register values.
1228:Generated_Source\PSoC4/CapSense_1_Structure.c **** *
1229:Generated_Source\PSoC4/CapSense_1_Structure.c **** * \param paramId
1230:Generated_Source\PSoC4/CapSense_1_Structure.c **** *  Specifies the ID of parameter to set its value.
1231:Generated_Source\PSoC4/CapSense_1_Structure.c **** *  A macro for the parameter ID can be found in the CapSense_1 RegisterMap header
1232:Generated_Source\PSoC4/CapSense_1_Structure.c **** *  file defined as CapSense_1_<ParameterName>_PARAM_ID.
1233:Generated_Source\PSoC4/CapSense_1_Structure.c **** 
1234:Generated_Source\PSoC4/CapSense_1_Structure.c **** * \param value
1235:Generated_Source\PSoC4/CapSense_1_Structure.c **** *  Specifies the new parameter's value.
1236:Generated_Source\PSoC4/CapSense_1_Structure.c **** *
1237:Generated_Source\PSoC4/CapSense_1_Structure.c **** * \return
1238:Generated_Source\PSoC4/CapSense_1_Structure.c **** *  Returns the status of the operation:
1239:Generated_Source\PSoC4/CapSense_1_Structure.c **** *    - CYRET_SUCCESS - The operation is successfully completed.
1240:Generated_Source\PSoC4/CapSense_1_Structure.c **** *    - CYRET_BAD_PARAM - The input parameter is invalid.
1241:Generated_Source\PSoC4/CapSense_1_Structure.c **** *
1242:Generated_Source\PSoC4/CapSense_1_Structure.c **** *******************************************************************************/
1243:Generated_Source\PSoC4/CapSense_1_Structure.c **** cystatus CapSense_1_SetParam(uint32 paramId, uint32 value)
1244:Generated_Source\PSoC4/CapSense_1_Structure.c **** {
 381              		.loc 1 1244 0
ARM GAS  C:\Users\exp32\AppData\Local\Temp\cc6N2LT5.s 			page 30


 382              		.cfi_startproc
 383              		@ args = 0, pretend = 0, frame = 8
 384              		@ frame_needed = 0, uses_anonymous_args = 0
 385              	.LVL39:
 386 0000 30B5     		push	{r4, r5, lr}
 387              		.cfi_def_cfa_offset 12
 388              		.cfi_offset 4, -12
 389              		.cfi_offset 5, -8
 390              		.cfi_offset 14, -4
 391 0002 83B0     		sub	sp, sp, #12
 392              		.cfi_def_cfa_offset 24
 393 0004 0D00     		movs	r5, r1
1245:Generated_Source\PSoC4/CapSense_1_Structure.c ****     cystatus result;
1246:Generated_Source\PSoC4/CapSense_1_Structure.c ****     PARAM_ID_STRUCT pData;
1247:Generated_Source\PSoC4/CapSense_1_Structure.c **** 
1248:Generated_Source\PSoC4/CapSense_1_Structure.c ****     union
1249:Generated_Source\PSoC4/CapSense_1_Structure.c ****     {
1250:Generated_Source\PSoC4/CapSense_1_Structure.c ****         volatile void   * ptr;
1251:Generated_Source\PSoC4/CapSense_1_Structure.c ****         volatile uint8  * ptrUint8;
1252:Generated_Source\PSoC4/CapSense_1_Structure.c ****         volatile uint16 * ptrUint16;
1253:Generated_Source\PSoC4/CapSense_1_Structure.c ****         volatile uint32 * ptrUint32;
1254:Generated_Source\PSoC4/CapSense_1_Structure.c ****     } ptrData;
1255:Generated_Source\PSoC4/CapSense_1_Structure.c **** 
1256:Generated_Source\PSoC4/CapSense_1_Structure.c ****     result = DsParseParamId(paramId, &pData);
 394              		.loc 1 1256 0
 395 0006 6946     		mov	r1, sp
 396              	.LVL40:
 397 0008 FFF7FEFF 		bl	DsParseParamId
 398              	.LVL41:
 399 000c 041E     		subs	r4, r0, #0
 400              	.LVL42:
1257:Generated_Source\PSoC4/CapSense_1_Structure.c **** 
1258:Generated_Source\PSoC4/CapSense_1_Structure.c ****     /* verify if parameter is writable */
1259:Generated_Source\PSoC4/CapSense_1_Structure.c ****     if (CYRET_SUCCESS == result)
 401              		.loc 1 1259 0
 402 000e 04D1     		bne	.L33
1260:Generated_Source\PSoC4/CapSense_1_Structure.c ****     {
1261:Generated_Source\PSoC4/CapSense_1_Structure.c ****         if (0u == pData.rw)
 403              		.loc 1 1261 0
 404 0010 6B46     		mov	r3, sp
 405 0012 9B79     		ldrb	r3, [r3, #6]
 406 0014 002B     		cmp	r3, #0
 407 0016 00D1     		bne	.L33
1262:Generated_Source\PSoC4/CapSense_1_Structure.c ****         {
1263:Generated_Source\PSoC4/CapSense_1_Structure.c ****             result = CYRET_BAD_PARAM;
 408              		.loc 1 1263 0
 409 0018 0134     		adds	r4, r4, #1
 410              	.L33:
 411              	.LVL43:
1264:Generated_Source\PSoC4/CapSense_1_Structure.c ****         }
1265:Generated_Source\PSoC4/CapSense_1_Structure.c ****     }
1266:Generated_Source\PSoC4/CapSense_1_Structure.c **** 
1267:Generated_Source\PSoC4/CapSense_1_Structure.c ****     /* Parse and validate paramId */
1268:Generated_Source\PSoC4/CapSense_1_Structure.c ****     if (CYRET_SUCCESS == result)
 412              		.loc 1 1268 0
 413 001a 002C     		cmp	r4, #0
 414 001c 16D1     		bne	.L34
ARM GAS  C:\Users\exp32\AppData\Local\Temp\cc6N2LT5.s 			page 31


1269:Generated_Source\PSoC4/CapSense_1_Structure.c ****     {
1270:Generated_Source\PSoC4/CapSense_1_Structure.c ****         /* Get base address of parameter */
1271:Generated_Source\PSoC4/CapSense_1_Structure.c ****         ptrData.ptr = &CapSense_1_dsRam;
1272:Generated_Source\PSoC4/CapSense_1_Structure.c **** 
1273:Generated_Source\PSoC4/CapSense_1_Structure.c ****         /* Add offset to base address */
1274:Generated_Source\PSoC4/CapSense_1_Structure.c ****         ptrData.ptrUint8 += pData.offset;
 415              		.loc 1 1274 0
 416 001e 6B46     		mov	r3, sp
 417 0020 1A88     		ldrh	r2, [r3]
 418 0022 0C4B     		ldr	r3, .L39
 419 0024 D318     		adds	r3, r2, r3
1275:Generated_Source\PSoC4/CapSense_1_Structure.c **** 
1276:Generated_Source\PSoC4/CapSense_1_Structure.c ****         /* Write data */
1277:Generated_Source\PSoC4/CapSense_1_Structure.c ****         if (DS_PARAM_TYPE_UINT8 == pData.type)
 420              		.loc 1 1277 0
 421 0026 6A46     		mov	r2, sp
 422 0028 D279     		ldrb	r2, [r2, #7]
 423 002a 012A     		cmp	r2, #1
 424 002c 02D1     		bne	.L35
1278:Generated_Source\PSoC4/CapSense_1_Structure.c ****         {
1279:Generated_Source\PSoC4/CapSense_1_Structure.c ****             *ptrData.ptrUint8 = LO8(value);
 425              		.loc 1 1279 0
 426 002e EDB2     		uxtb	r5, r5
 427              	.LVL44:
 428 0030 1D70     		strb	r5, [r3]
 429 0032 0BE0     		b	.L34
 430              	.LVL45:
 431              	.L35:
1280:Generated_Source\PSoC4/CapSense_1_Structure.c ****         }
1281:Generated_Source\PSoC4/CapSense_1_Structure.c ****         else if (DS_PARAM_TYPE_UINT16 == pData.type)
 432              		.loc 1 1281 0
 433 0034 022A     		cmp	r2, #2
 434 0036 02D1     		bne	.L36
1282:Generated_Source\PSoC4/CapSense_1_Structure.c ****         {
1283:Generated_Source\PSoC4/CapSense_1_Structure.c ****             *ptrData.ptrUint16 = LO16(value);
 435              		.loc 1 1283 0
 436 0038 ADB2     		uxth	r5, r5
 437              	.LVL46:
 438 003a 1D80     		strh	r5, [r3]
 439 003c 06E0     		b	.L34
 440              	.LVL47:
 441              	.L36:
1284:Generated_Source\PSoC4/CapSense_1_Structure.c ****         }
1285:Generated_Source\PSoC4/CapSense_1_Structure.c ****         else if (DS_PARAM_TYPE_UINT32 == pData.type)
 442              		.loc 1 1285 0
 443 003e 032A     		cmp	r2, #3
 444 0040 01D1     		bne	.L37
1286:Generated_Source\PSoC4/CapSense_1_Structure.c ****         {
1287:Generated_Source\PSoC4/CapSense_1_Structure.c ****             *ptrData.ptrUint32 = value;
 445              		.loc 1 1287 0
 446 0042 1D60     		str	r5, [r3]
 447 0044 02E0     		b	.L34
 448              	.L37:
1288:Generated_Source\PSoC4/CapSense_1_Structure.c ****         }
1289:Generated_Source\PSoC4/CapSense_1_Structure.c ****         else
1290:Generated_Source\PSoC4/CapSense_1_Structure.c ****         {
1291:Generated_Source\PSoC4/CapSense_1_Structure.c ****             /* Parameter comes here already validated. */
ARM GAS  C:\Users\exp32\AppData\Local\Temp\cc6N2LT5.s 			page 32


1292:Generated_Source\PSoC4/CapSense_1_Structure.c ****             CYASSERT(0u);
 449              		.loc 1 1292 0 discriminator 1
 450 0046 0020     		movs	r0, #0
 451 0048 FFF7FEFF 		bl	CyHalt
 452              	.LVL48:
 453              	.L34:
1293:Generated_Source\PSoC4/CapSense_1_Structure.c ****         }
1294:Generated_Source\PSoC4/CapSense_1_Structure.c **** 
1295:Generated_Source\PSoC4/CapSense_1_Structure.c ****         #if (CapSense_1_ENABLE == (CapSense_1_TST_WDGT_CRC_EN || CapSense_1_TST_GLOBAL_CRC_EN))
1296:Generated_Source\PSoC4/CapSense_1_Structure.c ****             /* Update widget or global CRC if self-test is enabled and parameter affects it */
1297:Generated_Source\PSoC4/CapSense_1_Structure.c ****             if (0u != pData.affectsCrc)
1298:Generated_Source\PSoC4/CapSense_1_Structure.c ****             {
1299:Generated_Source\PSoC4/CapSense_1_Structure.c ****                 if ((ptrData.ptrUint16 >= &CapSense_1_dsRam.csd0Config) &&
1300:Generated_Source\PSoC4/CapSense_1_Structure.c ****                     (ptrData.ptrUint16 <  &CapSense_1_dsRam.glbCrc))
1301:Generated_Source\PSoC4/CapSense_1_Structure.c ****                 {
1302:Generated_Source\PSoC4/CapSense_1_Structure.c **** 
1303:Generated_Source\PSoC4/CapSense_1_Structure.c ****                     #if (CapSense_1_ENABLE == CapSense_1_TST_GLOBAL_CRC_EN)
1304:Generated_Source\PSoC4/CapSense_1_Structure.c ****                         CapSense_1_DsUpdateGlobalCrc();
1305:Generated_Source\PSoC4/CapSense_1_Structure.c ****                     #endif /* (CapSense_1_ENABLE == CapSense_1_TST_GLOBAL_CRC_EN) */
1306:Generated_Source\PSoC4/CapSense_1_Structure.c **** 
1307:Generated_Source\PSoC4/CapSense_1_Structure.c ****                 }
1308:Generated_Source\PSoC4/CapSense_1_Structure.c ****                 else
1309:Generated_Source\PSoC4/CapSense_1_Structure.c ****                 {
1310:Generated_Source\PSoC4/CapSense_1_Structure.c ****                     #if (CapSense_1_ENABLE == CapSense_1_TST_WDGT_CRC_EN)
1311:Generated_Source\PSoC4/CapSense_1_Structure.c ****                         CapSense_1_DsUpdateWidgetCrc((uint32)pData.widgetId);
1312:Generated_Source\PSoC4/CapSense_1_Structure.c ****                     #endif /* (CapSense_1_ENABLE == CapSense_1_TST_WDGT_CRC_EN) */
1313:Generated_Source\PSoC4/CapSense_1_Structure.c ****                 }
1314:Generated_Source\PSoC4/CapSense_1_Structure.c ****             }
1315:Generated_Source\PSoC4/CapSense_1_Structure.c ****         #endif /* (CapSense_1_ENABLE == (CapSense_1_TST_WDGT_CRC_EN || CapSense_1_TST_GLOBAL_CRC_EN
1316:Generated_Source\PSoC4/CapSense_1_Structure.c ****     }
1317:Generated_Source\PSoC4/CapSense_1_Structure.c **** 
1318:Generated_Source\PSoC4/CapSense_1_Structure.c ****     return result;
1319:Generated_Source\PSoC4/CapSense_1_Structure.c **** }
 454              		.loc 1 1319 0
 455 004c 2000     		movs	r0, r4
 456 004e 03B0     		add	sp, sp, #12
 457              		@ sp needed
 458              	.LVL49:
 459 0050 30BD     		pop	{r4, r5, pc}
 460              	.L40:
 461 0052 C046     		.align	2
 462              	.L39:
 463 0054 00000000 		.word	CapSense_1_dsRam
 464              		.cfi_endproc
 465              	.LFE4:
 466              		.size	CapSense_1_SetParam, .-CapSense_1_SetParam
 467              		.section	.text.CapSense_1_IsAnyWidgetActive,"ax",%progbits
 468              		.align	2
 469              		.global	CapSense_1_IsAnyWidgetActive
 470              		.code	16
 471              		.thumb_func
 472              		.type	CapSense_1_IsAnyWidgetActive, %function
 473              	CapSense_1_IsAnyWidgetActive:
 474              	.LFB5:
1320:Generated_Source\PSoC4/CapSense_1_Structure.c **** 
1321:Generated_Source\PSoC4/CapSense_1_Structure.c **** /*******************************************************************************
1322:Generated_Source\PSoC4/CapSense_1_Structure.c **** * Function Name: CapSense_1_IsAnyWidgetActive
ARM GAS  C:\Users\exp32\AppData\Local\Temp\cc6N2LT5.s 			page 33


1323:Generated_Source\PSoC4/CapSense_1_Structure.c **** ****************************************************************************//**
1324:Generated_Source\PSoC4/CapSense_1_Structure.c **** *
1325:Generated_Source\PSoC4/CapSense_1_Structure.c **** * \brief
1326:Generated_Source\PSoC4/CapSense_1_Structure.c **** *  Reports if any widget has detected a touch.
1327:Generated_Source\PSoC4/CapSense_1_Structure.c **** *
1328:Generated_Source\PSoC4/CapSense_1_Structure.c **** * \details
1329:Generated_Source\PSoC4/CapSense_1_Structure.c **** *  This function reports if any widget has detected a touch or not by extracting
1330:Generated_Source\PSoC4/CapSense_1_Structure.c **** *  information from the wdgtStatus registers
1331:Generated_Source\PSoC4/CapSense_1_Structure.c **** *  (CapSense_1_WDGT_STATUS<X>_VALUE). This function does not process a
1332:Generated_Source\PSoC4/CapSense_1_Structure.c **** *  widget but extracts processed results from the \ref group_structures.
1333:Generated_Source\PSoC4/CapSense_1_Structure.c **** *
1334:Generated_Source\PSoC4/CapSense_1_Structure.c **** * \return
1335:Generated_Source\PSoC4/CapSense_1_Structure.c **** *   Returns the touch detection status of all the widgets:
1336:Generated_Source\PSoC4/CapSense_1_Structure.c **** *     - Zero - No touch is detected in all the widgets or sensors.
1337:Generated_Source\PSoC4/CapSense_1_Structure.c **** *     - Non-zero - At least one widget or sensor detected a touch.
1338:Generated_Source\PSoC4/CapSense_1_Structure.c **** *
1339:Generated_Source\PSoC4/CapSense_1_Structure.c **** *******************************************************************************/
1340:Generated_Source\PSoC4/CapSense_1_Structure.c **** uint32 CapSense_1_IsAnyWidgetActive(void)
1341:Generated_Source\PSoC4/CapSense_1_Structure.c **** {
 475              		.loc 1 1341 0
 476              		.cfi_startproc
 477              		@ args = 0, pretend = 0, frame = 0
 478              		@ frame_needed = 0, uses_anonymous_args = 0
 479              		@ link register save eliminated.
 480              	.LVL50:
1342:Generated_Source\PSoC4/CapSense_1_Structure.c ****     uint32 result = 0Lu;
1343:Generated_Source\PSoC4/CapSense_1_Structure.c ****     uint32 wdWord;
1344:Generated_Source\PSoC4/CapSense_1_Structure.c **** 
1345:Generated_Source\PSoC4/CapSense_1_Structure.c ****     for (wdWord = CapSense_1_WDGT_STATUS_WORDS; wdWord-- > 0u;)
 481              		.loc 1 1345 0
 482 0000 0123     		movs	r3, #1
1342:Generated_Source\PSoC4/CapSense_1_Structure.c ****     uint32 result = 0Lu;
 483              		.loc 1 1342 0
 484 0002 0020     		movs	r0, #0
 485              		.loc 1 1345 0
 486 0004 06E0     		b	.L42
 487              	.LVL51:
 488              	.L43:
1346:Generated_Source\PSoC4/CapSense_1_Structure.c ****     {
1347:Generated_Source\PSoC4/CapSense_1_Structure.c ****         result |= CapSense_1_dsRam.wdgtStatus[wdWord];
 489              		.loc 1 1347 0
 490 0006 131D     		adds	r3, r2, #4
 491 0008 9B00     		lsls	r3, r3, #2
 492 000a 0449     		ldr	r1, .L44
 493 000c CB18     		adds	r3, r1, r3
 494 000e 5B68     		ldr	r3, [r3, #4]
 495 0010 1843     		orrs	r0, r3
 496              	.LVL52:
1345:Generated_Source\PSoC4/CapSense_1_Structure.c ****     {
 497              		.loc 1 1345 0
 498 0012 1300     		movs	r3, r2
 499              	.LVL53:
 500              	.L42:
1345:Generated_Source\PSoC4/CapSense_1_Structure.c ****     {
 501              		.loc 1 1345 0 is_stmt 0 discriminator 1
 502 0014 5A1E     		subs	r2, r3, #1
 503              	.LVL54:
ARM GAS  C:\Users\exp32\AppData\Local\Temp\cc6N2LT5.s 			page 34


 504 0016 002B     		cmp	r3, #0
 505 0018 F5D1     		bne	.L43
1348:Generated_Source\PSoC4/CapSense_1_Structure.c ****     }
1349:Generated_Source\PSoC4/CapSense_1_Structure.c **** 
1350:Generated_Source\PSoC4/CapSense_1_Structure.c ****     return result;
1351:Generated_Source\PSoC4/CapSense_1_Structure.c **** }
 506              		.loc 1 1351 0 is_stmt 1
 507              		@ sp needed
 508 001a 7047     		bx	lr
 509              	.L45:
 510              		.align	2
 511              	.L44:
 512 001c 00000000 		.word	CapSense_1_dsRam
 513              		.cfi_endproc
 514              	.LFE5:
 515              		.size	CapSense_1_IsAnyWidgetActive, .-CapSense_1_IsAnyWidgetActive
 516              		.section	.text.CapSense_1_IsWidgetActive,"ax",%progbits
 517              		.align	2
 518              		.global	CapSense_1_IsWidgetActive
 519              		.code	16
 520              		.thumb_func
 521              		.type	CapSense_1_IsWidgetActive, %function
 522              	CapSense_1_IsWidgetActive:
 523              	.LFB6:
1352:Generated_Source\PSoC4/CapSense_1_Structure.c **** 
1353:Generated_Source\PSoC4/CapSense_1_Structure.c **** 
1354:Generated_Source\PSoC4/CapSense_1_Structure.c **** /*******************************************************************************
1355:Generated_Source\PSoC4/CapSense_1_Structure.c **** * Function Name: CapSense_1_IsWidgetActive
1356:Generated_Source\PSoC4/CapSense_1_Structure.c **** ****************************************************************************//**
1357:Generated_Source\PSoC4/CapSense_1_Structure.c **** *
1358:Generated_Source\PSoC4/CapSense_1_Structure.c **** * \brief
1359:Generated_Source\PSoC4/CapSense_1_Structure.c **** *  Reports if the specified widget detects a touch on any of its sensors.
1360:Generated_Source\PSoC4/CapSense_1_Structure.c **** *
1361:Generated_Source\PSoC4/CapSense_1_Structure.c **** * \details
1362:Generated_Source\PSoC4/CapSense_1_Structure.c **** *  This function reports if the specified widget has detected a touch or not by
1363:Generated_Source\PSoC4/CapSense_1_Structure.c **** *  extracting information from the wdgtStatus registers
1364:Generated_Source\PSoC4/CapSense_1_Structure.c **** *  (CapSense_1_WDGT_STATUS<X>_VALUE). This function does not process the
1365:Generated_Source\PSoC4/CapSense_1_Structure.c **** *  widget but extracts processed results from the \ref group_structures.
1366:Generated_Source\PSoC4/CapSense_1_Structure.c **** *
1367:Generated_Source\PSoC4/CapSense_1_Structure.c **** * \param widgetId
1368:Generated_Source\PSoC4/CapSense_1_Structure.c **** *  Specifies the ID number of the widget to get its status.
1369:Generated_Source\PSoC4/CapSense_1_Structure.c **** *  A macro for the widget ID can be found in the CapSense_1 Configuration header
1370:Generated_Source\PSoC4/CapSense_1_Structure.c **** *  file defined as CapSense_1_<WidgetName>_WDGT_ID.
1371:Generated_Source\PSoC4/CapSense_1_Structure.c **** *
1372:Generated_Source\PSoC4/CapSense_1_Structure.c **** * \return
1373:Generated_Source\PSoC4/CapSense_1_Structure.c **** *  Returns the touch detection status of the specified widgets:
1374:Generated_Source\PSoC4/CapSense_1_Structure.c **** *    - Zero - No touch is detected in the specified widget or a wrong widgetId
1375:Generated_Source\PSoC4/CapSense_1_Structure.c **** *      is specified.
1376:Generated_Source\PSoC4/CapSense_1_Structure.c **** *    - Non-zero if at least one sensor of the specified widget is active, i.e.
1377:Generated_Source\PSoC4/CapSense_1_Structure.c **** *      a touch is detected.
1378:Generated_Source\PSoC4/CapSense_1_Structure.c **** *
1379:Generated_Source\PSoC4/CapSense_1_Structure.c **** *******************************************************************************/
1380:Generated_Source\PSoC4/CapSense_1_Structure.c **** uint32 CapSense_1_IsWidgetActive(uint32 widgetId)
1381:Generated_Source\PSoC4/CapSense_1_Structure.c **** {
 524              		.loc 1 1381 0
 525              		.cfi_startproc
 526              		@ args = 0, pretend = 0, frame = 0
ARM GAS  C:\Users\exp32\AppData\Local\Temp\cc6N2LT5.s 			page 35


 527              		@ frame_needed = 0, uses_anonymous_args = 0
 528              		@ link register save eliminated.
 529              	.LVL55:
1382:Generated_Source\PSoC4/CapSense_1_Structure.c ****     uint32 result = 0Lu;
1383:Generated_Source\PSoC4/CapSense_1_Structure.c **** 
1384:Generated_Source\PSoC4/CapSense_1_Structure.c ****     if (widgetId < CapSense_1_TOTAL_WIDGETS)
 530              		.loc 1 1384 0
 531 0000 0628     		cmp	r0, #6
 532 0002 0BD8     		bhi	.L48
1385:Generated_Source\PSoC4/CapSense_1_Structure.c ****     {
1386:Generated_Source\PSoC4/CapSense_1_Structure.c ****         result = CapSense_1_GET_WIDGET_ACTIVE_STATUS(widgetId);
 533              		.loc 1 1386 0
 534 0004 1F23     		movs	r3, #31
 535 0006 0340     		ands	r3, r0
 536 0008 0122     		movs	r2, #1
 537 000a 9A40     		lsls	r2, r2, r3
 538 000c 4009     		lsrs	r0, r0, #5
 539              	.LVL56:
 540 000e 031D     		adds	r3, r0, #4
 541 0010 9B00     		lsls	r3, r3, #2
 542 0012 0348     		ldr	r0, .L49
 543 0014 C318     		adds	r3, r0, r3
 544 0016 5868     		ldr	r0, [r3, #4]
 545 0018 1040     		ands	r0, r2
 546              	.LVL57:
 547 001a 00E0     		b	.L47
 548              	.LVL58:
 549              	.L48:
1382:Generated_Source\PSoC4/CapSense_1_Structure.c ****     uint32 result = 0Lu;
 550              		.loc 1 1382 0
 551 001c 0020     		movs	r0, #0
 552              	.LVL59:
 553              	.L47:
1387:Generated_Source\PSoC4/CapSense_1_Structure.c ****     }
1388:Generated_Source\PSoC4/CapSense_1_Structure.c ****     return result;
1389:Generated_Source\PSoC4/CapSense_1_Structure.c **** }
 554              		.loc 1 1389 0
 555              		@ sp needed
 556 001e 7047     		bx	lr
 557              	.L50:
 558              		.align	2
 559              	.L49:
 560 0020 00000000 		.word	CapSense_1_dsRam
 561              		.cfi_endproc
 562              	.LFE6:
 563              		.size	CapSense_1_IsWidgetActive, .-CapSense_1_IsWidgetActive
 564              		.section	.text.CapSense_1_IsSensorActive,"ax",%progbits
 565              		.align	2
 566              		.global	CapSense_1_IsSensorActive
 567              		.code	16
 568              		.thumb_func
 569              		.type	CapSense_1_IsSensorActive, %function
 570              	CapSense_1_IsSensorActive:
 571              	.LFB7:
1390:Generated_Source\PSoC4/CapSense_1_Structure.c **** 
1391:Generated_Source\PSoC4/CapSense_1_Structure.c **** 
1392:Generated_Source\PSoC4/CapSense_1_Structure.c **** /*******************************************************************************
ARM GAS  C:\Users\exp32\AppData\Local\Temp\cc6N2LT5.s 			page 36


1393:Generated_Source\PSoC4/CapSense_1_Structure.c **** * Function Name: CapSense_1_IsSensorActive
1394:Generated_Source\PSoC4/CapSense_1_Structure.c **** ****************************************************************************//**
1395:Generated_Source\PSoC4/CapSense_1_Structure.c **** *
1396:Generated_Source\PSoC4/CapSense_1_Structure.c **** * \brief
1397:Generated_Source\PSoC4/CapSense_1_Structure.c **** *  Reports if the specified sensor in the widget detects a touch.
1398:Generated_Source\PSoC4/CapSense_1_Structure.c **** *
1399:Generated_Source\PSoC4/CapSense_1_Structure.c **** * \details
1400:Generated_Source\PSoC4/CapSense_1_Structure.c **** *  This function reports if the specified sensor in the widget has detected a
1401:Generated_Source\PSoC4/CapSense_1_Structure.c **** *  touch or not by extracting information from the wdgtStatus registers
1402:Generated_Source\PSoC4/CapSense_1_Structure.c **** *  (CapSense_1_WDGT_STATUS<X>_VALUE). This function does not process the
1403:Generated_Source\PSoC4/CapSense_1_Structure.c **** *  widget or sensor but extracts processed results from the \ref group_structures.
1404:Generated_Source\PSoC4/CapSense_1_Structure.c **** *
1405:Generated_Source\PSoC4/CapSense_1_Structure.c **** *  For proximity sensors, this function returns the proximity detection status. To
1406:Generated_Source\PSoC4/CapSense_1_Structure.c **** *  get the finger touch status of proximity sensors, use the
1407:Generated_Source\PSoC4/CapSense_1_Structure.c **** *  CapSense_1_IsProximitySensorActive() function.
1408:Generated_Source\PSoC4/CapSense_1_Structure.c **** *
1409:Generated_Source\PSoC4/CapSense_1_Structure.c **** * \param widgetId
1410:Generated_Source\PSoC4/CapSense_1_Structure.c **** *  Specifies the ID number of the widget.
1411:Generated_Source\PSoC4/CapSense_1_Structure.c **** *  A macro for the widget ID can be found in the CapSense_1 Configuration header
1412:Generated_Source\PSoC4/CapSense_1_Structure.c **** *  file defined as CapSense_1_<WidgetName>_WDGT_ID.
1413:Generated_Source\PSoC4/CapSense_1_Structure.c **** 
1414:Generated_Source\PSoC4/CapSense_1_Structure.c **** * \param sensorId
1415:Generated_Source\PSoC4/CapSense_1_Structure.c **** *  Specifies the ID number of the sensor within the widget to get its touch
1416:Generated_Source\PSoC4/CapSense_1_Structure.c **** *  detection status.
1417:Generated_Source\PSoC4/CapSense_1_Structure.c **** *  A macro for the sensor ID within the specified widget can be found in the
1418:Generated_Source\PSoC4/CapSense_1_Structure.c **** *  CapSense_1 Configuration header file defined as
1419:Generated_Source\PSoC4/CapSense_1_Structure.c **** *  CapSense_1_<WidgetName>_SNS<SensorNumber>_ID.
1420:Generated_Source\PSoC4/CapSense_1_Structure.c **** *
1421:Generated_Source\PSoC4/CapSense_1_Structure.c **** * \return
1422:Generated_Source\PSoC4/CapSense_1_Structure.c **** *  Returns the touch detection status of the specified sensor / widget:
1423:Generated_Source\PSoC4/CapSense_1_Structure.c **** *    - Zero if no touch is detected in the specified sensor / widget or a wrong
1424:Generated_Source\PSoC4/CapSense_1_Structure.c **** *      widget ID / sensor ID is specified.
1425:Generated_Source\PSoC4/CapSense_1_Structure.c **** *    - Non-zero if the specified sensor is active i.e. touch is detected. If the
1426:Generated_Source\PSoC4/CapSense_1_Structure.c **** *      specific sensor belongs to a proximity widget, the proximity detection
1427:Generated_Source\PSoC4/CapSense_1_Structure.c **** *      status is returned.
1428:Generated_Source\PSoC4/CapSense_1_Structure.c **** *
1429:Generated_Source\PSoC4/CapSense_1_Structure.c **** *******************************************************************************/
1430:Generated_Source\PSoC4/CapSense_1_Structure.c **** uint32 CapSense_1_IsSensorActive(uint32 widgetId, uint32 sensorId)
1431:Generated_Source\PSoC4/CapSense_1_Structure.c **** {
 572              		.loc 1 1431 0
 573              		.cfi_startproc
 574              		@ args = 0, pretend = 0, frame = 0
 575              		@ frame_needed = 0, uses_anonymous_args = 0
 576              		@ link register save eliminated.
 577              	.LVL60:
1432:Generated_Source\PSoC4/CapSense_1_Structure.c ****     uint32 result = 0Lu;
1433:Generated_Source\PSoC4/CapSense_1_Structure.c **** 
1434:Generated_Source\PSoC4/CapSense_1_Structure.c ****     if ((widgetId < CapSense_1_TOTAL_WIDGETS) &&
 578              		.loc 1 1434 0
 579 0000 0628     		cmp	r0, #6
 580 0002 0ED8     		bhi	.L53
1435:Generated_Source\PSoC4/CapSense_1_Structure.c ****         (sensorId < CapSense_1_GET_SENSOR_COUNT(widgetId)))
 581              		.loc 1 1435 0 discriminator 1
 582 0004 3423     		movs	r3, #52
 583 0006 4343     		muls	r3, r0
 584 0008 084A     		ldr	r2, .L55
 585 000a D318     		adds	r3, r2, r3
ARM GAS  C:\Users\exp32\AppData\Local\Temp\cc6N2LT5.s 			page 37


 586 000c 9B8D     		ldrh	r3, [r3, #44]
1434:Generated_Source\PSoC4/CapSense_1_Structure.c ****         (sensorId < CapSense_1_GET_SENSOR_COUNT(widgetId)))
 587              		.loc 1 1434 0 discriminator 1
 588 000e 8B42     		cmp	r3, r1
 589 0010 09D9     		bls	.L54
1436:Generated_Source\PSoC4/CapSense_1_Structure.c ****     {
1437:Generated_Source\PSoC4/CapSense_1_Structure.c ****         #if (CapSense_1_ENABLE == CapSense_1_PROXIMITY_WIDGET_EN)
1438:Generated_Source\PSoC4/CapSense_1_Structure.c ****             if (CapSense_1_WD_PROXIMITY_E ==
1439:Generated_Source\PSoC4/CapSense_1_Structure.c ****                 (CapSense_1_WD_TYPE_ENUM)CapSense_1_dsFlash.wdgtArray[widgetId].wdgtType)
1440:Generated_Source\PSoC4/CapSense_1_Structure.c ****             {
1441:Generated_Source\PSoC4/CapSense_1_Structure.c ****                 sensorId = CapSense_1_PROX_STS_OFFSET(sensorId);
1442:Generated_Source\PSoC4/CapSense_1_Structure.c ****             }
1443:Generated_Source\PSoC4/CapSense_1_Structure.c ****         #endif /* (CapSense_1_ENABLE != CapSense_1_PROXIMITY_WIDGET_EN) */
1444:Generated_Source\PSoC4/CapSense_1_Structure.c ****         result = CapSense_1_dsRam.snsStatus[widgetId] & (1Lu << sensorId);
 590              		.loc 1 1444 0
 591 0012 0C30     		adds	r0, r0, #12
 592              	.LVL61:
 593 0014 4000     		lsls	r0, r0, #1
 594              	.LVL62:
 595 0016 064B     		ldr	r3, .L55+4
 596 0018 C35A     		ldrh	r3, [r0, r3]
 597 001a 0120     		movs	r0, #1
 598 001c 8840     		lsls	r0, r0, r1
 599 001e 1840     		ands	r0, r3
 600              	.LVL63:
 601 0020 02E0     		b	.L52
 602              	.LVL64:
 603              	.L53:
1432:Generated_Source\PSoC4/CapSense_1_Structure.c **** 
 604              		.loc 1 1432 0
 605 0022 0020     		movs	r0, #0
 606              	.LVL65:
 607 0024 00E0     		b	.L52
 608              	.LVL66:
 609              	.L54:
 610 0026 0020     		movs	r0, #0
 611              	.LVL67:
 612              	.L52:
1445:Generated_Source\PSoC4/CapSense_1_Structure.c ****     }
1446:Generated_Source\PSoC4/CapSense_1_Structure.c **** 
1447:Generated_Source\PSoC4/CapSense_1_Structure.c ****     return result;
1448:Generated_Source\PSoC4/CapSense_1_Structure.c **** }
 613              		.loc 1 1448 0
 614              		@ sp needed
 615 0028 7047     		bx	lr
 616              	.L56:
 617 002a C046     		.align	2
 618              	.L55:
 619 002c 00000000 		.word	.LANCHOR0
 620 0030 00000000 		.word	CapSense_1_dsRam
 621              		.cfi_endproc
 622              	.LFE7:
 623              		.size	CapSense_1_IsSensorActive, .-CapSense_1_IsSensorActive
 624              		.section	.text.CapSense_1_GetXYCoordinates,"ax",%progbits
 625              		.align	2
 626              		.global	CapSense_1_GetXYCoordinates
 627              		.code	16
ARM GAS  C:\Users\exp32\AppData\Local\Temp\cc6N2LT5.s 			page 38


 628              		.thumb_func
 629              		.type	CapSense_1_GetXYCoordinates, %function
 630              	CapSense_1_GetXYCoordinates:
 631              	.LFB8:
1449:Generated_Source\PSoC4/CapSense_1_Structure.c **** 
1450:Generated_Source\PSoC4/CapSense_1_Structure.c **** #if (0u != CapSense_1_MATRIX_WIDGET_EN)
1451:Generated_Source\PSoC4/CapSense_1_Structure.c **** /*******************************************************************************
1452:Generated_Source\PSoC4/CapSense_1_Structure.c **** * Function Name: CapSense_1_IsMatrixButtonsActive
1453:Generated_Source\PSoC4/CapSense_1_Structure.c **** ****************************************************************************//**
1454:Generated_Source\PSoC4/CapSense_1_Structure.c **** *
1455:Generated_Source\PSoC4/CapSense_1_Structure.c **** * \brief
1456:Generated_Source\PSoC4/CapSense_1_Structure.c **** *  Reports the status of the specified matrix button widget.
1457:Generated_Source\PSoC4/CapSense_1_Structure.c **** *
1458:Generated_Source\PSoC4/CapSense_1_Structure.c **** * \details
1459:Generated_Source\PSoC4/CapSense_1_Structure.c **** *  This function reports if the specified matrix widget has detected a touch or
1460:Generated_Source\PSoC4/CapSense_1_Structure.c **** *  not by extracting information from the wdgtStatus registers
1461:Generated_Source\PSoC4/CapSense_1_Structure.c **** *  (CapSense_1_WDGT_STATUS<X>_VALUE for the CSD widgets and
1462:Generated_Source\PSoC4/CapSense_1_Structure.c **** *  CapSense_1_SNS_STATUS<WidgetId>_VALUE for CSX widget). In addition, the
1463:Generated_Source\PSoC4/CapSense_1_Structure.c **** *  function provides details of the active sensor including active rows/columns
1464:Generated_Source\PSoC4/CapSense_1_Structure.c **** *  for the CSD widgets. This function is used only with the matrix button
1465:Generated_Source\PSoC4/CapSense_1_Structure.c **** *  widgets. This function does not process the widget but extracts
1466:Generated_Source\PSoC4/CapSense_1_Structure.c **** *  processed results from the \ref group_structures.
1467:Generated_Source\PSoC4/CapSense_1_Structure.c **** *
1468:Generated_Source\PSoC4/CapSense_1_Structure.c **** * \param widgetId
1469:Generated_Source\PSoC4/CapSense_1_Structure.c **** *  Specifies the ID number of the matrix button widget to check the status of its
1470:Generated_Source\PSoC4/CapSense_1_Structure.c **** *  sensors.
1471:Generated_Source\PSoC4/CapSense_1_Structure.c **** *  A macro for the widget ID can be found in the CapSense_1 Configuration header file
1472:Generated_Source\PSoC4/CapSense_1_Structure.c **** *  defined as CapSense_1_<WidgetName>_WDGT_ID
1473:Generated_Source\PSoC4/CapSense_1_Structure.c **** *
1474:Generated_Source\PSoC4/CapSense_1_Structure.c **** * \return
1475:Generated_Source\PSoC4/CapSense_1_Structure.c **** *  Returns the touch detection status of the sensors in the specified matrix
1476:Generated_Source\PSoC4/CapSense_1_Structure.c **** *  buttons widget. Zero indicates that no touch is detected in the specified
1477:Generated_Source\PSoC4/CapSense_1_Structure.c **** *  widget or a wrong widgetId is specified.
1478:Generated_Source\PSoC4/CapSense_1_Structure.c **** *    1. For the matrix buttons widgets with the CSD sensing mode:
1479:Generated_Source\PSoC4/CapSense_1_Structure.c **** *      - Bit [31] if set, indicates that one or more sensors in the widget
1480:Generated_Source\PSoC4/CapSense_1_Structure.c **** *        detected a touch.
1481:Generated_Source\PSoC4/CapSense_1_Structure.c **** *      - Bits [30..24] are reserved
1482:Generated_Source\PSoC4/CapSense_1_Structure.c **** *      - Bits [23..16] indicate the logical sensor number of the sensor that
1483:Generated_Source\PSoC4/CapSense_1_Structure.c **** *        detected a touch. If more than one sensor detected a touch for the CSD
1484:Generated_Source\PSoC4/CapSense_1_Structure.c **** *        widget, no status is reported because more than one touch is invalid for the
1485:Generated_Source\PSoC4/CapSense_1_Structure.c **** *        CSD matrix buttons widgets.
1486:Generated_Source\PSoC4/CapSense_1_Structure.c **** *      - Bits [15..8] indicate the active row number.
1487:Generated_Source\PSoC4/CapSense_1_Structure.c **** *      - Bits [7..0] indicate the active column number.
1488:Generated_Source\PSoC4/CapSense_1_Structure.c **** *    2. For the matrix buttons widgets with the CSX widgets, each bit (31..0)
1489:Generated_Source\PSoC4/CapSense_1_Structure.c **** *      corresponds to the TX/RX intersection.
1490:Generated_Source\PSoC4/CapSense_1_Structure.c **** *
1491:Generated_Source\PSoC4/CapSense_1_Structure.c **** *******************************************************************************/
1492:Generated_Source\PSoC4/CapSense_1_Structure.c **** uint32 CapSense_1_IsMatrixButtonsActive(uint32 widgetId)
1493:Generated_Source\PSoC4/CapSense_1_Structure.c **** {
1494:Generated_Source\PSoC4/CapSense_1_Structure.c ****     uint32 result = 0Lu;
1495:Generated_Source\PSoC4/CapSense_1_Structure.c ****     cystatus state = CYRET_SUCCESS;
1496:Generated_Source\PSoC4/CapSense_1_Structure.c ****     CapSense_1_FLASH_WD_STRUCT const *ptrFlashWdgt = 0u;
1497:Generated_Source\PSoC4/CapSense_1_Structure.c **** 
1498:Generated_Source\PSoC4/CapSense_1_Structure.c ****     #if (0u != CapSense_1_CSD_MATRIX_WIDGET_EN)
1499:Generated_Source\PSoC4/CapSense_1_Structure.c ****         CapSense_1_RAM_WD_CSD_MATRIX_STRUCT *wdCsdMatrix;
1500:Generated_Source\PSoC4/CapSense_1_Structure.c ****     #endif
1501:Generated_Source\PSoC4/CapSense_1_Structure.c **** 
ARM GAS  C:\Users\exp32\AppData\Local\Temp\cc6N2LT5.s 			page 39


1502:Generated_Source\PSoC4/CapSense_1_Structure.c ****     if (widgetId >= CapSense_1_TOTAL_WIDGETS)
1503:Generated_Source\PSoC4/CapSense_1_Structure.c ****     {
1504:Generated_Source\PSoC4/CapSense_1_Structure.c ****         state = CYRET_BAD_PARAM;
1505:Generated_Source\PSoC4/CapSense_1_Structure.c ****     }
1506:Generated_Source\PSoC4/CapSense_1_Structure.c ****     else
1507:Generated_Source\PSoC4/CapSense_1_Structure.c ****     {
1508:Generated_Source\PSoC4/CapSense_1_Structure.c ****         ptrFlashWdgt = &CapSense_1_dsFlash.wdgtArray[widgetId];
1509:Generated_Source\PSoC4/CapSense_1_Structure.c **** 
1510:Generated_Source\PSoC4/CapSense_1_Structure.c ****         if ((CapSense_1_WD_TYPE_ENUM)ptrFlashWdgt->wdgtType != CapSense_1_WD_MATRIX_BUTTON_E)
1511:Generated_Source\PSoC4/CapSense_1_Structure.c ****         {
1512:Generated_Source\PSoC4/CapSense_1_Structure.c ****             state = CYRET_BAD_PARAM;
1513:Generated_Source\PSoC4/CapSense_1_Structure.c ****         }
1514:Generated_Source\PSoC4/CapSense_1_Structure.c ****         else if (0u == CapSense_1_GET_WIDGET_ACTIVE_STATUS(widgetId))
1515:Generated_Source\PSoC4/CapSense_1_Structure.c ****         {
1516:Generated_Source\PSoC4/CapSense_1_Structure.c ****             state = CYRET_BAD_PARAM;
1517:Generated_Source\PSoC4/CapSense_1_Structure.c ****         }
1518:Generated_Source\PSoC4/CapSense_1_Structure.c ****         else
1519:Generated_Source\PSoC4/CapSense_1_Structure.c ****         {
1520:Generated_Source\PSoC4/CapSense_1_Structure.c ****             /* input parameters are OK */
1521:Generated_Source\PSoC4/CapSense_1_Structure.c ****         }
1522:Generated_Source\PSoC4/CapSense_1_Structure.c ****     }
1523:Generated_Source\PSoC4/CapSense_1_Structure.c **** 
1524:Generated_Source\PSoC4/CapSense_1_Structure.c ****     if (CYRET_SUCCESS == state)
1525:Generated_Source\PSoC4/CapSense_1_Structure.c ****     {
1526:Generated_Source\PSoC4/CapSense_1_Structure.c ****         switch(CapSense_1_GET_SENSE_METHOD(ptrFlashWdgt))
1527:Generated_Source\PSoC4/CapSense_1_Structure.c ****         {
1528:Generated_Source\PSoC4/CapSense_1_Structure.c ****         #if (0u != CapSense_1_CSD_MATRIX_WIDGET_EN)
1529:Generated_Source\PSoC4/CapSense_1_Structure.c ****             case CapSense_1_SENSE_METHOD_CSD_E:
1530:Generated_Source\PSoC4/CapSense_1_Structure.c ****                 wdCsdMatrix = ptrFlashWdgt->ptr2WdgtRam;
1531:Generated_Source\PSoC4/CapSense_1_Structure.c **** 
1532:Generated_Source\PSoC4/CapSense_1_Structure.c ****                 result = CapSense_1_MATRIX_BUTTONS_TOUCHED |
1533:Generated_Source\PSoC4/CapSense_1_Structure.c ****                          ((uint32)wdCsdMatrix->posSnsId << 16u)  |
1534:Generated_Source\PSoC4/CapSense_1_Structure.c ****                          ((uint32)wdCsdMatrix->posRow   << 8u)   |
1535:Generated_Source\PSoC4/CapSense_1_Structure.c ****                          (uint32)wdCsdMatrix->posCol;
1536:Generated_Source\PSoC4/CapSense_1_Structure.c ****                 break;
1537:Generated_Source\PSoC4/CapSense_1_Structure.c ****         #endif /* #if (0u != CapSense_1_CSD_MATRIX_WIDGET_EN) */
1538:Generated_Source\PSoC4/CapSense_1_Structure.c **** 
1539:Generated_Source\PSoC4/CapSense_1_Structure.c ****         #if (0u != CapSense_1_CSX_MATRIX_WIDGET_EN)
1540:Generated_Source\PSoC4/CapSense_1_Structure.c ****             case CapSense_1_SENSE_METHOD_CSX_E:
1541:Generated_Source\PSoC4/CapSense_1_Structure.c ****                 result = CapSense_1_dsRam.snsStatus[widgetId];
1542:Generated_Source\PSoC4/CapSense_1_Structure.c ****                 break;
1543:Generated_Source\PSoC4/CapSense_1_Structure.c ****         #endif /* #if (0u != CapSense_1_CSX_MATRIX_WIDGET_EN) */
1544:Generated_Source\PSoC4/CapSense_1_Structure.c **** 
1545:Generated_Source\PSoC4/CapSense_1_Structure.c ****         default:
1546:Generated_Source\PSoC4/CapSense_1_Structure.c ****             CYASSERT(0u);
1547:Generated_Source\PSoC4/CapSense_1_Structure.c ****             break;
1548:Generated_Source\PSoC4/CapSense_1_Structure.c ****         }
1549:Generated_Source\PSoC4/CapSense_1_Structure.c ****     }
1550:Generated_Source\PSoC4/CapSense_1_Structure.c **** 
1551:Generated_Source\PSoC4/CapSense_1_Structure.c ****     return result;
1552:Generated_Source\PSoC4/CapSense_1_Structure.c **** }
1553:Generated_Source\PSoC4/CapSense_1_Structure.c **** #endif /* #if (0u != CapSense_1_MATRIX_WIDGET_EN) */
1554:Generated_Source\PSoC4/CapSense_1_Structure.c **** 
1555:Generated_Source\PSoC4/CapSense_1_Structure.c **** #if (0u != CapSense_1_PROXIMITY_WIDGET_EN)
1556:Generated_Source\PSoC4/CapSense_1_Structure.c **** /*******************************************************************************
1557:Generated_Source\PSoC4/CapSense_1_Structure.c **** * Function Name: CapSense_1_IsProximitySensorActive
1558:Generated_Source\PSoC4/CapSense_1_Structure.c **** ****************************************************************************//**
ARM GAS  C:\Users\exp32\AppData\Local\Temp\cc6N2LT5.s 			page 40


1559:Generated_Source\PSoC4/CapSense_1_Structure.c **** *
1560:Generated_Source\PSoC4/CapSense_1_Structure.c **** * \brief
1561:Generated_Source\PSoC4/CapSense_1_Structure.c **** *  Reports the finger detection status of the specified proximity widget/sensor.
1562:Generated_Source\PSoC4/CapSense_1_Structure.c **** *
1563:Generated_Source\PSoC4/CapSense_1_Structure.c **** * \details
1564:Generated_Source\PSoC4/CapSense_1_Structure.c **** *  This function reports if the specified proximity sensor has detected a touch
1565:Generated_Source\PSoC4/CapSense_1_Structure.c **** *  or not by extracting information from the wdgtStatus registers
1566:Generated_Source\PSoC4/CapSense_1_Structure.c **** *  (CapSense_1_SNS_STATUS<WidgetId>_VALUE). This function is used
1567:Generated_Source\PSoC4/CapSense_1_Structure.c **** *  only with proximity sensor widgets. This function does not process the
1568:Generated_Source\PSoC4/CapSense_1_Structure.c **** *  widget but extracts processed results from the \ref group_structures.
1569:Generated_Source\PSoC4/CapSense_1_Structure.c **** *
1570:Generated_Source\PSoC4/CapSense_1_Structure.c **** * \param widgetId
1571:Generated_Source\PSoC4/CapSense_1_Structure.c **** *  Specifies the ID number of the proximity widget.
1572:Generated_Source\PSoC4/CapSense_1_Structure.c **** *  A macro for the widget ID can be found in the CapSense_1 Configuration header
1573:Generated_Source\PSoC4/CapSense_1_Structure.c **** *  file defined as CapSense_1_<WidgetName>_WDGT_ID
1574:Generated_Source\PSoC4/CapSense_1_Structure.c **** *
1575:Generated_Source\PSoC4/CapSense_1_Structure.c **** * \param proxId
1576:Generated_Source\PSoC4/CapSense_1_Structure.c **** *  Specifies the ID number of the proximity sensor within the proximity widget to
1577:Generated_Source\PSoC4/CapSense_1_Structure.c **** *  get its touch detection status.
1578:Generated_Source\PSoC4/CapSense_1_Structure.c **** *  A macro for the proximity ID within a specified widget can be found in the
1579:Generated_Source\PSoC4/CapSense_1_Structure.c **** *  CapSense_1 Configuration header file defined as
1580:Generated_Source\PSoC4/CapSense_1_Structure.c **** *  CapSense_1_<WidgetName>_SNS<SensorNumber>_ID
1581:Generated_Source\PSoC4/CapSense_1_Structure.c **** *
1582:Generated_Source\PSoC4/CapSense_1_Structure.c **** * \return
1583:Generated_Source\PSoC4/CapSense_1_Structure.c **** *  Returns the status of the specified sensor of the proximity widget. Zero
1584:Generated_Source\PSoC4/CapSense_1_Structure.c **** *  indicates that no touch is detected in the specified sensor / widget or a
1585:Generated_Source\PSoC4/CapSense_1_Structure.c **** *  wrong widgetId / proxId is specified.
1586:Generated_Source\PSoC4/CapSense_1_Structure.c **** *    - Bits [31..2] are reserved.
1587:Generated_Source\PSoC4/CapSense_1_Structure.c **** *    - Bit [1] indicates that a touch is detected.
1588:Generated_Source\PSoC4/CapSense_1_Structure.c **** *    - Bit [0] indicates that a proximity is detected.
1589:Generated_Source\PSoC4/CapSense_1_Structure.c **** *
1590:Generated_Source\PSoC4/CapSense_1_Structure.c **** *******************************************************************************/
1591:Generated_Source\PSoC4/CapSense_1_Structure.c **** uint32 CapSense_1_IsProximitySensorActive(uint32 widgetId, uint32 proxId)
1592:Generated_Source\PSoC4/CapSense_1_Structure.c **** {
1593:Generated_Source\PSoC4/CapSense_1_Structure.c ****     uint32 result = 0Lu;
1594:Generated_Source\PSoC4/CapSense_1_Structure.c **** 
1595:Generated_Source\PSoC4/CapSense_1_Structure.c ****     if ((widgetId < CapSense_1_TOTAL_WIDGETS) && (proxId < CapSense_1_GET_SENSOR_COUNT(widgetId)) &
1596:Generated_Source\PSoC4/CapSense_1_Structure.c ****         (CapSense_1_WD_PROXIMITY_E ==
1597:Generated_Source\PSoC4/CapSense_1_Structure.c ****             (CapSense_1_WD_TYPE_ENUM)CapSense_1_dsFlash.wdgtArray[widgetId].wdgtType))
1598:Generated_Source\PSoC4/CapSense_1_Structure.c ****     {
1599:Generated_Source\PSoC4/CapSense_1_Structure.c ****         result = CapSense_1_dsRam.snsStatus[widgetId];
1600:Generated_Source\PSoC4/CapSense_1_Structure.c ****         result >>= CapSense_1_PROX_STS_OFFSET(proxId);
1601:Generated_Source\PSoC4/CapSense_1_Structure.c ****         result &=  CapSense_1_PROX_STS_MASK;
1602:Generated_Source\PSoC4/CapSense_1_Structure.c ****     }
1603:Generated_Source\PSoC4/CapSense_1_Structure.c **** 
1604:Generated_Source\PSoC4/CapSense_1_Structure.c ****     return result;
1605:Generated_Source\PSoC4/CapSense_1_Structure.c **** }
1606:Generated_Source\PSoC4/CapSense_1_Structure.c **** #endif /* #if (0u != CapSense_1_PROXIMITY_WIDGET_EN) */
1607:Generated_Source\PSoC4/CapSense_1_Structure.c **** 
1608:Generated_Source\PSoC4/CapSense_1_Structure.c **** 
1609:Generated_Source\PSoC4/CapSense_1_Structure.c **** #if (0u != CapSense_1_SLIDER_WIDGET_EN)
1610:Generated_Source\PSoC4/CapSense_1_Structure.c **** /*******************************************************************************
1611:Generated_Source\PSoC4/CapSense_1_Structure.c **** * Function Name: CapSense_1_GetCentroidPos
1612:Generated_Source\PSoC4/CapSense_1_Structure.c **** ****************************************************************************//**
1613:Generated_Source\PSoC4/CapSense_1_Structure.c **** *
1614:Generated_Source\PSoC4/CapSense_1_Structure.c **** * \brief
1615:Generated_Source\PSoC4/CapSense_1_Structure.c **** *  Reports the centroid position for the specified slider widget.
ARM GAS  C:\Users\exp32\AppData\Local\Temp\cc6N2LT5.s 			page 41


1616:Generated_Source\PSoC4/CapSense_1_Structure.c **** *
1617:Generated_Source\PSoC4/CapSense_1_Structure.c **** * \details
1618:Generated_Source\PSoC4/CapSense_1_Structure.c **** *  This function reports the centroid value of a specified radial or linear
1619:Generated_Source\PSoC4/CapSense_1_Structure.c **** *  slider widget by extracting information from the wdgtStatus registers
1620:Generated_Source\PSoC4/CapSense_1_Structure.c **** *  (CapSense_1_<WidgetName>_POSITION<X>_VALUE). This function is
1621:Generated_Source\PSoC4/CapSense_1_Structure.c **** *  used only with radial or linear slider widgets. This function does not
1622:Generated_Source\PSoC4/CapSense_1_Structure.c **** *  process the widget but extracts processed results from the \ref group_structures.
1623:Generated_Source\PSoC4/CapSense_1_Structure.c **** *
1624:Generated_Source\PSoC4/CapSense_1_Structure.c **** * \param widgetId
1625:Generated_Source\PSoC4/CapSense_1_Structure.c **** *  Specifies the ID number of a slider widget to get the centroid of the
1626:Generated_Source\PSoC4/CapSense_1_Structure.c **** *  detected touch.
1627:Generated_Source\PSoC4/CapSense_1_Structure.c **** *  A macro for the widget ID can be found in the
1628:Generated_Source\PSoC4/CapSense_1_Structure.c **** *  CapSense_1 Configuration header file defined as
1629:Generated_Source\PSoC4/CapSense_1_Structure.c **** *  CapSense_1_<WidgetName>_WDGT_ID
1630:Generated_Source\PSoC4/CapSense_1_Structure.c **** *
1631:Generated_Source\PSoC4/CapSense_1_Structure.c **** * \return
1632:Generated_Source\PSoC4/CapSense_1_Structure.c **** *  Returns the centroid position of a specified slider widget:
1633:Generated_Source\PSoC4/CapSense_1_Structure.c **** *    - The centroid position if a touch is detected.
1634:Generated_Source\PSoC4/CapSense_1_Structure.c **** *    - CapSense_1_SLIDER_NO_TOUCH - No touch is detected or a wrong
1635:Generated_Source\PSoC4/CapSense_1_Structure.c **** *      widgetId is specified.
1636:Generated_Source\PSoC4/CapSense_1_Structure.c **** *
1637:Generated_Source\PSoC4/CapSense_1_Structure.c **** *******************************************************************************/
1638:Generated_Source\PSoC4/CapSense_1_Structure.c **** uint32 CapSense_1_GetCentroidPos(uint32 widgetId)
1639:Generated_Source\PSoC4/CapSense_1_Structure.c **** {
1640:Generated_Source\PSoC4/CapSense_1_Structure.c ****     uint32 result = CapSense_1_SLIDER_NO_TOUCH;
1641:Generated_Source\PSoC4/CapSense_1_Structure.c ****     CapSense_1_RAM_WD_SLIDER_STRUCT *wdSlider;
1642:Generated_Source\PSoC4/CapSense_1_Structure.c **** 
1643:Generated_Source\PSoC4/CapSense_1_Structure.c ****     if ((widgetId < CapSense_1_TOTAL_WIDGETS) &&
1644:Generated_Source\PSoC4/CapSense_1_Structure.c ****         ((CapSense_1_WD_LINEAR_SLIDER_E ==
1645:Generated_Source\PSoC4/CapSense_1_Structure.c ****             (CapSense_1_WD_TYPE_ENUM)CapSense_1_dsFlash.wdgtArray[widgetId].wdgtType) ||
1646:Generated_Source\PSoC4/CapSense_1_Structure.c ****          (CapSense_1_WD_RADIAL_SLIDER_E ==
1647:Generated_Source\PSoC4/CapSense_1_Structure.c ****             (CapSense_1_WD_TYPE_ENUM)CapSense_1_dsFlash.wdgtArray[widgetId].wdgtType)))
1648:Generated_Source\PSoC4/CapSense_1_Structure.c ****     {
1649:Generated_Source\PSoC4/CapSense_1_Structure.c ****         wdSlider = CapSense_1_dsFlash.wdgtArray[widgetId].ptr2WdgtRam;
1650:Generated_Source\PSoC4/CapSense_1_Structure.c ****         result = (uint32)wdSlider->position[0u];
1651:Generated_Source\PSoC4/CapSense_1_Structure.c ****     }
1652:Generated_Source\PSoC4/CapSense_1_Structure.c **** 
1653:Generated_Source\PSoC4/CapSense_1_Structure.c ****     return result;
1654:Generated_Source\PSoC4/CapSense_1_Structure.c **** }
1655:Generated_Source\PSoC4/CapSense_1_Structure.c **** #endif /* #if (0u != CapSense_1_SLIDER_WIDGET_EN) */
1656:Generated_Source\PSoC4/CapSense_1_Structure.c **** 
1657:Generated_Source\PSoC4/CapSense_1_Structure.c **** 
1658:Generated_Source\PSoC4/CapSense_1_Structure.c **** #if (0u != CapSense_1_TOUCHPAD_WIDGET_EN)
1659:Generated_Source\PSoC4/CapSense_1_Structure.c **** /*******************************************************************************
1660:Generated_Source\PSoC4/CapSense_1_Structure.c **** * Function Name: CapSense_1_GetXYCoordinates
1661:Generated_Source\PSoC4/CapSense_1_Structure.c **** ****************************************************************************//**
1662:Generated_Source\PSoC4/CapSense_1_Structure.c **** *
1663:Generated_Source\PSoC4/CapSense_1_Structure.c **** * \brief
1664:Generated_Source\PSoC4/CapSense_1_Structure.c **** *  Reports the X/Y position detected for the specified touchpad widget.
1665:Generated_Source\PSoC4/CapSense_1_Structure.c **** *
1666:Generated_Source\PSoC4/CapSense_1_Structure.c **** * \details
1667:Generated_Source\PSoC4/CapSense_1_Structure.c **** *  This function reports a touch position (X and Y coordinates) value of a
1668:Generated_Source\PSoC4/CapSense_1_Structure.c **** *  specified touchpad widget by extracting information from the wdgtStatus
1669:Generated_Source\PSoC4/CapSense_1_Structure.c **** *  registers (CapSense_1_<WidgetName>_POS_Y_VALUE). This function should
1670:Generated_Source\PSoC4/CapSense_1_Structure.c **** *  be used only with the touchpad widgets. This function does not process the
1671:Generated_Source\PSoC4/CapSense_1_Structure.c **** *  widget but extracts processed results from the \ref group_structures.
1672:Generated_Source\PSoC4/CapSense_1_Structure.c **** *
ARM GAS  C:\Users\exp32\AppData\Local\Temp\cc6N2LT5.s 			page 42


1673:Generated_Source\PSoC4/CapSense_1_Structure.c **** * \param widgetId
1674:Generated_Source\PSoC4/CapSense_1_Structure.c **** *  Specifies the ID number of a touchpad widget to get the X/Y position of a
1675:Generated_Source\PSoC4/CapSense_1_Structure.c **** *  detected touch.
1676:Generated_Source\PSoC4/CapSense_1_Structure.c **** *  A macro for the widget ID can be found in the
1677:Generated_Source\PSoC4/CapSense_1_Structure.c **** *  CapSense_1 Configuration header file defined as
1678:Generated_Source\PSoC4/CapSense_1_Structure.c **** *  CapSense_1_<WidgetName>_WDGT_ID.
1679:Generated_Source\PSoC4/CapSense_1_Structure.c **** *
1680:Generated_Source\PSoC4/CapSense_1_Structure.c **** * \return
1681:Generated_Source\PSoC4/CapSense_1_Structure.c **** *  Returns the touch position of a specified touchpad widget:
1682:Generated_Source\PSoC4/CapSense_1_Structure.c **** *    1. If a touch is detected:
1683:Generated_Source\PSoC4/CapSense_1_Structure.c **** *      - Bits [31..16] indicate the Y coordinate.
1684:Generated_Source\PSoC4/CapSense_1_Structure.c **** *      - Bits [15..0] indicate the X coordinate.
1685:Generated_Source\PSoC4/CapSense_1_Structure.c **** *    2. If no touch is detected or a wrong widgetId is specified:
1686:Generated_Source\PSoC4/CapSense_1_Structure.c **** *      - CapSense_1_TOUCHPAD_NO_TOUCH.
1687:Generated_Source\PSoC4/CapSense_1_Structure.c **** *
1688:Generated_Source\PSoC4/CapSense_1_Structure.c **** *******************************************************************************/
1689:Generated_Source\PSoC4/CapSense_1_Structure.c **** uint32 CapSense_1_GetXYCoordinates(uint32 widgetId)
1690:Generated_Source\PSoC4/CapSense_1_Structure.c **** {
 632              		.loc 1 1690 0
 633              		.cfi_startproc
 634              		@ args = 0, pretend = 0, frame = 0
 635              		@ frame_needed = 0, uses_anonymous_args = 0
 636              		@ link register save eliminated.
 637              	.LVL68:
1691:Generated_Source\PSoC4/CapSense_1_Structure.c ****     CapSense_1_FLASH_WD_STRUCT const *ptrFlashWdgt = NULL;
1692:Generated_Source\PSoC4/CapSense_1_Structure.c **** 
1693:Generated_Source\PSoC4/CapSense_1_Structure.c ****     #if (0u != CapSense_1_CSD_TOUCHPAD_WIDGET_EN)
1694:Generated_Source\PSoC4/CapSense_1_Structure.c ****         CapSense_1_RAM_WD_CSD_TOUCHPAD_STRUCT *wdCsdTouchpad;
1695:Generated_Source\PSoC4/CapSense_1_Structure.c ****     #endif /* #if (0u != CapSense_1_CSD_TOUCHPAD_WIDGET_EN) */
1696:Generated_Source\PSoC4/CapSense_1_Structure.c **** 
1697:Generated_Source\PSoC4/CapSense_1_Structure.c ****     #if (0u != CapSense_1_CSX_TOUCHPAD_WIDGET_EN)
1698:Generated_Source\PSoC4/CapSense_1_Structure.c ****         CapSense_1_RAM_WD_CSX_TOUCHPAD_STRUCT *wdCsxTouchpad;
1699:Generated_Source\PSoC4/CapSense_1_Structure.c ****     #endif /* #if (0u != CapSense_1_CSX_TOUCHPAD_WIDGET_EN) */
1700:Generated_Source\PSoC4/CapSense_1_Structure.c **** 
1701:Generated_Source\PSoC4/CapSense_1_Structure.c ****     cystatus state = CYRET_SUCCESS;
1702:Generated_Source\PSoC4/CapSense_1_Structure.c ****     uint32 result = CapSense_1_TOUCHPAD_NO_TOUCH;
1703:Generated_Source\PSoC4/CapSense_1_Structure.c **** 
1704:Generated_Source\PSoC4/CapSense_1_Structure.c ****     if (widgetId >= CapSense_1_TOTAL_WIDGETS)
 638              		.loc 1 1704 0
 639 0000 0628     		cmp	r0, #6
 640 0002 0CD8     		bhi	.L60
1705:Generated_Source\PSoC4/CapSense_1_Structure.c ****     {
1706:Generated_Source\PSoC4/CapSense_1_Structure.c ****         state = CYRET_BAD_PARAM;
1707:Generated_Source\PSoC4/CapSense_1_Structure.c ****     }
1708:Generated_Source\PSoC4/CapSense_1_Structure.c ****     else
1709:Generated_Source\PSoC4/CapSense_1_Structure.c ****     {
1710:Generated_Source\PSoC4/CapSense_1_Structure.c ****         ptrFlashWdgt = &CapSense_1_dsFlash.wdgtArray[widgetId];
 641              		.loc 1 1710 0
 642 0004 0D49     		ldr	r1, .L63
 643 0006 0A00     		movs	r2, r1
 644 0008 1432     		adds	r2, r2, #20
 645 000a 3423     		movs	r3, #52
 646 000c 5843     		muls	r0, r3
 647              	.LVL69:
 648 000e 1318     		adds	r3, r2, r0
 649              	.LVL70:
1711:Generated_Source\PSoC4/CapSense_1_Structure.c **** 
ARM GAS  C:\Users\exp32\AppData\Local\Temp\cc6N2LT5.s 			page 43


1712:Generated_Source\PSoC4/CapSense_1_Structure.c ****         if ((CapSense_1_WD_TYPE_ENUM)ptrFlashWdgt->wdgtType != CapSense_1_WD_TOUCHPAD_E)
 650              		.loc 1 1712 0
 651 0010 0818     		adds	r0, r1, r0
 652 0012 2E30     		adds	r0, r0, #46
 653 0014 0278     		ldrb	r2, [r0]
 654 0016 052A     		cmp	r2, #5
 655 0018 04D1     		bne	.L61
1701:Generated_Source\PSoC4/CapSense_1_Structure.c ****     uint32 result = CapSense_1_TOUCHPAD_NO_TOUCH;
 656              		.loc 1 1701 0
 657 001a 0022     		movs	r2, #0
 658 001c 03E0     		b	.L58
 659              	.LVL71:
 660              	.L60:
1706:Generated_Source\PSoC4/CapSense_1_Structure.c ****     }
 661              		.loc 1 1706 0
 662 001e 0122     		movs	r2, #1
1691:Generated_Source\PSoC4/CapSense_1_Structure.c **** 
 663              		.loc 1 1691 0
 664 0020 0023     		movs	r3, #0
 665 0022 00E0     		b	.L58
 666              	.LVL72:
 667              	.L61:
1713:Generated_Source\PSoC4/CapSense_1_Structure.c ****         {
1714:Generated_Source\PSoC4/CapSense_1_Structure.c ****             state = CYRET_BAD_PARAM;
 668              		.loc 1 1714 0
 669 0024 0122     		movs	r2, #1
 670              	.LVL73:
 671              	.L58:
1715:Generated_Source\PSoC4/CapSense_1_Structure.c ****         }
1716:Generated_Source\PSoC4/CapSense_1_Structure.c ****     }
1717:Generated_Source\PSoC4/CapSense_1_Structure.c **** 
1718:Generated_Source\PSoC4/CapSense_1_Structure.c ****     if (CYRET_SUCCESS == state)
 672              		.loc 1 1718 0
 673 0026 002A     		cmp	r2, #0
 674 0028 05D1     		bne	.L62
1719:Generated_Source\PSoC4/CapSense_1_Structure.c ****     {
1720:Generated_Source\PSoC4/CapSense_1_Structure.c ****         switch(CapSense_1_GET_SENSE_METHOD(ptrFlashWdgt))
1721:Generated_Source\PSoC4/CapSense_1_Structure.c ****         {
1722:Generated_Source\PSoC4/CapSense_1_Structure.c ****         #if (0u != CapSense_1_CSD_TOUCHPAD_WIDGET_EN)
1723:Generated_Source\PSoC4/CapSense_1_Structure.c ****             case CapSense_1_SENSE_METHOD_CSD_E:
1724:Generated_Source\PSoC4/CapSense_1_Structure.c ****                 wdCsdTouchpad = ptrFlashWdgt->ptr2WdgtRam;
 675              		.loc 1 1724 0
 676 002a 5B68     		ldr	r3, [r3, #4]
 677              	.LVL74:
1725:Generated_Source\PSoC4/CapSense_1_Structure.c ****                 #if (CapSense_1_ENABLE == CapSense_1_CENTROID_5X5_CSD_EN)
1726:Generated_Source\PSoC4/CapSense_1_Structure.c ****                     #if (CapSense_1_ENABLE == CapSense_1_CENTROID_3X3_CSD_EN)
1727:Generated_Source\PSoC4/CapSense_1_Structure.c ****                         if (0 != (ptrFlashWdgt->staticConfig & CapSense_1_CENTROID_5X5_MASK))
1728:Generated_Source\PSoC4/CapSense_1_Structure.c ****                         {
1729:Generated_Source\PSoC4/CapSense_1_Structure.c ****                     #endif
1730:Generated_Source\PSoC4/CapSense_1_Structure.c ****                         result = ((uint32)wdCsdTouchpad->position.pos[0u].x) |
1731:Generated_Source\PSoC4/CapSense_1_Structure.c ****                                  ((uint32)wdCsdTouchpad->position.pos[0u].y << 16u);
1732:Generated_Source\PSoC4/CapSense_1_Structure.c ****                     #if (CapSense_1_ENABLE == CapSense_1_CENTROID_3X3_CSD_EN)
1733:Generated_Source\PSoC4/CapSense_1_Structure.c ****                         }
1734:Generated_Source\PSoC4/CapSense_1_Structure.c ****                     #endif
1735:Generated_Source\PSoC4/CapSense_1_Structure.c ****                 #endif
1736:Generated_Source\PSoC4/CapSense_1_Structure.c **** 
1737:Generated_Source\PSoC4/CapSense_1_Structure.c ****                 #if (CapSense_1_ENABLE == CapSense_1_CENTROID_3X3_CSD_EN)
ARM GAS  C:\Users\exp32\AppData\Local\Temp\cc6N2LT5.s 			page 44


1738:Generated_Source\PSoC4/CapSense_1_Structure.c ****                     #if (CapSense_1_ENABLE == CapSense_1_CENTROID_5X5_CSD_EN)
1739:Generated_Source\PSoC4/CapSense_1_Structure.c ****                         if (0 != (ptrFlashWdgt->staticConfig & CapSense_1_CENTROID_3X3_MASK))
1740:Generated_Source\PSoC4/CapSense_1_Structure.c ****                         {
1741:Generated_Source\PSoC4/CapSense_1_Structure.c ****                     #endif
1742:Generated_Source\PSoC4/CapSense_1_Structure.c ****                         result = ((uint32)wdCsdTouchpad->posX) |
 678              		.loc 1 1742 0
 679 002c DA8A     		ldrh	r2, [r3, #22]
 680              	.LVL75:
1743:Generated_Source\PSoC4/CapSense_1_Structure.c ****                                  ((uint32)wdCsdTouchpad->posY << 16u);
 681              		.loc 1 1743 0
 682 002e 188B     		ldrh	r0, [r3, #24]
 683 0030 0004     		lsls	r0, r0, #16
1742:Generated_Source\PSoC4/CapSense_1_Structure.c ****                                  ((uint32)wdCsdTouchpad->posY << 16u);
 684              		.loc 1 1742 0
 685 0032 1043     		orrs	r0, r2
 686              	.LVL76:
1744:Generated_Source\PSoC4/CapSense_1_Structure.c ****                     #if (CapSense_1_ENABLE == CapSense_1_CENTROID_5X5_CSD_EN)
1745:Generated_Source\PSoC4/CapSense_1_Structure.c ****                         }
1746:Generated_Source\PSoC4/CapSense_1_Structure.c ****                     #endif
1747:Generated_Source\PSoC4/CapSense_1_Structure.c ****                 #endif
1748:Generated_Source\PSoC4/CapSense_1_Structure.c **** 
1749:Generated_Source\PSoC4/CapSense_1_Structure.c ****                 break;
 687              		.loc 1 1749 0
 688 0034 01E0     		b	.L59
 689              	.LVL77:
 690              	.L62:
1702:Generated_Source\PSoC4/CapSense_1_Structure.c **** 
 691              		.loc 1 1702 0
 692 0036 0120     		movs	r0, #1
 693 0038 4042     		rsbs	r0, r0, #0
 694              	.LVL78:
 695              	.L59:
1750:Generated_Source\PSoC4/CapSense_1_Structure.c ****         #endif /* #if (0u != CapSense_1_CSD_TOUCHPAD_WIDGET_EN) */
1751:Generated_Source\PSoC4/CapSense_1_Structure.c **** 
1752:Generated_Source\PSoC4/CapSense_1_Structure.c ****         #if (0u != CapSense_1_CSX_TOUCHPAD_WIDGET_EN)
1753:Generated_Source\PSoC4/CapSense_1_Structure.c ****             case CapSense_1_SENSE_METHOD_CSX_E:
1754:Generated_Source\PSoC4/CapSense_1_Structure.c ****                 wdCsxTouchpad = ptrFlashWdgt->ptr2WdgtRam;
1755:Generated_Source\PSoC4/CapSense_1_Structure.c **** 
1756:Generated_Source\PSoC4/CapSense_1_Structure.c ****                 result = ((uint32)wdCsxTouchpad->touch[0u].x) |
1757:Generated_Source\PSoC4/CapSense_1_Structure.c ****                          ((uint32)wdCsxTouchpad->touch[0u].y << 16u);
1758:Generated_Source\PSoC4/CapSense_1_Structure.c ****                 break;
1759:Generated_Source\PSoC4/CapSense_1_Structure.c ****         #endif /* #if (0u != CapSense_1_CSX_TOUCHPAD_WIDGET_EN) */
1760:Generated_Source\PSoC4/CapSense_1_Structure.c **** 
1761:Generated_Source\PSoC4/CapSense_1_Structure.c ****         default:
1762:Generated_Source\PSoC4/CapSense_1_Structure.c ****             CYASSERT(0u);
1763:Generated_Source\PSoC4/CapSense_1_Structure.c ****             break;
1764:Generated_Source\PSoC4/CapSense_1_Structure.c ****         }
1765:Generated_Source\PSoC4/CapSense_1_Structure.c ****     }
1766:Generated_Source\PSoC4/CapSense_1_Structure.c **** 
1767:Generated_Source\PSoC4/CapSense_1_Structure.c ****     return result;
1768:Generated_Source\PSoC4/CapSense_1_Structure.c **** }
 696              		.loc 1 1768 0
 697              		@ sp needed
 698 003a 7047     		bx	lr
 699              	.L64:
 700              		.align	2
 701              	.L63:
ARM GAS  C:\Users\exp32\AppData\Local\Temp\cc6N2LT5.s 			page 45


 702 003c 00000000 		.word	.LANCHOR0
 703              		.cfi_endproc
 704              	.LFE8:
 705              		.size	CapSense_1_GetXYCoordinates, .-CapSense_1_GetXYCoordinates
 706              		.global	CapSense_1_ramIdacInit
 707              		.global	CapSense_1_ramWidgetInit
 708              		.global	CapSense_1_ioList
 709              		.global	CapSense_1_dsFlash
 710              		.comm	CapSense_1_dsRam,388,4
 711              		.section	.rodata
 712              		.align	2
 713              		.set	.LANCHOR0,. + 0
 714              		.set	.LANCHOR1,. + 384
 715              		.type	CapSense_1_ramIdacInit, %object
 716              		.size	CapSense_1_ramIdacInit, 18
 717              	CapSense_1_ramIdacInit:
 718 0000 20       		.byte	32
 719 0001 20       		.byte	32
 720 0002 20       		.byte	32
 721 0003 20       		.byte	32
 722 0004 20       		.byte	32
 723 0005 20       		.byte	32
 724 0006 20       		.byte	32
 725 0007 20       		.byte	32
 726 0008 20       		.byte	32
 727 0009 20       		.byte	32
 728 000a 20       		.byte	32
 729 000b 20       		.byte	32
 730 000c 20       		.byte	32
 731 000d 20       		.byte	32
 732 000e 20       		.byte	32
 733 000f 20       		.byte	32
 734 0010 20       		.byte	32
 735 0011 20       		.byte	32
 736 0012 0000     		.space	2
 737              		.type	CapSense_1_dsFlash, %object
 738              		.size	CapSense_1_dsFlash, 364
 739              	CapSense_1_dsFlash:
 740 0014 00000000 		.word	CapSense_1_ioList
 741 0018 2A000000 		.word	CapSense_1_dsRam+42
 742 001c C8000000 		.word	CapSense_1_dsRam+200
 743 0020 00000000 		.word	0
 744 0024 F0000000 		.word	CapSense_1_debounceButton0
 745 0028 01280000 		.word	10241
 746 002c 0100     		.short	1
 747 002e 01       		.byte	1
 748 002f 01       		.byte	1
 749 0030 00       		.byte	0
 750 0031 00       		.space	1
 751 0032 0000     		.short	0
 752 0034 0000     		.short	0
 753 0036 0000     		.space	2
 754 0038 00000000 		.word	0
 755 003c 00000000 		.word	0
 756 0040 CC000000 		.word	CapSense_1_noiseEnvlpButton0
 757 0044 00       		.byte	0
 758 0045 000000   		.space	3
ARM GAS  C:\Users\exp32\AppData\Local\Temp\cc6N2LT5.s 			page 46


 759 0048 1C000000 		.word	CapSense_1_ioList+28
 760 004c 40000000 		.word	CapSense_1_dsRam+64
 761 0050 D2000000 		.word	CapSense_1_dsRam+210
 762 0054 00000000 		.word	0
 763 0058 EC000000 		.word	CapSense_1_debounceButton1
 764 005c 01280000 		.word	10241
 765 0060 0100     		.short	1
 766 0062 01       		.byte	1
 767 0063 01       		.byte	1
 768 0064 00       		.byte	0
 769 0065 00       		.space	1
 770 0066 0000     		.short	0
 771 0068 0000     		.short	0
 772 006a 0000     		.space	2
 773 006c 00000000 		.word	0
 774 0070 00000000 		.word	0
 775 0074 C0000000 		.word	CapSense_1_noiseEnvlpButton1
 776 0078 00       		.byte	0
 777 0079 000000   		.space	3
 778 007c 38000000 		.word	CapSense_1_ioList+56
 779 0080 56000000 		.word	CapSense_1_dsRam+86
 780 0084 DC000000 		.word	CapSense_1_dsRam+220
 781 0088 00000000 		.word	0
 782 008c E8000000 		.word	CapSense_1_debounceTouchpad0
 783 0090 01280000 		.word	10241
 784 0094 0C00     		.short	12
 785 0096 05       		.byte	5
 786 0097 06       		.byte	6
 787 0098 06       		.byte	6
 788 0099 00       		.space	1
 789 009a 6400     		.short	100
 790 009c 6400     		.short	100
 791 009e 0000     		.space	2
 792 00a0 00140000 		.word	5120
 793 00a4 00140000 		.word	5120
 794 00a8 30000000 		.word	CapSense_1_noiseEnvlpTouchpad0
 795 00ac 80       		.byte	-128
 796 00ad 000000   		.space	3
 797 00b0 88010000 		.word	CapSense_1_ioList+392
 798 00b4 70000000 		.word	CapSense_1_dsRam+112
 799 00b8 54010000 		.word	CapSense_1_dsRam+340
 800 00bc 00000000 		.word	0
 801 00c0 E4000000 		.word	CapSense_1_debounceButton2
 802 00c4 01280000 		.word	10241
 803 00c8 0100     		.short	1
 804 00ca 01       		.byte	1
 805 00cb 01       		.byte	1
 806 00cc 00       		.byte	0
 807 00cd 00       		.space	1
 808 00ce 0000     		.short	0
 809 00d0 0000     		.short	0
 810 00d2 0000     		.space	2
 811 00d4 00000000 		.word	0
 812 00d8 00000000 		.word	0
 813 00dc 24000000 		.word	CapSense_1_noiseEnvlpButton2
 814 00e0 00       		.byte	0
 815 00e1 000000   		.space	3
ARM GAS  C:\Users\exp32\AppData\Local\Temp\cc6N2LT5.s 			page 47


 816 00e4 A4010000 		.word	CapSense_1_ioList+420
 817 00e8 86000000 		.word	CapSense_1_dsRam+134
 818 00ec 5E010000 		.word	CapSense_1_dsRam+350
 819 00f0 00000000 		.word	0
 820 00f4 E0000000 		.word	CapSense_1_debounceButton3
 821 00f8 01280000 		.word	10241
 822 00fc 0100     		.short	1
 823 00fe 01       		.byte	1
 824 00ff 01       		.byte	1
 825 0100 00       		.byte	0
 826 0101 00       		.space	1
 827 0102 0000     		.short	0
 828 0104 0000     		.short	0
 829 0106 0000     		.space	2
 830 0108 00000000 		.word	0
 831 010c 00000000 		.word	0
 832 0110 18000000 		.word	CapSense_1_noiseEnvlpButton3
 833 0114 00       		.byte	0
 834 0115 000000   		.space	3
 835 0118 C0010000 		.word	CapSense_1_ioList+448
 836 011c 9C000000 		.word	CapSense_1_dsRam+156
 837 0120 68010000 		.word	CapSense_1_dsRam+360
 838 0124 00000000 		.word	0
 839 0128 DC000000 		.word	CapSense_1_debounceButton4
 840 012c 01280000 		.word	10241
 841 0130 0100     		.short	1
 842 0132 01       		.byte	1
 843 0133 01       		.byte	1
 844 0134 00       		.byte	0
 845 0135 00       		.space	1
 846 0136 0000     		.short	0
 847 0138 0000     		.short	0
 848 013a 0000     		.space	2
 849 013c 00000000 		.word	0
 850 0140 00000000 		.word	0
 851 0144 0C000000 		.word	CapSense_1_noiseEnvlpButton4
 852 0148 00       		.byte	0
 853 0149 000000   		.space	3
 854 014c DC010000 		.word	CapSense_1_ioList+476
 855 0150 B2000000 		.word	CapSense_1_dsRam+178
 856 0154 72010000 		.word	CapSense_1_dsRam+370
 857 0158 00000000 		.word	0
 858 015c D8000000 		.word	CapSense_1_debounceButton5
 859 0160 01280000 		.word	10241
 860 0164 0100     		.short	1
 861 0166 01       		.byte	1
 862 0167 01       		.byte	1
 863 0168 00       		.byte	0
 864 0169 00       		.space	1
 865 016a 0000     		.short	0
 866 016c 0000     		.short	0
 867 016e 0000     		.space	2
 868 0170 00000000 		.word	0
 869 0174 00000000 		.word	0
 870 0178 00000000 		.word	CapSense_1_noiseEnvlpButton5
 871 017c 00       		.byte	0
 872 017d 000000   		.space	3
ARM GAS  C:\Users\exp32\AppData\Local\Temp\cc6N2LT5.s 			page 48


 873              		.type	CapSense_1_ramWidgetInit, %object
 874              		.size	CapSense_1_ramWidgetInit, 158
 875              	CapSense_1_ramWidgetInit:
 876 0180 0C00     		.short	12
 877 0182 6400     		.short	100
 878 0184 28       		.byte	40
 879 0185 28       		.byte	40
 880 0186 0A       		.byte	10
 881 0187 03       		.byte	3
 882 0188 1E       		.byte	30
 883 0189 20       		.byte	32
 884 018a 20       		.byte	32
 885 018b 05       		.byte	5
 886 018c 0400     		.short	4
 887 018e 0400     		.short	4
 888 0190 00       		.byte	0
 889 0191 00       		.byte	0
 890 0192 A000     		.short	160
 891 0194 0000     		.short	0
 892 0196 0C00     		.short	12
 893 0198 6400     		.short	100
 894 019a 28       		.byte	40
 895 019b 28       		.byte	40
 896 019c 0A       		.byte	10
 897 019d 03       		.byte	3
 898 019e 1E       		.byte	30
 899 019f 20       		.byte	32
 900 01a0 20       		.byte	32
 901 01a1 05       		.byte	5
 902 01a2 0400     		.short	4
 903 01a4 0400     		.short	4
 904 01a6 00       		.byte	0
 905 01a7 00       		.byte	0
 906 01a8 A000     		.short	160
 907 01aa 0000     		.short	0
 908 01ac 0C00     		.short	12
 909 01ae 6400     		.short	100
 910 01b0 28       		.byte	40
 911 01b1 28       		.byte	40
 912 01b2 0A       		.byte	10
 913 01b3 03       		.byte	3
 914 01b4 1E       		.byte	30
 915 01b5 20       		.byte	32
 916 01b6 20       		.byte	32
 917 01b7 05       		.byte	5
 918 01b8 0400     		.short	4
 919 01ba 0400     		.short	4
 920 01bc 00       		.byte	0
 921 01bd 00       		.byte	0
 922 01be A000     		.short	160
 923 01c0 0000     		.short	0
 924 01c2 FFFF     		.short	-1
 925 01c4 FFFF     		.short	-1
 926 01c6 0C00     		.short	12
 927 01c8 6400     		.short	100
 928 01ca 28       		.byte	40
 929 01cb 28       		.byte	40
ARM GAS  C:\Users\exp32\AppData\Local\Temp\cc6N2LT5.s 			page 49


 930 01cc 0A       		.byte	10
 931 01cd 03       		.byte	3
 932 01ce 1E       		.byte	30
 933 01cf 20       		.byte	32
 934 01d0 20       		.byte	32
 935 01d1 05       		.byte	5
 936 01d2 0400     		.short	4
 937 01d4 0400     		.short	4
 938 01d6 00       		.byte	0
 939 01d7 00       		.byte	0
 940 01d8 A000     		.short	160
 941 01da 0000     		.short	0
 942 01dc 0C00     		.short	12
 943 01de 6400     		.short	100
 944 01e0 28       		.byte	40
 945 01e1 28       		.byte	40
 946 01e2 0A       		.byte	10
 947 01e3 03       		.byte	3
 948 01e4 1E       		.byte	30
 949 01e5 20       		.byte	32
 950 01e6 20       		.byte	32
 951 01e7 05       		.byte	5
 952 01e8 0400     		.short	4
 953 01ea 0400     		.short	4
 954 01ec 00       		.byte	0
 955 01ed 00       		.byte	0
 956 01ee A000     		.short	160
 957 01f0 0000     		.short	0
 958 01f2 0C00     		.short	12
 959 01f4 6400     		.short	100
 960 01f6 28       		.byte	40
 961 01f7 28       		.byte	40
 962 01f8 0A       		.byte	10
 963 01f9 03       		.byte	3
 964 01fa 1E       		.byte	30
 965 01fb 20       		.byte	32
 966 01fc 20       		.byte	32
 967 01fd 05       		.byte	5
 968 01fe 0400     		.short	4
 969 0200 0400     		.short	4
 970 0202 00       		.byte	0
 971 0203 00       		.byte	0
 972 0204 A000     		.short	160
 973 0206 0000     		.short	0
 974 0208 0C00     		.short	12
 975 020a 6400     		.short	100
 976 020c 28       		.byte	40
 977 020d 28       		.byte	40
 978 020e 0A       		.byte	10
 979 020f 03       		.byte	3
 980 0210 1E       		.byte	30
 981 0211 20       		.byte	32
 982 0212 20       		.byte	32
 983 0213 05       		.byte	5
 984 0214 0400     		.short	4
 985 0216 0400     		.short	4
 986 0218 00       		.byte	0
ARM GAS  C:\Users\exp32\AppData\Local\Temp\cc6N2LT5.s 			page 50


 987 0219 00       		.byte	0
 988 021a A000     		.short	160
 989 021c 0000     		.short	0
 990 021e 0000     		.space	2
 991              		.type	CapSense_1_ioList, %object
 992              		.size	CapSense_1_ioList, 504
 993              	CapSense_1_ioList:
 994 0220 00000240 		.word	1073872896
 995 0224 08000440 		.word	1074003976
 996 0228 00000440 		.word	1074003968
 997 022c 04000440 		.word	1074003972
 998 0230 0000000F 		.word	251658240
 999 0234 40000000 		.word	64
 1000 0238 18       		.byte	24
 1001 0239 06       		.byte	6
 1002 023a 12       		.byte	18
 1003 023b 00       		.space	1
 1004 023c 00000240 		.word	1073872896
 1005 0240 08000440 		.word	1074003976
 1006 0244 00000440 		.word	1074003968
 1007 0248 04000440 		.word	1074003972
 1008 024c 000000F0 		.word	-268435456
 1009 0250 80000000 		.word	128
 1010 0254 1C       		.byte	28
 1011 0255 07       		.byte	7
 1012 0256 15       		.byte	21
 1013 0257 00       		.space	1
 1014 0258 00000240 		.word	1073872896
 1015 025c 08000440 		.word	1074003976
 1016 0260 00000440 		.word	1074003968
 1017 0264 04000440 		.word	1074003972
 1018 0268 0F000000 		.word	15
 1019 026c 01000000 		.word	1
 1020 0270 00       		.byte	0
 1021 0271 00       		.byte	0
 1022 0272 00       		.byte	0
 1023 0273 00       		.space	1
 1024 0274 00000240 		.word	1073872896
 1025 0278 08000440 		.word	1074003976
 1026 027c 00000440 		.word	1074003968
 1027 0280 04000440 		.word	1074003972
 1028 0284 F0000000 		.word	240
 1029 0288 02000000 		.word	2
 1030 028c 04       		.byte	4
 1031 028d 01       		.byte	1
 1032 028e 03       		.byte	3
 1033 028f 00       		.space	1
 1034 0290 00000240 		.word	1073872896
 1035 0294 08000440 		.word	1074003976
 1036 0298 00000440 		.word	1074003968
 1037 029c 04000440 		.word	1074003972
 1038 02a0 000F0000 		.word	3840
 1039 02a4 04000000 		.word	4
 1040 02a8 08       		.byte	8
 1041 02a9 02       		.byte	2
 1042 02aa 06       		.byte	6
 1043 02ab 00       		.space	1
ARM GAS  C:\Users\exp32\AppData\Local\Temp\cc6N2LT5.s 			page 51


 1044 02ac 00000240 		.word	1073872896
 1045 02b0 08000440 		.word	1074003976
 1046 02b4 00000440 		.word	1074003968
 1047 02b8 04000440 		.word	1074003972
 1048 02bc 00F00000 		.word	61440
 1049 02c0 08000000 		.word	8
 1050 02c4 0C       		.byte	12
 1051 02c5 03       		.byte	3
 1052 02c6 09       		.byte	9
 1053 02c7 00       		.space	1
 1054 02c8 00000240 		.word	1073872896
 1055 02cc 08000440 		.word	1074003976
 1056 02d0 00000440 		.word	1074003968
 1057 02d4 04000440 		.word	1074003972
 1058 02d8 00000F00 		.word	983040
 1059 02dc 10000000 		.word	16
 1060 02e0 10       		.byte	16
 1061 02e1 04       		.byte	4
 1062 02e2 0C       		.byte	12
 1063 02e3 00       		.space	1
 1064 02e4 00000240 		.word	1073872896
 1065 02e8 08000440 		.word	1074003976
 1066 02ec 00000440 		.word	1074003968
 1067 02f0 04000440 		.word	1074003972
 1068 02f4 0000F000 		.word	15728640
 1069 02f8 20000000 		.word	32
 1070 02fc 14       		.byte	20
 1071 02fd 05       		.byte	5
 1072 02fe 0F       		.byte	15
 1073 02ff 00       		.space	1
 1074 0300 00030240 		.word	1073873664
 1075 0304 08030440 		.word	1074004744
 1076 0308 00030440 		.word	1074004736
 1077 030c 04030440 		.word	1074004740
 1078 0310 0000F000 		.word	15728640
 1079 0314 20000000 		.word	32
 1080 0318 14       		.byte	20
 1081 0319 05       		.byte	5
 1082 031a 0F       		.byte	15
 1083 031b 00       		.space	1
 1084 031c 00030240 		.word	1073873664
 1085 0320 08030440 		.word	1074004744
 1086 0324 00030440 		.word	1074004736
 1087 0328 04030440 		.word	1074004740
 1088 032c 0000000F 		.word	251658240
 1089 0330 40000000 		.word	64
 1090 0334 18       		.byte	24
 1091 0335 06       		.byte	6
 1092 0336 12       		.byte	18
 1093 0337 00       		.space	1
 1094 0338 00030240 		.word	1073873664
 1095 033c 08030440 		.word	1074004744
 1096 0340 00030440 		.word	1074004736
 1097 0344 04030440 		.word	1074004740
 1098 0348 000000F0 		.word	-268435456
 1099 034c 80000000 		.word	128
 1100 0350 1C       		.byte	28
ARM GAS  C:\Users\exp32\AppData\Local\Temp\cc6N2LT5.s 			page 52


 1101 0351 07       		.byte	7
 1102 0352 15       		.byte	21
 1103 0353 00       		.space	1
 1104 0354 00040240 		.word	1073873920
 1105 0358 08040440 		.word	1074005000
 1106 035c 00040440 		.word	1074004992
 1107 0360 04040440 		.word	1074004996
 1108 0364 0F000000 		.word	15
 1109 0368 01000000 		.word	1
 1110 036c 00       		.byte	0
 1111 036d 00       		.byte	0
 1112 036e 00       		.byte	0
 1113 036f 00       		.space	1
 1114 0370 00040240 		.word	1073873920
 1115 0374 08040440 		.word	1074005000
 1116 0378 00040440 		.word	1074004992
 1117 037c 04040440 		.word	1074004996
 1118 0380 F0000000 		.word	240
 1119 0384 02000000 		.word	2
 1120 0388 04       		.byte	4
 1121 0389 01       		.byte	1
 1122 038a 03       		.byte	3
 1123 038b 00       		.space	1
 1124 038c 00040240 		.word	1073873920
 1125 0390 08040440 		.word	1074005000
 1126 0394 00040440 		.word	1074004992
 1127 0398 04040440 		.word	1074004996
 1128 039c 000F0000 		.word	3840
 1129 03a0 04000000 		.word	4
 1130 03a4 08       		.byte	8
 1131 03a5 02       		.byte	2
 1132 03a6 06       		.byte	6
 1133 03a7 00       		.space	1
 1134 03a8 00060240 		.word	1073874432
 1135 03ac 08060440 		.word	1074005512
 1136 03b0 00060440 		.word	1074005504
 1137 03b4 04060440 		.word	1074005508
 1138 03b8 F0000000 		.word	240
 1139 03bc 02000000 		.word	2
 1140 03c0 04       		.byte	4
 1141 03c1 01       		.byte	1
 1142 03c2 03       		.byte	3
 1143 03c3 00       		.space	1
 1144 03c4 00060240 		.word	1073874432
 1145 03c8 08060440 		.word	1074005512
 1146 03cc 00060440 		.word	1074005504
 1147 03d0 04060440 		.word	1074005508
 1148 03d4 000F0000 		.word	3840
 1149 03d8 04000000 		.word	4
 1150 03dc 08       		.byte	8
 1151 03dd 02       		.byte	2
 1152 03de 06       		.byte	6
 1153 03df 00       		.space	1
 1154 03e0 00030240 		.word	1073873664
 1155 03e4 08030440 		.word	1074004744
 1156 03e8 00030440 		.word	1074004736
 1157 03ec 04030440 		.word	1074004740
ARM GAS  C:\Users\exp32\AppData\Local\Temp\cc6N2LT5.s 			page 53


 1158 03f0 0F000000 		.word	15
 1159 03f4 01000000 		.word	1
 1160 03f8 00       		.byte	0
 1161 03f9 00       		.byte	0
 1162 03fa 00       		.byte	0
 1163 03fb 00       		.space	1
 1164 03fc 00030240 		.word	1073873664
 1165 0400 08030440 		.word	1074004744
 1166 0404 00030440 		.word	1074004736
 1167 0408 04030440 		.word	1074004740
 1168 040c F0000000 		.word	240
 1169 0410 02000000 		.word	2
 1170 0414 04       		.byte	4
 1171 0415 01       		.byte	1
 1172 0416 03       		.byte	3
 1173 0417 00       		.space	1
 1174              		.bss
 1175              		.align	2
 1176              		.type	CapSense_1_noiseEnvlpButton5, %object
 1177              		.size	CapSense_1_noiseEnvlpButton5, 12
 1178              	CapSense_1_noiseEnvlpButton5:
 1179 0000 00000000 		.space	12
 1179      00000000 
 1179      00000000 
 1180              		.type	CapSense_1_noiseEnvlpButton4, %object
 1181              		.size	CapSense_1_noiseEnvlpButton4, 12
 1182              	CapSense_1_noiseEnvlpButton4:
 1183 000c 00000000 		.space	12
 1183      00000000 
 1183      00000000 
 1184              		.type	CapSense_1_noiseEnvlpButton3, %object
 1185              		.size	CapSense_1_noiseEnvlpButton3, 12
 1186              	CapSense_1_noiseEnvlpButton3:
 1187 0018 00000000 		.space	12
 1187      00000000 
 1187      00000000 
 1188              		.type	CapSense_1_noiseEnvlpButton2, %object
 1189              		.size	CapSense_1_noiseEnvlpButton2, 12
 1190              	CapSense_1_noiseEnvlpButton2:
 1191 0024 00000000 		.space	12
 1191      00000000 
 1191      00000000 
 1192              		.type	CapSense_1_noiseEnvlpTouchpad0, %object
 1193              		.size	CapSense_1_noiseEnvlpTouchpad0, 144
 1194              	CapSense_1_noiseEnvlpTouchpad0:
 1195 0030 00000000 		.space	144
 1195      00000000 
 1195      00000000 
 1195      00000000 
 1195      00000000 
 1196              		.type	CapSense_1_noiseEnvlpButton1, %object
 1197              		.size	CapSense_1_noiseEnvlpButton1, 12
 1198              	CapSense_1_noiseEnvlpButton1:
 1199 00c0 00000000 		.space	12
 1199      00000000 
 1199      00000000 
 1200              		.type	CapSense_1_noiseEnvlpButton0, %object
ARM GAS  C:\Users\exp32\AppData\Local\Temp\cc6N2LT5.s 			page 54


 1201              		.size	CapSense_1_noiseEnvlpButton0, 12
 1202              	CapSense_1_noiseEnvlpButton0:
 1203 00cc 00000000 		.space	12
 1203      00000000 
 1203      00000000 
 1204              		.type	CapSense_1_debounceButton5, %object
 1205              		.size	CapSense_1_debounceButton5, 1
 1206              	CapSense_1_debounceButton5:
 1207 00d8 00       		.space	1
 1208 00d9 000000   		.space	3
 1209              		.type	CapSense_1_debounceButton4, %object
 1210              		.size	CapSense_1_debounceButton4, 1
 1211              	CapSense_1_debounceButton4:
 1212 00dc 00       		.space	1
 1213 00dd 000000   		.space	3
 1214              		.type	CapSense_1_debounceButton3, %object
 1215              		.size	CapSense_1_debounceButton3, 1
 1216              	CapSense_1_debounceButton3:
 1217 00e0 00       		.space	1
 1218 00e1 000000   		.space	3
 1219              		.type	CapSense_1_debounceButton2, %object
 1220              		.size	CapSense_1_debounceButton2, 1
 1221              	CapSense_1_debounceButton2:
 1222 00e4 00       		.space	1
 1223 00e5 000000   		.space	3
 1224              		.type	CapSense_1_debounceTouchpad0, %object
 1225              		.size	CapSense_1_debounceTouchpad0, 1
 1226              	CapSense_1_debounceTouchpad0:
 1227 00e8 00       		.space	1
 1228 00e9 000000   		.space	3
 1229              		.type	CapSense_1_debounceButton1, %object
 1230              		.size	CapSense_1_debounceButton1, 1
 1231              	CapSense_1_debounceButton1:
 1232 00ec 00       		.space	1
 1233 00ed 000000   		.space	3
 1234              		.type	CapSense_1_debounceButton0, %object
 1235              		.size	CapSense_1_debounceButton0, 1
 1236              	CapSense_1_debounceButton0:
 1237 00f0 00       		.space	1
 1238              		.text
 1239              	.Letext0:
 1240              		.file 2 "Generated_Source\\PSoC4/cytypes.h"
 1241              		.file 3 "Generated_Source\\PSoC4\\CapSense_1_Configuration.h"
 1242              		.file 4 "Generated_Source\\PSoC4\\CapSense_1_SmartSense_LL.h"
 1243              		.file 5 "Generated_Source\\PSoC4\\CapSense_1_Structure.h"
 1244              		.file 6 "Generated_Source\\PSoC4\\CyLib.h"
 1245              		.section	.debug_info,"",%progbits
 1246              	.Ldebug_info0:
 1247 0000 870E0000 		.4byte	0xe87
 1248 0004 0400     		.2byte	0x4
 1249 0006 00000000 		.4byte	.Ldebug_abbrev0
 1250 000a 04       		.byte	0x4
 1251 000b 01       		.uleb128 0x1
 1252 000c CE010000 		.4byte	.LASF176
 1253 0010 0C       		.byte	0xc
 1254 0011 1E010000 		.4byte	.LASF177
 1255 0015 E0020000 		.4byte	.LASF178
ARM GAS  C:\Users\exp32\AppData\Local\Temp\cc6N2LT5.s 			page 55


 1256 0019 00000000 		.4byte	.Ldebug_ranges0+0
 1257 001d 00000000 		.4byte	0
 1258 0021 00000000 		.4byte	.Ldebug_line0
 1259 0025 02       		.uleb128 0x2
 1260 0026 01       		.byte	0x1
 1261 0027 06       		.byte	0x6
 1262 0028 520A0000 		.4byte	.LASF0
 1263 002c 02       		.uleb128 0x2
 1264 002d 01       		.byte	0x1
 1265 002e 08       		.byte	0x8
 1266 002f 05090000 		.4byte	.LASF1
 1267 0033 02       		.uleb128 0x2
 1268 0034 02       		.byte	0x2
 1269 0035 05       		.byte	0x5
 1270 0036 66070000 		.4byte	.LASF2
 1271 003a 02       		.uleb128 0x2
 1272 003b 02       		.byte	0x2
 1273 003c 07       		.byte	0x7
 1274 003d 630A0000 		.4byte	.LASF3
 1275 0041 02       		.uleb128 0x2
 1276 0042 04       		.byte	0x4
 1277 0043 05       		.byte	0x5
 1278 0044 8A070000 		.4byte	.LASF4
 1279 0048 02       		.uleb128 0x2
 1280 0049 04       		.byte	0x4
 1281 004a 07       		.byte	0x7
 1282 004b 90080000 		.4byte	.LASF5
 1283 004f 02       		.uleb128 0x2
 1284 0050 08       		.byte	0x8
 1285 0051 05       		.byte	0x5
 1286 0052 1A050000 		.4byte	.LASF6
 1287 0056 02       		.uleb128 0x2
 1288 0057 08       		.byte	0x8
 1289 0058 07       		.byte	0x7
 1290 0059 86020000 		.4byte	.LASF7
 1291 005d 03       		.uleb128 0x3
 1292 005e 04       		.byte	0x4
 1293 005f 05       		.byte	0x5
 1294 0060 696E7400 		.ascii	"int\000"
 1295 0064 02       		.uleb128 0x2
 1296 0065 04       		.byte	0x4
 1297 0066 07       		.byte	0x7
 1298 0067 43000000 		.4byte	.LASF8
 1299 006b 04       		.uleb128 0x4
 1300 006c A30A0000 		.4byte	.LASF9
 1301 0070 02       		.byte	0x2
 1302 0071 FB01     		.2byte	0x1fb
 1303 0073 2C000000 		.4byte	0x2c
 1304 0077 04       		.uleb128 0x4
 1305 0078 AA040000 		.4byte	.LASF10
 1306 007c 02       		.byte	0x2
 1307 007d FC01     		.2byte	0x1fc
 1308 007f 3A000000 		.4byte	0x3a
 1309 0083 04       		.uleb128 0x4
 1310 0084 B2050000 		.4byte	.LASF11
 1311 0088 02       		.byte	0x2
 1312 0089 FD01     		.2byte	0x1fd
ARM GAS  C:\Users\exp32\AppData\Local\Temp\cc6N2LT5.s 			page 56


 1313 008b 48000000 		.4byte	0x48
 1314 008f 02       		.uleb128 0x2
 1315 0090 04       		.byte	0x4
 1316 0091 04       		.byte	0x4
 1317 0092 C2010000 		.4byte	.LASF12
 1318 0096 02       		.uleb128 0x2
 1319 0097 08       		.byte	0x8
 1320 0098 04       		.byte	0x4
 1321 0099 A90A0000 		.4byte	.LASF13
 1322 009d 02       		.uleb128 0x2
 1323 009e 01       		.byte	0x1
 1324 009f 08       		.byte	0x8
 1325 00a0 8A040000 		.4byte	.LASF14
 1326 00a4 04       		.uleb128 0x4
 1327 00a5 DF080000 		.4byte	.LASF15
 1328 00a9 02       		.byte	0x2
 1329 00aa 9D02     		.2byte	0x29d
 1330 00ac 48000000 		.4byte	0x48
 1331 00b0 05       		.uleb128 0x5
 1332 00b1 6B000000 		.4byte	0x6b
 1333 00b5 05       		.uleb128 0x5
 1334 00b6 77000000 		.4byte	0x77
 1335 00ba 04       		.uleb128 0x4
 1336 00bb 86060000 		.4byte	.LASF16
 1337 00bf 02       		.byte	0x2
 1338 00c0 A702     		.2byte	0x2a7
 1339 00c2 C6000000 		.4byte	0xc6
 1340 00c6 05       		.uleb128 0x5
 1341 00c7 83000000 		.4byte	0x83
 1342 00cb 02       		.uleb128 0x2
 1343 00cc 08       		.byte	0x8
 1344 00cd 04       		.byte	0x4
 1345 00ce 7A060000 		.4byte	.LASF17
 1346 00d2 02       		.uleb128 0x2
 1347 00d3 04       		.byte	0x4
 1348 00d4 07       		.byte	0x7
 1349 00d5 7F080000 		.4byte	.LASF18
 1350 00d9 06       		.uleb128 0x6
 1351 00da 04       		.byte	0x4
 1352 00db 04       		.uleb128 0x4
 1353 00dc 28050000 		.4byte	.LASF19
 1354 00e0 03       		.byte	0x3
 1355 00e1 4F01     		.2byte	0x14f
 1356 00e3 77000000 		.4byte	0x77
 1357 00e7 04       		.uleb128 0x4
 1358 00e8 57030000 		.4byte	.LASF20
 1359 00ec 03       		.byte	0x3
 1360 00ed 5301     		.2byte	0x153
 1361 00ef 6B000000 		.4byte	0x6b
 1362 00f3 07       		.uleb128 0x7
 1363 00f4 0C       		.byte	0xc
 1364 00f5 04       		.byte	0x4
 1365 00f6 75       		.byte	0x75
 1366 00f7 50010000 		.4byte	0x150
 1367 00fb 08       		.uleb128 0x8
 1368 00fc D80A0000 		.4byte	.LASF21
 1369 0100 04       		.byte	0x4
ARM GAS  C:\Users\exp32\AppData\Local\Temp\cc6N2LT5.s 			page 57


 1370 0101 7A       		.byte	0x7a
 1371 0102 77000000 		.4byte	0x77
 1372 0106 00       		.byte	0
 1373 0107 08       		.uleb128 0x8
 1374 0108 DF0A0000 		.4byte	.LASF22
 1375 010c 04       		.byte	0x4
 1376 010d 7E       		.byte	0x7e
 1377 010e 77000000 		.4byte	0x77
 1378 0112 02       		.byte	0x2
 1379 0113 08       		.uleb128 0x8
 1380 0114 E60A0000 		.4byte	.LASF23
 1381 0118 04       		.byte	0x4
 1382 0119 82       		.byte	0x82
 1383 011a 77000000 		.4byte	0x77
 1384 011e 04       		.byte	0x4
 1385 011f 08       		.uleb128 0x8
 1386 0120 ED0A0000 		.4byte	.LASF24
 1387 0124 04       		.byte	0x4
 1388 0125 86       		.byte	0x86
 1389 0126 77000000 		.4byte	0x77
 1390 012a 06       		.byte	0x6
 1391 012b 08       		.uleb128 0x8
 1392 012c F40A0000 		.4byte	.LASF25
 1393 0130 04       		.byte	0x4
 1394 0131 8A       		.byte	0x8a
 1395 0132 77000000 		.4byte	0x77
 1396 0136 08       		.byte	0x8
 1397 0137 08       		.uleb128 0x8
 1398 0138 FB0A0000 		.4byte	.LASF26
 1399 013c 04       		.byte	0x4
 1400 013d 8E       		.byte	0x8e
 1401 013e 6B000000 		.4byte	0x6b
 1402 0142 0A       		.byte	0xa
 1403 0143 08       		.uleb128 0x8
 1404 0144 020B0000 		.4byte	.LASF27
 1405 0148 04       		.byte	0x4
 1406 0149 92       		.byte	0x92
 1407 014a 6B000000 		.4byte	0x6b
 1408 014e 0B       		.byte	0xb
 1409 014f 00       		.byte	0
 1410 0150 09       		.uleb128 0x9
 1411 0151 44040000 		.4byte	.LASF28
 1412 0155 04       		.byte	0x4
 1413 0156 93       		.byte	0x93
 1414 0157 F3000000 		.4byte	0xf3
 1415 015b 0A       		.uleb128 0xa
 1416 015c 01       		.byte	0x1
 1417 015d 2C000000 		.4byte	0x2c
 1418 0161 05       		.byte	0x5
 1419 0162 61       		.byte	0x61
 1420 0163 92010000 		.4byte	0x192
 1421 0167 0B       		.uleb128 0xb
 1422 0168 6F020000 		.4byte	.LASF29
 1423 016c 01       		.byte	0x1
 1424 016d 0B       		.uleb128 0xb
 1425 016e 35060000 		.4byte	.LASF30
 1426 0172 02       		.byte	0x2
ARM GAS  C:\Users\exp32\AppData\Local\Temp\cc6N2LT5.s 			page 58


 1427 0173 0B       		.uleb128 0xb
 1428 0174 E3040000 		.4byte	.LASF31
 1429 0178 03       		.byte	0x3
 1430 0179 0B       		.uleb128 0xb
 1431 017a 0F040000 		.4byte	.LASF32
 1432 017e 04       		.byte	0x4
 1433 017f 0B       		.uleb128 0xb
 1434 0180 69040000 		.4byte	.LASF33
 1435 0184 05       		.byte	0x5
 1436 0185 0B       		.uleb128 0xb
 1437 0186 B3060000 		.4byte	.LASF34
 1438 018a 06       		.byte	0x6
 1439 018b 0B       		.uleb128 0xb
 1440 018c CD060000 		.4byte	.LASF35
 1441 0190 07       		.byte	0x7
 1442 0191 00       		.byte	0
 1443 0192 09       		.uleb128 0x9
 1444 0193 60010000 		.4byte	.LASF36
 1445 0197 05       		.byte	0x5
 1446 0198 69       		.byte	0x69
 1447 0199 5B010000 		.4byte	0x15b
 1448 019d 0A       		.uleb128 0xa
 1449 019e 01       		.byte	0x1
 1450 019f 2C000000 		.4byte	0x2c
 1451 01a3 05       		.byte	0x5
 1452 01a4 70       		.byte	0x70
 1453 01a5 C8010000 		.4byte	0x1c8
 1454 01a9 0B       		.uleb128 0xb
 1455 01aa D4050000 		.4byte	.LASF37
 1456 01ae 00       		.byte	0
 1457 01af 0B       		.uleb128 0xb
 1458 01b0 48070000 		.4byte	.LASF38
 1459 01b4 01       		.byte	0x1
 1460 01b5 0B       		.uleb128 0xb
 1461 01b6 E0070000 		.4byte	.LASF39
 1462 01ba 02       		.byte	0x2
 1463 01bb 0B       		.uleb128 0xb
 1464 01bc F0030000 		.4byte	.LASF40
 1465 01c0 03       		.byte	0x3
 1466 01c1 0B       		.uleb128 0xb
 1467 01c2 39030000 		.4byte	.LASF41
 1468 01c6 04       		.byte	0x4
 1469 01c7 00       		.byte	0
 1470 01c8 0C       		.uleb128 0xc
 1471 01c9 6B000000 		.4byte	0x6b
 1472 01cd D8010000 		.4byte	0x1d8
 1473 01d1 0D       		.uleb128 0xd
 1474 01d2 D2000000 		.4byte	0xd2
 1475 01d6 00       		.byte	0
 1476 01d7 00       		.byte	0
 1477 01d8 0E       		.uleb128 0xe
 1478 01d9 16       		.byte	0x16
 1479 01da 05       		.byte	0x5
 1480 01db 1101     		.2byte	0x111
 1481 01dd B2020000 		.4byte	0x2b2
 1482 01e1 0F       		.uleb128 0xf
 1483 01e2 BB040000 		.4byte	.LASF42
ARM GAS  C:\Users\exp32\AppData\Local\Temp\cc6N2LT5.s 			page 59


 1484 01e6 05       		.byte	0x5
 1485 01e7 1601     		.2byte	0x116
 1486 01e9 77000000 		.4byte	0x77
 1487 01ed 00       		.byte	0
 1488 01ee 0F       		.uleb128 0xf
 1489 01ef CE080000 		.4byte	.LASF43
 1490 01f3 05       		.byte	0x5
 1491 01f4 1B01     		.2byte	0x11b
 1492 01f6 DB000000 		.4byte	0xdb
 1493 01fa 02       		.byte	0x2
 1494 01fb 0F       		.uleb128 0xf
 1495 01fc 82040000 		.4byte	.LASF44
 1496 0200 05       		.byte	0x5
 1497 0201 2001     		.2byte	0x120
 1498 0203 6B000000 		.4byte	0x6b
 1499 0207 04       		.byte	0x4
 1500 0208 0F       		.uleb128 0xf
 1501 0209 81050000 		.4byte	.LASF45
 1502 020d 05       		.byte	0x5
 1503 020e 2501     		.2byte	0x125
 1504 0210 6B000000 		.4byte	0x6b
 1505 0214 05       		.byte	0x5
 1506 0215 0F       		.uleb128 0xf
 1507 0216 B9050000 		.4byte	.LASF46
 1508 021a 05       		.byte	0x5
 1509 021b 2B01     		.2byte	0x12b
 1510 021d 6B000000 		.4byte	0x6b
 1511 0221 06       		.byte	0x6
 1512 0222 0F       		.uleb128 0xf
 1513 0223 42050000 		.4byte	.LASF47
 1514 0227 05       		.byte	0x5
 1515 0228 3101     		.2byte	0x131
 1516 022a 6B000000 		.4byte	0x6b
 1517 022e 07       		.byte	0x7
 1518 022f 0F       		.uleb128 0xf
 1519 0230 2D040000 		.4byte	.LASF48
 1520 0234 05       		.byte	0x5
 1521 0235 3801     		.2byte	0x138
 1522 0237 E7000000 		.4byte	0xe7
 1523 023b 08       		.byte	0x8
 1524 023c 0F       		.uleb128 0xf
 1525 023d A2080000 		.4byte	.LASF49
 1526 0241 05       		.byte	0x5
 1527 0242 3F01     		.2byte	0x13f
 1528 0244 C8010000 		.4byte	0x1c8
 1529 0248 09       		.byte	0x9
 1530 0249 0F       		.uleb128 0xf
 1531 024a 40080000 		.4byte	.LASF50
 1532 024e 05       		.byte	0x5
 1533 024f 4601     		.2byte	0x146
 1534 0251 C8010000 		.4byte	0x1c8
 1535 0255 0A       		.byte	0xa
 1536 0256 0F       		.uleb128 0xf
 1537 0257 AE010000 		.4byte	.LASF51
 1538 025b 05       		.byte	0x5
 1539 025c 4B01     		.2byte	0x14b
 1540 025e 6B000000 		.4byte	0x6b
ARM GAS  C:\Users\exp32\AppData\Local\Temp\cc6N2LT5.s 			page 60


 1541 0262 0B       		.byte	0xb
 1542 0263 0F       		.uleb128 0xf
 1543 0264 F4090000 		.4byte	.LASF52
 1544 0268 05       		.byte	0x5
 1545 0269 5301     		.2byte	0x153
 1546 026b 77000000 		.4byte	0x77
 1547 026f 0C       		.byte	0xc
 1548 0270 0F       		.uleb128 0xf
 1549 0271 B1040000 		.4byte	.LASF53
 1550 0275 05       		.byte	0x5
 1551 0276 5A01     		.2byte	0x15a
 1552 0278 77000000 		.4byte	0x77
 1553 027c 0E       		.byte	0xe
 1554 027d 0F       		.uleb128 0xf
 1555 027e 1B070000 		.4byte	.LASF54
 1556 0282 05       		.byte	0x5
 1557 0283 5F01     		.2byte	0x15f
 1558 0285 6B000000 		.4byte	0x6b
 1559 0289 10       		.byte	0x10
 1560 028a 0F       		.uleb128 0xf
 1561 028b 8F040000 		.4byte	.LASF55
 1562 028f 05       		.byte	0x5
 1563 0290 6401     		.2byte	0x164
 1564 0292 6B000000 		.4byte	0x6b
 1565 0296 11       		.byte	0x11
 1566 0297 0F       		.uleb128 0xf
 1567 0298 6A080000 		.4byte	.LASF56
 1568 029c 05       		.byte	0x5
 1569 029d 6A01     		.2byte	0x16a
 1570 029f 77000000 		.4byte	0x77
 1571 02a3 12       		.byte	0x12
 1572 02a4 0F       		.uleb128 0xf
 1573 02a5 E9030000 		.4byte	.LASF57
 1574 02a9 05       		.byte	0x5
 1575 02aa 6F01     		.2byte	0x16f
 1576 02ac 77000000 		.4byte	0x77
 1577 02b0 14       		.byte	0x14
 1578 02b1 00       		.byte	0
 1579 02b2 04       		.uleb128 0x4
 1580 02b3 3B0B0000 		.4byte	.LASF58
 1581 02b7 05       		.byte	0x5
 1582 02b8 7001     		.2byte	0x170
 1583 02ba D8010000 		.4byte	0x1d8
 1584 02be 0E       		.uleb128 0xe
 1585 02bf 1A       		.byte	0x1a
 1586 02c0 05       		.byte	0x5
 1587 02c1 7501     		.2byte	0x175
 1588 02c3 B2030000 		.4byte	0x3b2
 1589 02c7 0F       		.uleb128 0xf
 1590 02c8 BB040000 		.4byte	.LASF42
 1591 02cc 05       		.byte	0x5
 1592 02cd 7A01     		.2byte	0x17a
 1593 02cf 77000000 		.4byte	0x77
 1594 02d3 00       		.byte	0
 1595 02d4 0F       		.uleb128 0xf
 1596 02d5 CE080000 		.4byte	.LASF43
 1597 02d9 05       		.byte	0x5
ARM GAS  C:\Users\exp32\AppData\Local\Temp\cc6N2LT5.s 			page 61


 1598 02da 7F01     		.2byte	0x17f
 1599 02dc DB000000 		.4byte	0xdb
 1600 02e0 02       		.byte	0x2
 1601 02e1 0F       		.uleb128 0xf
 1602 02e2 82040000 		.4byte	.LASF44
 1603 02e6 05       		.byte	0x5
 1604 02e7 8401     		.2byte	0x184
 1605 02e9 6B000000 		.4byte	0x6b
 1606 02ed 04       		.byte	0x4
 1607 02ee 0F       		.uleb128 0xf
 1608 02ef 81050000 		.4byte	.LASF45
 1609 02f3 05       		.byte	0x5
 1610 02f4 8901     		.2byte	0x189
 1611 02f6 6B000000 		.4byte	0x6b
 1612 02fa 05       		.byte	0x5
 1613 02fb 0F       		.uleb128 0xf
 1614 02fc B9050000 		.4byte	.LASF46
 1615 0300 05       		.byte	0x5
 1616 0301 8F01     		.2byte	0x18f
 1617 0303 6B000000 		.4byte	0x6b
 1618 0307 06       		.byte	0x6
 1619 0308 0F       		.uleb128 0xf
 1620 0309 42050000 		.4byte	.LASF47
 1621 030d 05       		.byte	0x5
 1622 030e 9501     		.2byte	0x195
 1623 0310 6B000000 		.4byte	0x6b
 1624 0314 07       		.byte	0x7
 1625 0315 0F       		.uleb128 0xf
 1626 0316 2D040000 		.4byte	.LASF48
 1627 031a 05       		.byte	0x5
 1628 031b 9C01     		.2byte	0x19c
 1629 031d E7000000 		.4byte	0xe7
 1630 0321 08       		.byte	0x8
 1631 0322 0F       		.uleb128 0xf
 1632 0323 A2080000 		.4byte	.LASF49
 1633 0327 05       		.byte	0x5
 1634 0328 A301     		.2byte	0x1a3
 1635 032a C8010000 		.4byte	0x1c8
 1636 032e 09       		.byte	0x9
 1637 032f 0F       		.uleb128 0xf
 1638 0330 40080000 		.4byte	.LASF50
 1639 0334 05       		.byte	0x5
 1640 0335 AA01     		.2byte	0x1aa
 1641 0337 C8010000 		.4byte	0x1c8
 1642 033b 0A       		.byte	0xa
 1643 033c 0F       		.uleb128 0xf
 1644 033d AE010000 		.4byte	.LASF51
 1645 0341 05       		.byte	0x5
 1646 0342 AF01     		.2byte	0x1af
 1647 0344 6B000000 		.4byte	0x6b
 1648 0348 0B       		.byte	0xb
 1649 0349 0F       		.uleb128 0xf
 1650 034a F4090000 		.4byte	.LASF52
 1651 034e 05       		.byte	0x5
 1652 034f B701     		.2byte	0x1b7
 1653 0351 77000000 		.4byte	0x77
 1654 0355 0C       		.byte	0xc
ARM GAS  C:\Users\exp32\AppData\Local\Temp\cc6N2LT5.s 			page 62


 1655 0356 0F       		.uleb128 0xf
 1656 0357 B1040000 		.4byte	.LASF53
 1657 035b 05       		.byte	0x5
 1658 035c BE01     		.2byte	0x1be
 1659 035e 77000000 		.4byte	0x77
 1660 0362 0E       		.byte	0xe
 1661 0363 0F       		.uleb128 0xf
 1662 0364 1B070000 		.4byte	.LASF54
 1663 0368 05       		.byte	0x5
 1664 0369 C301     		.2byte	0x1c3
 1665 036b 6B000000 		.4byte	0x6b
 1666 036f 10       		.byte	0x10
 1667 0370 0F       		.uleb128 0xf
 1668 0371 8F040000 		.4byte	.LASF55
 1669 0375 05       		.byte	0x5
 1670 0376 C801     		.2byte	0x1c8
 1671 0378 6B000000 		.4byte	0x6b
 1672 037c 11       		.byte	0x11
 1673 037d 0F       		.uleb128 0xf
 1674 037e 6A080000 		.4byte	.LASF56
 1675 0382 05       		.byte	0x5
 1676 0383 CE01     		.2byte	0x1ce
 1677 0385 77000000 		.4byte	0x77
 1678 0389 12       		.byte	0x12
 1679 038a 0F       		.uleb128 0xf
 1680 038b E9030000 		.4byte	.LASF57
 1681 038f 05       		.byte	0x5
 1682 0390 D301     		.2byte	0x1d3
 1683 0392 77000000 		.4byte	0x77
 1684 0396 14       		.byte	0x14
 1685 0397 0F       		.uleb128 0xf
 1686 0398 33090000 		.4byte	.LASF59
 1687 039c 05       		.byte	0x5
 1688 039d D801     		.2byte	0x1d8
 1689 039f 77000000 		.4byte	0x77
 1690 03a3 16       		.byte	0x16
 1691 03a4 0F       		.uleb128 0xf
 1692 03a5 38090000 		.4byte	.LASF60
 1693 03a9 05       		.byte	0x5
 1694 03aa DD01     		.2byte	0x1dd
 1695 03ac 77000000 		.4byte	0x77
 1696 03b0 18       		.byte	0x18
 1697 03b1 00       		.byte	0
 1698 03b2 04       		.uleb128 0x4
 1699 03b3 EB050000 		.4byte	.LASF61
 1700 03b7 05       		.byte	0x5
 1701 03b8 DE01     		.2byte	0x1de
 1702 03ba BE020000 		.4byte	0x2be
 1703 03be 0E       		.uleb128 0xe
 1704 03bf 9E       		.byte	0x9e
 1705 03c0 05       		.byte	0x5
 1706 03c1 E401     		.2byte	0x1e4
 1707 03c3 23040000 		.4byte	0x423
 1708 03c7 0F       		.uleb128 0xf
 1709 03c8 FE070000 		.4byte	.LASF62
 1710 03cc 05       		.byte	0x5
 1711 03cd E901     		.2byte	0x1e9
ARM GAS  C:\Users\exp32\AppData\Local\Temp\cc6N2LT5.s 			page 63


 1712 03cf B2020000 		.4byte	0x2b2
 1713 03d3 00       		.byte	0
 1714 03d4 0F       		.uleb128 0xf
 1715 03d5 06080000 		.4byte	.LASF63
 1716 03d9 05       		.byte	0x5
 1717 03da EE01     		.2byte	0x1ee
 1718 03dc B2020000 		.4byte	0x2b2
 1719 03e0 16       		.byte	0x16
 1720 03e1 0F       		.uleb128 0xf
 1721 03e2 9D020000 		.4byte	.LASF64
 1722 03e6 05       		.byte	0x5
 1723 03e7 F301     		.2byte	0x1f3
 1724 03e9 B2030000 		.4byte	0x3b2
 1725 03ed 2C       		.byte	0x2c
 1726 03ee 0F       		.uleb128 0xf
 1727 03ef 0E080000 		.4byte	.LASF65
 1728 03f3 05       		.byte	0x5
 1729 03f4 F801     		.2byte	0x1f8
 1730 03f6 B2020000 		.4byte	0x2b2
 1731 03fa 46       		.byte	0x46
 1732 03fb 0F       		.uleb128 0xf
 1733 03fc 16080000 		.4byte	.LASF66
 1734 0400 05       		.byte	0x5
 1735 0401 FD01     		.2byte	0x1fd
 1736 0403 B2020000 		.4byte	0x2b2
 1737 0407 5C       		.byte	0x5c
 1738 0408 0F       		.uleb128 0xf
 1739 0409 1E080000 		.4byte	.LASF67
 1740 040d 05       		.byte	0x5
 1741 040e 0202     		.2byte	0x202
 1742 0410 B2020000 		.4byte	0x2b2
 1743 0414 72       		.byte	0x72
 1744 0415 0F       		.uleb128 0xf
 1745 0416 26080000 		.4byte	.LASF68
 1746 041a 05       		.byte	0x5
 1747 041b 0702     		.2byte	0x207
 1748 041d B2020000 		.4byte	0x2b2
 1749 0421 88       		.byte	0x88
 1750 0422 00       		.byte	0
 1751 0423 04       		.uleb128 0x4
 1752 0424 87010000 		.4byte	.LASF69
 1753 0428 05       		.byte	0x5
 1754 0429 0802     		.2byte	0x208
 1755 042b BE030000 		.4byte	0x3be
 1756 042f 0E       		.uleb128 0xe
 1757 0430 0A       		.byte	0xa
 1758 0431 05       		.byte	0x5
 1759 0432 0E02     		.2byte	0x20e
 1760 0434 87040000 		.4byte	0x487
 1761 0438 10       		.uleb128 0x10
 1762 0439 72617700 		.ascii	"raw\000"
 1763 043d 05       		.byte	0x5
 1764 043e 1302     		.2byte	0x213
 1765 0440 87040000 		.4byte	0x487
 1766 0444 00       		.byte	0
 1767 0445 0F       		.uleb128 0xf
 1768 0446 5E0A0000 		.4byte	.LASF70
ARM GAS  C:\Users\exp32\AppData\Local\Temp\cc6N2LT5.s 			page 64


 1769 044a 05       		.byte	0x5
 1770 044b 1802     		.2byte	0x218
 1771 044d 87040000 		.4byte	0x487
 1772 0451 02       		.byte	0x2
 1773 0452 0F       		.uleb128 0xf
 1774 0453 D7080000 		.4byte	.LASF71
 1775 0457 05       		.byte	0x5
 1776 0458 1E02     		.2byte	0x21e
 1777 045a C8010000 		.4byte	0x1c8
 1778 045e 04       		.byte	0x4
 1779 045f 0F       		.uleb128 0xf
 1780 0460 CC070000 		.4byte	.LASF72
 1781 0464 05       		.byte	0x5
 1782 0465 2302     		.2byte	0x223
 1783 0467 DB000000 		.4byte	0xdb
 1784 046b 06       		.byte	0x6
 1785 046c 0F       		.uleb128 0xf
 1786 046d B00A0000 		.4byte	.LASF73
 1787 0471 05       		.byte	0x5
 1788 0472 2802     		.2byte	0x228
 1789 0474 97040000 		.4byte	0x497
 1790 0478 08       		.byte	0x8
 1791 0479 0F       		.uleb128 0xf
 1792 047a 0B050000 		.4byte	.LASF74
 1793 047e 05       		.byte	0x5
 1794 047f 2D02     		.2byte	0x22d
 1795 0481 C8010000 		.4byte	0x1c8
 1796 0485 09       		.byte	0x9
 1797 0486 00       		.byte	0
 1798 0487 0C       		.uleb128 0xc
 1799 0488 77000000 		.4byte	0x77
 1800 048c 97040000 		.4byte	0x497
 1801 0490 0D       		.uleb128 0xd
 1802 0491 D2000000 		.4byte	0xd2
 1803 0495 00       		.byte	0
 1804 0496 00       		.byte	0
 1805 0497 0C       		.uleb128 0xc
 1806 0498 E7000000 		.4byte	0xe7
 1807 049c A7040000 		.4byte	0x4a7
 1808 04a0 0D       		.uleb128 0xd
 1809 04a1 D2000000 		.4byte	0xd2
 1810 04a5 00       		.byte	0
 1811 04a6 00       		.byte	0
 1812 04a7 04       		.uleb128 0x4
 1813 04a8 BE0A0000 		.4byte	.LASF75
 1814 04ac 05       		.byte	0x5
 1815 04ad 2E02     		.2byte	0x22e
 1816 04af 2F040000 		.4byte	0x42f
 1817 04b3 0E       		.uleb128 0xe
 1818 04b4 B4       		.byte	0xb4
 1819 04b5 05       		.byte	0x5
 1820 04b6 3402     		.2byte	0x234
 1821 04b8 18050000 		.4byte	0x518
 1822 04bc 0F       		.uleb128 0xf
 1823 04bd FE070000 		.4byte	.LASF62
 1824 04c1 05       		.byte	0x5
 1825 04c2 3902     		.2byte	0x239
ARM GAS  C:\Users\exp32\AppData\Local\Temp\cc6N2LT5.s 			page 65


 1826 04c4 18050000 		.4byte	0x518
 1827 04c8 00       		.byte	0
 1828 04c9 0F       		.uleb128 0xf
 1829 04ca 06080000 		.4byte	.LASF63
 1830 04ce 05       		.byte	0x5
 1831 04cf 3E02     		.2byte	0x23e
 1832 04d1 18050000 		.4byte	0x518
 1833 04d5 0A       		.byte	0xa
 1834 04d6 0F       		.uleb128 0xf
 1835 04d7 9D020000 		.4byte	.LASF64
 1836 04db 05       		.byte	0x5
 1837 04dc 4302     		.2byte	0x243
 1838 04de 28050000 		.4byte	0x528
 1839 04e2 14       		.byte	0x14
 1840 04e3 0F       		.uleb128 0xf
 1841 04e4 0E080000 		.4byte	.LASF65
 1842 04e8 05       		.byte	0x5
 1843 04e9 4802     		.2byte	0x248
 1844 04eb 18050000 		.4byte	0x518
 1845 04ef 8C       		.byte	0x8c
 1846 04f0 0F       		.uleb128 0xf
 1847 04f1 16080000 		.4byte	.LASF66
 1848 04f5 05       		.byte	0x5
 1849 04f6 4D02     		.2byte	0x24d
 1850 04f8 18050000 		.4byte	0x518
 1851 04fc 96       		.byte	0x96
 1852 04fd 0F       		.uleb128 0xf
 1853 04fe 1E080000 		.4byte	.LASF67
 1854 0502 05       		.byte	0x5
 1855 0503 5202     		.2byte	0x252
 1856 0505 18050000 		.4byte	0x518
 1857 0509 A0       		.byte	0xa0
 1858 050a 0F       		.uleb128 0xf
 1859 050b 26080000 		.4byte	.LASF68
 1860 050f 05       		.byte	0x5
 1861 0510 5702     		.2byte	0x257
 1862 0512 18050000 		.4byte	0x518
 1863 0516 AA       		.byte	0xaa
 1864 0517 00       		.byte	0
 1865 0518 0C       		.uleb128 0xc
 1866 0519 A7040000 		.4byte	0x4a7
 1867 051d 28050000 		.4byte	0x528
 1868 0521 0D       		.uleb128 0xd
 1869 0522 D2000000 		.4byte	0xd2
 1870 0526 00       		.byte	0
 1871 0527 00       		.byte	0
 1872 0528 0C       		.uleb128 0xc
 1873 0529 A7040000 		.4byte	0x4a7
 1874 052d 38050000 		.4byte	0x538
 1875 0531 0D       		.uleb128 0xd
 1876 0532 D2000000 		.4byte	0xd2
 1877 0536 0B       		.byte	0xb
 1878 0537 00       		.byte	0
 1879 0538 04       		.uleb128 0x4
 1880 0539 11060000 		.4byte	.LASF76
 1881 053d 05       		.byte	0x5
 1882 053e 5802     		.2byte	0x258
ARM GAS  C:\Users\exp32\AppData\Local\Temp\cc6N2LT5.s 			page 66


 1883 0540 B3040000 		.4byte	0x4b3
 1884 0544 11       		.uleb128 0x11
 1885 0545 8401     		.2byte	0x184
 1886 0547 05       		.byte	0x5
 1887 0548 5E02     		.2byte	0x25e
 1888 054a 4C060000 		.4byte	0x64c
 1889 054e 0F       		.uleb128 0xf
 1890 054f 9F060000 		.4byte	.LASF77
 1891 0553 05       		.byte	0x5
 1892 0554 6502     		.2byte	0x265
 1893 0556 77000000 		.4byte	0x77
 1894 055a 00       		.byte	0
 1895 055b 0F       		.uleb128 0xf
 1896 055c 260B0000 		.4byte	.LASF78
 1897 0560 05       		.byte	0x5
 1898 0561 6A02     		.2byte	0x26a
 1899 0563 77000000 		.4byte	0x77
 1900 0567 02       		.byte	0x2
 1901 0568 0F       		.uleb128 0xf
 1902 0569 5C000000 		.4byte	.LASF79
 1903 056d 05       		.byte	0x5
 1904 056e 6F02     		.2byte	0x26f
 1905 0570 77000000 		.4byte	0x77
 1906 0574 04       		.byte	0x4
 1907 0575 0F       		.uleb128 0xf
 1908 0576 D1070000 		.4byte	.LASF80
 1909 057a 05       		.byte	0x5
 1910 057b 7502     		.2byte	0x275
 1911 057d 77000000 		.4byte	0x77
 1912 0581 06       		.byte	0x6
 1913 0582 0F       		.uleb128 0xf
 1914 0583 50000000 		.4byte	.LASF81
 1915 0587 05       		.byte	0x5
 1916 0588 7A02     		.2byte	0x27a
 1917 058a 77000000 		.4byte	0x77
 1918 058e 08       		.byte	0x8
 1919 058f 0F       		.uleb128 0xf
 1920 0590 DC040000 		.4byte	.LASF82
 1921 0594 05       		.byte	0x5
 1922 0595 7F02     		.2byte	0x27f
 1923 0597 C6000000 		.4byte	0xc6
 1924 059b 0C       		.byte	0xc
 1925 059c 0F       		.uleb128 0xf
 1926 059d AE070000 		.4byte	.LASF83
 1927 05a1 05       		.byte	0x5
 1928 05a2 8502     		.2byte	0x285
 1929 05a4 4C060000 		.4byte	0x64c
 1930 05a8 10       		.byte	0x10
 1931 05a9 0F       		.uleb128 0xf
 1932 05aa 74080000 		.4byte	.LASF84
 1933 05ae 05       		.byte	0x5
 1934 05af 8C02     		.2byte	0x28c
 1935 05b1 4C060000 		.4byte	0x64c
 1936 05b5 14       		.byte	0x14
 1937 05b6 0F       		.uleb128 0xf
 1938 05b7 11070000 		.4byte	.LASF85
 1939 05bb 05       		.byte	0x5
ARM GAS  C:\Users\exp32\AppData\Local\Temp\cc6N2LT5.s 			page 67


 1940 05bc 9C02     		.2byte	0x29c
 1941 05be 5C060000 		.4byte	0x65c
 1942 05c2 18       		.byte	0x18
 1943 05c3 0F       		.uleb128 0xf
 1944 05c4 8A050000 		.4byte	.LASF86
 1945 05c8 05       		.byte	0x5
 1946 05c9 A202     		.2byte	0x2a2
 1947 05cb 77000000 		.4byte	0x77
 1948 05cf 26       		.byte	0x26
 1949 05d0 0F       		.uleb128 0xf
 1950 05d1 CC030000 		.4byte	.LASF87
 1951 05d5 05       		.byte	0x5
 1952 05d6 A702     		.2byte	0x2a7
 1953 05d8 6B000000 		.4byte	0x6b
 1954 05dc 28       		.byte	0x28
 1955 05dd 0F       		.uleb128 0xf
 1956 05de 54050000 		.4byte	.LASF88
 1957 05e2 05       		.byte	0x5
 1958 05e3 AC02     		.2byte	0x2ac
 1959 05e5 23040000 		.4byte	0x423
 1960 05e9 2A       		.byte	0x2a
 1961 05ea 0F       		.uleb128 0xf
 1962 05eb 60020000 		.4byte	.LASF89
 1963 05ef 05       		.byte	0x5
 1964 05f0 B102     		.2byte	0x2b1
 1965 05f2 38050000 		.4byte	0x538
 1966 05f6 C8       		.byte	0xc8
 1967 05f7 12       		.uleb128 0x12
 1968 05f8 2A000000 		.4byte	.LASF90
 1969 05fc 05       		.byte	0x5
 1970 05fd B602     		.2byte	0x2b6
 1971 05ff 6B000000 		.4byte	0x6b
 1972 0603 7C01     		.2byte	0x17c
 1973 0605 12       		.uleb128 0x12
 1974 0606 A7020000 		.4byte	.LASF91
 1975 060a 05       		.byte	0x5
 1976 060b BB02     		.2byte	0x2bb
 1977 060d 6B000000 		.4byte	0x6b
 1978 0611 7D01     		.2byte	0x17d
 1979 0613 12       		.uleb128 0x12
 1980 0614 8C060000 		.4byte	.LASF92
 1981 0618 05       		.byte	0x5
 1982 0619 C002     		.2byte	0x2c0
 1983 061b 77000000 		.4byte	0x77
 1984 061f 7E01     		.2byte	0x17e
 1985 0621 12       		.uleb128 0x12
 1986 0622 6A050000 		.4byte	.LASF93
 1987 0626 05       		.byte	0x5
 1988 0627 C502     		.2byte	0x2c5
 1989 0629 87040000 		.4byte	0x487
 1990 062d 8001     		.2byte	0x180
 1991 062f 12       		.uleb128 0x12
 1992 0630 9A000000 		.4byte	.LASF94
 1993 0634 05       		.byte	0x5
 1994 0635 CA02     		.2byte	0x2ca
 1995 0637 6B000000 		.4byte	0x6b
 1996 063b 8201     		.2byte	0x182
ARM GAS  C:\Users\exp32\AppData\Local\Temp\cc6N2LT5.s 			page 68


 1997 063d 12       		.uleb128 0x12
 1998 063e 3D090000 		.4byte	.LASF95
 1999 0642 05       		.byte	0x5
 2000 0643 CF02     		.2byte	0x2cf
 2001 0645 6B000000 		.4byte	0x6b
 2002 0649 8301     		.2byte	0x183
 2003 064b 00       		.byte	0
 2004 064c 0C       		.uleb128 0xc
 2005 064d 83000000 		.4byte	0x83
 2006 0651 5C060000 		.4byte	0x65c
 2007 0655 0D       		.uleb128 0xd
 2008 0656 D2000000 		.4byte	0xd2
 2009 065a 00       		.byte	0
 2010 065b 00       		.byte	0
 2011 065c 0C       		.uleb128 0xc
 2012 065d 77000000 		.4byte	0x77
 2013 0661 6C060000 		.4byte	0x66c
 2014 0665 0D       		.uleb128 0xd
 2015 0666 D2000000 		.4byte	0xd2
 2016 066a 06       		.byte	0x6
 2017 066b 00       		.byte	0
 2018 066c 04       		.uleb128 0x4
 2019 066d C6040000 		.4byte	.LASF96
 2020 0671 05       		.byte	0x5
 2021 0672 D002     		.2byte	0x2d0
 2022 0674 44050000 		.4byte	0x544
 2023 0678 0E       		.uleb128 0xe
 2024 0679 1C       		.byte	0x1c
 2025 067a 05       		.byte	0x5
 2026 067b D602     		.2byte	0x2d6
 2027 067d F7060000 		.4byte	0x6f7
 2028 0681 0F       		.uleb128 0xf
 2029 0682 A9050000 		.4byte	.LASF97
 2030 0686 05       		.byte	0x5
 2031 0687 DB02     		.2byte	0x2db
 2032 0689 F7060000 		.4byte	0x6f7
 2033 068d 00       		.byte	0
 2034 068e 0F       		.uleb128 0xf
 2035 068f 14050000 		.4byte	.LASF98
 2036 0693 05       		.byte	0x5
 2037 0694 E002     		.2byte	0x2e0
 2038 0696 F7060000 		.4byte	0x6f7
 2039 069a 04       		.byte	0x4
 2040 069b 0F       		.uleb128 0xf
 2041 069c D6030000 		.4byte	.LASF99
 2042 06a0 05       		.byte	0x5
 2043 06a1 E502     		.2byte	0x2e5
 2044 06a3 F7060000 		.4byte	0x6f7
 2045 06a7 08       		.byte	0x8
 2046 06a8 0F       		.uleb128 0xf
 2047 06a9 DA070000 		.4byte	.LASF100
 2048 06ad 05       		.byte	0x5
 2049 06ae EA02     		.2byte	0x2ea
 2050 06b0 F7060000 		.4byte	0x6f7
 2051 06b4 0C       		.byte	0xc
 2052 06b5 0F       		.uleb128 0xf
 2053 06b6 B0090000 		.4byte	.LASF101
ARM GAS  C:\Users\exp32\AppData\Local\Temp\cc6N2LT5.s 			page 69


 2054 06ba 05       		.byte	0x5
 2055 06bb EF02     		.2byte	0x2ef
 2056 06bd 83000000 		.4byte	0x83
 2057 06c1 10       		.byte	0x10
 2058 06c2 0F       		.uleb128 0xf
 2059 06c3 30060000 		.4byte	.LASF102
 2060 06c7 05       		.byte	0x5
 2061 06c8 F402     		.2byte	0x2f4
 2062 06ca 83000000 		.4byte	0x83
 2063 06ce 14       		.byte	0x14
 2064 06cf 0F       		.uleb128 0xf
 2065 06d0 9F040000 		.4byte	.LASF103
 2066 06d4 05       		.byte	0x5
 2067 06d5 F902     		.2byte	0x2f9
 2068 06d7 6B000000 		.4byte	0x6b
 2069 06db 18       		.byte	0x18
 2070 06dc 0F       		.uleb128 0xf
 2071 06dd 88080000 		.4byte	.LASF104
 2072 06e1 05       		.byte	0x5
 2073 06e2 FE02     		.2byte	0x2fe
 2074 06e4 6B000000 		.4byte	0x6b
 2075 06e8 19       		.byte	0x19
 2076 06e9 0F       		.uleb128 0xf
 2077 06ea C8010000 		.4byte	.LASF105
 2078 06ee 05       		.byte	0x5
 2079 06ef 0303     		.2byte	0x303
 2080 06f1 6B000000 		.4byte	0x6b
 2081 06f5 1A       		.byte	0x1a
 2082 06f6 00       		.byte	0
 2083 06f7 13       		.uleb128 0x13
 2084 06f8 04       		.byte	0x4
 2085 06f9 BA000000 		.4byte	0xba
 2086 06fd 04       		.uleb128 0x4
 2087 06fe 880A0000 		.4byte	.LASF106
 2088 0702 05       		.byte	0x5
 2089 0703 0403     		.2byte	0x304
 2090 0705 78060000 		.4byte	0x678
 2091 0709 0E       		.uleb128 0xe
 2092 070a 34       		.byte	0x34
 2093 070b 05       		.byte	0x5
 2094 070c 3703     		.2byte	0x337
 2095 070e E3070000 		.4byte	0x7e3
 2096 0712 0F       		.uleb128 0xf
 2097 0713 5D050000 		.4byte	.LASF107
 2098 0717 05       		.byte	0x5
 2099 0718 4003     		.2byte	0x340
 2100 071a E3070000 		.4byte	0x7e3
 2101 071e 00       		.byte	0
 2102 071f 0F       		.uleb128 0xf
 2103 0720 4C090000 		.4byte	.LASF108
 2104 0724 05       		.byte	0x5
 2105 0725 4703     		.2byte	0x347
 2106 0727 D9000000 		.4byte	0xd9
 2107 072b 04       		.byte	0x4
 2108 072c 0F       		.uleb128 0xf
 2109 072d A8060000 		.4byte	.LASF109
 2110 0731 05       		.byte	0x5
ARM GAS  C:\Users\exp32\AppData\Local\Temp\cc6N2LT5.s 			page 70


 2111 0732 4D03     		.2byte	0x34d
 2112 0734 EA070000 		.4byte	0x7ea
 2113 0738 08       		.byte	0x8
 2114 0739 0F       		.uleb128 0xf
 2115 073a C4050000 		.4byte	.LASF110
 2116 073e 05       		.byte	0x5
 2117 073f 5303     		.2byte	0x353
 2118 0741 D9000000 		.4byte	0xd9
 2119 0745 0C       		.byte	0xc
 2120 0746 0F       		.uleb128 0xf
 2121 0747 AA080000 		.4byte	.LASF111
 2122 074b 05       		.byte	0x5
 2123 074c 5A03     		.2byte	0x35a
 2124 074e F0070000 		.4byte	0x7f0
 2125 0752 10       		.byte	0x10
 2126 0753 0F       		.uleb128 0xf
 2127 0754 26090000 		.4byte	.LASF112
 2128 0758 05       		.byte	0x5
 2129 0759 5F03     		.2byte	0x35f
 2130 075b 83000000 		.4byte	0x83
 2131 075f 14       		.byte	0x14
 2132 0760 0F       		.uleb128 0xf
 2133 0761 38040000 		.4byte	.LASF113
 2134 0765 05       		.byte	0x5
 2135 0766 6603     		.2byte	0x366
 2136 0768 77000000 		.4byte	0x77
 2137 076c 18       		.byte	0x18
 2138 076d 0F       		.uleb128 0xf
 2139 076e 30030000 		.4byte	.LASF114
 2140 0772 05       		.byte	0x5
 2141 0773 6D03     		.2byte	0x36d
 2142 0775 6B000000 		.4byte	0x6b
 2143 0779 1A       		.byte	0x1a
 2144 077a 0F       		.uleb128 0xf
 2145 077b 38080000 		.4byte	.LASF115
 2146 077f 05       		.byte	0x5
 2147 0780 7703     		.2byte	0x377
 2148 0782 6B000000 		.4byte	0x6b
 2149 0786 1B       		.byte	0x1b
 2150 0787 0F       		.uleb128 0xf
 2151 0788 7D090000 		.4byte	.LASF116
 2152 078c 05       		.byte	0x5
 2153 078d 7F03     		.2byte	0x37f
 2154 078f 6B000000 		.4byte	0x6b
 2155 0793 1C       		.byte	0x1c
 2156 0794 0F       		.uleb128 0xf
 2157 0795 3C070000 		.4byte	.LASF117
 2158 0799 05       		.byte	0x5
 2159 079a 8403     		.2byte	0x384
 2160 079c 77000000 		.4byte	0x77
 2161 07a0 1E       		.byte	0x1e
 2162 07a1 0F       		.uleb128 0xf
 2163 07a2 2F0B0000 		.4byte	.LASF118
 2164 07a6 05       		.byte	0x5
 2165 07a7 8903     		.2byte	0x389
 2166 07a9 77000000 		.4byte	0x77
 2167 07ad 20       		.byte	0x20
ARM GAS  C:\Users\exp32\AppData\Local\Temp\cc6N2LT5.s 			page 71


 2168 07ae 0F       		.uleb128 0xf
 2169 07af BA080000 		.4byte	.LASF119
 2170 07b3 05       		.byte	0x5
 2171 07b4 9203     		.2byte	0x392
 2172 07b6 83000000 		.4byte	0x83
 2173 07ba 24       		.byte	0x24
 2174 07bb 0F       		.uleb128 0xf
 2175 07bc 28070000 		.4byte	.LASF120
 2176 07c0 05       		.byte	0x5
 2177 07c1 9B03     		.2byte	0x39b
 2178 07c3 83000000 		.4byte	0x83
 2179 07c7 28       		.byte	0x28
 2180 07c8 0F       		.uleb128 0xf
 2181 07c9 B7020000 		.4byte	.LASF121
 2182 07cd 05       		.byte	0x5
 2183 07ce A303     		.2byte	0x3a3
 2184 07d0 F6070000 		.4byte	0x7f6
 2185 07d4 2C       		.byte	0x2c
 2186 07d5 0F       		.uleb128 0xf
 2187 07d6 78010000 		.4byte	.LASF122
 2188 07da 05       		.byte	0x5
 2189 07db A803     		.2byte	0x3a8
 2190 07dd 6B000000 		.4byte	0x6b
 2191 07e1 30       		.byte	0x30
 2192 07e2 00       		.byte	0
 2193 07e3 13       		.uleb128 0x13
 2194 07e4 04       		.byte	0x4
 2195 07e5 E9070000 		.4byte	0x7e9
 2196 07e9 14       		.uleb128 0x14
 2197 07ea 13       		.uleb128 0x13
 2198 07eb 04       		.byte	0x4
 2199 07ec A7040000 		.4byte	0x4a7
 2200 07f0 13       		.uleb128 0x13
 2201 07f1 04       		.byte	0x4
 2202 07f2 6B000000 		.4byte	0x6b
 2203 07f6 13       		.uleb128 0x13
 2204 07f7 04       		.byte	0x4
 2205 07f8 50010000 		.4byte	0x150
 2206 07fc 04       		.uleb128 0x4
 2207 07fd 00000000 		.4byte	.LASF123
 2208 0801 05       		.byte	0x5
 2209 0802 A903     		.2byte	0x3a9
 2210 0804 09070000 		.4byte	0x709
 2211 0808 11       		.uleb128 0x11
 2212 0809 6C01     		.2byte	0x16c
 2213 080b 05       		.byte	0x5
 2214 080c AF03     		.2byte	0x3af
 2215 080e 20080000 		.4byte	0x820
 2216 0812 0F       		.uleb128 0xf
 2217 0813 640B0000 		.4byte	.LASF124
 2218 0817 05       		.byte	0x5
 2219 0818 B403     		.2byte	0x3b4
 2220 081a 20080000 		.4byte	0x820
 2221 081e 00       		.byte	0
 2222 081f 00       		.byte	0
 2223 0820 0C       		.uleb128 0xc
 2224 0821 FC070000 		.4byte	0x7fc
ARM GAS  C:\Users\exp32\AppData\Local\Temp\cc6N2LT5.s 			page 72


 2225 0825 30080000 		.4byte	0x830
 2226 0829 0D       		.uleb128 0xd
 2227 082a D2000000 		.4byte	0xd2
 2228 082e 06       		.byte	0x6
 2229 082f 00       		.byte	0
 2230 0830 04       		.uleb128 0x4
 2231 0831 F9060000 		.4byte	.LASF125
 2232 0835 05       		.byte	0x5
 2233 0836 B503     		.2byte	0x3b5
 2234 0838 08080000 		.4byte	0x808
 2235 083c 0E       		.uleb128 0xe
 2236 083d 08       		.byte	0x8
 2237 083e 01       		.byte	0x1
 2238 083f AF02     		.2byte	0x2af
 2239 0841 A0080000 		.4byte	0x8a0
 2240 0845 0F       		.uleb128 0xf
 2241 0846 DC030000 		.4byte	.LASF126
 2242 084a 01       		.byte	0x1
 2243 084b B102     		.2byte	0x2b1
 2244 084d 77000000 		.4byte	0x77
 2245 0851 00       		.byte	0
 2246 0852 0F       		.uleb128 0xf
 2247 0853 5B0B0000 		.4byte	.LASF127
 2248 0857 01       		.byte	0x1
 2249 0858 B202     		.2byte	0x2b2
 2250 085a 6B000000 		.4byte	0x6b
 2251 085e 02       		.byte	0x2
 2252 085f 0F       		.uleb128 0xf
 2253 0860 760A0000 		.4byte	.LASF128
 2254 0864 01       		.byte	0x1
 2255 0865 B302     		.2byte	0x2b3
 2256 0867 6B000000 		.4byte	0x6b
 2257 086b 03       		.byte	0x3
 2258 086c 10       		.uleb128 0x10
 2259 086d 63726300 		.ascii	"crc\000"
 2260 0871 01       		.byte	0x1
 2261 0872 B402     		.2byte	0x2b4
 2262 0874 6B000000 		.4byte	0x6b
 2263 0878 04       		.byte	0x4
 2264 0879 0F       		.uleb128 0xf
 2265 087a 13090000 		.4byte	.LASF129
 2266 087e 01       		.byte	0x1
 2267 087f B502     		.2byte	0x2b5
 2268 0881 6B000000 		.4byte	0x6b
 2269 0885 05       		.byte	0x5
 2270 0886 10       		.uleb128 0x10
 2271 0887 727700   		.ascii	"rw\000"
 2272 088a 01       		.byte	0x1
 2273 088b B602     		.2byte	0x2b6
 2274 088d 6B000000 		.4byte	0x6b
 2275 0891 06       		.byte	0x6
 2276 0892 0F       		.uleb128 0xf
 2277 0893 00090000 		.4byte	.LASF130
 2278 0897 01       		.byte	0x1
 2279 0898 B702     		.2byte	0x2b7
 2280 089a 6B000000 		.4byte	0x6b
 2281 089e 07       		.byte	0x7
ARM GAS  C:\Users\exp32\AppData\Local\Temp\cc6N2LT5.s 			page 73


 2282 089f 00       		.byte	0
 2283 08a0 04       		.uleb128 0x4
 2284 08a1 E9060000 		.4byte	.LASF131
 2285 08a5 01       		.byte	0x1
 2286 08a6 B802     		.2byte	0x2b8
 2287 08a8 3C080000 		.4byte	0x83c
 2288 08ac 15       		.uleb128 0x15
 2289 08ad 0F010000 		.4byte	.LASF179
 2290 08b1 01       		.byte	0x1
 2291 08b2 B103     		.2byte	0x3b1
 2292 08b4 A4000000 		.4byte	0xa4
 2293 08b8 00000000 		.4byte	.LFB2
 2294 08bc 82000000 		.4byte	.LFE2-.LFB2
 2295 08c0 01       		.uleb128 0x1
 2296 08c1 9C       		.byte	0x9c
 2297 08c2 F5080000 		.4byte	0x8f5
 2298 08c6 16       		.uleb128 0x16
 2299 08c7 22000000 		.4byte	.LASF132
 2300 08cb 01       		.byte	0x1
 2301 08cc B103     		.2byte	0x3b1
 2302 08ce 83000000 		.4byte	0x83
 2303 08d2 00000000 		.4byte	.LLST0
 2304 08d6 17       		.uleb128 0x17
 2305 08d7 E3030000 		.4byte	.LASF133
 2306 08db 01       		.byte	0x1
 2307 08dc B103     		.2byte	0x3b1
 2308 08de F5080000 		.4byte	0x8f5
 2309 08e2 01       		.uleb128 0x1
 2310 08e3 51       		.byte	0x51
 2311 08e4 18       		.uleb128 0x18
 2312 08e5 68020000 		.4byte	.LASF134
 2313 08e9 01       		.byte	0x1
 2314 08ea B303     		.2byte	0x3b3
 2315 08ec A4000000 		.4byte	0xa4
 2316 08f0 21000000 		.4byte	.LLST1
 2317 08f4 00       		.byte	0
 2318 08f5 13       		.uleb128 0x13
 2319 08f6 04       		.byte	0x4
 2320 08f7 A0080000 		.4byte	0x8a0
 2321 08fb 19       		.uleb128 0x19
 2322 08fc E8080000 		.4byte	.LASF180
 2323 0900 01       		.byte	0x1
 2324 0901 D802     		.2byte	0x2d8
 2325 0903 00000000 		.4byte	.LFB1
 2326 0907 80000000 		.4byte	.LFE1-.LFB1
 2327 090b 01       		.uleb128 0x1
 2328 090c 9C       		.byte	0x9c
 2329 090d A1090000 		.4byte	0x9a1
 2330 0911 18       		.uleb128 0x18
 2331 0912 BC010000 		.4byte	.LASF135
 2332 0916 01       		.byte	0x1
 2333 0917 DE02     		.2byte	0x2de
 2334 0919 83000000 		.4byte	0x83
 2335 091d 6D000000 		.4byte	.LLST2
 2336 0921 18       		.uleb128 0x18
 2337 0922 1B000000 		.4byte	.LASF136
 2338 0926 01       		.byte	0x1
ARM GAS  C:\Users\exp32\AppData\Local\Temp\cc6N2LT5.s 			page 74


 2339 0927 DF02     		.2byte	0x2df
 2340 0929 83000000 		.4byte	0x83
 2341 092d A1000000 		.4byte	.LLST3
 2342 0931 18       		.uleb128 0x18
 2343 0932 2E080000 		.4byte	.LASF137
 2344 0936 01       		.byte	0x1
 2345 0937 E002     		.2byte	0x2e0
 2346 0939 EA070000 		.4byte	0x7ea
 2347 093d E3000000 		.4byte	.LLST4
 2348 0941 18       		.uleb128 0x18
 2349 0942 19090000 		.4byte	.LASF138
 2350 0946 01       		.byte	0x1
 2351 0947 E102     		.2byte	0x2e1
 2352 0949 A1090000 		.4byte	0x9a1
 2353 094d F6000000 		.4byte	.LLST5
 2354 0951 18       		.uleb128 0x18
 2355 0952 5D060000 		.4byte	.LASF139
 2356 0956 01       		.byte	0x1
 2357 0957 EA02     		.2byte	0x2ea
 2358 0959 AC090000 		.4byte	0x9ac
 2359 095d 19010000 		.4byte	.LLST6
 2360 0961 1A       		.uleb128 0x1a
 2361 0962 10000000 		.4byte	.LVL13
 2362 0966 6D0E0000 		.4byte	0xe6d
 2363 096a 81090000 		.4byte	0x981
 2364 096e 1B       		.uleb128 0x1b
 2365 096f 01       		.uleb128 0x1
 2366 0970 50       		.byte	0x50
 2367 0971 02       		.uleb128 0x2
 2368 0972 74       		.byte	0x74
 2369 0973 00       		.sleb128 0
 2370 0974 1B       		.uleb128 0x1b
 2371 0975 01       		.uleb128 0x1
 2372 0976 51       		.byte	0x51
 2373 0977 01       		.uleb128 0x1
 2374 0978 30       		.byte	0x30
 2375 0979 1B       		.uleb128 0x1b
 2376 097a 01       		.uleb128 0x1
 2377 097b 52       		.byte	0x52
 2378 097c 03       		.uleb128 0x3
 2379 097d 0A       		.byte	0xa
 2380 097e 8401     		.2byte	0x184
 2381 0980 00       		.byte	0
 2382 0981 1C       		.uleb128 0x1c
 2383 0982 3E000000 		.4byte	.LVL14
 2384 0986 760E0000 		.4byte	0xe76
 2385 098a 1B       		.uleb128 0x1b
 2386 098b 01       		.uleb128 0x1
 2387 098c 50       		.byte	0x50
 2388 098d 02       		.uleb128 0x2
 2389 098e 74       		.byte	0x74
 2390 098f 2A       		.sleb128 42
 2391 0990 1B       		.uleb128 0x1b
 2392 0991 01       		.uleb128 0x1
 2393 0992 51       		.byte	0x51
 2394 0993 05       		.uleb128 0x5
 2395 0994 03       		.byte	0x3
ARM GAS  C:\Users\exp32\AppData\Local\Temp\cc6N2LT5.s 			page 75


 2396 0995 80010000 		.4byte	.LANCHOR1
 2397 0999 1B       		.uleb128 0x1b
 2398 099a 01       		.uleb128 0x1
 2399 099b 52       		.byte	0x52
 2400 099c 02       		.uleb128 0x2
 2401 099d 08       		.byte	0x8
 2402 099e 9E       		.byte	0x9e
 2403 099f 00       		.byte	0
 2404 09a0 00       		.byte	0
 2405 09a1 13       		.uleb128 0x13
 2406 09a2 04       		.byte	0x4
 2407 09a3 A7090000 		.4byte	0x9a7
 2408 09a7 1D       		.uleb128 0x1d
 2409 09a8 FC070000 		.4byte	0x7fc
 2410 09ac 13       		.uleb128 0x13
 2411 09ad 04       		.byte	0x4
 2412 09ae B2090000 		.4byte	0x9b2
 2413 09b2 1D       		.uleb128 0x1d
 2414 09b3 6B000000 		.4byte	0x6b
 2415 09b7 1E       		.uleb128 0x1e
 2416 09b8 4C010000 		.4byte	.LASF145
 2417 09bc 01       		.byte	0x1
 2418 09bd 6F04     		.2byte	0x46f
 2419 09bf A4000000 		.4byte	0xa4
 2420 09c3 00000000 		.4byte	.LFB3
 2421 09c7 60000000 		.4byte	.LFE3-.LFB3
 2422 09cb 01       		.uleb128 0x1
 2423 09cc 9C       		.byte	0x9c
 2424 09cd 850A0000 		.4byte	0xa85
 2425 09d1 16       		.uleb128 0x16
 2426 09d2 22000000 		.4byte	.LASF132
 2427 09d6 01       		.byte	0x1
 2428 09d7 6F04     		.2byte	0x46f
 2429 09d9 83000000 		.4byte	0x83
 2430 09dd 3C010000 		.4byte	.LLST7
 2431 09e1 16       		.uleb128 0x16
 2432 09e2 AD030000 		.4byte	.LASF140
 2433 09e6 01       		.byte	0x1
 2434 09e7 6F04     		.2byte	0x46f
 2435 09e9 850A0000 		.4byte	0xa85
 2436 09ed 5D010000 		.4byte	.LLST8
 2437 09f1 1F       		.uleb128 0x1f
 2438 09f2 E3030000 		.4byte	.LASF133
 2439 09f6 01       		.byte	0x1
 2440 09f7 7104     		.2byte	0x471
 2441 09f9 A0080000 		.4byte	0x8a0
 2442 09fd 02       		.uleb128 0x2
 2443 09fe 91       		.byte	0x91
 2444 09ff 68       		.sleb128 -24
 2445 0a00 18       		.uleb128 0x18
 2446 0a01 68020000 		.4byte	.LASF134
 2447 0a05 01       		.byte	0x1
 2448 0a06 7204     		.2byte	0x472
 2449 0a08 A4000000 		.4byte	0xa4
 2450 0a0c 89010000 		.4byte	.LLST9
 2451 0a10 20       		.uleb128 0x20
 2452 0a11 04       		.byte	0x4
ARM GAS  C:\Users\exp32\AppData\Local\Temp\cc6N2LT5.s 			page 76


 2453 0a12 01       		.byte	0x1
 2454 0a13 7404     		.2byte	0x474
 2455 0a15 4A0A0000 		.4byte	0xa4a
 2456 0a19 21       		.uleb128 0x21
 2457 0a1a 70747200 		.ascii	"ptr\000"
 2458 0a1e 01       		.byte	0x1
 2459 0a1f 7604     		.2byte	0x476
 2460 0a21 8B0A0000 		.4byte	0xa8b
 2461 0a25 22       		.uleb128 0x22
 2462 0a26 3A000000 		.4byte	.LASF141
 2463 0a2a 01       		.byte	0x1
 2464 0a2b 7704     		.2byte	0x477
 2465 0a2d 970A0000 		.4byte	0xa97
 2466 0a31 22       		.uleb128 0x22
 2467 0a32 01050000 		.4byte	.LASF142
 2468 0a36 01       		.byte	0x1
 2469 0a37 7804     		.2byte	0x478
 2470 0a39 A20A0000 		.4byte	0xaa2
 2471 0a3d 22       		.uleb128 0x22
 2472 0a3e 53060000 		.4byte	.LASF143
 2473 0a42 01       		.byte	0x1
 2474 0a43 7904     		.2byte	0x479
 2475 0a45 B20A0000 		.4byte	0xab2
 2476 0a49 00       		.byte	0
 2477 0a4a 18       		.uleb128 0x18
 2478 0a4b 8B090000 		.4byte	.LASF144
 2479 0a4f 01       		.byte	0x1
 2480 0a50 7A04     		.2byte	0x47a
 2481 0a52 100A0000 		.4byte	0xa10
 2482 0a56 B2010000 		.4byte	.LLST10
 2483 0a5a 1A       		.uleb128 0x1a
 2484 0a5b 0C000000 		.4byte	.LVL30
 2485 0a5f AC080000 		.4byte	0x8ac
 2486 0a63 750A0000 		.4byte	0xa75
 2487 0a67 1B       		.uleb128 0x1b
 2488 0a68 01       		.uleb128 0x1
 2489 0a69 50       		.byte	0x50
 2490 0a6a 03       		.uleb128 0x3
 2491 0a6b F3       		.byte	0xf3
 2492 0a6c 01       		.uleb128 0x1
 2493 0a6d 50       		.byte	0x50
 2494 0a6e 1B       		.uleb128 0x1b
 2495 0a6f 01       		.uleb128 0x1
 2496 0a70 51       		.byte	0x51
 2497 0a71 02       		.uleb128 0x2
 2498 0a72 7D       		.byte	0x7d
 2499 0a73 00       		.sleb128 0
 2500 0a74 00       		.byte	0
 2501 0a75 1C       		.uleb128 0x1c
 2502 0a76 50000000 		.4byte	.LVL36
 2503 0a7a 7F0E0000 		.4byte	0xe7f
 2504 0a7e 1B       		.uleb128 0x1b
 2505 0a7f 01       		.uleb128 0x1
 2506 0a80 50       		.byte	0x50
 2507 0a81 01       		.uleb128 0x1
 2508 0a82 30       		.byte	0x30
 2509 0a83 00       		.byte	0
ARM GAS  C:\Users\exp32\AppData\Local\Temp\cc6N2LT5.s 			page 77


 2510 0a84 00       		.byte	0
 2511 0a85 13       		.uleb128 0x13
 2512 0a86 04       		.byte	0x4
 2513 0a87 83000000 		.4byte	0x83
 2514 0a8b 13       		.uleb128 0x13
 2515 0a8c 04       		.byte	0x4
 2516 0a8d 920A0000 		.4byte	0xa92
 2517 0a91 23       		.uleb128 0x23
 2518 0a92 1D       		.uleb128 0x1d
 2519 0a93 910A0000 		.4byte	0xa91
 2520 0a97 13       		.uleb128 0x13
 2521 0a98 04       		.byte	0x4
 2522 0a99 9D0A0000 		.4byte	0xa9d
 2523 0a9d 05       		.uleb128 0x5
 2524 0a9e B2090000 		.4byte	0x9b2
 2525 0aa2 13       		.uleb128 0x13
 2526 0aa3 04       		.byte	0x4
 2527 0aa4 AD0A0000 		.4byte	0xaad
 2528 0aa8 1D       		.uleb128 0x1d
 2529 0aa9 77000000 		.4byte	0x77
 2530 0aad 05       		.uleb128 0x5
 2531 0aae A80A0000 		.4byte	0xaa8
 2532 0ab2 13       		.uleb128 0x13
 2533 0ab3 04       		.byte	0x4
 2534 0ab4 B80A0000 		.4byte	0xab8
 2535 0ab8 1D       		.uleb128 0x1d
 2536 0ab9 C6000000 		.4byte	0xc6
 2537 0abd 1E       		.uleb128 0x1e
 2538 0abe 95050000 		.4byte	.LASF146
 2539 0ac2 01       		.byte	0x1
 2540 0ac3 DB04     		.2byte	0x4db
 2541 0ac5 A4000000 		.4byte	0xa4
 2542 0ac9 00000000 		.4byte	.LFB4
 2543 0acd 58000000 		.4byte	.LFE4-.LFB4
 2544 0ad1 01       		.uleb128 0x1
 2545 0ad2 9C       		.byte	0x9c
 2546 0ad3 870B0000 		.4byte	0xb87
 2547 0ad7 16       		.uleb128 0x16
 2548 0ad8 22000000 		.4byte	.LASF132
 2549 0adc 01       		.byte	0x1
 2550 0add DB04     		.2byte	0x4db
 2551 0adf 83000000 		.4byte	0x83
 2552 0ae3 C5010000 		.4byte	.LLST11
 2553 0ae7 16       		.uleb128 0x16
 2554 0ae8 AD030000 		.4byte	.LASF140
 2555 0aec 01       		.byte	0x1
 2556 0aed DB04     		.2byte	0x4db
 2557 0aef 83000000 		.4byte	0x83
 2558 0af3 E6010000 		.4byte	.LLST12
 2559 0af7 18       		.uleb128 0x18
 2560 0af8 68020000 		.4byte	.LASF134
 2561 0afc 01       		.byte	0x1
 2562 0afd DD04     		.2byte	0x4dd
 2563 0aff A4000000 		.4byte	0xa4
 2564 0b03 44020000 		.4byte	.LLST13
 2565 0b07 1F       		.uleb128 0x1f
 2566 0b08 E3030000 		.4byte	.LASF133
ARM GAS  C:\Users\exp32\AppData\Local\Temp\cc6N2LT5.s 			page 78


 2567 0b0c 01       		.byte	0x1
 2568 0b0d DE04     		.2byte	0x4de
 2569 0b0f A0080000 		.4byte	0x8a0
 2570 0b13 02       		.uleb128 0x2
 2571 0b14 91       		.byte	0x91
 2572 0b15 68       		.sleb128 -24
 2573 0b16 20       		.uleb128 0x20
 2574 0b17 04       		.byte	0x4
 2575 0b18 01       		.byte	0x1
 2576 0b19 E004     		.2byte	0x4e0
 2577 0b1b 500B0000 		.4byte	0xb50
 2578 0b1f 21       		.uleb128 0x21
 2579 0b20 70747200 		.ascii	"ptr\000"
 2580 0b24 01       		.byte	0x1
 2581 0b25 E204     		.2byte	0x4e2
 2582 0b27 870B0000 		.4byte	0xb87
 2583 0b2b 22       		.uleb128 0x22
 2584 0b2c 3A000000 		.4byte	.LASF141
 2585 0b30 01       		.byte	0x1
 2586 0b31 E304     		.2byte	0x4e3
 2587 0b33 8D0B0000 		.4byte	0xb8d
 2588 0b37 22       		.uleb128 0x22
 2589 0b38 01050000 		.4byte	.LASF142
 2590 0b3c 01       		.byte	0x1
 2591 0b3d E404     		.2byte	0x4e4
 2592 0b3f 930B0000 		.4byte	0xb93
 2593 0b43 22       		.uleb128 0x22
 2594 0b44 53060000 		.4byte	.LASF143
 2595 0b48 01       		.byte	0x1
 2596 0b49 E504     		.2byte	0x4e5
 2597 0b4b 990B0000 		.4byte	0xb99
 2598 0b4f 00       		.byte	0
 2599 0b50 24       		.uleb128 0x24
 2600 0b51 8B090000 		.4byte	.LASF144
 2601 0b55 01       		.byte	0x1
 2602 0b56 E604     		.2byte	0x4e6
 2603 0b58 160B0000 		.4byte	0xb16
 2604 0b5c 1A       		.uleb128 0x1a
 2605 0b5d 0C000000 		.4byte	.LVL41
 2606 0b61 AC080000 		.4byte	0x8ac
 2607 0b65 770B0000 		.4byte	0xb77
 2608 0b69 1B       		.uleb128 0x1b
 2609 0b6a 01       		.uleb128 0x1
 2610 0b6b 50       		.byte	0x50
 2611 0b6c 03       		.uleb128 0x3
 2612 0b6d F3       		.byte	0xf3
 2613 0b6e 01       		.uleb128 0x1
 2614 0b6f 50       		.byte	0x50
 2615 0b70 1B       		.uleb128 0x1b
 2616 0b71 01       		.uleb128 0x1
 2617 0b72 51       		.byte	0x51
 2618 0b73 02       		.uleb128 0x2
 2619 0b74 7D       		.byte	0x7d
 2620 0b75 00       		.sleb128 0
 2621 0b76 00       		.byte	0
 2622 0b77 1C       		.uleb128 0x1c
 2623 0b78 4C000000 		.4byte	.LVL48
ARM GAS  C:\Users\exp32\AppData\Local\Temp\cc6N2LT5.s 			page 79


 2624 0b7c 7F0E0000 		.4byte	0xe7f
 2625 0b80 1B       		.uleb128 0x1b
 2626 0b81 01       		.uleb128 0x1
 2627 0b82 50       		.byte	0x50
 2628 0b83 01       		.uleb128 0x1
 2629 0b84 30       		.byte	0x30
 2630 0b85 00       		.byte	0
 2631 0b86 00       		.byte	0
 2632 0b87 13       		.uleb128 0x13
 2633 0b88 04       		.byte	0x4
 2634 0b89 910A0000 		.4byte	0xa91
 2635 0b8d 13       		.uleb128 0x13
 2636 0b8e 04       		.byte	0x4
 2637 0b8f B0000000 		.4byte	0xb0
 2638 0b93 13       		.uleb128 0x13
 2639 0b94 04       		.byte	0x4
 2640 0b95 B5000000 		.4byte	0xb5
 2641 0b99 13       		.uleb128 0x13
 2642 0b9a 04       		.byte	0x4
 2643 0b9b C6000000 		.4byte	0xc6
 2644 0b9f 1E       		.uleb128 0x1e
 2645 0ba0 93090000 		.4byte	.LASF147
 2646 0ba4 01       		.byte	0x1
 2647 0ba5 3C05     		.2byte	0x53c
 2648 0ba7 83000000 		.4byte	0x83
 2649 0bab 00000000 		.4byte	.LFB5
 2650 0baf 20000000 		.4byte	.LFE5-.LFB5
 2651 0bb3 01       		.uleb128 0x1
 2652 0bb4 9C       		.byte	0x9c
 2653 0bb5 DA0B0000 		.4byte	0xbda
 2654 0bb9 18       		.uleb128 0x18
 2655 0bba 68020000 		.4byte	.LASF134
 2656 0bbe 01       		.byte	0x1
 2657 0bbf 3E05     		.2byte	0x53e
 2658 0bc1 83000000 		.4byte	0x83
 2659 0bc5 6D020000 		.4byte	.LLST14
 2660 0bc9 18       		.uleb128 0x18
 2661 0bca 4D050000 		.4byte	.LASF148
 2662 0bce 01       		.byte	0x1
 2663 0bcf 3F05     		.2byte	0x53f
 2664 0bd1 83000000 		.4byte	0x83
 2665 0bd5 8C020000 		.4byte	.LLST15
 2666 0bd9 00       		.byte	0
 2667 0bda 1E       		.uleb128 0x1e
 2668 0bdb 70070000 		.4byte	.LASF149
 2669 0bdf 01       		.byte	0x1
 2670 0be0 6405     		.2byte	0x564
 2671 0be2 83000000 		.4byte	0x83
 2672 0be6 00000000 		.4byte	.LFB6
 2673 0bea 24000000 		.4byte	.LFE6-.LFB6
 2674 0bee 01       		.uleb128 0x1
 2675 0bef 9C       		.byte	0x9c
 2676 0bf0 150C0000 		.4byte	0xc15
 2677 0bf4 16       		.uleb128 0x16
 2678 0bf5 5B0B0000 		.4byte	.LASF127
 2679 0bf9 01       		.byte	0x1
 2680 0bfa 6405     		.2byte	0x564
ARM GAS  C:\Users\exp32\AppData\Local\Temp\cc6N2LT5.s 			page 80


 2681 0bfc 83000000 		.4byte	0x83
 2682 0c00 C1020000 		.4byte	.LLST16
 2683 0c04 18       		.uleb128 0x18
 2684 0c05 68020000 		.4byte	.LASF134
 2685 0c09 01       		.byte	0x1
 2686 0c0a 6605     		.2byte	0x566
 2687 0c0c 83000000 		.4byte	0x83
 2688 0c10 FB020000 		.4byte	.LLST17
 2689 0c14 00       		.byte	0
 2690 0c15 1E       		.uleb128 0x1e
 2691 0c16 C6020000 		.4byte	.LASF150
 2692 0c1a 01       		.byte	0x1
 2693 0c1b 9605     		.2byte	0x596
 2694 0c1d 83000000 		.4byte	0x83
 2695 0c21 00000000 		.4byte	.LFB7
 2696 0c25 34000000 		.4byte	.LFE7-.LFB7
 2697 0c29 01       		.uleb128 0x1
 2698 0c2a 9C       		.byte	0x9c
 2699 0c2b 5E0C0000 		.4byte	0xc5e
 2700 0c2f 16       		.uleb128 0x16
 2701 0c30 5B0B0000 		.4byte	.LASF127
 2702 0c34 01       		.byte	0x1
 2703 0c35 9605     		.2byte	0x596
 2704 0c37 83000000 		.4byte	0x83
 2705 0c3b 31030000 		.4byte	.LLST18
 2706 0c3f 17       		.uleb128 0x17
 2707 0c40 A5010000 		.4byte	.LASF151
 2708 0c44 01       		.byte	0x1
 2709 0c45 9605     		.2byte	0x596
 2710 0c47 83000000 		.4byte	0x83
 2711 0c4b 01       		.uleb128 0x1
 2712 0c4c 51       		.byte	0x51
 2713 0c4d 18       		.uleb128 0x18
 2714 0c4e 68020000 		.4byte	.LASF134
 2715 0c52 01       		.byte	0x1
 2716 0c53 9805     		.2byte	0x598
 2717 0c55 83000000 		.4byte	0x83
 2718 0c59 91030000 		.4byte	.LLST19
 2719 0c5d 00       		.byte	0
 2720 0c5e 1E       		.uleb128 0x1e
 2721 0c5f 91030000 		.4byte	.LASF152
 2722 0c63 01       		.byte	0x1
 2723 0c64 9906     		.2byte	0x699
 2724 0c66 83000000 		.4byte	0x83
 2725 0c6a 00000000 		.4byte	.LFB8
 2726 0c6e 40000000 		.4byte	.LFE8-.LFB8
 2727 0c72 01       		.uleb128 0x1
 2728 0c73 9C       		.byte	0x9c
 2729 0c74 C90C0000 		.4byte	0xcc9
 2730 0c78 16       		.uleb128 0x16
 2731 0c79 5B0B0000 		.4byte	.LASF127
 2732 0c7d 01       		.byte	0x1
 2733 0c7e 9906     		.2byte	0x699
 2734 0c80 83000000 		.4byte	0x83
 2735 0c84 C7030000 		.4byte	.LLST20
 2736 0c88 18       		.uleb128 0x18
 2737 0c89 19090000 		.4byte	.LASF138
ARM GAS  C:\Users\exp32\AppData\Local\Temp\cc6N2LT5.s 			page 81


 2738 0c8d 01       		.byte	0x1
 2739 0c8e 9B06     		.2byte	0x69b
 2740 0c90 A1090000 		.4byte	0x9a1
 2741 0c94 01040000 		.4byte	.LLST21
 2742 0c98 18       		.uleb128 0x18
 2743 0c99 6F090000 		.4byte	.LASF153
 2744 0c9d 01       		.byte	0x1
 2745 0c9e 9E06     		.2byte	0x69e
 2746 0ca0 C90C0000 		.4byte	0xcc9
 2747 0ca4 42040000 		.4byte	.LLST22
 2748 0ca8 18       		.uleb128 0x18
 2749 0ca9 85090000 		.4byte	.LASF154
 2750 0cad 01       		.byte	0x1
 2751 0cae A506     		.2byte	0x6a5
 2752 0cb0 A4000000 		.4byte	0xa4
 2753 0cb4 55040000 		.4byte	.LLST23
 2754 0cb8 18       		.uleb128 0x18
 2755 0cb9 68020000 		.4byte	.LASF134
 2756 0cbd 01       		.byte	0x1
 2757 0cbe A606     		.2byte	0x6a6
 2758 0cc0 83000000 		.4byte	0x83
 2759 0cc4 7F040000 		.4byte	.LLST24
 2760 0cc8 00       		.byte	0
 2761 0cc9 13       		.uleb128 0x13
 2762 0cca 04       		.byte	0x4
 2763 0ccb B2030000 		.4byte	0x3b2
 2764 0ccf 25       		.uleb128 0x25
 2765 0cd0 64000000 		.4byte	.LASF155
 2766 0cd4 01       		.byte	0x1
 2767 0cd5 51       		.byte	0x51
 2768 0cd6 C8010000 		.4byte	0x1c8
 2769 0cda 05       		.uleb128 0x5
 2770 0cdb 03       		.byte	0x3
 2771 0cdc F0000000 		.4byte	CapSense_1_debounceButton0
 2772 0ce0 25       		.uleb128 0x25
 2773 0ce1 7F000000 		.4byte	.LASF156
 2774 0ce5 01       		.byte	0x1
 2775 0ce6 52       		.byte	0x52
 2776 0ce7 C8010000 		.4byte	0x1c8
 2777 0ceb 05       		.uleb128 0x5
 2778 0cec 03       		.byte	0x3
 2779 0ced EC000000 		.4byte	CapSense_1_debounceButton1
 2780 0cf1 25       		.uleb128 0x25
 2781 0cf2 74030000 		.4byte	.LASF157
 2782 0cf6 01       		.byte	0x1
 2783 0cf7 53       		.byte	0x53
 2784 0cf8 C8010000 		.4byte	0x1c8
 2785 0cfc 05       		.uleb128 0x5
 2786 0cfd 03       		.byte	0x3
 2787 0cfe E8000000 		.4byte	CapSense_1_debounceTouchpad0
 2788 0d02 25       		.uleb128 0x25
 2789 0d03 93070000 		.4byte	.LASF158
 2790 0d07 01       		.byte	0x1
 2791 0d08 54       		.byte	0x54
 2792 0d09 C8010000 		.4byte	0x1c8
 2793 0d0d 05       		.uleb128 0x5
 2794 0d0e 03       		.byte	0x3
ARM GAS  C:\Users\exp32\AppData\Local\Temp\cc6N2LT5.s 			page 82


 2795 0d0f E4000000 		.4byte	CapSense_1_debounceButton2
 2796 0d13 25       		.uleb128 0x25
 2797 0d14 A5000000 		.4byte	.LASF159
 2798 0d18 01       		.byte	0x1
 2799 0d19 55       		.byte	0x55
 2800 0d1a C8010000 		.4byte	0x1c8
 2801 0d1e 05       		.uleb128 0x5
 2802 0d1f 03       		.byte	0x3
 2803 0d20 E0000000 		.4byte	CapSense_1_debounceButton3
 2804 0d24 25       		.uleb128 0x25
 2805 0d25 C0000000 		.4byte	.LASF160
 2806 0d29 01       		.byte	0x1
 2807 0d2a 56       		.byte	0x56
 2808 0d2b C8010000 		.4byte	0x1c8
 2809 0d2f 05       		.uleb128 0x5
 2810 0d30 03       		.byte	0x3
 2811 0d31 DC000000 		.4byte	CapSense_1_debounceButton4
 2812 0d35 25       		.uleb128 0x25
 2813 0d36 DB000000 		.4byte	.LASF161
 2814 0d3a 01       		.byte	0x1
 2815 0d3b 57       		.byte	0x57
 2816 0d3c C8010000 		.4byte	0x1c8
 2817 0d40 05       		.uleb128 0x5
 2818 0d41 03       		.byte	0x3
 2819 0d42 D8000000 		.4byte	CapSense_1_debounceButton5
 2820 0d46 0C       		.uleb128 0xc
 2821 0d47 50010000 		.4byte	0x150
 2822 0d4b 560D0000 		.4byte	0xd56
 2823 0d4f 0D       		.uleb128 0xd
 2824 0d50 D2000000 		.4byte	0xd2
 2825 0d54 00       		.byte	0
 2826 0d55 00       		.byte	0
 2827 0d56 25       		.uleb128 0x25
 2828 0d57 BA090000 		.4byte	.LASF162
 2829 0d5b 01       		.byte	0x1
 2830 0d5c 5D       		.byte	0x5d
 2831 0d5d 460D0000 		.4byte	0xd46
 2832 0d61 05       		.uleb128 0x5
 2833 0d62 03       		.byte	0x3
 2834 0d63 CC000000 		.4byte	CapSense_1_noiseEnvlpButton0
 2835 0d67 25       		.uleb128 0x25
 2836 0d68 D7090000 		.4byte	.LASF163
 2837 0d6c 01       		.byte	0x1
 2838 0d6d 5E       		.byte	0x5e
 2839 0d6e 460D0000 		.4byte	0xd46
 2840 0d72 05       		.uleb128 0x5
 2841 0d73 03       		.byte	0x3
 2842 0d74 C0000000 		.4byte	CapSense_1_noiseEnvlpButton1
 2843 0d78 0C       		.uleb128 0xc
 2844 0d79 50010000 		.4byte	0x150
 2845 0d7d 880D0000 		.4byte	0xd88
 2846 0d81 0D       		.uleb128 0xd
 2847 0d82 D2000000 		.4byte	0xd2
 2848 0d86 0B       		.byte	0xb
 2849 0d87 00       		.byte	0
 2850 0d88 25       		.uleb128 0x25
 2851 0d89 4B080000 		.4byte	.LASF164
ARM GAS  C:\Users\exp32\AppData\Local\Temp\cc6N2LT5.s 			page 83


 2852 0d8d 01       		.byte	0x1
 2853 0d8e 5F       		.byte	0x5f
 2854 0d8f 780D0000 		.4byte	0xd78
 2855 0d93 05       		.uleb128 0x5
 2856 0d94 03       		.byte	0x3
 2857 0d95 30000000 		.4byte	CapSense_1_noiseEnvlpTouchpad0
 2858 0d99 25       		.uleb128 0x25
 2859 0d9a FB090000 		.4byte	.LASF165
 2860 0d9e 01       		.byte	0x1
 2861 0d9f 60       		.byte	0x60
 2862 0da0 460D0000 		.4byte	0xd46
 2863 0da4 05       		.uleb128 0x5
 2864 0da5 03       		.byte	0x3
 2865 0da6 24000000 		.4byte	CapSense_1_noiseEnvlpButton2
 2866 0daa 25       		.uleb128 0x25
 2867 0dab 180A0000 		.4byte	.LASF166
 2868 0daf 01       		.byte	0x1
 2869 0db0 61       		.byte	0x61
 2870 0db1 460D0000 		.4byte	0xd46
 2871 0db5 05       		.uleb128 0x5
 2872 0db6 03       		.byte	0x3
 2873 0db7 18000000 		.4byte	CapSense_1_noiseEnvlpButton3
 2874 0dbb 25       		.uleb128 0x25
 2875 0dbc 350A0000 		.4byte	.LASF167
 2876 0dc0 01       		.byte	0x1
 2877 0dc1 62       		.byte	0x62
 2878 0dc2 460D0000 		.4byte	0xd46
 2879 0dc6 05       		.uleb128 0x5
 2880 0dc7 03       		.byte	0x3
 2881 0dc8 0C000000 		.4byte	CapSense_1_noiseEnvlpButton4
 2882 0dcc 25       		.uleb128 0x25
 2883 0dcd 090B0000 		.4byte	.LASF168
 2884 0dd1 01       		.byte	0x1
 2885 0dd2 63       		.byte	0x63
 2886 0dd3 460D0000 		.4byte	0xd46
 2887 0dd7 05       		.uleb128 0x5
 2888 0dd8 03       		.byte	0x3
 2889 0dd9 00000000 		.4byte	CapSense_1_noiseEnvlpButton5
 2890 0ddd 26       		.uleb128 0x26
 2891 0dde 69060000 		.4byte	.LASF169
 2892 0de2 01       		.byte	0x1
 2893 0de3 4A       		.byte	0x4a
 2894 0de4 6C060000 		.4byte	0x66c
 2895 0de8 05       		.uleb128 0x5
 2896 0de9 03       		.byte	0x3
 2897 0dea 00000000 		.4byte	CapSense_1_dsRam
 2898 0dee 26       		.uleb128 0x26
 2899 0def B9070000 		.4byte	.LASF170
 2900 0df3 01       		.byte	0x1
 2901 0df4 73       		.byte	0x73
 2902 0df5 FF0D0000 		.4byte	0xdff
 2903 0df9 05       		.uleb128 0x5
 2904 0dfa 03       		.byte	0x3
 2905 0dfb 00000000 		.4byte	CapSense_1_dsFlash
 2906 0dff 1D       		.uleb128 0x1d
 2907 0e00 30080000 		.4byte	0x830
 2908 0e04 0C       		.uleb128 0xc
ARM GAS  C:\Users\exp32\AppData\Local\Temp\cc6N2LT5.s 			page 84


 2909 0e05 140E0000 		.4byte	0xe14
 2910 0e09 140E0000 		.4byte	0xe14
 2911 0e0d 0D       		.uleb128 0xd
 2912 0e0e D2000000 		.4byte	0xd2
 2913 0e12 11       		.byte	0x11
 2914 0e13 00       		.byte	0
 2915 0e14 1D       		.uleb128 0x1d
 2916 0e15 FD060000 		.4byte	0x6fd
 2917 0e19 26       		.uleb128 0x26
 2918 0e1a FD000000 		.4byte	.LASF171
 2919 0e1e 01       		.byte	0x1
 2920 0e1f FB       		.byte	0xfb
 2921 0e20 2A0E0000 		.4byte	0xe2a
 2922 0e24 05       		.uleb128 0x5
 2923 0e25 03       		.byte	0x3
 2924 0e26 00000000 		.4byte	CapSense_1_ioList
 2925 0e2a 1D       		.uleb128 0x1d
 2926 0e2b 040E0000 		.4byte	0xe04
 2927 0e2f 27       		.uleb128 0x27
 2928 0e30 B3030000 		.4byte	.LASF172
 2929 0e34 01       		.byte	0x1
 2930 0e35 CB01     		.2byte	0x1cb
 2931 0e37 410E0000 		.4byte	0xe41
 2932 0e3b 05       		.uleb128 0x5
 2933 0e3c 03       		.byte	0x3
 2934 0e3d 00000000 		.4byte	CapSense_1_ramWidgetInit
 2935 0e41 1D       		.uleb128 0x1d
 2936 0e42 23040000 		.4byte	0x423
 2937 0e46 0C       		.uleb128 0xc
 2938 0e47 B2090000 		.4byte	0x9b2
 2939 0e4b 560E0000 		.4byte	0xe56
 2940 0e4f 0D       		.uleb128 0xd
 2941 0e50 D2000000 		.4byte	0xd2
 2942 0e54 11       		.byte	0x11
 2943 0e55 00       		.byte	0
 2944 0e56 27       		.uleb128 0x27
 2945 0e57 58090000 		.4byte	.LASF173
 2946 0e5b 01       		.byte	0x1
 2947 0e5c 6D02     		.2byte	0x26d
 2948 0e5e 680E0000 		.4byte	0xe68
 2949 0e62 05       		.uleb128 0x5
 2950 0e63 03       		.byte	0x3
 2951 0e64 00000000 		.4byte	CapSense_1_ramIdacInit
 2952 0e68 1D       		.uleb128 0x1d
 2953 0e69 460E0000 		.4byte	0xe46
 2954 0e6d 28       		.uleb128 0x28
 2955 0e6e 7A050000 		.4byte	.LASF174
 2956 0e72 7A050000 		.4byte	.LASF174
 2957 0e76 28       		.uleb128 0x28
 2958 0e77 810A0000 		.4byte	.LASF175
 2959 0e7b 810A0000 		.4byte	.LASF175
 2960 0e7f 29       		.uleb128 0x29
 2961 0e80 F6000000 		.4byte	.LASF181
 2962 0e84 F6000000 		.4byte	.LASF181
 2963 0e88 06       		.byte	0x6
 2964 0e89 FA       		.byte	0xfa
 2965 0e8a 00       		.byte	0
ARM GAS  C:\Users\exp32\AppData\Local\Temp\cc6N2LT5.s 			page 85


 2966              		.section	.debug_abbrev,"",%progbits
 2967              	.Ldebug_abbrev0:
 2968 0000 01       		.uleb128 0x1
 2969 0001 11       		.uleb128 0x11
 2970 0002 01       		.byte	0x1
 2971 0003 25       		.uleb128 0x25
 2972 0004 0E       		.uleb128 0xe
 2973 0005 13       		.uleb128 0x13
 2974 0006 0B       		.uleb128 0xb
 2975 0007 03       		.uleb128 0x3
 2976 0008 0E       		.uleb128 0xe
 2977 0009 1B       		.uleb128 0x1b
 2978 000a 0E       		.uleb128 0xe
 2979 000b 55       		.uleb128 0x55
 2980 000c 17       		.uleb128 0x17
 2981 000d 11       		.uleb128 0x11
 2982 000e 01       		.uleb128 0x1
 2983 000f 10       		.uleb128 0x10
 2984 0010 17       		.uleb128 0x17
 2985 0011 00       		.byte	0
 2986 0012 00       		.byte	0
 2987 0013 02       		.uleb128 0x2
 2988 0014 24       		.uleb128 0x24
 2989 0015 00       		.byte	0
 2990 0016 0B       		.uleb128 0xb
 2991 0017 0B       		.uleb128 0xb
 2992 0018 3E       		.uleb128 0x3e
 2993 0019 0B       		.uleb128 0xb
 2994 001a 03       		.uleb128 0x3
 2995 001b 0E       		.uleb128 0xe
 2996 001c 00       		.byte	0
 2997 001d 00       		.byte	0
 2998 001e 03       		.uleb128 0x3
 2999 001f 24       		.uleb128 0x24
 3000 0020 00       		.byte	0
 3001 0021 0B       		.uleb128 0xb
 3002 0022 0B       		.uleb128 0xb
 3003 0023 3E       		.uleb128 0x3e
 3004 0024 0B       		.uleb128 0xb
 3005 0025 03       		.uleb128 0x3
 3006 0026 08       		.uleb128 0x8
 3007 0027 00       		.byte	0
 3008 0028 00       		.byte	0
 3009 0029 04       		.uleb128 0x4
 3010 002a 16       		.uleb128 0x16
 3011 002b 00       		.byte	0
 3012 002c 03       		.uleb128 0x3
 3013 002d 0E       		.uleb128 0xe
 3014 002e 3A       		.uleb128 0x3a
 3015 002f 0B       		.uleb128 0xb
 3016 0030 3B       		.uleb128 0x3b
 3017 0031 05       		.uleb128 0x5
 3018 0032 49       		.uleb128 0x49
 3019 0033 13       		.uleb128 0x13
 3020 0034 00       		.byte	0
 3021 0035 00       		.byte	0
 3022 0036 05       		.uleb128 0x5
ARM GAS  C:\Users\exp32\AppData\Local\Temp\cc6N2LT5.s 			page 86


 3023 0037 35       		.uleb128 0x35
 3024 0038 00       		.byte	0
 3025 0039 49       		.uleb128 0x49
 3026 003a 13       		.uleb128 0x13
 3027 003b 00       		.byte	0
 3028 003c 00       		.byte	0
 3029 003d 06       		.uleb128 0x6
 3030 003e 0F       		.uleb128 0xf
 3031 003f 00       		.byte	0
 3032 0040 0B       		.uleb128 0xb
 3033 0041 0B       		.uleb128 0xb
 3034 0042 00       		.byte	0
 3035 0043 00       		.byte	0
 3036 0044 07       		.uleb128 0x7
 3037 0045 13       		.uleb128 0x13
 3038 0046 01       		.byte	0x1
 3039 0047 0B       		.uleb128 0xb
 3040 0048 0B       		.uleb128 0xb
 3041 0049 3A       		.uleb128 0x3a
 3042 004a 0B       		.uleb128 0xb
 3043 004b 3B       		.uleb128 0x3b
 3044 004c 0B       		.uleb128 0xb
 3045 004d 01       		.uleb128 0x1
 3046 004e 13       		.uleb128 0x13
 3047 004f 00       		.byte	0
 3048 0050 00       		.byte	0
 3049 0051 08       		.uleb128 0x8
 3050 0052 0D       		.uleb128 0xd
 3051 0053 00       		.byte	0
 3052 0054 03       		.uleb128 0x3
 3053 0055 0E       		.uleb128 0xe
 3054 0056 3A       		.uleb128 0x3a
 3055 0057 0B       		.uleb128 0xb
 3056 0058 3B       		.uleb128 0x3b
 3057 0059 0B       		.uleb128 0xb
 3058 005a 49       		.uleb128 0x49
 3059 005b 13       		.uleb128 0x13
 3060 005c 38       		.uleb128 0x38
 3061 005d 0B       		.uleb128 0xb
 3062 005e 00       		.byte	0
 3063 005f 00       		.byte	0
 3064 0060 09       		.uleb128 0x9
 3065 0061 16       		.uleb128 0x16
 3066 0062 00       		.byte	0
 3067 0063 03       		.uleb128 0x3
 3068 0064 0E       		.uleb128 0xe
 3069 0065 3A       		.uleb128 0x3a
 3070 0066 0B       		.uleb128 0xb
 3071 0067 3B       		.uleb128 0x3b
 3072 0068 0B       		.uleb128 0xb
 3073 0069 49       		.uleb128 0x49
 3074 006a 13       		.uleb128 0x13
 3075 006b 00       		.byte	0
 3076 006c 00       		.byte	0
 3077 006d 0A       		.uleb128 0xa
 3078 006e 04       		.uleb128 0x4
 3079 006f 01       		.byte	0x1
ARM GAS  C:\Users\exp32\AppData\Local\Temp\cc6N2LT5.s 			page 87


 3080 0070 0B       		.uleb128 0xb
 3081 0071 0B       		.uleb128 0xb
 3082 0072 49       		.uleb128 0x49
 3083 0073 13       		.uleb128 0x13
 3084 0074 3A       		.uleb128 0x3a
 3085 0075 0B       		.uleb128 0xb
 3086 0076 3B       		.uleb128 0x3b
 3087 0077 0B       		.uleb128 0xb
 3088 0078 01       		.uleb128 0x1
 3089 0079 13       		.uleb128 0x13
 3090 007a 00       		.byte	0
 3091 007b 00       		.byte	0
 3092 007c 0B       		.uleb128 0xb
 3093 007d 28       		.uleb128 0x28
 3094 007e 00       		.byte	0
 3095 007f 03       		.uleb128 0x3
 3096 0080 0E       		.uleb128 0xe
 3097 0081 1C       		.uleb128 0x1c
 3098 0082 0B       		.uleb128 0xb
 3099 0083 00       		.byte	0
 3100 0084 00       		.byte	0
 3101 0085 0C       		.uleb128 0xc
 3102 0086 01       		.uleb128 0x1
 3103 0087 01       		.byte	0x1
 3104 0088 49       		.uleb128 0x49
 3105 0089 13       		.uleb128 0x13
 3106 008a 01       		.uleb128 0x1
 3107 008b 13       		.uleb128 0x13
 3108 008c 00       		.byte	0
 3109 008d 00       		.byte	0
 3110 008e 0D       		.uleb128 0xd
 3111 008f 21       		.uleb128 0x21
 3112 0090 00       		.byte	0
 3113 0091 49       		.uleb128 0x49
 3114 0092 13       		.uleb128 0x13
 3115 0093 2F       		.uleb128 0x2f
 3116 0094 0B       		.uleb128 0xb
 3117 0095 00       		.byte	0
 3118 0096 00       		.byte	0
 3119 0097 0E       		.uleb128 0xe
 3120 0098 13       		.uleb128 0x13
 3121 0099 01       		.byte	0x1
 3122 009a 0B       		.uleb128 0xb
 3123 009b 0B       		.uleb128 0xb
 3124 009c 3A       		.uleb128 0x3a
 3125 009d 0B       		.uleb128 0xb
 3126 009e 3B       		.uleb128 0x3b
 3127 009f 05       		.uleb128 0x5
 3128 00a0 01       		.uleb128 0x1
 3129 00a1 13       		.uleb128 0x13
 3130 00a2 00       		.byte	0
 3131 00a3 00       		.byte	0
 3132 00a4 0F       		.uleb128 0xf
 3133 00a5 0D       		.uleb128 0xd
 3134 00a6 00       		.byte	0
 3135 00a7 03       		.uleb128 0x3
 3136 00a8 0E       		.uleb128 0xe
ARM GAS  C:\Users\exp32\AppData\Local\Temp\cc6N2LT5.s 			page 88


 3137 00a9 3A       		.uleb128 0x3a
 3138 00aa 0B       		.uleb128 0xb
 3139 00ab 3B       		.uleb128 0x3b
 3140 00ac 05       		.uleb128 0x5
 3141 00ad 49       		.uleb128 0x49
 3142 00ae 13       		.uleb128 0x13
 3143 00af 38       		.uleb128 0x38
 3144 00b0 0B       		.uleb128 0xb
 3145 00b1 00       		.byte	0
 3146 00b2 00       		.byte	0
 3147 00b3 10       		.uleb128 0x10
 3148 00b4 0D       		.uleb128 0xd
 3149 00b5 00       		.byte	0
 3150 00b6 03       		.uleb128 0x3
 3151 00b7 08       		.uleb128 0x8
 3152 00b8 3A       		.uleb128 0x3a
 3153 00b9 0B       		.uleb128 0xb
 3154 00ba 3B       		.uleb128 0x3b
 3155 00bb 05       		.uleb128 0x5
 3156 00bc 49       		.uleb128 0x49
 3157 00bd 13       		.uleb128 0x13
 3158 00be 38       		.uleb128 0x38
 3159 00bf 0B       		.uleb128 0xb
 3160 00c0 00       		.byte	0
 3161 00c1 00       		.byte	0
 3162 00c2 11       		.uleb128 0x11
 3163 00c3 13       		.uleb128 0x13
 3164 00c4 01       		.byte	0x1
 3165 00c5 0B       		.uleb128 0xb
 3166 00c6 05       		.uleb128 0x5
 3167 00c7 3A       		.uleb128 0x3a
 3168 00c8 0B       		.uleb128 0xb
 3169 00c9 3B       		.uleb128 0x3b
 3170 00ca 05       		.uleb128 0x5
 3171 00cb 01       		.uleb128 0x1
 3172 00cc 13       		.uleb128 0x13
 3173 00cd 00       		.byte	0
 3174 00ce 00       		.byte	0
 3175 00cf 12       		.uleb128 0x12
 3176 00d0 0D       		.uleb128 0xd
 3177 00d1 00       		.byte	0
 3178 00d2 03       		.uleb128 0x3
 3179 00d3 0E       		.uleb128 0xe
 3180 00d4 3A       		.uleb128 0x3a
 3181 00d5 0B       		.uleb128 0xb
 3182 00d6 3B       		.uleb128 0x3b
 3183 00d7 05       		.uleb128 0x5
 3184 00d8 49       		.uleb128 0x49
 3185 00d9 13       		.uleb128 0x13
 3186 00da 38       		.uleb128 0x38
 3187 00db 05       		.uleb128 0x5
 3188 00dc 00       		.byte	0
 3189 00dd 00       		.byte	0
 3190 00de 13       		.uleb128 0x13
 3191 00df 0F       		.uleb128 0xf
 3192 00e0 00       		.byte	0
 3193 00e1 0B       		.uleb128 0xb
ARM GAS  C:\Users\exp32\AppData\Local\Temp\cc6N2LT5.s 			page 89


 3194 00e2 0B       		.uleb128 0xb
 3195 00e3 49       		.uleb128 0x49
 3196 00e4 13       		.uleb128 0x13
 3197 00e5 00       		.byte	0
 3198 00e6 00       		.byte	0
 3199 00e7 14       		.uleb128 0x14
 3200 00e8 26       		.uleb128 0x26
 3201 00e9 00       		.byte	0
 3202 00ea 00       		.byte	0
 3203 00eb 00       		.byte	0
 3204 00ec 15       		.uleb128 0x15
 3205 00ed 2E       		.uleb128 0x2e
 3206 00ee 01       		.byte	0x1
 3207 00ef 03       		.uleb128 0x3
 3208 00f0 0E       		.uleb128 0xe
 3209 00f1 3A       		.uleb128 0x3a
 3210 00f2 0B       		.uleb128 0xb
 3211 00f3 3B       		.uleb128 0x3b
 3212 00f4 05       		.uleb128 0x5
 3213 00f5 27       		.uleb128 0x27
 3214 00f6 19       		.uleb128 0x19
 3215 00f7 49       		.uleb128 0x49
 3216 00f8 13       		.uleb128 0x13
 3217 00f9 11       		.uleb128 0x11
 3218 00fa 01       		.uleb128 0x1
 3219 00fb 12       		.uleb128 0x12
 3220 00fc 06       		.uleb128 0x6
 3221 00fd 40       		.uleb128 0x40
 3222 00fe 18       		.uleb128 0x18
 3223 00ff 9742     		.uleb128 0x2117
 3224 0101 19       		.uleb128 0x19
 3225 0102 01       		.uleb128 0x1
 3226 0103 13       		.uleb128 0x13
 3227 0104 00       		.byte	0
 3228 0105 00       		.byte	0
 3229 0106 16       		.uleb128 0x16
 3230 0107 05       		.uleb128 0x5
 3231 0108 00       		.byte	0
 3232 0109 03       		.uleb128 0x3
 3233 010a 0E       		.uleb128 0xe
 3234 010b 3A       		.uleb128 0x3a
 3235 010c 0B       		.uleb128 0xb
 3236 010d 3B       		.uleb128 0x3b
 3237 010e 05       		.uleb128 0x5
 3238 010f 49       		.uleb128 0x49
 3239 0110 13       		.uleb128 0x13
 3240 0111 02       		.uleb128 0x2
 3241 0112 17       		.uleb128 0x17
 3242 0113 00       		.byte	0
 3243 0114 00       		.byte	0
 3244 0115 17       		.uleb128 0x17
 3245 0116 05       		.uleb128 0x5
 3246 0117 00       		.byte	0
 3247 0118 03       		.uleb128 0x3
 3248 0119 0E       		.uleb128 0xe
 3249 011a 3A       		.uleb128 0x3a
 3250 011b 0B       		.uleb128 0xb
ARM GAS  C:\Users\exp32\AppData\Local\Temp\cc6N2LT5.s 			page 90


 3251 011c 3B       		.uleb128 0x3b
 3252 011d 05       		.uleb128 0x5
 3253 011e 49       		.uleb128 0x49
 3254 011f 13       		.uleb128 0x13
 3255 0120 02       		.uleb128 0x2
 3256 0121 18       		.uleb128 0x18
 3257 0122 00       		.byte	0
 3258 0123 00       		.byte	0
 3259 0124 18       		.uleb128 0x18
 3260 0125 34       		.uleb128 0x34
 3261 0126 00       		.byte	0
 3262 0127 03       		.uleb128 0x3
 3263 0128 0E       		.uleb128 0xe
 3264 0129 3A       		.uleb128 0x3a
 3265 012a 0B       		.uleb128 0xb
 3266 012b 3B       		.uleb128 0x3b
 3267 012c 05       		.uleb128 0x5
 3268 012d 49       		.uleb128 0x49
 3269 012e 13       		.uleb128 0x13
 3270 012f 02       		.uleb128 0x2
 3271 0130 17       		.uleb128 0x17
 3272 0131 00       		.byte	0
 3273 0132 00       		.byte	0
 3274 0133 19       		.uleb128 0x19
 3275 0134 2E       		.uleb128 0x2e
 3276 0135 01       		.byte	0x1
 3277 0136 3F       		.uleb128 0x3f
 3278 0137 19       		.uleb128 0x19
 3279 0138 03       		.uleb128 0x3
 3280 0139 0E       		.uleb128 0xe
 3281 013a 3A       		.uleb128 0x3a
 3282 013b 0B       		.uleb128 0xb
 3283 013c 3B       		.uleb128 0x3b
 3284 013d 05       		.uleb128 0x5
 3285 013e 27       		.uleb128 0x27
 3286 013f 19       		.uleb128 0x19
 3287 0140 11       		.uleb128 0x11
 3288 0141 01       		.uleb128 0x1
 3289 0142 12       		.uleb128 0x12
 3290 0143 06       		.uleb128 0x6
 3291 0144 40       		.uleb128 0x40
 3292 0145 18       		.uleb128 0x18
 3293 0146 9742     		.uleb128 0x2117
 3294 0148 19       		.uleb128 0x19
 3295 0149 01       		.uleb128 0x1
 3296 014a 13       		.uleb128 0x13
 3297 014b 00       		.byte	0
 3298 014c 00       		.byte	0
 3299 014d 1A       		.uleb128 0x1a
 3300 014e 898201   		.uleb128 0x4109
 3301 0151 01       		.byte	0x1
 3302 0152 11       		.uleb128 0x11
 3303 0153 01       		.uleb128 0x1
 3304 0154 31       		.uleb128 0x31
 3305 0155 13       		.uleb128 0x13
 3306 0156 01       		.uleb128 0x1
 3307 0157 13       		.uleb128 0x13
ARM GAS  C:\Users\exp32\AppData\Local\Temp\cc6N2LT5.s 			page 91


 3308 0158 00       		.byte	0
 3309 0159 00       		.byte	0
 3310 015a 1B       		.uleb128 0x1b
 3311 015b 8A8201   		.uleb128 0x410a
 3312 015e 00       		.byte	0
 3313 015f 02       		.uleb128 0x2
 3314 0160 18       		.uleb128 0x18
 3315 0161 9142     		.uleb128 0x2111
 3316 0163 18       		.uleb128 0x18
 3317 0164 00       		.byte	0
 3318 0165 00       		.byte	0
 3319 0166 1C       		.uleb128 0x1c
 3320 0167 898201   		.uleb128 0x4109
 3321 016a 01       		.byte	0x1
 3322 016b 11       		.uleb128 0x11
 3323 016c 01       		.uleb128 0x1
 3324 016d 31       		.uleb128 0x31
 3325 016e 13       		.uleb128 0x13
 3326 016f 00       		.byte	0
 3327 0170 00       		.byte	0
 3328 0171 1D       		.uleb128 0x1d
 3329 0172 26       		.uleb128 0x26
 3330 0173 00       		.byte	0
 3331 0174 49       		.uleb128 0x49
 3332 0175 13       		.uleb128 0x13
 3333 0176 00       		.byte	0
 3334 0177 00       		.byte	0
 3335 0178 1E       		.uleb128 0x1e
 3336 0179 2E       		.uleb128 0x2e
 3337 017a 01       		.byte	0x1
 3338 017b 3F       		.uleb128 0x3f
 3339 017c 19       		.uleb128 0x19
 3340 017d 03       		.uleb128 0x3
 3341 017e 0E       		.uleb128 0xe
 3342 017f 3A       		.uleb128 0x3a
 3343 0180 0B       		.uleb128 0xb
 3344 0181 3B       		.uleb128 0x3b
 3345 0182 05       		.uleb128 0x5
 3346 0183 27       		.uleb128 0x27
 3347 0184 19       		.uleb128 0x19
 3348 0185 49       		.uleb128 0x49
 3349 0186 13       		.uleb128 0x13
 3350 0187 11       		.uleb128 0x11
 3351 0188 01       		.uleb128 0x1
 3352 0189 12       		.uleb128 0x12
 3353 018a 06       		.uleb128 0x6
 3354 018b 40       		.uleb128 0x40
 3355 018c 18       		.uleb128 0x18
 3356 018d 9742     		.uleb128 0x2117
 3357 018f 19       		.uleb128 0x19
 3358 0190 01       		.uleb128 0x1
 3359 0191 13       		.uleb128 0x13
 3360 0192 00       		.byte	0
 3361 0193 00       		.byte	0
 3362 0194 1F       		.uleb128 0x1f
 3363 0195 34       		.uleb128 0x34
 3364 0196 00       		.byte	0
ARM GAS  C:\Users\exp32\AppData\Local\Temp\cc6N2LT5.s 			page 92


 3365 0197 03       		.uleb128 0x3
 3366 0198 0E       		.uleb128 0xe
 3367 0199 3A       		.uleb128 0x3a
 3368 019a 0B       		.uleb128 0xb
 3369 019b 3B       		.uleb128 0x3b
 3370 019c 05       		.uleb128 0x5
 3371 019d 49       		.uleb128 0x49
 3372 019e 13       		.uleb128 0x13
 3373 019f 02       		.uleb128 0x2
 3374 01a0 18       		.uleb128 0x18
 3375 01a1 00       		.byte	0
 3376 01a2 00       		.byte	0
 3377 01a3 20       		.uleb128 0x20
 3378 01a4 17       		.uleb128 0x17
 3379 01a5 01       		.byte	0x1
 3380 01a6 0B       		.uleb128 0xb
 3381 01a7 0B       		.uleb128 0xb
 3382 01a8 3A       		.uleb128 0x3a
 3383 01a9 0B       		.uleb128 0xb
 3384 01aa 3B       		.uleb128 0x3b
 3385 01ab 05       		.uleb128 0x5
 3386 01ac 01       		.uleb128 0x1
 3387 01ad 13       		.uleb128 0x13
 3388 01ae 00       		.byte	0
 3389 01af 00       		.byte	0
 3390 01b0 21       		.uleb128 0x21
 3391 01b1 0D       		.uleb128 0xd
 3392 01b2 00       		.byte	0
 3393 01b3 03       		.uleb128 0x3
 3394 01b4 08       		.uleb128 0x8
 3395 01b5 3A       		.uleb128 0x3a
 3396 01b6 0B       		.uleb128 0xb
 3397 01b7 3B       		.uleb128 0x3b
 3398 01b8 05       		.uleb128 0x5
 3399 01b9 49       		.uleb128 0x49
 3400 01ba 13       		.uleb128 0x13
 3401 01bb 00       		.byte	0
 3402 01bc 00       		.byte	0
 3403 01bd 22       		.uleb128 0x22
 3404 01be 0D       		.uleb128 0xd
 3405 01bf 00       		.byte	0
 3406 01c0 03       		.uleb128 0x3
 3407 01c1 0E       		.uleb128 0xe
 3408 01c2 3A       		.uleb128 0x3a
 3409 01c3 0B       		.uleb128 0xb
 3410 01c4 3B       		.uleb128 0x3b
 3411 01c5 05       		.uleb128 0x5
 3412 01c6 49       		.uleb128 0x49
 3413 01c7 13       		.uleb128 0x13
 3414 01c8 00       		.byte	0
 3415 01c9 00       		.byte	0
 3416 01ca 23       		.uleb128 0x23
 3417 01cb 35       		.uleb128 0x35
 3418 01cc 00       		.byte	0
 3419 01cd 00       		.byte	0
 3420 01ce 00       		.byte	0
 3421 01cf 24       		.uleb128 0x24
ARM GAS  C:\Users\exp32\AppData\Local\Temp\cc6N2LT5.s 			page 93


 3422 01d0 34       		.uleb128 0x34
 3423 01d1 00       		.byte	0
 3424 01d2 03       		.uleb128 0x3
 3425 01d3 0E       		.uleb128 0xe
 3426 01d4 3A       		.uleb128 0x3a
 3427 01d5 0B       		.uleb128 0xb
 3428 01d6 3B       		.uleb128 0x3b
 3429 01d7 05       		.uleb128 0x5
 3430 01d8 49       		.uleb128 0x49
 3431 01d9 13       		.uleb128 0x13
 3432 01da 00       		.byte	0
 3433 01db 00       		.byte	0
 3434 01dc 25       		.uleb128 0x25
 3435 01dd 34       		.uleb128 0x34
 3436 01de 00       		.byte	0
 3437 01df 03       		.uleb128 0x3
 3438 01e0 0E       		.uleb128 0xe
 3439 01e1 3A       		.uleb128 0x3a
 3440 01e2 0B       		.uleb128 0xb
 3441 01e3 3B       		.uleb128 0x3b
 3442 01e4 0B       		.uleb128 0xb
 3443 01e5 49       		.uleb128 0x49
 3444 01e6 13       		.uleb128 0x13
 3445 01e7 02       		.uleb128 0x2
 3446 01e8 18       		.uleb128 0x18
 3447 01e9 00       		.byte	0
 3448 01ea 00       		.byte	0
 3449 01eb 26       		.uleb128 0x26
 3450 01ec 34       		.uleb128 0x34
 3451 01ed 00       		.byte	0
 3452 01ee 03       		.uleb128 0x3
 3453 01ef 0E       		.uleb128 0xe
 3454 01f0 3A       		.uleb128 0x3a
 3455 01f1 0B       		.uleb128 0xb
 3456 01f2 3B       		.uleb128 0x3b
 3457 01f3 0B       		.uleb128 0xb
 3458 01f4 49       		.uleb128 0x49
 3459 01f5 13       		.uleb128 0x13
 3460 01f6 3F       		.uleb128 0x3f
 3461 01f7 19       		.uleb128 0x19
 3462 01f8 02       		.uleb128 0x2
 3463 01f9 18       		.uleb128 0x18
 3464 01fa 00       		.byte	0
 3465 01fb 00       		.byte	0
 3466 01fc 27       		.uleb128 0x27
 3467 01fd 34       		.uleb128 0x34
 3468 01fe 00       		.byte	0
 3469 01ff 03       		.uleb128 0x3
 3470 0200 0E       		.uleb128 0xe
 3471 0201 3A       		.uleb128 0x3a
 3472 0202 0B       		.uleb128 0xb
 3473 0203 3B       		.uleb128 0x3b
 3474 0204 05       		.uleb128 0x5
 3475 0205 49       		.uleb128 0x49
 3476 0206 13       		.uleb128 0x13
 3477 0207 3F       		.uleb128 0x3f
 3478 0208 19       		.uleb128 0x19
ARM GAS  C:\Users\exp32\AppData\Local\Temp\cc6N2LT5.s 			page 94


 3479 0209 02       		.uleb128 0x2
 3480 020a 18       		.uleb128 0x18
 3481 020b 00       		.byte	0
 3482 020c 00       		.byte	0
 3483 020d 28       		.uleb128 0x28
 3484 020e 2E       		.uleb128 0x2e
 3485 020f 00       		.byte	0
 3486 0210 3F       		.uleb128 0x3f
 3487 0211 19       		.uleb128 0x19
 3488 0212 3C       		.uleb128 0x3c
 3489 0213 19       		.uleb128 0x19
 3490 0214 6E       		.uleb128 0x6e
 3491 0215 0E       		.uleb128 0xe
 3492 0216 03       		.uleb128 0x3
 3493 0217 0E       		.uleb128 0xe
 3494 0218 00       		.byte	0
 3495 0219 00       		.byte	0
 3496 021a 29       		.uleb128 0x29
 3497 021b 2E       		.uleb128 0x2e
 3498 021c 00       		.byte	0
 3499 021d 3F       		.uleb128 0x3f
 3500 021e 19       		.uleb128 0x19
 3501 021f 3C       		.uleb128 0x3c
 3502 0220 19       		.uleb128 0x19
 3503 0221 6E       		.uleb128 0x6e
 3504 0222 0E       		.uleb128 0xe
 3505 0223 03       		.uleb128 0x3
 3506 0224 0E       		.uleb128 0xe
 3507 0225 3A       		.uleb128 0x3a
 3508 0226 0B       		.uleb128 0xb
 3509 0227 3B       		.uleb128 0x3b
 3510 0228 0B       		.uleb128 0xb
 3511 0229 00       		.byte	0
 3512 022a 00       		.byte	0
 3513 022b 00       		.byte	0
 3514              		.section	.debug_loc,"",%progbits
 3515              	.Ldebug_loc0:
 3516              	.LLST0:
 3517 0000 00000000 		.4byte	.LVL0
 3518 0004 28000000 		.4byte	.LVL2
 3519 0008 0100     		.2byte	0x1
 3520 000a 50       		.byte	0x50
 3521 000b 28000000 		.4byte	.LVL2
 3522 000f 82000000 		.4byte	.LFE2
 3523 0013 0400     		.2byte	0x4
 3524 0015 F3       		.byte	0xf3
 3525 0016 01       		.uleb128 0x1
 3526 0017 50       		.byte	0x50
 3527 0018 9F       		.byte	0x9f
 3528 0019 00000000 		.4byte	0
 3529 001d 00000000 		.4byte	0
 3530              	.LLST1:
 3531 0021 02000000 		.4byte	.LVL1
 3532 0025 4C000000 		.4byte	.LVL3
 3533 0029 0200     		.2byte	0x2
 3534 002b 30       		.byte	0x30
 3535 002c 9F       		.byte	0x9f
ARM GAS  C:\Users\exp32\AppData\Local\Temp\cc6N2LT5.s 			page 95


 3536 002d 4C000000 		.4byte	.LVL3
 3537 0031 52000000 		.4byte	.LVL4
 3538 0035 0100     		.2byte	0x1
 3539 0037 50       		.byte	0x50
 3540 0038 52000000 		.4byte	.LVL4
 3541 003c 56000000 		.4byte	.LVL5
 3542 0040 0200     		.2byte	0x2
 3543 0042 30       		.byte	0x30
 3544 0043 9F       		.byte	0x9f
 3545 0044 56000000 		.4byte	.LVL5
 3546 0048 78000000 		.4byte	.LVL7
 3547 004c 0100     		.2byte	0x1
 3548 004e 50       		.byte	0x50
 3549 004f 7A000000 		.4byte	.LVL8
 3550 0053 7C000000 		.4byte	.LVL9
 3551 0057 0100     		.2byte	0x1
 3552 0059 50       		.byte	0x50
 3553 005a 7E000000 		.4byte	.LVL10
 3554 005e 82000000 		.4byte	.LFE2
 3555 0062 0100     		.2byte	0x1
 3556 0064 50       		.byte	0x50
 3557 0065 00000000 		.4byte	0
 3558 0069 00000000 		.4byte	0
 3559              	.LLST2:
 3560 006d 4C000000 		.4byte	.LVL17
 3561 0071 4E000000 		.4byte	.LVL18
 3562 0075 0100     		.2byte	0x1
 3563 0077 53       		.byte	0x53
 3564 0078 4E000000 		.4byte	.LVL18
 3565 007c 58000000 		.4byte	.LVL21
 3566 0080 0100     		.2byte	0x1
 3567 0082 50       		.byte	0x50
 3568 0083 58000000 		.4byte	.LVL21
 3569 0087 5A000000 		.4byte	.LVL22
 3570 008b 0100     		.2byte	0x1
 3571 008d 53       		.byte	0x53
 3572 008e 5A000000 		.4byte	.LVL22
 3573 0092 62000000 		.4byte	.LVL24
 3574 0096 0100     		.2byte	0x1
 3575 0098 50       		.byte	0x50
 3576 0099 00000000 		.4byte	0
 3577 009d 00000000 		.4byte	0
 3578              	.LLST3:
 3579 00a1 3E000000 		.4byte	.LVL14
 3580 00a5 48000000 		.4byte	.LVL15
 3581 00a9 0200     		.2byte	0x2
 3582 00ab 37       		.byte	0x37
 3583 00ac 9F       		.byte	0x9f
 3584 00ad 48000000 		.4byte	.LVL15
 3585 00b1 62000000 		.4byte	.LVL24
 3586 00b5 0100     		.2byte	0x1
 3587 00b7 55       		.byte	0x55
 3588 00b8 62000000 		.4byte	.LVL24
 3589 00bc 64000000 		.4byte	.LVL25
 3590 00c0 0100     		.2byte	0x1
 3591 00c2 53       		.byte	0x53
 3592 00c3 64000000 		.4byte	.LVL25
ARM GAS  C:\Users\exp32\AppData\Local\Temp\cc6N2LT5.s 			page 96


 3593 00c7 68000000 		.4byte	.LVL27
 3594 00cb 0100     		.2byte	0x1
 3595 00cd 55       		.byte	0x55
 3596 00ce 68000000 		.4byte	.LVL27
 3597 00d2 80000000 		.4byte	.LFE1
 3598 00d6 0300     		.2byte	0x3
 3599 00d8 73       		.byte	0x73
 3600 00d9 7F       		.sleb128 -1
 3601 00da 9F       		.byte	0x9f
 3602 00db 00000000 		.4byte	0
 3603 00df 00000000 		.4byte	0
 3604              	.LLST4:
 3605 00e3 4A000000 		.4byte	.LVL16
 3606 00e7 62000000 		.4byte	.LVL24
 3607 00eb 0100     		.2byte	0x1
 3608 00ed 52       		.byte	0x52
 3609 00ee 00000000 		.4byte	0
 3610 00f2 00000000 		.4byte	0
 3611              	.LLST5:
 3612 00f6 3E000000 		.4byte	.LVL14
 3613 00fa 48000000 		.4byte	.LVL15
 3614 00fe 0600     		.2byte	0x6
 3615 0100 03       		.byte	0x3
 3616 0101 00000000 		.4byte	CapSense_1_dsFlash
 3617 0105 9F       		.byte	0x9f
 3618 0106 48000000 		.4byte	.LVL15
 3619 010a 68000000 		.4byte	.LVL26
 3620 010e 0100     		.2byte	0x1
 3621 0110 54       		.byte	0x54
 3622 0111 00000000 		.4byte	0
 3623 0115 00000000 		.4byte	0
 3624              	.LLST6:
 3625 0119 02000000 		.4byte	.LVL12
 3626 011d 48000000 		.4byte	.LVL15
 3627 0121 0600     		.2byte	0x6
 3628 0123 03       		.byte	0x3
 3629 0124 00000000 		.4byte	CapSense_1_ramIdacInit
 3630 0128 9F       		.byte	0x9f
 3631 0129 48000000 		.4byte	.LVL15
 3632 012d 80000000 		.4byte	.LFE1
 3633 0131 0100     		.2byte	0x1
 3634 0133 51       		.byte	0x51
 3635 0134 00000000 		.4byte	0
 3636 0138 00000000 		.4byte	0
 3637              	.LLST7:
 3638 013c 00000000 		.4byte	.LVL28
 3639 0140 0B000000 		.4byte	.LVL30-1
 3640 0144 0100     		.2byte	0x1
 3641 0146 50       		.byte	0x50
 3642 0147 0B000000 		.4byte	.LVL30-1
 3643 014b 60000000 		.4byte	.LFE3
 3644 014f 0400     		.2byte	0x4
 3645 0151 F3       		.byte	0xf3
 3646 0152 01       		.uleb128 0x1
 3647 0153 50       		.byte	0x50
 3648 0154 9F       		.byte	0x9f
 3649 0155 00000000 		.4byte	0
ARM GAS  C:\Users\exp32\AppData\Local\Temp\cc6N2LT5.s 			page 97


 3650 0159 00000000 		.4byte	0
 3651              	.LLST8:
 3652 015d 00000000 		.4byte	.LVL28
 3653 0161 08000000 		.4byte	.LVL29
 3654 0165 0100     		.2byte	0x1
 3655 0167 51       		.byte	0x51
 3656 0168 08000000 		.4byte	.LVL29
 3657 016c 54000000 		.4byte	.LVL38
 3658 0170 0100     		.2byte	0x1
 3659 0172 55       		.byte	0x55
 3660 0173 54000000 		.4byte	.LVL38
 3661 0177 60000000 		.4byte	.LFE3
 3662 017b 0400     		.2byte	0x4
 3663 017d F3       		.byte	0xf3
 3664 017e 01       		.uleb128 0x1
 3665 017f 51       		.byte	0x51
 3666 0180 9F       		.byte	0x9f
 3667 0181 00000000 		.4byte	0
 3668 0185 00000000 		.4byte	0
 3669              	.LLST9:
 3670 0189 0E000000 		.4byte	.LVL31
 3671 018d 4C000000 		.4byte	.LVL35
 3672 0191 0100     		.2byte	0x1
 3673 0193 50       		.byte	0x50
 3674 0194 4C000000 		.4byte	.LVL35
 3675 0198 54000000 		.4byte	.LVL37
 3676 019c 0100     		.2byte	0x1
 3677 019e 54       		.byte	0x54
 3678 019f 54000000 		.4byte	.LVL37
 3679 01a3 60000000 		.4byte	.LFE3
 3680 01a7 0100     		.2byte	0x1
 3681 01a9 50       		.byte	0x50
 3682 01aa 00000000 		.4byte	0
 3683 01ae 00000000 		.4byte	0
 3684              	.LLST10:
 3685 01b2 26000000 		.4byte	.LVL33
 3686 01b6 2A000000 		.4byte	.LVL34
 3687 01ba 0100     		.2byte	0x1
 3688 01bc 52       		.byte	0x52
 3689 01bd 00000000 		.4byte	0
 3690 01c1 00000000 		.4byte	0
 3691              	.LLST11:
 3692 01c5 00000000 		.4byte	.LVL39
 3693 01c9 0B000000 		.4byte	.LVL41-1
 3694 01cd 0100     		.2byte	0x1
 3695 01cf 50       		.byte	0x50
 3696 01d0 0B000000 		.4byte	.LVL41-1
 3697 01d4 58000000 		.4byte	.LFE4
 3698 01d8 0400     		.2byte	0x4
 3699 01da F3       		.byte	0xf3
 3700 01db 01       		.uleb128 0x1
 3701 01dc 50       		.byte	0x50
 3702 01dd 9F       		.byte	0x9f
 3703 01de 00000000 		.4byte	0
 3704 01e2 00000000 		.4byte	0
 3705              	.LLST12:
 3706 01e6 00000000 		.4byte	.LVL39
ARM GAS  C:\Users\exp32\AppData\Local\Temp\cc6N2LT5.s 			page 98


 3707 01ea 08000000 		.4byte	.LVL40
 3708 01ee 0100     		.2byte	0x1
 3709 01f0 51       		.byte	0x51
 3710 01f1 08000000 		.4byte	.LVL40
 3711 01f5 30000000 		.4byte	.LVL44
 3712 01f9 0100     		.2byte	0x1
 3713 01fb 55       		.byte	0x55
 3714 01fc 30000000 		.4byte	.LVL44
 3715 0200 34000000 		.4byte	.LVL45
 3716 0204 0400     		.2byte	0x4
 3717 0206 F3       		.byte	0xf3
 3718 0207 01       		.uleb128 0x1
 3719 0208 51       		.byte	0x51
 3720 0209 9F       		.byte	0x9f
 3721 020a 34000000 		.4byte	.LVL45
 3722 020e 3A000000 		.4byte	.LVL46
 3723 0212 0100     		.2byte	0x1
 3724 0214 55       		.byte	0x55
 3725 0215 3A000000 		.4byte	.LVL46
 3726 0219 3E000000 		.4byte	.LVL47
 3727 021d 0400     		.2byte	0x4
 3728 021f F3       		.byte	0xf3
 3729 0220 01       		.uleb128 0x1
 3730 0221 51       		.byte	0x51
 3731 0222 9F       		.byte	0x9f
 3732 0223 3E000000 		.4byte	.LVL47
 3733 0227 4C000000 		.4byte	.LVL48
 3734 022b 0100     		.2byte	0x1
 3735 022d 55       		.byte	0x55
 3736 022e 4C000000 		.4byte	.LVL48
 3737 0232 58000000 		.4byte	.LFE4
 3738 0236 0400     		.2byte	0x4
 3739 0238 F3       		.byte	0xf3
 3740 0239 01       		.uleb128 0x1
 3741 023a 51       		.byte	0x51
 3742 023b 9F       		.byte	0x9f
 3743 023c 00000000 		.4byte	0
 3744 0240 00000000 		.4byte	0
 3745              	.LLST13:
 3746 0244 0E000000 		.4byte	.LVL42
 3747 0248 1A000000 		.4byte	.LVL43
 3748 024c 0100     		.2byte	0x1
 3749 024e 50       		.byte	0x50
 3750 024f 1A000000 		.4byte	.LVL43
 3751 0253 50000000 		.4byte	.LVL49
 3752 0257 0100     		.2byte	0x1
 3753 0259 54       		.byte	0x54
 3754 025a 50000000 		.4byte	.LVL49
 3755 025e 58000000 		.4byte	.LFE4
 3756 0262 0100     		.2byte	0x1
 3757 0264 50       		.byte	0x50
 3758 0265 00000000 		.4byte	0
 3759 0269 00000000 		.4byte	0
 3760              	.LLST14:
 3761 026d 00000000 		.4byte	.LVL50
 3762 0271 06000000 		.4byte	.LVL51
 3763 0275 0200     		.2byte	0x2
ARM GAS  C:\Users\exp32\AppData\Local\Temp\cc6N2LT5.s 			page 99


 3764 0277 30       		.byte	0x30
 3765 0278 9F       		.byte	0x9f
 3766 0279 06000000 		.4byte	.LVL51
 3767 027d 20000000 		.4byte	.LFE5
 3768 0281 0100     		.2byte	0x1
 3769 0283 50       		.byte	0x50
 3770 0284 00000000 		.4byte	0
 3771 0288 00000000 		.4byte	0
 3772              	.LLST15:
 3773 028c 00000000 		.4byte	.LVL50
 3774 0290 06000000 		.4byte	.LVL51
 3775 0294 0200     		.2byte	0x2
 3776 0296 31       		.byte	0x31
 3777 0297 9F       		.byte	0x9f
 3778 0298 06000000 		.4byte	.LVL51
 3779 029c 14000000 		.4byte	.LVL53
 3780 02a0 0100     		.2byte	0x1
 3781 02a2 52       		.byte	0x52
 3782 02a3 14000000 		.4byte	.LVL53
 3783 02a7 16000000 		.4byte	.LVL54
 3784 02ab 0100     		.2byte	0x1
 3785 02ad 53       		.byte	0x53
 3786 02ae 16000000 		.4byte	.LVL54
 3787 02b2 20000000 		.4byte	.LFE5
 3788 02b6 0100     		.2byte	0x1
 3789 02b8 52       		.byte	0x52
 3790 02b9 00000000 		.4byte	0
 3791 02bd 00000000 		.4byte	0
 3792              	.LLST16:
 3793 02c1 00000000 		.4byte	.LVL55
 3794 02c5 0E000000 		.4byte	.LVL56
 3795 02c9 0100     		.2byte	0x1
 3796 02cb 50       		.byte	0x50
 3797 02cc 0E000000 		.4byte	.LVL56
 3798 02d0 1C000000 		.4byte	.LVL58
 3799 02d4 0400     		.2byte	0x4
 3800 02d6 F3       		.byte	0xf3
 3801 02d7 01       		.uleb128 0x1
 3802 02d8 50       		.byte	0x50
 3803 02d9 9F       		.byte	0x9f
 3804 02da 1C000000 		.4byte	.LVL58
 3805 02de 1E000000 		.4byte	.LVL59
 3806 02e2 0100     		.2byte	0x1
 3807 02e4 50       		.byte	0x50
 3808 02e5 1E000000 		.4byte	.LVL59
 3809 02e9 24000000 		.4byte	.LFE6
 3810 02ed 0400     		.2byte	0x4
 3811 02ef F3       		.byte	0xf3
 3812 02f0 01       		.uleb128 0x1
 3813 02f1 50       		.byte	0x50
 3814 02f2 9F       		.byte	0x9f
 3815 02f3 00000000 		.4byte	0
 3816 02f7 00000000 		.4byte	0
 3817              	.LLST17:
 3818 02fb 00000000 		.4byte	.LVL55
 3819 02ff 1A000000 		.4byte	.LVL57
 3820 0303 0200     		.2byte	0x2
ARM GAS  C:\Users\exp32\AppData\Local\Temp\cc6N2LT5.s 			page 100


 3821 0305 30       		.byte	0x30
 3822 0306 9F       		.byte	0x9f
 3823 0307 1A000000 		.4byte	.LVL57
 3824 030b 1C000000 		.4byte	.LVL58
 3825 030f 0100     		.2byte	0x1
 3826 0311 50       		.byte	0x50
 3827 0312 1C000000 		.4byte	.LVL58
 3828 0316 1E000000 		.4byte	.LVL59
 3829 031a 0200     		.2byte	0x2
 3830 031c 30       		.byte	0x30
 3831 031d 9F       		.byte	0x9f
 3832 031e 1E000000 		.4byte	.LVL59
 3833 0322 24000000 		.4byte	.LFE6
 3834 0326 0100     		.2byte	0x1
 3835 0328 50       		.byte	0x50
 3836 0329 00000000 		.4byte	0
 3837 032d 00000000 		.4byte	0
 3838              	.LLST18:
 3839 0331 00000000 		.4byte	.LVL60
 3840 0335 14000000 		.4byte	.LVL61
 3841 0339 0100     		.2byte	0x1
 3842 033b 50       		.byte	0x50
 3843 033c 14000000 		.4byte	.LVL61
 3844 0340 16000000 		.4byte	.LVL62
 3845 0344 0300     		.2byte	0x3
 3846 0346 70       		.byte	0x70
 3847 0347 74       		.sleb128 -12
 3848 0348 9F       		.byte	0x9f
 3849 0349 16000000 		.4byte	.LVL62
 3850 034d 22000000 		.4byte	.LVL64
 3851 0351 0400     		.2byte	0x4
 3852 0353 F3       		.byte	0xf3
 3853 0354 01       		.uleb128 0x1
 3854 0355 50       		.byte	0x50
 3855 0356 9F       		.byte	0x9f
 3856 0357 22000000 		.4byte	.LVL64
 3857 035b 24000000 		.4byte	.LVL65
 3858 035f 0100     		.2byte	0x1
 3859 0361 50       		.byte	0x50
 3860 0362 24000000 		.4byte	.LVL65
 3861 0366 26000000 		.4byte	.LVL66
 3862 036a 0400     		.2byte	0x4
 3863 036c F3       		.byte	0xf3
 3864 036d 01       		.uleb128 0x1
 3865 036e 50       		.byte	0x50
 3866 036f 9F       		.byte	0x9f
 3867 0370 26000000 		.4byte	.LVL66
 3868 0374 28000000 		.4byte	.LVL67
 3869 0378 0100     		.2byte	0x1
 3870 037a 50       		.byte	0x50
 3871 037b 28000000 		.4byte	.LVL67
 3872 037f 34000000 		.4byte	.LFE7
 3873 0383 0400     		.2byte	0x4
 3874 0385 F3       		.byte	0xf3
 3875 0386 01       		.uleb128 0x1
 3876 0387 50       		.byte	0x50
 3877 0388 9F       		.byte	0x9f
ARM GAS  C:\Users\exp32\AppData\Local\Temp\cc6N2LT5.s 			page 101


 3878 0389 00000000 		.4byte	0
 3879 038d 00000000 		.4byte	0
 3880              	.LLST19:
 3881 0391 00000000 		.4byte	.LVL60
 3882 0395 20000000 		.4byte	.LVL63
 3883 0399 0200     		.2byte	0x2
 3884 039b 30       		.byte	0x30
 3885 039c 9F       		.byte	0x9f
 3886 039d 20000000 		.4byte	.LVL63
 3887 03a1 22000000 		.4byte	.LVL64
 3888 03a5 0100     		.2byte	0x1
 3889 03a7 50       		.byte	0x50
 3890 03a8 22000000 		.4byte	.LVL64
 3891 03ac 28000000 		.4byte	.LVL67
 3892 03b0 0200     		.2byte	0x2
 3893 03b2 30       		.byte	0x30
 3894 03b3 9F       		.byte	0x9f
 3895 03b4 28000000 		.4byte	.LVL67
 3896 03b8 34000000 		.4byte	.LFE7
 3897 03bc 0100     		.2byte	0x1
 3898 03be 50       		.byte	0x50
 3899 03bf 00000000 		.4byte	0
 3900 03c3 00000000 		.4byte	0
 3901              	.LLST20:
 3902 03c7 00000000 		.4byte	.LVL68
 3903 03cb 0E000000 		.4byte	.LVL69
 3904 03cf 0100     		.2byte	0x1
 3905 03d1 50       		.byte	0x50
 3906 03d2 0E000000 		.4byte	.LVL69
 3907 03d6 1E000000 		.4byte	.LVL71
 3908 03da 0400     		.2byte	0x4
 3909 03dc F3       		.byte	0xf3
 3910 03dd 01       		.uleb128 0x1
 3911 03de 50       		.byte	0x50
 3912 03df 9F       		.byte	0x9f
 3913 03e0 1E000000 		.4byte	.LVL71
 3914 03e4 24000000 		.4byte	.LVL72
 3915 03e8 0100     		.2byte	0x1
 3916 03ea 50       		.byte	0x50
 3917 03eb 24000000 		.4byte	.LVL72
 3918 03ef 40000000 		.4byte	.LFE8
 3919 03f3 0400     		.2byte	0x4
 3920 03f5 F3       		.byte	0xf3
 3921 03f6 01       		.uleb128 0x1
 3922 03f7 50       		.byte	0x50
 3923 03f8 9F       		.byte	0x9f
 3924 03f9 00000000 		.4byte	0
 3925 03fd 00000000 		.4byte	0
 3926              	.LLST21:
 3927 0401 00000000 		.4byte	.LVL68
 3928 0405 10000000 		.4byte	.LVL70
 3929 0409 0200     		.2byte	0x2
 3930 040b 30       		.byte	0x30
 3931 040c 9F       		.byte	0x9f
 3932 040d 10000000 		.4byte	.LVL70
 3933 0411 1E000000 		.4byte	.LVL71
 3934 0415 0100     		.2byte	0x1
ARM GAS  C:\Users\exp32\AppData\Local\Temp\cc6N2LT5.s 			page 102


 3935 0417 53       		.byte	0x53
 3936 0418 1E000000 		.4byte	.LVL71
 3937 041c 24000000 		.4byte	.LVL72
 3938 0420 0200     		.2byte	0x2
 3939 0422 30       		.byte	0x30
 3940 0423 9F       		.byte	0x9f
 3941 0424 24000000 		.4byte	.LVL72
 3942 0428 2C000000 		.4byte	.LVL74
 3943 042c 0100     		.2byte	0x1
 3944 042e 53       		.byte	0x53
 3945 042f 36000000 		.4byte	.LVL77
 3946 0433 3A000000 		.4byte	.LVL78
 3947 0437 0100     		.2byte	0x1
 3948 0439 53       		.byte	0x53
 3949 043a 00000000 		.4byte	0
 3950 043e 00000000 		.4byte	0
 3951              	.LLST22:
 3952 0442 2C000000 		.4byte	.LVL74
 3953 0446 36000000 		.4byte	.LVL77
 3954 044a 0100     		.2byte	0x1
 3955 044c 53       		.byte	0x53
 3956 044d 00000000 		.4byte	0
 3957 0451 00000000 		.4byte	0
 3958              	.LLST23:
 3959 0455 00000000 		.4byte	.LVL68
 3960 0459 26000000 		.4byte	.LVL73
 3961 045d 0200     		.2byte	0x2
 3962 045f 30       		.byte	0x30
 3963 0460 9F       		.byte	0x9f
 3964 0461 26000000 		.4byte	.LVL73
 3965 0465 2E000000 		.4byte	.LVL75
 3966 0469 0100     		.2byte	0x1
 3967 046b 52       		.byte	0x52
 3968 046c 36000000 		.4byte	.LVL77
 3969 0470 3A000000 		.4byte	.LVL78
 3970 0474 0100     		.2byte	0x1
 3971 0476 52       		.byte	0x52
 3972 0477 00000000 		.4byte	0
 3973 047b 00000000 		.4byte	0
 3974              	.LLST24:
 3975 047f 00000000 		.4byte	.LVL68
 3976 0483 34000000 		.4byte	.LVL76
 3977 0487 0300     		.2byte	0x3
 3978 0489 09       		.byte	0x9
 3979 048a FF       		.byte	0xff
 3980 048b 9F       		.byte	0x9f
 3981 048c 34000000 		.4byte	.LVL76
 3982 0490 36000000 		.4byte	.LVL77
 3983 0494 0100     		.2byte	0x1
 3984 0496 50       		.byte	0x50
 3985 0497 36000000 		.4byte	.LVL77
 3986 049b 3A000000 		.4byte	.LVL78
 3987 049f 0300     		.2byte	0x3
 3988 04a1 09       		.byte	0x9
 3989 04a2 FF       		.byte	0xff
 3990 04a3 9F       		.byte	0x9f
 3991 04a4 3A000000 		.4byte	.LVL78
ARM GAS  C:\Users\exp32\AppData\Local\Temp\cc6N2LT5.s 			page 103


 3992 04a8 40000000 		.4byte	.LFE8
 3993 04ac 0100     		.2byte	0x1
 3994 04ae 50       		.byte	0x50
 3995 04af 00000000 		.4byte	0
 3996 04b3 00000000 		.4byte	0
 3997              		.section	.debug_aranges,"",%progbits
 3998 0000 54000000 		.4byte	0x54
 3999 0004 0200     		.2byte	0x2
 4000 0006 00000000 		.4byte	.Ldebug_info0
 4001 000a 04       		.byte	0x4
 4002 000b 00       		.byte	0
 4003 000c 0000     		.2byte	0
 4004 000e 0000     		.2byte	0
 4005 0010 00000000 		.4byte	.LFB2
 4006 0014 82000000 		.4byte	.LFE2-.LFB2
 4007 0018 00000000 		.4byte	.LFB1
 4008 001c 80000000 		.4byte	.LFE1-.LFB1
 4009 0020 00000000 		.4byte	.LFB3
 4010 0024 60000000 		.4byte	.LFE3-.LFB3
 4011 0028 00000000 		.4byte	.LFB4
 4012 002c 58000000 		.4byte	.LFE4-.LFB4
 4013 0030 00000000 		.4byte	.LFB5
 4014 0034 20000000 		.4byte	.LFE5-.LFB5
 4015 0038 00000000 		.4byte	.LFB6
 4016 003c 24000000 		.4byte	.LFE6-.LFB6
 4017 0040 00000000 		.4byte	.LFB7
 4018 0044 34000000 		.4byte	.LFE7-.LFB7
 4019 0048 00000000 		.4byte	.LFB8
 4020 004c 40000000 		.4byte	.LFE8-.LFB8
 4021 0050 00000000 		.4byte	0
 4022 0054 00000000 		.4byte	0
 4023              		.section	.debug_ranges,"",%progbits
 4024              	.Ldebug_ranges0:
 4025 0000 00000000 		.4byte	.LFB2
 4026 0004 82000000 		.4byte	.LFE2
 4027 0008 00000000 		.4byte	.LFB1
 4028 000c 80000000 		.4byte	.LFE1
 4029 0010 00000000 		.4byte	.LFB3
 4030 0014 60000000 		.4byte	.LFE3
 4031 0018 00000000 		.4byte	.LFB4
 4032 001c 58000000 		.4byte	.LFE4
 4033 0020 00000000 		.4byte	.LFB5
 4034 0024 20000000 		.4byte	.LFE5
 4035 0028 00000000 		.4byte	.LFB6
 4036 002c 24000000 		.4byte	.LFE6
 4037 0030 00000000 		.4byte	.LFB7
 4038 0034 34000000 		.4byte	.LFE7
 4039 0038 00000000 		.4byte	.LFB8
 4040 003c 40000000 		.4byte	.LFE8
 4041 0040 00000000 		.4byte	0
 4042 0044 00000000 		.4byte	0
 4043              		.section	.debug_line,"",%progbits
 4044              	.Ldebug_line0:
 4045 0000 0F020000 		.section	.debug_str,"MS",%progbits,1
 4045      0200B200 
 4045      00000201 
 4045      FB0E0D00 
ARM GAS  C:\Users\exp32\AppData\Local\Temp\cc6N2LT5.s 			page 104


 4045      01010101 
 4046              	.LASF123:
 4047 0000 43617053 		.ascii	"CapSense_1_FLASH_WD_STRUCT\000"
 4047      656E7365 
 4047      5F315F46 
 4047      4C415348 
 4047      5F57445F 
 4048              	.LASF136:
 4049 001b 77646774 		.ascii	"wdgtId\000"
 4049      496400
 4050              	.LASF132:
 4051 0022 70617261 		.ascii	"paramId\000"
 4051      6D496400 
 4052              	.LASF90:
 4053 002a 736E7254 		.ascii	"snrTestWidgetId\000"
 4053      65737457 
 4053      69646765 
 4053      74496400 
 4054              	.LASF141:
 4055 003a 70747255 		.ascii	"ptrUint8\000"
 4055      696E7438 
 4055      00
 4056              	.LASF8:
 4057 0043 756E7369 		.ascii	"unsigned int\000"
 4057      676E6564 
 4057      20696E74 
 4057      00
 4058              	.LASF81:
 4059 0050 7363616E 		.ascii	"scanCounter\000"
 4059      436F756E 
 4059      74657200 
 4060              	.LASF79:
 4061 005c 6877436C 		.ascii	"hwClock\000"
 4061      6F636B00 
 4062              	.LASF155:
 4063 0064 43617053 		.ascii	"CapSense_1_debounceButton0\000"
 4063      656E7365 
 4063      5F315F64 
 4063      65626F75 
 4063      6E636542 
 4064              	.LASF156:
 4065 007f 43617053 		.ascii	"CapSense_1_debounceButton1\000"
 4065      656E7365 
 4065      5F315F64 
 4065      65626F75 
 4065      6E636542 
 4066              	.LASF94:
 4067 009a 7363616E 		.ascii	"scanCsdISC\000"
 4067      43736449 
 4067      534300
 4068              	.LASF159:
 4069 00a5 43617053 		.ascii	"CapSense_1_debounceButton3\000"
 4069      656E7365 
 4069      5F315F64 
 4069      65626F75 
 4069      6E636542 
 4070              	.LASF160:
ARM GAS  C:\Users\exp32\AppData\Local\Temp\cc6N2LT5.s 			page 105


 4071 00c0 43617053 		.ascii	"CapSense_1_debounceButton4\000"
 4071      656E7365 
 4071      5F315F64 
 4071      65626F75 
 4071      6E636542 
 4072              	.LASF161:
 4073 00db 43617053 		.ascii	"CapSense_1_debounceButton5\000"
 4073      656E7365 
 4073      5F315F64 
 4073      65626F75 
 4073      6E636542 
 4074              	.LASF181:
 4075 00f6 43794861 		.ascii	"CyHalt\000"
 4075      6C7400
 4076              	.LASF171:
 4077 00fd 43617053 		.ascii	"CapSense_1_ioList\000"
 4077      656E7365 
 4077      5F315F69 
 4077      6F4C6973 
 4077      7400
 4078              	.LASF179:
 4079 010f 44735061 		.ascii	"DsParseParamId\000"
 4079      72736550 
 4079      6172616D 
 4079      496400
 4080              	.LASF177:
 4081 011e 47656E65 		.ascii	"Generated_Source\\PSoC4\\CapSense_1_Structure.c\000"
 4081      72617465 
 4081      645F536F 
 4081      75726365 
 4081      5C50536F 
 4082              	.LASF145:
 4083 014c 43617053 		.ascii	"CapSense_1_GetParam\000"
 4083      656E7365 
 4083      5F315F47 
 4083      65745061 
 4083      72616D00 
 4084              	.LASF36:
 4085 0160 43617053 		.ascii	"CapSense_1_WD_TYPE_ENUM\000"
 4085      656E7365 
 4085      5F315F57 
 4085      445F5459 
 4085      50455F45 
 4086              	.LASF122:
 4087 0178 69697246 		.ascii	"iirFilterCoeff\000"
 4087      696C7465 
 4087      72436F65 
 4087      666600
 4088              	.LASF69:
 4089 0187 43617053 		.ascii	"CapSense_1_RAM_WD_LIST_STRUCT\000"
 4089      656E7365 
 4089      5F315F52 
 4089      414D5F57 
 4089      445F4C49 
 4090              	.LASF151:
 4091 01a5 73656E73 		.ascii	"sensorId\000"
 4091      6F724964 
ARM GAS  C:\Users\exp32\AppData\Local\Temp\cc6N2LT5.s 			page 106


 4091      00
 4092              	.LASF51:
 4093 01ae 69646163 		.ascii	"idacGainIndex\000"
 4093      4761696E 
 4093      496E6465 
 4093      7800
 4094              	.LASF135:
 4095 01bc 736E7349 		.ascii	"snsId\000"
 4095      6400
 4096              	.LASF12:
 4097 01c2 666C6F61 		.ascii	"float\000"
 4097      7400
 4098              	.LASF105:
 4099 01c8 73686966 		.ascii	"shift\000"
 4099      7400
 4100              	.LASF176:
 4101 01ce 474E5520 		.ascii	"GNU C11 5.4.1 20160609 (release) [ARM/embedded-5-br"
 4101      43313120 
 4101      352E342E 
 4101      31203230 
 4101      31363036 
 4102 0201 616E6368 		.ascii	"anch revision 237715] -mcpu=cortex-m0plus -mthumb -"
 4102      20726576 
 4102      6973696F 
 4102      6E203233 
 4102      37373135 
 4103 0234 67202D4F 		.ascii	"g -Og -ffunction-sections -ffat-lto-objects\000"
 4103      67202D66 
 4103      66756E63 
 4103      74696F6E 
 4103      2D736563 
 4104              	.LASF89:
 4105 0260 736E734C 		.ascii	"snsList\000"
 4105      69737400 
 4106              	.LASF134:
 4107 0268 72657375 		.ascii	"result\000"
 4107      6C7400
 4108              	.LASF29:
 4109 026f 43617053 		.ascii	"CapSense_1_WD_BUTTON_E\000"
 4109      656E7365 
 4109      5F315F57 
 4109      445F4255 
 4109      54544F4E 
 4110              	.LASF7:
 4111 0286 6C6F6E67 		.ascii	"long long unsigned int\000"
 4111      206C6F6E 
 4111      6720756E 
 4111      7369676E 
 4111      65642069 
 4112              	.LASF64:
 4113 029d 746F7563 		.ascii	"touchpad0\000"
 4113      68706164 
 4113      3000
 4114              	.LASF91:
 4115 02a7 736E7254 		.ascii	"snrTestSensorId\000"
 4115      65737453 
 4115      656E736F 
ARM GAS  C:\Users\exp32\AppData\Local\Temp\cc6N2LT5.s 			page 107


 4115      72496400 
 4116              	.LASF121:
 4117 02b7 70747232 		.ascii	"ptr2NoiseEnvlp\000"
 4117      4E6F6973 
 4117      65456E76 
 4117      6C7000
 4118              	.LASF150:
 4119 02c6 43617053 		.ascii	"CapSense_1_IsSensorActive\000"
 4119      656E7365 
 4119      5F315F49 
 4119      7353656E 
 4119      736F7241 
 4120              	.LASF178:
 4121 02e0 433A5C55 		.ascii	"C:\\Users\\exp32\\Documents\\PSoC Creator\\Workspac"
 4121      73657273 
 4121      5C657870 
 4121      33325C44 
 4121      6F63756D 
 4122 030e 6530315C 		.ascii	"e01\\CY8C4146AZI-S455_64KB_L.cydsn\000"
 4122      43593843 
 4122      34313436 
 4122      415A492D 
 4122      53343535 
 4123              	.LASF114:
 4124 0330 77646774 		.ascii	"wdgtType\000"
 4124      54797065 
 4124      00
 4125              	.LASF41:
 4126 0339 43617053 		.ascii	"CapSense_1_SENSE_METHOD_ISX_E\000"
 4126      656E7365 
 4126      5F315F53 
 4126      454E5345 
 4126      5F4D4554 
 4127              	.LASF20:
 4128 0357 43617053 		.ascii	"CapSense_1_LOW_BSLN_RST_TYPE\000"
 4128      656E7365 
 4128      5F315F4C 
 4128      4F575F42 
 4128      534C4E5F 
 4129              	.LASF157:
 4130 0374 43617053 		.ascii	"CapSense_1_debounceTouchpad0\000"
 4130      656E7365 
 4130      5F315F64 
 4130      65626F75 
 4130      6E636554 
 4131              	.LASF152:
 4132 0391 43617053 		.ascii	"CapSense_1_GetXYCoordinates\000"
 4132      656E7365 
 4132      5F315F47 
 4132      65745859 
 4132      436F6F72 
 4133              	.LASF140:
 4134 03ad 76616C75 		.ascii	"value\000"
 4134      6500
 4135              	.LASF172:
 4136 03b3 43617053 		.ascii	"CapSense_1_ramWidgetInit\000"
 4136      656E7365 
ARM GAS  C:\Users\exp32\AppData\Local\Temp\cc6N2LT5.s 			page 108


 4136      5F315F72 
 4136      616D5769 
 4136      64676574 
 4137              	.LASF87:
 4138 03cc 6D6F6443 		.ascii	"modCsdClk\000"
 4138      7364436C 
 4138      6B00
 4139              	.LASF99:
 4140 03d6 64725074 		.ascii	"drPtr\000"
 4140      7200
 4141              	.LASF126:
 4142 03dc 6F666673 		.ascii	"offset\000"
 4142      657400
 4143              	.LASF133:
 4144 03e3 70446174 		.ascii	"pData\000"
 4144      6100
 4145              	.LASF57:
 4146 03e9 73696750 		.ascii	"sigPFC\000"
 4146      464300
 4147              	.LASF40:
 4148 03f0 43617053 		.ascii	"CapSense_1_SENSE_METHOD_BIST_E\000"
 4148      656E7365 
 4148      5F315F53 
 4148      454E5345 
 4148      5F4D4554 
 4149              	.LASF32:
 4150 040f 43617053 		.ascii	"CapSense_1_WD_MATRIX_BUTTON_E\000"
 4150      656E7365 
 4150      5F315F57 
 4150      445F4D41 
 4150      54524958 
 4151              	.LASF48:
 4152 042d 6C6F7742 		.ascii	"lowBslnRst\000"
 4152      736C6E52 
 4152      737400
 4153              	.LASF113:
 4154 0438 746F7461 		.ascii	"totalNumSns\000"
 4154      6C4E756D 
 4154      536E7300 
 4155              	.LASF28:
 4156 0444 534D4152 		.ascii	"SMARTSENSE_CSD_NOISE_ENVELOPE_STRUCT\000"
 4156      5453454E 
 4156      53455F43 
 4156      53445F4E 
 4156      4F495345 
 4157              	.LASF33:
 4158 0469 43617053 		.ascii	"CapSense_1_WD_TOUCHPAD_E\000"
 4158      656E7365 
 4158      5F315F57 
 4158      445F544F 
 4158      55434850 
 4159              	.LASF44:
 4160 0482 6E6F6973 		.ascii	"noiseTh\000"
 4160      65546800 
 4161              	.LASF14:
 4162 048a 63686172 		.ascii	"char\000"
 4162      00
ARM GAS  C:\Users\exp32\AppData\Local\Temp\cc6N2LT5.s 			page 109


 4163              	.LASF55:
 4164 048f 726F7753 		.ascii	"rowSnsClkSource\000"
 4164      6E73436C 
 4164      6B536F75 
 4164      72636500 
 4165              	.LASF103:
 4166 049f 6873696F 		.ascii	"hsiomShift\000"
 4166      6D536869 
 4166      667400
 4167              	.LASF10:
 4168 04aa 75696E74 		.ascii	"uint16\000"
 4168      313600
 4169              	.LASF53:
 4170 04b1 726F7753 		.ascii	"rowSnsClk\000"
 4170      6E73436C 
 4170      6B00
 4171              	.LASF42:
 4172 04bb 7265736F 		.ascii	"resolution\000"
 4172      6C757469 
 4172      6F6E00
 4173              	.LASF96:
 4174 04c6 43617053 		.ascii	"CapSense_1_RAM_STRUCT\000"
 4174      656E7365 
 4174      5F315F52 
 4174      414D5F53 
 4174      54525543 
 4175              	.LASF82:
 4176 04dc 73746174 		.ascii	"status\000"
 4176      757300
 4177              	.LASF31:
 4178 04e3 43617053 		.ascii	"CapSense_1_WD_RADIAL_SLIDER_E\000"
 4178      656E7365 
 4178      5F315F57 
 4178      445F5241 
 4178      4449414C 
 4179              	.LASF142:
 4180 0501 70747255 		.ascii	"ptrUint16\000"
 4180      696E7431 
 4180      3600
 4181              	.LASF74:
 4182 050b 69646163 		.ascii	"idacComp\000"
 4182      436F6D70 
 4182      00
 4183              	.LASF98:
 4184 0514 70635074 		.ascii	"pcPtr\000"
 4184      7200
 4185              	.LASF6:
 4186 051a 6C6F6E67 		.ascii	"long long int\000"
 4186      206C6F6E 
 4186      6720696E 
 4186      7400
 4187              	.LASF19:
 4188 0528 43617053 		.ascii	"CapSense_1_THRESHOLD_TYPE\000"
 4188      656E7365 
 4188      5F315F54 
 4188      48524553 
 4188      484F4C44 
ARM GAS  C:\Users\exp32\AppData\Local\Temp\cc6N2LT5.s 			page 110


 4189              	.LASF47:
 4190 0542 6F6E4465 		.ascii	"onDebounce\000"
 4190      626F756E 
 4190      636500
 4191              	.LASF148:
 4192 054d 7764576F 		.ascii	"wdWord\000"
 4192      726400
 4193              	.LASF88:
 4194 0554 77646774 		.ascii	"wdgtList\000"
 4194      4C697374 
 4194      00
 4195              	.LASF107:
 4196 055d 70747232 		.ascii	"ptr2SnsFlash\000"
 4196      536E7346 
 4196      6C617368 
 4196      00
 4197              	.LASF93:
 4198 056a 736E7254 		.ascii	"snrTestRawCount\000"
 4198      65737452 
 4198      6177436F 
 4198      756E7400 
 4199              	.LASF174:
 4200 057a 6D656D73 		.ascii	"memset\000"
 4200      657400
 4201              	.LASF45:
 4202 0581 6E4E6F69 		.ascii	"nNoiseTh\000"
 4202      73655468 
 4202      00
 4203              	.LASF86:
 4204 058a 63736430 		.ascii	"csd0Config\000"
 4204      436F6E66 
 4204      696700
 4205              	.LASF146:
 4206 0595 43617053 		.ascii	"CapSense_1_SetParam\000"
 4206      656E7365 
 4206      5F315F53 
 4206      65745061 
 4206      72616D00 
 4207              	.LASF97:
 4208 05a9 6873696F 		.ascii	"hsiomPtr\000"
 4208      6D507472 
 4208      00
 4209              	.LASF11:
 4210 05b2 75696E74 		.ascii	"uint32\000"
 4210      333200
 4211              	.LASF46:
 4212 05b9 68797374 		.ascii	"hysteresis\000"
 4212      65726573 
 4212      697300
 4213              	.LASF110:
 4214 05c4 70747232 		.ascii	"ptr2FltrHistory\000"
 4214      466C7472 
 4214      48697374 
 4214      6F727900 
 4215              	.LASF37:
 4216 05d4 43617053 		.ascii	"CapSense_1_UNDEFINED_E\000"
 4216      656E7365 
ARM GAS  C:\Users\exp32\AppData\Local\Temp\cc6N2LT5.s 			page 111


 4216      5F315F55 
 4216      4E444546 
 4216      494E4544 
 4217              	.LASF61:
 4218 05eb 43617053 		.ascii	"CapSense_1_RAM_WD_CSD_TOUCHPAD_STRUCT\000"
 4218      656E7365 
 4218      5F315F52 
 4218      414D5F57 
 4218      445F4353 
 4219              	.LASF76:
 4220 0611 43617053 		.ascii	"CapSense_1_RAM_SNS_LIST_STRUCT\000"
 4220      656E7365 
 4220      5F315F52 
 4220      414D5F53 
 4220      4E535F4C 
 4221              	.LASF102:
 4222 0630 6D61736B 		.ascii	"mask\000"
 4222      00
 4223              	.LASF30:
 4224 0635 43617053 		.ascii	"CapSense_1_WD_LINEAR_SLIDER_E\000"
 4224      656E7365 
 4224      5F315F57 
 4224      445F4C49 
 4224      4E454152 
 4225              	.LASF143:
 4226 0653 70747255 		.ascii	"ptrUint32\000"
 4226      696E7433 
 4226      3200
 4227              	.LASF139:
 4228 065d 70747249 		.ascii	"ptrIdacInit\000"
 4228      64616349 
 4228      6E697400 
 4229              	.LASF169:
 4230 0669 43617053 		.ascii	"CapSense_1_dsRam\000"
 4230      656E7365 
 4230      5F315F64 
 4230      7352616D 
 4230      00
 4231              	.LASF17:
 4232 067a 6C6F6E67 		.ascii	"long double\000"
 4232      20646F75 
 4232      626C6500 
 4233              	.LASF16:
 4234 0686 72656733 		.ascii	"reg32\000"
 4234      3200
 4235              	.LASF92:
 4236 068c 736E7254 		.ascii	"snrTestScanCounter\000"
 4236      65737453 
 4236      63616E43 
 4236      6F756E74 
 4236      657200
 4237              	.LASF77:
 4238 069f 636F6E66 		.ascii	"configId\000"
 4238      69674964 
 4238      00
 4239              	.LASF109:
 4240 06a8 70747232 		.ascii	"ptr2SnsRam\000"
ARM GAS  C:\Users\exp32\AppData\Local\Temp\cc6N2LT5.s 			page 112


 4240      536E7352 
 4240      616D00
 4241              	.LASF34:
 4242 06b3 43617053 		.ascii	"CapSense_1_WD_PROXIMITY_E\000"
 4242      656E7365 
 4242      5F315F57 
 4242      445F5052 
 4242      4F58494D 
 4243              	.LASF35:
 4244 06cd 43617053 		.ascii	"CapSense_1_WD_ENCODERDIAL_E\000"
 4244      656E7365 
 4244      5F315F57 
 4244      445F454E 
 4244      434F4445 
 4245              	.LASF131:
 4246 06e9 50415241 		.ascii	"PARAM_ID_STRUCT\000"
 4246      4D5F4944 
 4246      5F535452 
 4246      55435400 
 4247              	.LASF125:
 4248 06f9 43617053 		.ascii	"CapSense_1_FLASH_STRUCT\000"
 4248      656E7365 
 4248      5F315F46 
 4248      4C415348 
 4248      5F535452 
 4249              	.LASF85:
 4250 0711 736E7353 		.ascii	"snsStatus\000"
 4250      74617475 
 4250      7300
 4251              	.LASF54:
 4252 071b 736E7343 		.ascii	"snsClkSource\000"
 4252      6C6B536F 
 4252      75726365 
 4252      00
 4253              	.LASF120:
 4254 0728 7943656E 		.ascii	"yCentroidMultiplier\000"
 4254      74726F69 
 4254      644D756C 
 4254      7469706C 
 4254      69657200 
 4255              	.LASF117:
 4256 073c 78526573 		.ascii	"xResolution\000"
 4256      6F6C7574 
 4256      696F6E00 
 4257              	.LASF38:
 4258 0748 43617053 		.ascii	"CapSense_1_SENSE_METHOD_CSD_E\000"
 4258      656E7365 
 4258      5F315F53 
 4258      454E5345 
 4258      5F4D4554 
 4259              	.LASF2:
 4260 0766 73686F72 		.ascii	"short int\000"
 4260      7420696E 
 4260      7400
 4261              	.LASF149:
 4262 0770 43617053 		.ascii	"CapSense_1_IsWidgetActive\000"
 4262      656E7365 
ARM GAS  C:\Users\exp32\AppData\Local\Temp\cc6N2LT5.s 			page 113


 4262      5F315F49 
 4262      73576964 
 4262      67657441 
 4263              	.LASF4:
 4264 078a 6C6F6E67 		.ascii	"long int\000"
 4264      20696E74 
 4264      00
 4265              	.LASF158:
 4266 0793 43617053 		.ascii	"CapSense_1_debounceButton2\000"
 4266      656E7365 
 4266      5F315F64 
 4266      65626F75 
 4266      6E636542 
 4267              	.LASF83:
 4268 07ae 77646774 		.ascii	"wdgtEnable\000"
 4268      456E6162 
 4268      6C6500
 4269              	.LASF170:
 4270 07b9 43617053 		.ascii	"CapSense_1_dsFlash\000"
 4270      656E7365 
 4270      5F315F64 
 4270      73466C61 
 4270      736800
 4271              	.LASF72:
 4272 07cc 64696666 		.ascii	"diff\000"
 4272      00
 4273              	.LASF80:
 4274 07d1 74756E65 		.ascii	"tunerCmd\000"
 4274      72436D64 
 4274      00
 4275              	.LASF100:
 4276 07da 70735074 		.ascii	"psPtr\000"
 4276      7200
 4277              	.LASF39:
 4278 07e0 43617053 		.ascii	"CapSense_1_SENSE_METHOD_CSX_E\000"
 4278      656E7365 
 4278      5F315F53 
 4278      454E5345 
 4278      5F4D4554 
 4279              	.LASF62:
 4280 07fe 62757474 		.ascii	"button0\000"
 4280      6F6E3000 
 4281              	.LASF63:
 4282 0806 62757474 		.ascii	"button1\000"
 4282      6F6E3100 
 4283              	.LASF65:
 4284 080e 62757474 		.ascii	"button2\000"
 4284      6F6E3200 
 4285              	.LASF66:
 4286 0816 62757474 		.ascii	"button3\000"
 4286      6F6E3300 
 4287              	.LASF67:
 4288 081e 62757474 		.ascii	"button4\000"
 4288      6F6E3400 
 4289              	.LASF68:
 4290 0826 62757474 		.ascii	"button5\000"
 4290      6F6E3500 
ARM GAS  C:\Users\exp32\AppData\Local\Temp\cc6N2LT5.s 			page 114


 4291              	.LASF137:
 4292 082e 70747253 		.ascii	"ptrSnsTmp\000"
 4292      6E73546D 
 4292      7000
 4293              	.LASF115:
 4294 0838 6E756D43 		.ascii	"numCols\000"
 4294      6F6C7300 
 4295              	.LASF50:
 4296 0840 726F7749 		.ascii	"rowIdacMod\000"
 4296      6461634D 
 4296      6F6400
 4297              	.LASF164:
 4298 084b 43617053 		.ascii	"CapSense_1_noiseEnvlpTouchpad0\000"
 4298      656E7365 
 4298      5F315F6E 
 4298      6F697365 
 4298      456E766C 
 4299              	.LASF56:
 4300 086a 66696E67 		.ascii	"fingerCap\000"
 4300      65724361 
 4300      7000
 4301              	.LASF84:
 4302 0874 77646774 		.ascii	"wdgtStatus\000"
 4302      53746174 
 4302      757300
 4303              	.LASF18:
 4304 087f 73697A65 		.ascii	"sizetype\000"
 4304      74797065 
 4304      00
 4305              	.LASF104:
 4306 0888 64725368 		.ascii	"drShift\000"
 4306      69667400 
 4307              	.LASF5:
 4308 0890 6C6F6E67 		.ascii	"long unsigned int\000"
 4308      20756E73 
 4308      69676E65 
 4308      6420696E 
 4308      7400
 4309              	.LASF49:
 4310 08a2 69646163 		.ascii	"idacMod\000"
 4310      4D6F6400 
 4311              	.LASF111:
 4312 08aa 70747232 		.ascii	"ptr2DebounceArr\000"
 4312      4465626F 
 4312      756E6365 
 4312      41727200 
 4313              	.LASF119:
 4314 08ba 7843656E 		.ascii	"xCentroidMultiplier\000"
 4314      74726F69 
 4314      644D756C 
 4314      7469706C 
 4314      69657200 
 4315              	.LASF43:
 4316 08ce 66696E67 		.ascii	"fingerTh\000"
 4316      65725468 
 4316      00
 4317              	.LASF71:
ARM GAS  C:\Users\exp32\AppData\Local\Temp\cc6N2LT5.s 			page 115


 4318 08d7 62736C6E 		.ascii	"bslnExt\000"
 4318      45787400 
 4319              	.LASF15:
 4320 08df 63797374 		.ascii	"cystatus\000"
 4320      61747573 
 4320      00
 4321              	.LASF180:
 4322 08e8 43617053 		.ascii	"CapSense_1_DsInitialize\000"
 4322      656E7365 
 4322      5F315F44 
 4322      73496E69 
 4322      7469616C 
 4323              	.LASF130:
 4324 0900 74797065 		.ascii	"type\000"
 4324      00
 4325              	.LASF1:
 4326 0905 756E7369 		.ascii	"unsigned char\000"
 4326      676E6564 
 4326      20636861 
 4326      7200
 4327              	.LASF129:
 4328 0913 666C6173 		.ascii	"flash\000"
 4328      6800
 4329              	.LASF138:
 4330 0919 70747246 		.ascii	"ptrFlashWdgt\000"
 4330      6C617368 
 4330      57646774 
 4330      00
 4331              	.LASF112:
 4332 0926 73746174 		.ascii	"staticConfig\000"
 4332      6963436F 
 4332      6E666967 
 4332      00
 4333              	.LASF59:
 4334 0933 706F7358 		.ascii	"posX\000"
 4334      00
 4335              	.LASF60:
 4336 0938 706F7359 		.ascii	"posY\000"
 4336      00
 4337              	.LASF95:
 4338 093d 7363616E 		.ascii	"scanCurrentISC\000"
 4338      43757272 
 4338      656E7449 
 4338      534300
 4339              	.LASF108:
 4340 094c 70747232 		.ascii	"ptr2WdgtRam\000"
 4340      57646774 
 4340      52616D00 
 4341              	.LASF173:
 4342 0958 43617053 		.ascii	"CapSense_1_ramIdacInit\000"
 4342      656E7365 
 4342      5F315F72 
 4342      616D4964 
 4342      6163496E 
 4343              	.LASF153:
 4344 096f 77644373 		.ascii	"wdCsdTouchpad\000"
 4344      64546F75 
ARM GAS  C:\Users\exp32\AppData\Local\Temp\cc6N2LT5.s 			page 116


 4344      63687061 
 4344      6400
 4345              	.LASF116:
 4346 097d 6E756D52 		.ascii	"numRows\000"
 4346      6F777300 
 4347              	.LASF154:
 4348 0985 73746174 		.ascii	"state\000"
 4348      6500
 4349              	.LASF144:
 4350 098b 70747244 		.ascii	"ptrData\000"
 4350      61746100 
 4351              	.LASF147:
 4352 0993 43617053 		.ascii	"CapSense_1_IsAnyWidgetActive\000"
 4352      656E7365 
 4352      5F315F49 
 4352      73416E79 
 4352      57696467 
 4353              	.LASF101:
 4354 09b0 6873696F 		.ascii	"hsiomMask\000"
 4354      6D4D6173 
 4354      6B00
 4355              	.LASF162:
 4356 09ba 43617053 		.ascii	"CapSense_1_noiseEnvlpButton0\000"
 4356      656E7365 
 4356      5F315F6E 
 4356      6F697365 
 4356      456E766C 
 4357              	.LASF163:
 4358 09d7 43617053 		.ascii	"CapSense_1_noiseEnvlpButton1\000"
 4358      656E7365 
 4358      5F315F6E 
 4358      6F697365 
 4358      456E766C 
 4359              	.LASF52:
 4360 09f4 736E7343 		.ascii	"snsClk\000"
 4360      6C6B00
 4361              	.LASF165:
 4362 09fb 43617053 		.ascii	"CapSense_1_noiseEnvlpButton2\000"
 4362      656E7365 
 4362      5F315F6E 
 4362      6F697365 
 4362      456E766C 
 4363              	.LASF166:
 4364 0a18 43617053 		.ascii	"CapSense_1_noiseEnvlpButton3\000"
 4364      656E7365 
 4364      5F315F6E 
 4364      6F697365 
 4364      456E766C 
 4365              	.LASF167:
 4366 0a35 43617053 		.ascii	"CapSense_1_noiseEnvlpButton4\000"
 4366      656E7365 
 4366      5F315F6E 
 4366      6F697365 
 4366      456E766C 
 4367              	.LASF0:
 4368 0a52 7369676E 		.ascii	"signed char\000"
 4368      65642063 
ARM GAS  C:\Users\exp32\AppData\Local\Temp\cc6N2LT5.s 			page 117


 4368      68617200 
 4369              	.LASF70:
 4370 0a5e 62736C6E 		.ascii	"bsln\000"
 4370      00
 4371              	.LASF3:
 4372 0a63 73686F72 		.ascii	"short unsigned int\000"
 4372      7420756E 
 4372      7369676E 
 4372      65642069 
 4372      6E7400
 4373              	.LASF128:
 4374 0a76 61666665 		.ascii	"affectsCrc\000"
 4374      63747343 
 4374      726300
 4375              	.LASF175:
 4376 0a81 6D656D63 		.ascii	"memcpy\000"
 4376      707900
 4377              	.LASF106:
 4378 0a88 43617053 		.ascii	"CapSense_1_FLASH_IO_STRUCT\000"
 4378      656E7365 
 4378      5F315F46 
 4378      4C415348 
 4378      5F494F5F 
 4379              	.LASF9:
 4380 0aa3 75696E74 		.ascii	"uint8\000"
 4380      3800
 4381              	.LASF13:
 4382 0aa9 646F7562 		.ascii	"double\000"
 4382      6C6500
 4383              	.LASF73:
 4384 0ab0 6E656742 		.ascii	"negBslnRstCnt\000"
 4384      736C6E52 
 4384      7374436E 
 4384      7400
 4385              	.LASF75:
 4386 0abe 43617053 		.ascii	"CapSense_1_RAM_SNS_STRUCT\000"
 4386      656E7365 
 4386      5F315F52 
 4386      414D5F53 
 4386      4E535F53 
 4387              	.LASF21:
 4388 0ad8 70617261 		.ascii	"param0\000"
 4388      6D3000
 4389              	.LASF22:
 4390 0adf 70617261 		.ascii	"param1\000"
 4390      6D3100
 4391              	.LASF23:
 4392 0ae6 70617261 		.ascii	"param2\000"
 4392      6D3200
 4393              	.LASF24:
 4394 0aed 70617261 		.ascii	"param3\000"
 4394      6D3300
 4395              	.LASF25:
 4396 0af4 70617261 		.ascii	"param4\000"
 4396      6D3400
 4397              	.LASF26:
 4398 0afb 70617261 		.ascii	"param5\000"
ARM GAS  C:\Users\exp32\AppData\Local\Temp\cc6N2LT5.s 			page 118


 4398      6D3500
 4399              	.LASF27:
 4400 0b02 70617261 		.ascii	"param6\000"
 4400      6D3600
 4401              	.LASF168:
 4402 0b09 43617053 		.ascii	"CapSense_1_noiseEnvlpButton5\000"
 4402      656E7365 
 4402      5F315F6E 
 4402      6F697365 
 4402      456E766C 
 4403              	.LASF78:
 4404 0b26 64657669 		.ascii	"deviceId\000"
 4404      63654964 
 4404      00
 4405              	.LASF118:
 4406 0b2f 79526573 		.ascii	"yResolution\000"
 4406      6F6C7574 
 4406      696F6E00 
 4407              	.LASF58:
 4408 0b3b 43617053 		.ascii	"CapSense_1_RAM_WD_BUTTON_STRUCT\000"
 4408      656E7365 
 4408      5F315F52 
 4408      414D5F57 
 4408      445F4255 
 4409              	.LASF127:
 4410 0b5b 77696467 		.ascii	"widgetId\000"
 4410      65744964 
 4410      00
 4411              	.LASF124:
 4412 0b64 77646774 		.ascii	"wdgtArray\000"
 4412      41727261 
 4412      7900
 4413              		.ident	"GCC: (GNU Tools for ARM Embedded Processors) 5.4.1 20160609 (release) [ARM/embedded-5-bran
