ARM GAS  C:\Users\exp32\AppData\Local\Temp\cc6N2LT5.s 			page 1


   1              		.syntax unified
   2              		.cpu cortex-m0plus
   3              		.fpu softvfp
   4              		.eabi_attribute 20, 1
   5              		.eabi_attribute 21, 1
   6              		.eabi_attribute 23, 3
   7              		.eabi_attribute 24, 1
   8              		.eabi_attribute 25, 1
   9              		.eabi_attribute 26, 1
  10              		.eabi_attribute 30, 1
  11              		.eabi_attribute 34, 0
  12              		.eabi_attribute 18, 4
  13              		.thumb
  14              		.syntax unified
  15              		.file	"CapSense_1_Structure.c"
  16              		.text
  17              	.Ltext0:
  18              		.cfi_sections	.debug_frame
  19              		.section	.text.DsParseParamId,"ax",%progbits
  20              		.align	2
  21              		.code	16
  22              		.thumb_func
  23              		.type	DsParseParamId, %function
  24              	DsParseParamId:
  25              	.LFB2:
  26              		.file 1 "Generated_Source\\PSoC4\\CapSense_1_Structure.c"
   1:Generated_Source\PSoC4/CapSense_1_Structure.c **** /***************************************************************************//**
   2:Generated_Source\PSoC4/CapSense_1_Structure.c **** * \file CapSense_1_Structure.c
   3:Generated_Source\PSoC4/CapSense_1_Structure.c **** * \version 7.0
   4:Generated_Source\PSoC4/CapSense_1_Structure.c **** *
   5:Generated_Source\PSoC4/CapSense_1_Structure.c **** * \brief
   6:Generated_Source\PSoC4/CapSense_1_Structure.c **** *   This file defines the data structure global variables and provides implementation
   7:Generated_Source\PSoC4/CapSense_1_Structure.c **** *   for the high-level and low-level APIs of the Data Structure module.
   8:Generated_Source\PSoC4/CapSense_1_Structure.c **** *
   9:Generated_Source\PSoC4/CapSense_1_Structure.c **** * \see CapSense_1 v7.0 Datasheet
  10:Generated_Source\PSoC4/CapSense_1_Structure.c **** *
  11:Generated_Source\PSoC4/CapSense_1_Structure.c **** *//*****************************************************************************
  12:Generated_Source\PSoC4/CapSense_1_Structure.c **** * Copyright (2016-2019), Cypress Semiconductor Corporation.
  13:Generated_Source\PSoC4/CapSense_1_Structure.c **** ********************************************************************************
  14:Generated_Source\PSoC4/CapSense_1_Structure.c **** * This software is owned by Cypress Semiconductor Corporation (Cypress) and is
  15:Generated_Source\PSoC4/CapSense_1_Structure.c **** * protected by and subject to worldwide patent protection (United States and
  16:Generated_Source\PSoC4/CapSense_1_Structure.c **** * foreign), United States copyright laws and international treaty provisions.
  17:Generated_Source\PSoC4/CapSense_1_Structure.c **** * Cypress hereby grants to licensee a personal, non-exclusive, non-transferable
  18:Generated_Source\PSoC4/CapSense_1_Structure.c **** * license to copy, use, modify, create derivative works of, and compile the
  19:Generated_Source\PSoC4/CapSense_1_Structure.c **** * Cypress Source Code and derivative works for the sole purpose of creating
  20:Generated_Source\PSoC4/CapSense_1_Structure.c **** * custom software in support of licensee product to be used only in conjunction
  21:Generated_Source\PSoC4/CapSense_1_Structure.c **** * with a Cypress integrated circuit as specified in the applicable agreement.
  22:Generated_Source\PSoC4/CapSense_1_Structure.c **** * Any reproduction, modification, translation, compilation, or representation of
  23:Generated_Source\PSoC4/CapSense_1_Structure.c **** * this software except as specified above is prohibited without the express
  24:Generated_Source\PSoC4/CapSense_1_Structure.c **** * written permission of Cypress.
  25:Generated_Source\PSoC4/CapSense_1_Structure.c **** *
  26:Generated_Source\PSoC4/CapSense_1_Structure.c **** * Disclaimer: CYPRESS MAKES NO WARRANTY OF ANY KIND, EXPRESS OR IMPLIED, WITH
  27:Generated_Source\PSoC4/CapSense_1_Structure.c **** * REGARD TO THIS MATERIAL, INCLUDING, BUT NOT LIMITED TO, THE IMPLIED
  28:Generated_Source\PSoC4/CapSense_1_Structure.c **** * WARRANTIES OF MERCHANTABILITY AND FITNESS FOR A PARTICULAR PURPOSE.
  29:Generated_Source\PSoC4/CapSense_1_Structure.c **** * Cypress reserves the right to make changes without further notice to the
  30:Generated_Source\PSoC4/CapSense_1_Structure.c **** * materials described herein. Cypress does not assume any liability arising out
  31:Generated_Source\PSoC4/CapSense_1_Structure.c **** * of the application or use of any product or circuit described herein. Cypress
ARM GAS  C:\Users\exp32\AppData\Local\Temp\cc6N2LT5.s 			page 2


  32:Generated_Source\PSoC4/CapSense_1_Structure.c **** * does not authorize its products for use as critical components in life-support
  33:Generated_Source\PSoC4/CapSense_1_Structure.c **** * systems where a malfunction or failure may reasonably be expected to result in
  34:Generated_Source\PSoC4/CapSense_1_Structure.c **** * significant injury to the user. The inclusion of Cypress' product in a life-
  35:Generated_Source\PSoC4/CapSense_1_Structure.c **** * support systems application implies that the manufacturer assumes all risk of
  36:Generated_Source\PSoC4/CapSense_1_Structure.c **** * such use and in doing so indemnifies Cypress against all charges. Use may be
  37:Generated_Source\PSoC4/CapSense_1_Structure.c **** * limited by and subject to the applicable Cypress software license agreement.
  38:Generated_Source\PSoC4/CapSense_1_Structure.c **** *******************************************************************************/
  39:Generated_Source\PSoC4/CapSense_1_Structure.c **** 
  40:Generated_Source\PSoC4/CapSense_1_Structure.c **** #include <cytypes.h>
  41:Generated_Source\PSoC4/CapSense_1_Structure.c **** #include "CyLib.h"
  42:Generated_Source\PSoC4/CapSense_1_Structure.c **** #include "CapSense_1_Structure.h"
  43:Generated_Source\PSoC4/CapSense_1_Structure.c **** #include "CapSense_1_Configuration.h"
  44:Generated_Source\PSoC4/CapSense_1_Structure.c **** 
  45:Generated_Source\PSoC4/CapSense_1_Structure.c **** #if (0u != CapSense_1_ADC_EN)
  46:Generated_Source\PSoC4/CapSense_1_Structure.c ****     #include "CapSense_1_Adc.h"
  47:Generated_Source\PSoC4/CapSense_1_Structure.c **** #endif /* (0u != CapSense_1_ADC_EN) */
  48:Generated_Source\PSoC4/CapSense_1_Structure.c **** 
  49:Generated_Source\PSoC4/CapSense_1_Structure.c **** #if (CapSense_1_ENABLE == CapSense_1_SELF_TEST_EN)
  50:Generated_Source\PSoC4/CapSense_1_Structure.c ****     #include "CapSense_1_SelfTest.h"
  51:Generated_Source\PSoC4/CapSense_1_Structure.c **** #endif
  52:Generated_Source\PSoC4/CapSense_1_Structure.c **** 
  53:Generated_Source\PSoC4/CapSense_1_Structure.c **** #if (CapSense_1_ENABLE == CapSense_1_CENTROID_5X5_CSD_EN)
  54:Generated_Source\PSoC4/CapSense_1_Structure.c ****     #include "CapSense_1_AdvancedCentroid_LL.h"
  55:Generated_Source\PSoC4/CapSense_1_Structure.c **** #endif
  56:Generated_Source\PSoC4/CapSense_1_Structure.c **** 
  57:Generated_Source\PSoC4/CapSense_1_Structure.c **** #if (CapSense_1_ENABLE == CapSense_1_GES_GLOBAL_EN)
  58:Generated_Source\PSoC4/CapSense_1_Structure.c ****     #include "CapSense_1_Gesture.h"
  59:Generated_Source\PSoC4/CapSense_1_Structure.c **** #endif /* (CapSense_1_ENABLE == CapSense_1_GES_GLOBAL_EN) */
  60:Generated_Source\PSoC4/CapSense_1_Structure.c **** 
  61:Generated_Source\PSoC4/CapSense_1_Structure.c **** /*******************************************************************************
  62:Generated_Source\PSoC4/CapSense_1_Structure.c **** * Defines the RAM Data Structure variables and their init data in flash
  63:Generated_Source\PSoC4/CapSense_1_Structure.c **** *******************************************************************************/
  64:Generated_Source\PSoC4/CapSense_1_Structure.c **** /**
  65:Generated_Source\PSoC4/CapSense_1_Structure.c **** * \cond SECTION_GLOBAL_VARIABLES
  66:Generated_Source\PSoC4/CapSense_1_Structure.c **** * \addtogroup group_global_variables
  67:Generated_Source\PSoC4/CapSense_1_Structure.c **** * \{
  68:Generated_Source\PSoC4/CapSense_1_Structure.c **** */
  69:Generated_Source\PSoC4/CapSense_1_Structure.c **** 
  70:Generated_Source\PSoC4/CapSense_1_Structure.c **** /**
  71:Generated_Source\PSoC4/CapSense_1_Structure.c **** * The variable that contains the CapSense_1 configuration, settings and
  72:Generated_Source\PSoC4/CapSense_1_Structure.c **** * scanning results. CapSense_1_dsRam represents RAM Data Structure.
  73:Generated_Source\PSoC4/CapSense_1_Structure.c **** */
  74:Generated_Source\PSoC4/CapSense_1_Structure.c **** CapSense_1_RAM_STRUCT CapSense_1_dsRam;
  75:Generated_Source\PSoC4/CapSense_1_Structure.c **** /** \}
  76:Generated_Source\PSoC4/CapSense_1_Structure.c **** * \endcond */
  77:Generated_Source\PSoC4/CapSense_1_Structure.c **** 
  78:Generated_Source\PSoC4/CapSense_1_Structure.c **** /*******************************************************************************
  79:Generated_Source\PSoC4/CapSense_1_Structure.c **** * Declares Widget's De-bounce Counters
  80:Generated_Source\PSoC4/CapSense_1_Structure.c **** *******************************************************************************/
  81:Generated_Source\PSoC4/CapSense_1_Structure.c **** static uint8 CapSense_1_debounceButton0[CapSense_1_BUTTON0_NUM_SENSORS];
  82:Generated_Source\PSoC4/CapSense_1_Structure.c **** static uint8 CapSense_1_debounceButton1[CapSense_1_BUTTON1_NUM_SENSORS];
  83:Generated_Source\PSoC4/CapSense_1_Structure.c **** static uint8 CapSense_1_debounceTouchpad0[1u];
  84:Generated_Source\PSoC4/CapSense_1_Structure.c **** static uint8 CapSense_1_debounceButton2[CapSense_1_BUTTON2_NUM_SENSORS];
  85:Generated_Source\PSoC4/CapSense_1_Structure.c **** static uint8 CapSense_1_debounceButton3[CapSense_1_BUTTON3_NUM_SENSORS];
  86:Generated_Source\PSoC4/CapSense_1_Structure.c **** static uint8 CapSense_1_debounceButton4[CapSense_1_BUTTON4_NUM_SENSORS];
  87:Generated_Source\PSoC4/CapSense_1_Structure.c **** static uint8 CapSense_1_debounceButton5[CapSense_1_BUTTON5_NUM_SENSORS];
  88:Generated_Source\PSoC4/CapSense_1_Structure.c **** 
ARM GAS  C:\Users\exp32\AppData\Local\Temp\cc6N2LT5.s 			page 3


  89:Generated_Source\PSoC4/CapSense_1_Structure.c **** 
  90:Generated_Source\PSoC4/CapSense_1_Structure.c **** /***************************************************************************//**
  91:Generated_Source\PSoC4/CapSense_1_Structure.c **** * Declares Noise Envelope data structures
  92:Generated_Source\PSoC4/CapSense_1_Structure.c **** *******************************************************************************/
  93:Generated_Source\PSoC4/CapSense_1_Structure.c **** static SMARTSENSE_CSD_NOISE_ENVELOPE_STRUCT CapSense_1_noiseEnvlpButton0[CapSense_1_BUTTON0_NUM_SEN
  94:Generated_Source\PSoC4/CapSense_1_Structure.c **** static SMARTSENSE_CSD_NOISE_ENVELOPE_STRUCT CapSense_1_noiseEnvlpButton1[CapSense_1_BUTTON1_NUM_SEN
  95:Generated_Source\PSoC4/CapSense_1_Structure.c **** static SMARTSENSE_CSD_NOISE_ENVELOPE_STRUCT CapSense_1_noiseEnvlpTouchpad0[CapSense_1_TOUCHPAD0_NUM
  96:Generated_Source\PSoC4/CapSense_1_Structure.c **** static SMARTSENSE_CSD_NOISE_ENVELOPE_STRUCT CapSense_1_noiseEnvlpButton2[CapSense_1_BUTTON2_NUM_SEN
  97:Generated_Source\PSoC4/CapSense_1_Structure.c **** static SMARTSENSE_CSD_NOISE_ENVELOPE_STRUCT CapSense_1_noiseEnvlpButton3[CapSense_1_BUTTON3_NUM_SEN
  98:Generated_Source\PSoC4/CapSense_1_Structure.c **** static SMARTSENSE_CSD_NOISE_ENVELOPE_STRUCT CapSense_1_noiseEnvlpButton4[CapSense_1_BUTTON4_NUM_SEN
  99:Generated_Source\PSoC4/CapSense_1_Structure.c **** static SMARTSENSE_CSD_NOISE_ENVELOPE_STRUCT CapSense_1_noiseEnvlpButton5[CapSense_1_BUTTON5_NUM_SEN
 100:Generated_Source\PSoC4/CapSense_1_Structure.c **** 
 101:Generated_Source\PSoC4/CapSense_1_Structure.c **** /*******************************************************************************
 102:Generated_Source\PSoC4/CapSense_1_Structure.c **** * Defines and initializes the Flash Data Structure
 103:Generated_Source\PSoC4/CapSense_1_Structure.c **** *******************************************************************************/
 104:Generated_Source\PSoC4/CapSense_1_Structure.c **** 
 105:Generated_Source\PSoC4/CapSense_1_Structure.c **** 
 106:Generated_Source\PSoC4/CapSense_1_Structure.c **** 
 107:Generated_Source\PSoC4/CapSense_1_Structure.c **** /**
 108:Generated_Source\PSoC4/CapSense_1_Structure.c **** * \cond SECTION_API_CONSTANTS
 109:Generated_Source\PSoC4/CapSense_1_Structure.c **** * \addtogroup group_api_constants
 110:Generated_Source\PSoC4/CapSense_1_Structure.c **** * \{
 111:Generated_Source\PSoC4/CapSense_1_Structure.c **** */
 112:Generated_Source\PSoC4/CapSense_1_Structure.c **** /**
 113:Generated_Source\PSoC4/CapSense_1_Structure.c **** * Constant for the FLASH Data Structure
 114:Generated_Source\PSoC4/CapSense_1_Structure.c **** */
 115:Generated_Source\PSoC4/CapSense_1_Structure.c **** const CapSense_1_FLASH_STRUCT CapSense_1_dsFlash =
 116:Generated_Source\PSoC4/CapSense_1_Structure.c **** {
 117:Generated_Source\PSoC4/CapSense_1_Structure.c ****     /* Flash Widget Initialization Data */
 118:Generated_Source\PSoC4/CapSense_1_Structure.c ****     {
 119:Generated_Source\PSoC4/CapSense_1_Structure.c ****         { /* Button0 */
 120:Generated_Source\PSoC4/CapSense_1_Structure.c ****             &CapSense_1_ioList[0u],
 121:Generated_Source\PSoC4/CapSense_1_Structure.c ****             (void *)&CapSense_1_dsRam.wdgtList.button0,
 122:Generated_Source\PSoC4/CapSense_1_Structure.c ****             CapSense_1_dsRam.snsList.button0,
 123:Generated_Source\PSoC4/CapSense_1_Structure.c ****             (void *)0u,
 124:Generated_Source\PSoC4/CapSense_1_Structure.c ****             CapSense_1_debounceButton0,
 125:Generated_Source\PSoC4/CapSense_1_Structure.c ****             CapSense_1_BUTTON0_STATIC_CONFIG,
 126:Generated_Source\PSoC4/CapSense_1_Structure.c ****             CapSense_1_BUTTON0_NUM_SENSORS,
 127:Generated_Source\PSoC4/CapSense_1_Structure.c ****             (uint8)CapSense_1_WD_BUTTON_E,
 128:Generated_Source\PSoC4/CapSense_1_Structure.c ****             CapSense_1_BUTTON0_NUM_SENSORS,
 129:Generated_Source\PSoC4/CapSense_1_Structure.c ****             0u,
 130:Generated_Source\PSoC4/CapSense_1_Structure.c ****             0u,
 131:Generated_Source\PSoC4/CapSense_1_Structure.c ****             0u,
 132:Generated_Source\PSoC4/CapSense_1_Structure.c ****             0u,
 133:Generated_Source\PSoC4/CapSense_1_Structure.c ****             0u,
 134:Generated_Source\PSoC4/CapSense_1_Structure.c ****             CapSense_1_noiseEnvlpButton0,
 135:Generated_Source\PSoC4/CapSense_1_Structure.c ****             0u,
 136:Generated_Source\PSoC4/CapSense_1_Structure.c ****         },
 137:Generated_Source\PSoC4/CapSense_1_Structure.c ****         { /* Button1 */
 138:Generated_Source\PSoC4/CapSense_1_Structure.c ****             &CapSense_1_ioList[1u],
 139:Generated_Source\PSoC4/CapSense_1_Structure.c ****             (void *)&CapSense_1_dsRam.wdgtList.button1,
 140:Generated_Source\PSoC4/CapSense_1_Structure.c ****             CapSense_1_dsRam.snsList.button1,
 141:Generated_Source\PSoC4/CapSense_1_Structure.c ****             (void *)0u,
 142:Generated_Source\PSoC4/CapSense_1_Structure.c ****             CapSense_1_debounceButton1,
 143:Generated_Source\PSoC4/CapSense_1_Structure.c ****             CapSense_1_BUTTON1_STATIC_CONFIG,
 144:Generated_Source\PSoC4/CapSense_1_Structure.c ****             CapSense_1_BUTTON1_NUM_SENSORS,
 145:Generated_Source\PSoC4/CapSense_1_Structure.c ****             (uint8)CapSense_1_WD_BUTTON_E,
ARM GAS  C:\Users\exp32\AppData\Local\Temp\cc6N2LT5.s 			page 4


 146:Generated_Source\PSoC4/CapSense_1_Structure.c ****             CapSense_1_BUTTON1_NUM_SENSORS,
 147:Generated_Source\PSoC4/CapSense_1_Structure.c ****             0u,
 148:Generated_Source\PSoC4/CapSense_1_Structure.c ****             0u,
 149:Generated_Source\PSoC4/CapSense_1_Structure.c ****             0u,
 150:Generated_Source\PSoC4/CapSense_1_Structure.c ****             0u,
 151:Generated_Source\PSoC4/CapSense_1_Structure.c ****             0u,
 152:Generated_Source\PSoC4/CapSense_1_Structure.c ****             CapSense_1_noiseEnvlpButton1,
 153:Generated_Source\PSoC4/CapSense_1_Structure.c ****             0u,
 154:Generated_Source\PSoC4/CapSense_1_Structure.c ****         },
 155:Generated_Source\PSoC4/CapSense_1_Structure.c ****         { /* Touchpad0 */
 156:Generated_Source\PSoC4/CapSense_1_Structure.c ****             &CapSense_1_ioList[2u],
 157:Generated_Source\PSoC4/CapSense_1_Structure.c ****             (void *)&CapSense_1_dsRam.wdgtList.touchpad0,
 158:Generated_Source\PSoC4/CapSense_1_Structure.c ****             CapSense_1_dsRam.snsList.touchpad0,
 159:Generated_Source\PSoC4/CapSense_1_Structure.c ****             (void *)0u,
 160:Generated_Source\PSoC4/CapSense_1_Structure.c ****             CapSense_1_debounceTouchpad0,
 161:Generated_Source\PSoC4/CapSense_1_Structure.c ****             CapSense_1_TOUCHPAD0_STATIC_CONFIG,
 162:Generated_Source\PSoC4/CapSense_1_Structure.c ****             CapSense_1_TOUCHPAD0_NUM_COLS + CapSense_1_TOUCHPAD0_NUM_ROWS,
 163:Generated_Source\PSoC4/CapSense_1_Structure.c ****             (uint8)CapSense_1_WD_TOUCHPAD_E,
 164:Generated_Source\PSoC4/CapSense_1_Structure.c ****             CapSense_1_TOUCHPAD0_NUM_COLS,
 165:Generated_Source\PSoC4/CapSense_1_Structure.c ****             CapSense_1_TOUCHPAD0_NUM_ROWS,
 166:Generated_Source\PSoC4/CapSense_1_Structure.c ****             CapSense_1_TOUCHPAD0_X_RESOLUTION,
 167:Generated_Source\PSoC4/CapSense_1_Structure.c ****             CapSense_1_TOUCHPAD0_Y_RESOLUTION,
 168:Generated_Source\PSoC4/CapSense_1_Structure.c ****             CapSense_1_TOUCHPAD0_X_CENT_MULT,
 169:Generated_Source\PSoC4/CapSense_1_Structure.c ****             CapSense_1_TOUCHPAD0_Y_CENT_MULT,
 170:Generated_Source\PSoC4/CapSense_1_Structure.c ****             CapSense_1_noiseEnvlpTouchpad0,
 171:Generated_Source\PSoC4/CapSense_1_Structure.c ****             CapSense_1_TOUCHPAD0_IIR_FILTER_COEFF,
 172:Generated_Source\PSoC4/CapSense_1_Structure.c ****         },
 173:Generated_Source\PSoC4/CapSense_1_Structure.c ****         { /* Button2 */
 174:Generated_Source\PSoC4/CapSense_1_Structure.c ****             &CapSense_1_ioList[14u],
 175:Generated_Source\PSoC4/CapSense_1_Structure.c ****             (void *)&CapSense_1_dsRam.wdgtList.button2,
 176:Generated_Source\PSoC4/CapSense_1_Structure.c ****             CapSense_1_dsRam.snsList.button2,
 177:Generated_Source\PSoC4/CapSense_1_Structure.c ****             (void *)0u,
 178:Generated_Source\PSoC4/CapSense_1_Structure.c ****             CapSense_1_debounceButton2,
 179:Generated_Source\PSoC4/CapSense_1_Structure.c ****             CapSense_1_BUTTON2_STATIC_CONFIG,
 180:Generated_Source\PSoC4/CapSense_1_Structure.c ****             CapSense_1_BUTTON2_NUM_SENSORS,
 181:Generated_Source\PSoC4/CapSense_1_Structure.c ****             (uint8)CapSense_1_WD_BUTTON_E,
 182:Generated_Source\PSoC4/CapSense_1_Structure.c ****             CapSense_1_BUTTON2_NUM_SENSORS,
 183:Generated_Source\PSoC4/CapSense_1_Structure.c ****             0u,
 184:Generated_Source\PSoC4/CapSense_1_Structure.c ****             0u,
 185:Generated_Source\PSoC4/CapSense_1_Structure.c ****             0u,
 186:Generated_Source\PSoC4/CapSense_1_Structure.c ****             0u,
 187:Generated_Source\PSoC4/CapSense_1_Structure.c ****             0u,
 188:Generated_Source\PSoC4/CapSense_1_Structure.c ****             CapSense_1_noiseEnvlpButton2,
 189:Generated_Source\PSoC4/CapSense_1_Structure.c ****             0u,
 190:Generated_Source\PSoC4/CapSense_1_Structure.c ****         },
 191:Generated_Source\PSoC4/CapSense_1_Structure.c ****         { /* Button3 */
 192:Generated_Source\PSoC4/CapSense_1_Structure.c ****             &CapSense_1_ioList[15u],
 193:Generated_Source\PSoC4/CapSense_1_Structure.c ****             (void *)&CapSense_1_dsRam.wdgtList.button3,
 194:Generated_Source\PSoC4/CapSense_1_Structure.c ****             CapSense_1_dsRam.snsList.button3,
 195:Generated_Source\PSoC4/CapSense_1_Structure.c ****             (void *)0u,
 196:Generated_Source\PSoC4/CapSense_1_Structure.c ****             CapSense_1_debounceButton3,
 197:Generated_Source\PSoC4/CapSense_1_Structure.c ****             CapSense_1_BUTTON3_STATIC_CONFIG,
 198:Generated_Source\PSoC4/CapSense_1_Structure.c ****             CapSense_1_BUTTON3_NUM_SENSORS,
 199:Generated_Source\PSoC4/CapSense_1_Structure.c ****             (uint8)CapSense_1_WD_BUTTON_E,
 200:Generated_Source\PSoC4/CapSense_1_Structure.c ****             CapSense_1_BUTTON3_NUM_SENSORS,
 201:Generated_Source\PSoC4/CapSense_1_Structure.c ****             0u,
 202:Generated_Source\PSoC4/CapSense_1_Structure.c ****             0u,
ARM GAS  C:\Users\exp32\AppData\Local\Temp\cc6N2LT5.s 			page 5


 203:Generated_Source\PSoC4/CapSense_1_Structure.c ****             0u,
 204:Generated_Source\PSoC4/CapSense_1_Structure.c ****             0u,
 205:Generated_Source\PSoC4/CapSense_1_Structure.c ****             0u,
 206:Generated_Source\PSoC4/CapSense_1_Structure.c ****             CapSense_1_noiseEnvlpButton3,
 207:Generated_Source\PSoC4/CapSense_1_Structure.c ****             0u,
 208:Generated_Source\PSoC4/CapSense_1_Structure.c ****         },
 209:Generated_Source\PSoC4/CapSense_1_Structure.c ****         { /* Button4 */
 210:Generated_Source\PSoC4/CapSense_1_Structure.c ****             &CapSense_1_ioList[16u],
 211:Generated_Source\PSoC4/CapSense_1_Structure.c ****             (void *)&CapSense_1_dsRam.wdgtList.button4,
 212:Generated_Source\PSoC4/CapSense_1_Structure.c ****             CapSense_1_dsRam.snsList.button4,
 213:Generated_Source\PSoC4/CapSense_1_Structure.c ****             (void *)0u,
 214:Generated_Source\PSoC4/CapSense_1_Structure.c ****             CapSense_1_debounceButton4,
 215:Generated_Source\PSoC4/CapSense_1_Structure.c ****             CapSense_1_BUTTON4_STATIC_CONFIG,
 216:Generated_Source\PSoC4/CapSense_1_Structure.c ****             CapSense_1_BUTTON4_NUM_SENSORS,
 217:Generated_Source\PSoC4/CapSense_1_Structure.c ****             (uint8)CapSense_1_WD_BUTTON_E,
 218:Generated_Source\PSoC4/CapSense_1_Structure.c ****             CapSense_1_BUTTON4_NUM_SENSORS,
 219:Generated_Source\PSoC4/CapSense_1_Structure.c ****             0u,
 220:Generated_Source\PSoC4/CapSense_1_Structure.c ****             0u,
 221:Generated_Source\PSoC4/CapSense_1_Structure.c ****             0u,
 222:Generated_Source\PSoC4/CapSense_1_Structure.c ****             0u,
 223:Generated_Source\PSoC4/CapSense_1_Structure.c ****             0u,
 224:Generated_Source\PSoC4/CapSense_1_Structure.c ****             CapSense_1_noiseEnvlpButton4,
 225:Generated_Source\PSoC4/CapSense_1_Structure.c ****             0u,
 226:Generated_Source\PSoC4/CapSense_1_Structure.c ****         },
 227:Generated_Source\PSoC4/CapSense_1_Structure.c ****         { /* Button5 */
 228:Generated_Source\PSoC4/CapSense_1_Structure.c ****             &CapSense_1_ioList[17u],
 229:Generated_Source\PSoC4/CapSense_1_Structure.c ****             (void *)&CapSense_1_dsRam.wdgtList.button5,
 230:Generated_Source\PSoC4/CapSense_1_Structure.c ****             CapSense_1_dsRam.snsList.button5,
 231:Generated_Source\PSoC4/CapSense_1_Structure.c ****             (void *)0u,
 232:Generated_Source\PSoC4/CapSense_1_Structure.c ****             CapSense_1_debounceButton5,
 233:Generated_Source\PSoC4/CapSense_1_Structure.c ****             CapSense_1_BUTTON5_STATIC_CONFIG,
 234:Generated_Source\PSoC4/CapSense_1_Structure.c ****             CapSense_1_BUTTON5_NUM_SENSORS,
 235:Generated_Source\PSoC4/CapSense_1_Structure.c ****             (uint8)CapSense_1_WD_BUTTON_E,
 236:Generated_Source\PSoC4/CapSense_1_Structure.c ****             CapSense_1_BUTTON5_NUM_SENSORS,
 237:Generated_Source\PSoC4/CapSense_1_Structure.c ****             0u,
 238:Generated_Source\PSoC4/CapSense_1_Structure.c ****             0u,
 239:Generated_Source\PSoC4/CapSense_1_Structure.c ****             0u,
 240:Generated_Source\PSoC4/CapSense_1_Structure.c ****             0u,
 241:Generated_Source\PSoC4/CapSense_1_Structure.c ****             0u,
 242:Generated_Source\PSoC4/CapSense_1_Structure.c ****             CapSense_1_noiseEnvlpButton5,
 243:Generated_Source\PSoC4/CapSense_1_Structure.c ****             0u,
 244:Generated_Source\PSoC4/CapSense_1_Structure.c ****         },
 245:Generated_Source\PSoC4/CapSense_1_Structure.c ****     },
 246:Generated_Source\PSoC4/CapSense_1_Structure.c **** };
 247:Generated_Source\PSoC4/CapSense_1_Structure.c **** 
 248:Generated_Source\PSoC4/CapSense_1_Structure.c **** /**
 249:Generated_Source\PSoC4/CapSense_1_Structure.c **** * The array of the pointers to the electrode specific register.
 250:Generated_Source\PSoC4/CapSense_1_Structure.c **** */
 251:Generated_Source\PSoC4/CapSense_1_Structure.c **** const CapSense_1_FLASH_IO_STRUCT CapSense_1_ioList[CapSense_1_TOTAL_ELECTRODES] =
 252:Generated_Source\PSoC4/CapSense_1_Structure.c **** {
 253:Generated_Source\PSoC4/CapSense_1_Structure.c ****     { /* 0: Button0_Sns0 */
 254:Generated_Source\PSoC4/CapSense_1_Structure.c ****         (reg32 *)CapSense_1_Sns__0__HSIOM,
 255:Generated_Source\PSoC4/CapSense_1_Structure.c ****         (reg32 *)CapSense_1_Sns__0__PC,
 256:Generated_Source\PSoC4/CapSense_1_Structure.c ****         (reg32 *)CapSense_1_Sns__0__DR,
 257:Generated_Source\PSoC4/CapSense_1_Structure.c ****         (reg32 *)CapSense_1_Sns__0__PS,
 258:Generated_Source\PSoC4/CapSense_1_Structure.c ****         CapSense_1_Sns__0__HSIOM_MASK,
 259:Generated_Source\PSoC4/CapSense_1_Structure.c ****         CapSense_1_Sns__0__MASK,
ARM GAS  C:\Users\exp32\AppData\Local\Temp\cc6N2LT5.s 			page 6


 260:Generated_Source\PSoC4/CapSense_1_Structure.c ****         CapSense_1_Sns__0__HSIOM_SHIFT,
 261:Generated_Source\PSoC4/CapSense_1_Structure.c ****         (uint8)CapSense_1_Sns__0__SHIFT,
 262:Generated_Source\PSoC4/CapSense_1_Structure.c ****         (uint8)CapSense_1_Sns__0__SHIFT * 3u,
 263:Generated_Source\PSoC4/CapSense_1_Structure.c ****     },
 264:Generated_Source\PSoC4/CapSense_1_Structure.c ****     { /* 1: Button1_Sns0 */
 265:Generated_Source\PSoC4/CapSense_1_Structure.c ****         (reg32 *)CapSense_1_Sns__1__HSIOM,
 266:Generated_Source\PSoC4/CapSense_1_Structure.c ****         (reg32 *)CapSense_1_Sns__1__PC,
 267:Generated_Source\PSoC4/CapSense_1_Structure.c ****         (reg32 *)CapSense_1_Sns__1__DR,
 268:Generated_Source\PSoC4/CapSense_1_Structure.c ****         (reg32 *)CapSense_1_Sns__1__PS,
 269:Generated_Source\PSoC4/CapSense_1_Structure.c ****         CapSense_1_Sns__1__HSIOM_MASK,
 270:Generated_Source\PSoC4/CapSense_1_Structure.c ****         CapSense_1_Sns__1__MASK,
 271:Generated_Source\PSoC4/CapSense_1_Structure.c ****         CapSense_1_Sns__1__HSIOM_SHIFT,
 272:Generated_Source\PSoC4/CapSense_1_Structure.c ****         (uint8)CapSense_1_Sns__1__SHIFT,
 273:Generated_Source\PSoC4/CapSense_1_Structure.c ****         (uint8)CapSense_1_Sns__1__SHIFT * 3u,
 274:Generated_Source\PSoC4/CapSense_1_Structure.c ****     },
 275:Generated_Source\PSoC4/CapSense_1_Structure.c ****     { /* 2: Touchpad0_Col0 */
 276:Generated_Source\PSoC4/CapSense_1_Structure.c ****         (reg32 *)CapSense_1_Sns__2__HSIOM,
 277:Generated_Source\PSoC4/CapSense_1_Structure.c ****         (reg32 *)CapSense_1_Sns__2__PC,
 278:Generated_Source\PSoC4/CapSense_1_Structure.c ****         (reg32 *)CapSense_1_Sns__2__DR,
 279:Generated_Source\PSoC4/CapSense_1_Structure.c ****         (reg32 *)CapSense_1_Sns__2__PS,
 280:Generated_Source\PSoC4/CapSense_1_Structure.c ****         CapSense_1_Sns__2__HSIOM_MASK,
 281:Generated_Source\PSoC4/CapSense_1_Structure.c ****         CapSense_1_Sns__2__MASK,
 282:Generated_Source\PSoC4/CapSense_1_Structure.c ****         CapSense_1_Sns__2__HSIOM_SHIFT,
 283:Generated_Source\PSoC4/CapSense_1_Structure.c ****         (uint8)CapSense_1_Sns__2__SHIFT,
 284:Generated_Source\PSoC4/CapSense_1_Structure.c ****         (uint8)CapSense_1_Sns__2__SHIFT * 3u,
 285:Generated_Source\PSoC4/CapSense_1_Structure.c ****     },
 286:Generated_Source\PSoC4/CapSense_1_Structure.c ****     { /* 3: Touchpad0_Col1 */
 287:Generated_Source\PSoC4/CapSense_1_Structure.c ****         (reg32 *)CapSense_1_Sns__3__HSIOM,
 288:Generated_Source\PSoC4/CapSense_1_Structure.c ****         (reg32 *)CapSense_1_Sns__3__PC,
 289:Generated_Source\PSoC4/CapSense_1_Structure.c ****         (reg32 *)CapSense_1_Sns__3__DR,
 290:Generated_Source\PSoC4/CapSense_1_Structure.c ****         (reg32 *)CapSense_1_Sns__3__PS,
 291:Generated_Source\PSoC4/CapSense_1_Structure.c ****         CapSense_1_Sns__3__HSIOM_MASK,
 292:Generated_Source\PSoC4/CapSense_1_Structure.c ****         CapSense_1_Sns__3__MASK,
 293:Generated_Source\PSoC4/CapSense_1_Structure.c ****         CapSense_1_Sns__3__HSIOM_SHIFT,
 294:Generated_Source\PSoC4/CapSense_1_Structure.c ****         (uint8)CapSense_1_Sns__3__SHIFT,
 295:Generated_Source\PSoC4/CapSense_1_Structure.c ****         (uint8)CapSense_1_Sns__3__SHIFT * 3u,
 296:Generated_Source\PSoC4/CapSense_1_Structure.c ****     },
 297:Generated_Source\PSoC4/CapSense_1_Structure.c ****     { /* 4: Touchpad0_Col2 */
 298:Generated_Source\PSoC4/CapSense_1_Structure.c ****         (reg32 *)CapSense_1_Sns__4__HSIOM,
 299:Generated_Source\PSoC4/CapSense_1_Structure.c ****         (reg32 *)CapSense_1_Sns__4__PC,
 300:Generated_Source\PSoC4/CapSense_1_Structure.c ****         (reg32 *)CapSense_1_Sns__4__DR,
 301:Generated_Source\PSoC4/CapSense_1_Structure.c ****         (reg32 *)CapSense_1_Sns__4__PS,
 302:Generated_Source\PSoC4/CapSense_1_Structure.c ****         CapSense_1_Sns__4__HSIOM_MASK,
 303:Generated_Source\PSoC4/CapSense_1_Structure.c ****         CapSense_1_Sns__4__MASK,
 304:Generated_Source\PSoC4/CapSense_1_Structure.c ****         CapSense_1_Sns__4__HSIOM_SHIFT,
 305:Generated_Source\PSoC4/CapSense_1_Structure.c ****         (uint8)CapSense_1_Sns__4__SHIFT,
 306:Generated_Source\PSoC4/CapSense_1_Structure.c ****         (uint8)CapSense_1_Sns__4__SHIFT * 3u,
 307:Generated_Source\PSoC4/CapSense_1_Structure.c ****     },
 308:Generated_Source\PSoC4/CapSense_1_Structure.c ****     { /* 5: Touchpad0_Col3 */
 309:Generated_Source\PSoC4/CapSense_1_Structure.c ****         (reg32 *)CapSense_1_Sns__5__HSIOM,
 310:Generated_Source\PSoC4/CapSense_1_Structure.c ****         (reg32 *)CapSense_1_Sns__5__PC,
 311:Generated_Source\PSoC4/CapSense_1_Structure.c ****         (reg32 *)CapSense_1_Sns__5__DR,
 312:Generated_Source\PSoC4/CapSense_1_Structure.c ****         (reg32 *)CapSense_1_Sns__5__PS,
 313:Generated_Source\PSoC4/CapSense_1_Structure.c ****         CapSense_1_Sns__5__HSIOM_MASK,
 314:Generated_Source\PSoC4/CapSense_1_Structure.c ****         CapSense_1_Sns__5__MASK,
 315:Generated_Source\PSoC4/CapSense_1_Structure.c ****         CapSense_1_Sns__5__HSIOM_SHIFT,
 316:Generated_Source\PSoC4/CapSense_1_Structure.c ****         (uint8)CapSense_1_Sns__5__SHIFT,
ARM GAS  C:\Users\exp32\AppData\Local\Temp\cc6N2LT5.s 			page 7


 317:Generated_Source\PSoC4/CapSense_1_Structure.c ****         (uint8)CapSense_1_Sns__5__SHIFT * 3u,
 318:Generated_Source\PSoC4/CapSense_1_Structure.c ****     },
 319:Generated_Source\PSoC4/CapSense_1_Structure.c ****     { /* 6: Touchpad0_Col4 */
 320:Generated_Source\PSoC4/CapSense_1_Structure.c ****         (reg32 *)CapSense_1_Sns__6__HSIOM,
 321:Generated_Source\PSoC4/CapSense_1_Structure.c ****         (reg32 *)CapSense_1_Sns__6__PC,
 322:Generated_Source\PSoC4/CapSense_1_Structure.c ****         (reg32 *)CapSense_1_Sns__6__DR,
 323:Generated_Source\PSoC4/CapSense_1_Structure.c ****         (reg32 *)CapSense_1_Sns__6__PS,
 324:Generated_Source\PSoC4/CapSense_1_Structure.c ****         CapSense_1_Sns__6__HSIOM_MASK,
 325:Generated_Source\PSoC4/CapSense_1_Structure.c ****         CapSense_1_Sns__6__MASK,
 326:Generated_Source\PSoC4/CapSense_1_Structure.c ****         CapSense_1_Sns__6__HSIOM_SHIFT,
 327:Generated_Source\PSoC4/CapSense_1_Structure.c ****         (uint8)CapSense_1_Sns__6__SHIFT,
 328:Generated_Source\PSoC4/CapSense_1_Structure.c ****         (uint8)CapSense_1_Sns__6__SHIFT * 3u,
 329:Generated_Source\PSoC4/CapSense_1_Structure.c ****     },
 330:Generated_Source\PSoC4/CapSense_1_Structure.c ****     { /* 7: Touchpad0_Col5 */
 331:Generated_Source\PSoC4/CapSense_1_Structure.c ****         (reg32 *)CapSense_1_Sns__7__HSIOM,
 332:Generated_Source\PSoC4/CapSense_1_Structure.c ****         (reg32 *)CapSense_1_Sns__7__PC,
 333:Generated_Source\PSoC4/CapSense_1_Structure.c ****         (reg32 *)CapSense_1_Sns__7__DR,
 334:Generated_Source\PSoC4/CapSense_1_Structure.c ****         (reg32 *)CapSense_1_Sns__7__PS,
 335:Generated_Source\PSoC4/CapSense_1_Structure.c ****         CapSense_1_Sns__7__HSIOM_MASK,
 336:Generated_Source\PSoC4/CapSense_1_Structure.c ****         CapSense_1_Sns__7__MASK,
 337:Generated_Source\PSoC4/CapSense_1_Structure.c ****         CapSense_1_Sns__7__HSIOM_SHIFT,
 338:Generated_Source\PSoC4/CapSense_1_Structure.c ****         (uint8)CapSense_1_Sns__7__SHIFT,
 339:Generated_Source\PSoC4/CapSense_1_Structure.c ****         (uint8)CapSense_1_Sns__7__SHIFT * 3u,
 340:Generated_Source\PSoC4/CapSense_1_Structure.c ****     },
 341:Generated_Source\PSoC4/CapSense_1_Structure.c ****     { /* 8: Touchpad0_Row0 */
 342:Generated_Source\PSoC4/CapSense_1_Structure.c ****         (reg32 *)CapSense_1_Sns__8__HSIOM,
 343:Generated_Source\PSoC4/CapSense_1_Structure.c ****         (reg32 *)CapSense_1_Sns__8__PC,
 344:Generated_Source\PSoC4/CapSense_1_Structure.c ****         (reg32 *)CapSense_1_Sns__8__DR,
 345:Generated_Source\PSoC4/CapSense_1_Structure.c ****         (reg32 *)CapSense_1_Sns__8__PS,
 346:Generated_Source\PSoC4/CapSense_1_Structure.c ****         CapSense_1_Sns__8__HSIOM_MASK,
 347:Generated_Source\PSoC4/CapSense_1_Structure.c ****         CapSense_1_Sns__8__MASK,
 348:Generated_Source\PSoC4/CapSense_1_Structure.c ****         CapSense_1_Sns__8__HSIOM_SHIFT,
 349:Generated_Source\PSoC4/CapSense_1_Structure.c ****         (uint8)CapSense_1_Sns__8__SHIFT,
 350:Generated_Source\PSoC4/CapSense_1_Structure.c ****         (uint8)CapSense_1_Sns__8__SHIFT * 3u,
 351:Generated_Source\PSoC4/CapSense_1_Structure.c ****     },
 352:Generated_Source\PSoC4/CapSense_1_Structure.c ****     { /* 9: Touchpad0_Row1 */
 353:Generated_Source\PSoC4/CapSense_1_Structure.c ****         (reg32 *)CapSense_1_Sns__9__HSIOM,
 354:Generated_Source\PSoC4/CapSense_1_Structure.c ****         (reg32 *)CapSense_1_Sns__9__PC,
 355:Generated_Source\PSoC4/CapSense_1_Structure.c ****         (reg32 *)CapSense_1_Sns__9__DR,
 356:Generated_Source\PSoC4/CapSense_1_Structure.c ****         (reg32 *)CapSense_1_Sns__9__PS,
 357:Generated_Source\PSoC4/CapSense_1_Structure.c ****         CapSense_1_Sns__9__HSIOM_MASK,
 358:Generated_Source\PSoC4/CapSense_1_Structure.c ****         CapSense_1_Sns__9__MASK,
 359:Generated_Source\PSoC4/CapSense_1_Structure.c ****         CapSense_1_Sns__9__HSIOM_SHIFT,
 360:Generated_Source\PSoC4/CapSense_1_Structure.c ****         (uint8)CapSense_1_Sns__9__SHIFT,
 361:Generated_Source\PSoC4/CapSense_1_Structure.c ****         (uint8)CapSense_1_Sns__9__SHIFT * 3u,
 362:Generated_Source\PSoC4/CapSense_1_Structure.c ****     },
 363:Generated_Source\PSoC4/CapSense_1_Structure.c ****     { /* 10: Touchpad0_Row2 */
 364:Generated_Source\PSoC4/CapSense_1_Structure.c ****         (reg32 *)CapSense_1_Sns__10__HSIOM,
 365:Generated_Source\PSoC4/CapSense_1_Structure.c ****         (reg32 *)CapSense_1_Sns__10__PC,
 366:Generated_Source\PSoC4/CapSense_1_Structure.c ****         (reg32 *)CapSense_1_Sns__10__DR,
 367:Generated_Source\PSoC4/CapSense_1_Structure.c ****         (reg32 *)CapSense_1_Sns__10__PS,
 368:Generated_Source\PSoC4/CapSense_1_Structure.c ****         CapSense_1_Sns__10__HSIOM_MASK,
 369:Generated_Source\PSoC4/CapSense_1_Structure.c ****         CapSense_1_Sns__10__MASK,
 370:Generated_Source\PSoC4/CapSense_1_Structure.c ****         CapSense_1_Sns__10__HSIOM_SHIFT,
 371:Generated_Source\PSoC4/CapSense_1_Structure.c ****         (uint8)CapSense_1_Sns__10__SHIFT,
 372:Generated_Source\PSoC4/CapSense_1_Structure.c ****         (uint8)CapSense_1_Sns__10__SHIFT * 3u,
 373:Generated_Source\PSoC4/CapSense_1_Structure.c ****     },
ARM GAS  C:\Users\exp32\AppData\Local\Temp\cc6N2LT5.s 			page 8


 374:Generated_Source\PSoC4/CapSense_1_Structure.c ****     { /* 11: Touchpad0_Row3 */
 375:Generated_Source\PSoC4/CapSense_1_Structure.c ****         (reg32 *)CapSense_1_Sns__11__HSIOM,
 376:Generated_Source\PSoC4/CapSense_1_Structure.c ****         (reg32 *)CapSense_1_Sns__11__PC,
 377:Generated_Source\PSoC4/CapSense_1_Structure.c ****         (reg32 *)CapSense_1_Sns__11__DR,
 378:Generated_Source\PSoC4/CapSense_1_Structure.c ****         (reg32 *)CapSense_1_Sns__11__PS,
 379:Generated_Source\PSoC4/CapSense_1_Structure.c ****         CapSense_1_Sns__11__HSIOM_MASK,
 380:Generated_Source\PSoC4/CapSense_1_Structure.c ****         CapSense_1_Sns__11__MASK,
 381:Generated_Source\PSoC4/CapSense_1_Structure.c ****         CapSense_1_Sns__11__HSIOM_SHIFT,
 382:Generated_Source\PSoC4/CapSense_1_Structure.c ****         (uint8)CapSense_1_Sns__11__SHIFT,
 383:Generated_Source\PSoC4/CapSense_1_Structure.c ****         (uint8)CapSense_1_Sns__11__SHIFT * 3u,
 384:Generated_Source\PSoC4/CapSense_1_Structure.c ****     },
 385:Generated_Source\PSoC4/CapSense_1_Structure.c ****     { /* 12: Touchpad0_Row4 */
 386:Generated_Source\PSoC4/CapSense_1_Structure.c ****         (reg32 *)CapSense_1_Sns__12__HSIOM,
 387:Generated_Source\PSoC4/CapSense_1_Structure.c ****         (reg32 *)CapSense_1_Sns__12__PC,
 388:Generated_Source\PSoC4/CapSense_1_Structure.c ****         (reg32 *)CapSense_1_Sns__12__DR,
 389:Generated_Source\PSoC4/CapSense_1_Structure.c ****         (reg32 *)CapSense_1_Sns__12__PS,
 390:Generated_Source\PSoC4/CapSense_1_Structure.c ****         CapSense_1_Sns__12__HSIOM_MASK,
 391:Generated_Source\PSoC4/CapSense_1_Structure.c ****         CapSense_1_Sns__12__MASK,
 392:Generated_Source\PSoC4/CapSense_1_Structure.c ****         CapSense_1_Sns__12__HSIOM_SHIFT,
 393:Generated_Source\PSoC4/CapSense_1_Structure.c ****         (uint8)CapSense_1_Sns__12__SHIFT,
 394:Generated_Source\PSoC4/CapSense_1_Structure.c ****         (uint8)CapSense_1_Sns__12__SHIFT * 3u,
 395:Generated_Source\PSoC4/CapSense_1_Structure.c ****     },
 396:Generated_Source\PSoC4/CapSense_1_Structure.c ****     { /* 13: Touchpad0_Row5 */
 397:Generated_Source\PSoC4/CapSense_1_Structure.c ****         (reg32 *)CapSense_1_Sns__13__HSIOM,
 398:Generated_Source\PSoC4/CapSense_1_Structure.c ****         (reg32 *)CapSense_1_Sns__13__PC,
 399:Generated_Source\PSoC4/CapSense_1_Structure.c ****         (reg32 *)CapSense_1_Sns__13__DR,
 400:Generated_Source\PSoC4/CapSense_1_Structure.c ****         (reg32 *)CapSense_1_Sns__13__PS,
 401:Generated_Source\PSoC4/CapSense_1_Structure.c ****         CapSense_1_Sns__13__HSIOM_MASK,
 402:Generated_Source\PSoC4/CapSense_1_Structure.c ****         CapSense_1_Sns__13__MASK,
 403:Generated_Source\PSoC4/CapSense_1_Structure.c ****         CapSense_1_Sns__13__HSIOM_SHIFT,
 404:Generated_Source\PSoC4/CapSense_1_Structure.c ****         (uint8)CapSense_1_Sns__13__SHIFT,
 405:Generated_Source\PSoC4/CapSense_1_Structure.c ****         (uint8)CapSense_1_Sns__13__SHIFT * 3u,
 406:Generated_Source\PSoC4/CapSense_1_Structure.c ****     },
 407:Generated_Source\PSoC4/CapSense_1_Structure.c ****     { /* 14: Button2_Sns0 */
 408:Generated_Source\PSoC4/CapSense_1_Structure.c ****         (reg32 *)CapSense_1_Sns__14__HSIOM,
 409:Generated_Source\PSoC4/CapSense_1_Structure.c ****         (reg32 *)CapSense_1_Sns__14__PC,
 410:Generated_Source\PSoC4/CapSense_1_Structure.c ****         (reg32 *)CapSense_1_Sns__14__DR,
 411:Generated_Source\PSoC4/CapSense_1_Structure.c ****         (reg32 *)CapSense_1_Sns__14__PS,
 412:Generated_Source\PSoC4/CapSense_1_Structure.c ****         CapSense_1_Sns__14__HSIOM_MASK,
 413:Generated_Source\PSoC4/CapSense_1_Structure.c ****         CapSense_1_Sns__14__MASK,
 414:Generated_Source\PSoC4/CapSense_1_Structure.c ****         CapSense_1_Sns__14__HSIOM_SHIFT,
 415:Generated_Source\PSoC4/CapSense_1_Structure.c ****         (uint8)CapSense_1_Sns__14__SHIFT,
 416:Generated_Source\PSoC4/CapSense_1_Structure.c ****         (uint8)CapSense_1_Sns__14__SHIFT * 3u,
 417:Generated_Source\PSoC4/CapSense_1_Structure.c ****     },
 418:Generated_Source\PSoC4/CapSense_1_Structure.c ****     { /* 15: Button3_Sns0 */
 419:Generated_Source\PSoC4/CapSense_1_Structure.c ****         (reg32 *)CapSense_1_Sns__15__HSIOM,
 420:Generated_Source\PSoC4/CapSense_1_Structure.c ****         (reg32 *)CapSense_1_Sns__15__PC,
 421:Generated_Source\PSoC4/CapSense_1_Structure.c ****         (reg32 *)CapSense_1_Sns__15__DR,
 422:Generated_Source\PSoC4/CapSense_1_Structure.c ****         (reg32 *)CapSense_1_Sns__15__PS,
 423:Generated_Source\PSoC4/CapSense_1_Structure.c ****         CapSense_1_Sns__15__HSIOM_MASK,
 424:Generated_Source\PSoC4/CapSense_1_Structure.c ****         CapSense_1_Sns__15__MASK,
 425:Generated_Source\PSoC4/CapSense_1_Structure.c ****         CapSense_1_Sns__15__HSIOM_SHIFT,
 426:Generated_Source\PSoC4/CapSense_1_Structure.c ****         (uint8)CapSense_1_Sns__15__SHIFT,
 427:Generated_Source\PSoC4/CapSense_1_Structure.c ****         (uint8)CapSense_1_Sns__15__SHIFT * 3u,
 428:Generated_Source\PSoC4/CapSense_1_Structure.c ****     },
 429:Generated_Source\PSoC4/CapSense_1_Structure.c ****     { /* 16: Button4_Sns0 */
 430:Generated_Source\PSoC4/CapSense_1_Structure.c ****         (reg32 *)CapSense_1_Sns__16__HSIOM,
ARM GAS  C:\Users\exp32\AppData\Local\Temp\cc6N2LT5.s 			page 9


 431:Generated_Source\PSoC4/CapSense_1_Structure.c ****         (reg32 *)CapSense_1_Sns__16__PC,
 432:Generated_Source\PSoC4/CapSense_1_Structure.c ****         (reg32 *)CapSense_1_Sns__16__DR,
 433:Generated_Source\PSoC4/CapSense_1_Structure.c ****         (reg32 *)CapSense_1_Sns__16__PS,
 434:Generated_Source\PSoC4/CapSense_1_Structure.c ****         CapSense_1_Sns__16__HSIOM_MASK,
 435:Generated_Source\PSoC4/CapSense_1_Structure.c ****         CapSense_1_Sns__16__MASK,
 436:Generated_Source\PSoC4/CapSense_1_Structure.c ****         CapSense_1_Sns__16__HSIOM_SHIFT,
 437:Generated_Source\PSoC4/CapSense_1_Structure.c ****         (uint8)CapSense_1_Sns__16__SHIFT,
 438:Generated_Source\PSoC4/CapSense_1_Structure.c ****         (uint8)CapSense_1_Sns__16__SHIFT * 3u,
 439:Generated_Source\PSoC4/CapSense_1_Structure.c ****     },
 440:Generated_Source\PSoC4/CapSense_1_Structure.c ****     { /* 17: Button5_Sns0 */
 441:Generated_Source\PSoC4/CapSense_1_Structure.c ****         (reg32 *)CapSense_1_Sns__17__HSIOM,
 442:Generated_Source\PSoC4/CapSense_1_Structure.c ****         (reg32 *)CapSense_1_Sns__17__PC,
 443:Generated_Source\PSoC4/CapSense_1_Structure.c ****         (reg32 *)CapSense_1_Sns__17__DR,
 444:Generated_Source\PSoC4/CapSense_1_Structure.c ****         (reg32 *)CapSense_1_Sns__17__PS,
 445:Generated_Source\PSoC4/CapSense_1_Structure.c ****         CapSense_1_Sns__17__HSIOM_MASK,
 446:Generated_Source\PSoC4/CapSense_1_Structure.c ****         CapSense_1_Sns__17__MASK,
 447:Generated_Source\PSoC4/CapSense_1_Structure.c ****         CapSense_1_Sns__17__HSIOM_SHIFT,
 448:Generated_Source\PSoC4/CapSense_1_Structure.c ****         (uint8)CapSense_1_Sns__17__SHIFT,
 449:Generated_Source\PSoC4/CapSense_1_Structure.c ****         (uint8)CapSense_1_Sns__17__SHIFT * 3u,
 450:Generated_Source\PSoC4/CapSense_1_Structure.c ****     },
 451:Generated_Source\PSoC4/CapSense_1_Structure.c **** };
 452:Generated_Source\PSoC4/CapSense_1_Structure.c **** 
 453:Generated_Source\PSoC4/CapSense_1_Structure.c **** 
 454:Generated_Source\PSoC4/CapSense_1_Structure.c **** 
 455:Generated_Source\PSoC4/CapSense_1_Structure.c **** /** \}
 456:Generated_Source\PSoC4/CapSense_1_Structure.c **** * \endcond */
 457:Generated_Source\PSoC4/CapSense_1_Structure.c **** 
 458:Generated_Source\PSoC4/CapSense_1_Structure.c **** /* Initialization data for RAM widget list */
 459:Generated_Source\PSoC4/CapSense_1_Structure.c **** const CapSense_1_RAM_WD_LIST_STRUCT CapSense_1_ramWidgetInit =
 460:Generated_Source\PSoC4/CapSense_1_Structure.c **** {
 461:Generated_Source\PSoC4/CapSense_1_Structure.c ****     { /* Button0 */
 462:Generated_Source\PSoC4/CapSense_1_Structure.c ****         CapSense_1_BUTTON0_RESOLUTION,
 463:Generated_Source\PSoC4/CapSense_1_Structure.c ****         CapSense_1_BUTTON0_FINGER_TH,
 464:Generated_Source\PSoC4/CapSense_1_Structure.c ****         CapSense_1_BUTTON0_NOISE_TH,
 465:Generated_Source\PSoC4/CapSense_1_Structure.c ****         CapSense_1_BUTTON0_NNOISE_TH,
 466:Generated_Source\PSoC4/CapSense_1_Structure.c ****         CapSense_1_BUTTON0_HYSTERESIS,
 467:Generated_Source\PSoC4/CapSense_1_Structure.c ****         CapSense_1_BUTTON0_ON_DEBOUNCE,
 468:Generated_Source\PSoC4/CapSense_1_Structure.c ****         CapSense_1_BUTTON0_LOW_BSLN_RST,
 469:Generated_Source\PSoC4/CapSense_1_Structure.c ****         {
 470:Generated_Source\PSoC4/CapSense_1_Structure.c ****             CapSense_1_BUTTON0_IDAC_MOD0,
 471:Generated_Source\PSoC4/CapSense_1_Structure.c ****         },
 472:Generated_Source\PSoC4/CapSense_1_Structure.c ****         {
 473:Generated_Source\PSoC4/CapSense_1_Structure.c ****             CapSense_1_BUTTON0_ROW_IDAC_MOD0,
 474:Generated_Source\PSoC4/CapSense_1_Structure.c ****         },
 475:Generated_Source\PSoC4/CapSense_1_Structure.c ****         CapSense_1_BUTTON0_IDAC_GAIN_INDEX,
 476:Generated_Source\PSoC4/CapSense_1_Structure.c ****         CapSense_1_BUTTON0_SNS_CLK,
 477:Generated_Source\PSoC4/CapSense_1_Structure.c ****         CapSense_1_BUTTON0_ROW_SNS_CLK,
 478:Generated_Source\PSoC4/CapSense_1_Structure.c ****         CapSense_1_BUTTON0_SNS_CLK_SOURCE,
 479:Generated_Source\PSoC4/CapSense_1_Structure.c ****         CapSense_1_BUTTON0_ROW_SNS_CLK_SOURCE,
 480:Generated_Source\PSoC4/CapSense_1_Structure.c ****         CapSense_1_BUTTON0_FINGER_CAP,
 481:Generated_Source\PSoC4/CapSense_1_Structure.c ****         CapSense_1_BUTTON0_SIGPFC,
 482:Generated_Source\PSoC4/CapSense_1_Structure.c ****     },
 483:Generated_Source\PSoC4/CapSense_1_Structure.c ****     { /* Button1 */
 484:Generated_Source\PSoC4/CapSense_1_Structure.c ****         CapSense_1_BUTTON1_RESOLUTION,
 485:Generated_Source\PSoC4/CapSense_1_Structure.c ****         CapSense_1_BUTTON1_FINGER_TH,
 486:Generated_Source\PSoC4/CapSense_1_Structure.c ****         CapSense_1_BUTTON1_NOISE_TH,
 487:Generated_Source\PSoC4/CapSense_1_Structure.c ****         CapSense_1_BUTTON1_NNOISE_TH,
ARM GAS  C:\Users\exp32\AppData\Local\Temp\cc6N2LT5.s 			page 10


 488:Generated_Source\PSoC4/CapSense_1_Structure.c ****         CapSense_1_BUTTON1_HYSTERESIS,
 489:Generated_Source\PSoC4/CapSense_1_Structure.c ****         CapSense_1_BUTTON1_ON_DEBOUNCE,
 490:Generated_Source\PSoC4/CapSense_1_Structure.c ****         CapSense_1_BUTTON1_LOW_BSLN_RST,
 491:Generated_Source\PSoC4/CapSense_1_Structure.c ****         {
 492:Generated_Source\PSoC4/CapSense_1_Structure.c ****             CapSense_1_BUTTON1_IDAC_MOD0,
 493:Generated_Source\PSoC4/CapSense_1_Structure.c ****         },
 494:Generated_Source\PSoC4/CapSense_1_Structure.c ****         {
 495:Generated_Source\PSoC4/CapSense_1_Structure.c ****             CapSense_1_BUTTON1_ROW_IDAC_MOD0,
 496:Generated_Source\PSoC4/CapSense_1_Structure.c ****         },
 497:Generated_Source\PSoC4/CapSense_1_Structure.c ****         CapSense_1_BUTTON1_IDAC_GAIN_INDEX,
 498:Generated_Source\PSoC4/CapSense_1_Structure.c ****         CapSense_1_BUTTON1_SNS_CLK,
 499:Generated_Source\PSoC4/CapSense_1_Structure.c ****         CapSense_1_BUTTON1_ROW_SNS_CLK,
 500:Generated_Source\PSoC4/CapSense_1_Structure.c ****         CapSense_1_BUTTON1_SNS_CLK_SOURCE,
 501:Generated_Source\PSoC4/CapSense_1_Structure.c ****         CapSense_1_BUTTON1_ROW_SNS_CLK_SOURCE,
 502:Generated_Source\PSoC4/CapSense_1_Structure.c ****         CapSense_1_BUTTON1_FINGER_CAP,
 503:Generated_Source\PSoC4/CapSense_1_Structure.c ****         CapSense_1_BUTTON1_SIGPFC,
 504:Generated_Source\PSoC4/CapSense_1_Structure.c ****     },
 505:Generated_Source\PSoC4/CapSense_1_Structure.c ****     { /* Touchpad0 */
 506:Generated_Source\PSoC4/CapSense_1_Structure.c ****         CapSense_1_TOUCHPAD0_RESOLUTION,
 507:Generated_Source\PSoC4/CapSense_1_Structure.c ****         CapSense_1_TOUCHPAD0_FINGER_TH,
 508:Generated_Source\PSoC4/CapSense_1_Structure.c ****         CapSense_1_TOUCHPAD0_NOISE_TH,
 509:Generated_Source\PSoC4/CapSense_1_Structure.c ****         CapSense_1_TOUCHPAD0_NNOISE_TH,
 510:Generated_Source\PSoC4/CapSense_1_Structure.c ****         CapSense_1_TOUCHPAD0_HYSTERESIS,
 511:Generated_Source\PSoC4/CapSense_1_Structure.c ****         CapSense_1_TOUCHPAD0_ON_DEBOUNCE,
 512:Generated_Source\PSoC4/CapSense_1_Structure.c ****         CapSense_1_TOUCHPAD0_LOW_BSLN_RST,
 513:Generated_Source\PSoC4/CapSense_1_Structure.c ****         {
 514:Generated_Source\PSoC4/CapSense_1_Structure.c ****             CapSense_1_TOUCHPAD0_IDAC_MOD0,
 515:Generated_Source\PSoC4/CapSense_1_Structure.c ****         },
 516:Generated_Source\PSoC4/CapSense_1_Structure.c ****         {
 517:Generated_Source\PSoC4/CapSense_1_Structure.c ****             CapSense_1_TOUCHPAD0_ROW_IDAC_MOD0,
 518:Generated_Source\PSoC4/CapSense_1_Structure.c ****         },
 519:Generated_Source\PSoC4/CapSense_1_Structure.c ****         CapSense_1_TOUCHPAD0_IDAC_GAIN_INDEX,
 520:Generated_Source\PSoC4/CapSense_1_Structure.c ****         CapSense_1_TOUCHPAD0_SNS_CLK,
 521:Generated_Source\PSoC4/CapSense_1_Structure.c ****         CapSense_1_TOUCHPAD0_ROW_SNS_CLK,
 522:Generated_Source\PSoC4/CapSense_1_Structure.c ****         CapSense_1_TOUCHPAD0_SNS_CLK_SOURCE,
 523:Generated_Source\PSoC4/CapSense_1_Structure.c ****         CapSense_1_TOUCHPAD0_ROW_SNS_CLK_SOURCE,
 524:Generated_Source\PSoC4/CapSense_1_Structure.c ****         CapSense_1_TOUCHPAD0_FINGER_CAP,
 525:Generated_Source\PSoC4/CapSense_1_Structure.c ****         CapSense_1_TOUCHPAD0_SIGPFC,
 526:Generated_Source\PSoC4/CapSense_1_Structure.c ****         CapSense_1_TOUCHPAD0_POS_X,
 527:Generated_Source\PSoC4/CapSense_1_Structure.c ****         CapSense_1_TOUCHPAD0_POS_Y,
 528:Generated_Source\PSoC4/CapSense_1_Structure.c ****     },
 529:Generated_Source\PSoC4/CapSense_1_Structure.c ****     { /* Button2 */
 530:Generated_Source\PSoC4/CapSense_1_Structure.c ****         CapSense_1_BUTTON2_RESOLUTION,
 531:Generated_Source\PSoC4/CapSense_1_Structure.c ****         CapSense_1_BUTTON2_FINGER_TH,
 532:Generated_Source\PSoC4/CapSense_1_Structure.c ****         CapSense_1_BUTTON2_NOISE_TH,
 533:Generated_Source\PSoC4/CapSense_1_Structure.c ****         CapSense_1_BUTTON2_NNOISE_TH,
 534:Generated_Source\PSoC4/CapSense_1_Structure.c ****         CapSense_1_BUTTON2_HYSTERESIS,
 535:Generated_Source\PSoC4/CapSense_1_Structure.c ****         CapSense_1_BUTTON2_ON_DEBOUNCE,
 536:Generated_Source\PSoC4/CapSense_1_Structure.c ****         CapSense_1_BUTTON2_LOW_BSLN_RST,
 537:Generated_Source\PSoC4/CapSense_1_Structure.c ****         {
 538:Generated_Source\PSoC4/CapSense_1_Structure.c ****             CapSense_1_BUTTON2_IDAC_MOD0,
 539:Generated_Source\PSoC4/CapSense_1_Structure.c ****         },
 540:Generated_Source\PSoC4/CapSense_1_Structure.c ****         {
 541:Generated_Source\PSoC4/CapSense_1_Structure.c ****             CapSense_1_BUTTON2_ROW_IDAC_MOD0,
 542:Generated_Source\PSoC4/CapSense_1_Structure.c ****         },
 543:Generated_Source\PSoC4/CapSense_1_Structure.c ****         CapSense_1_BUTTON2_IDAC_GAIN_INDEX,
 544:Generated_Source\PSoC4/CapSense_1_Structure.c ****         CapSense_1_BUTTON2_SNS_CLK,
ARM GAS  C:\Users\exp32\AppData\Local\Temp\cc6N2LT5.s 			page 11


 545:Generated_Source\PSoC4/CapSense_1_Structure.c ****         CapSense_1_BUTTON2_ROW_SNS_CLK,
 546:Generated_Source\PSoC4/CapSense_1_Structure.c ****         CapSense_1_BUTTON2_SNS_CLK_SOURCE,
 547:Generated_Source\PSoC4/CapSense_1_Structure.c ****         CapSense_1_BUTTON2_ROW_SNS_CLK_SOURCE,
 548:Generated_Source\PSoC4/CapSense_1_Structure.c ****         CapSense_1_BUTTON2_FINGER_CAP,
 549:Generated_Source\PSoC4/CapSense_1_Structure.c ****         CapSense_1_BUTTON2_SIGPFC,
 550:Generated_Source\PSoC4/CapSense_1_Structure.c ****     },
 551:Generated_Source\PSoC4/CapSense_1_Structure.c ****     { /* Button3 */
 552:Generated_Source\PSoC4/CapSense_1_Structure.c ****         CapSense_1_BUTTON3_RESOLUTION,
 553:Generated_Source\PSoC4/CapSense_1_Structure.c ****         CapSense_1_BUTTON3_FINGER_TH,
 554:Generated_Source\PSoC4/CapSense_1_Structure.c ****         CapSense_1_BUTTON3_NOISE_TH,
 555:Generated_Source\PSoC4/CapSense_1_Structure.c ****         CapSense_1_BUTTON3_NNOISE_TH,
 556:Generated_Source\PSoC4/CapSense_1_Structure.c ****         CapSense_1_BUTTON3_HYSTERESIS,
 557:Generated_Source\PSoC4/CapSense_1_Structure.c ****         CapSense_1_BUTTON3_ON_DEBOUNCE,
 558:Generated_Source\PSoC4/CapSense_1_Structure.c ****         CapSense_1_BUTTON3_LOW_BSLN_RST,
 559:Generated_Source\PSoC4/CapSense_1_Structure.c ****         {
 560:Generated_Source\PSoC4/CapSense_1_Structure.c ****             CapSense_1_BUTTON3_IDAC_MOD0,
 561:Generated_Source\PSoC4/CapSense_1_Structure.c ****         },
 562:Generated_Source\PSoC4/CapSense_1_Structure.c ****         {
 563:Generated_Source\PSoC4/CapSense_1_Structure.c ****             CapSense_1_BUTTON3_ROW_IDAC_MOD0,
 564:Generated_Source\PSoC4/CapSense_1_Structure.c ****         },
 565:Generated_Source\PSoC4/CapSense_1_Structure.c ****         CapSense_1_BUTTON3_IDAC_GAIN_INDEX,
 566:Generated_Source\PSoC4/CapSense_1_Structure.c ****         CapSense_1_BUTTON3_SNS_CLK,
 567:Generated_Source\PSoC4/CapSense_1_Structure.c ****         CapSense_1_BUTTON3_ROW_SNS_CLK,
 568:Generated_Source\PSoC4/CapSense_1_Structure.c ****         CapSense_1_BUTTON3_SNS_CLK_SOURCE,
 569:Generated_Source\PSoC4/CapSense_1_Structure.c ****         CapSense_1_BUTTON3_ROW_SNS_CLK_SOURCE,
 570:Generated_Source\PSoC4/CapSense_1_Structure.c ****         CapSense_1_BUTTON3_FINGER_CAP,
 571:Generated_Source\PSoC4/CapSense_1_Structure.c ****         CapSense_1_BUTTON3_SIGPFC,
 572:Generated_Source\PSoC4/CapSense_1_Structure.c ****     },
 573:Generated_Source\PSoC4/CapSense_1_Structure.c ****     { /* Button4 */
 574:Generated_Source\PSoC4/CapSense_1_Structure.c ****         CapSense_1_BUTTON4_RESOLUTION,
 575:Generated_Source\PSoC4/CapSense_1_Structure.c ****         CapSense_1_BUTTON4_FINGER_TH,
 576:Generated_Source\PSoC4/CapSense_1_Structure.c ****         CapSense_1_BUTTON4_NOISE_TH,
 577:Generated_Source\PSoC4/CapSense_1_Structure.c ****         CapSense_1_BUTTON4_NNOISE_TH,
 578:Generated_Source\PSoC4/CapSense_1_Structure.c ****         CapSense_1_BUTTON4_HYSTERESIS,
 579:Generated_Source\PSoC4/CapSense_1_Structure.c ****         CapSense_1_BUTTON4_ON_DEBOUNCE,
 580:Generated_Source\PSoC4/CapSense_1_Structure.c ****         CapSense_1_BUTTON4_LOW_BSLN_RST,
 581:Generated_Source\PSoC4/CapSense_1_Structure.c ****         {
 582:Generated_Source\PSoC4/CapSense_1_Structure.c ****             CapSense_1_BUTTON4_IDAC_MOD0,
 583:Generated_Source\PSoC4/CapSense_1_Structure.c ****         },
 584:Generated_Source\PSoC4/CapSense_1_Structure.c ****         {
 585:Generated_Source\PSoC4/CapSense_1_Structure.c ****             CapSense_1_BUTTON4_ROW_IDAC_MOD0,
 586:Generated_Source\PSoC4/CapSense_1_Structure.c ****         },
 587:Generated_Source\PSoC4/CapSense_1_Structure.c ****         CapSense_1_BUTTON4_IDAC_GAIN_INDEX,
 588:Generated_Source\PSoC4/CapSense_1_Structure.c ****         CapSense_1_BUTTON4_SNS_CLK,
 589:Generated_Source\PSoC4/CapSense_1_Structure.c ****         CapSense_1_BUTTON4_ROW_SNS_CLK,
 590:Generated_Source\PSoC4/CapSense_1_Structure.c ****         CapSense_1_BUTTON4_SNS_CLK_SOURCE,
 591:Generated_Source\PSoC4/CapSense_1_Structure.c ****         CapSense_1_BUTTON4_ROW_SNS_CLK_SOURCE,
 592:Generated_Source\PSoC4/CapSense_1_Structure.c ****         CapSense_1_BUTTON4_FINGER_CAP,
 593:Generated_Source\PSoC4/CapSense_1_Structure.c ****         CapSense_1_BUTTON4_SIGPFC,
 594:Generated_Source\PSoC4/CapSense_1_Structure.c ****     },
 595:Generated_Source\PSoC4/CapSense_1_Structure.c ****     { /* Button5 */
 596:Generated_Source\PSoC4/CapSense_1_Structure.c ****         CapSense_1_BUTTON5_RESOLUTION,
 597:Generated_Source\PSoC4/CapSense_1_Structure.c ****         CapSense_1_BUTTON5_FINGER_TH,
 598:Generated_Source\PSoC4/CapSense_1_Structure.c ****         CapSense_1_BUTTON5_NOISE_TH,
 599:Generated_Source\PSoC4/CapSense_1_Structure.c ****         CapSense_1_BUTTON5_NNOISE_TH,
 600:Generated_Source\PSoC4/CapSense_1_Structure.c ****         CapSense_1_BUTTON5_HYSTERESIS,
 601:Generated_Source\PSoC4/CapSense_1_Structure.c ****         CapSense_1_BUTTON5_ON_DEBOUNCE,
ARM GAS  C:\Users\exp32\AppData\Local\Temp\cc6N2LT5.s 			page 12


 602:Generated_Source\PSoC4/CapSense_1_Structure.c ****         CapSense_1_BUTTON5_LOW_BSLN_RST,
 603:Generated_Source\PSoC4/CapSense_1_Structure.c ****         {
 604:Generated_Source\PSoC4/CapSense_1_Structure.c ****             CapSense_1_BUTTON5_IDAC_MOD0,
 605:Generated_Source\PSoC4/CapSense_1_Structure.c ****         },
 606:Generated_Source\PSoC4/CapSense_1_Structure.c ****         {
 607:Generated_Source\PSoC4/CapSense_1_Structure.c ****             CapSense_1_BUTTON5_ROW_IDAC_MOD0,
 608:Generated_Source\PSoC4/CapSense_1_Structure.c ****         },
 609:Generated_Source\PSoC4/CapSense_1_Structure.c ****         CapSense_1_BUTTON5_IDAC_GAIN_INDEX,
 610:Generated_Source\PSoC4/CapSense_1_Structure.c ****         CapSense_1_BUTTON5_SNS_CLK,
 611:Generated_Source\PSoC4/CapSense_1_Structure.c ****         CapSense_1_BUTTON5_ROW_SNS_CLK,
 612:Generated_Source\PSoC4/CapSense_1_Structure.c ****         CapSense_1_BUTTON5_SNS_CLK_SOURCE,
 613:Generated_Source\PSoC4/CapSense_1_Structure.c ****         CapSense_1_BUTTON5_ROW_SNS_CLK_SOURCE,
 614:Generated_Source\PSoC4/CapSense_1_Structure.c ****         CapSense_1_BUTTON5_FINGER_CAP,
 615:Generated_Source\PSoC4/CapSense_1_Structure.c ****         CapSense_1_BUTTON5_SIGPFC,
 616:Generated_Source\PSoC4/CapSense_1_Structure.c ****     },
 617:Generated_Source\PSoC4/CapSense_1_Structure.c **** };
 618:Generated_Source\PSoC4/CapSense_1_Structure.c **** 
 619:Generated_Source\PSoC4/CapSense_1_Structure.c **** 
 620:Generated_Source\PSoC4/CapSense_1_Structure.c **** /* IDAC Initialization Data */
 621:Generated_Source\PSoC4/CapSense_1_Structure.c **** const uint8 CapSense_1_ramIdacInit[CapSense_1_TOTAL_SENSORS] =
 622:Generated_Source\PSoC4/CapSense_1_Structure.c **** {
 623:Generated_Source\PSoC4/CapSense_1_Structure.c ****     /* Button0 */
 624:Generated_Source\PSoC4/CapSense_1_Structure.c ****     CapSense_1_BUTTON0_SNS0_IDAC_COMP0,
 625:Generated_Source\PSoC4/CapSense_1_Structure.c **** 
 626:Generated_Source\PSoC4/CapSense_1_Structure.c ****     /* Button1 */
 627:Generated_Source\PSoC4/CapSense_1_Structure.c ****     CapSense_1_BUTTON1_SNS0_IDAC_COMP0,
 628:Generated_Source\PSoC4/CapSense_1_Structure.c **** 
 629:Generated_Source\PSoC4/CapSense_1_Structure.c ****     /* Touchpad0 */
 630:Generated_Source\PSoC4/CapSense_1_Structure.c ****     CapSense_1_TOUCHPAD0_COL0_IDAC_COMP0,
 631:Generated_Source\PSoC4/CapSense_1_Structure.c ****     CapSense_1_TOUCHPAD0_COL1_IDAC_COMP0,
 632:Generated_Source\PSoC4/CapSense_1_Structure.c ****     CapSense_1_TOUCHPAD0_COL2_IDAC_COMP0,
 633:Generated_Source\PSoC4/CapSense_1_Structure.c ****     CapSense_1_TOUCHPAD0_COL3_IDAC_COMP0,
 634:Generated_Source\PSoC4/CapSense_1_Structure.c ****     CapSense_1_TOUCHPAD0_COL4_IDAC_COMP0,
 635:Generated_Source\PSoC4/CapSense_1_Structure.c ****     CapSense_1_TOUCHPAD0_COL5_IDAC_COMP0,
 636:Generated_Source\PSoC4/CapSense_1_Structure.c ****     CapSense_1_TOUCHPAD0_ROW0_IDAC_COMP0,
 637:Generated_Source\PSoC4/CapSense_1_Structure.c ****     CapSense_1_TOUCHPAD0_ROW1_IDAC_COMP0,
 638:Generated_Source\PSoC4/CapSense_1_Structure.c ****     CapSense_1_TOUCHPAD0_ROW2_IDAC_COMP0,
 639:Generated_Source\PSoC4/CapSense_1_Structure.c ****     CapSense_1_TOUCHPAD0_ROW3_IDAC_COMP0,
 640:Generated_Source\PSoC4/CapSense_1_Structure.c ****     CapSense_1_TOUCHPAD0_ROW4_IDAC_COMP0,
 641:Generated_Source\PSoC4/CapSense_1_Structure.c ****     CapSense_1_TOUCHPAD0_ROW5_IDAC_COMP0,
 642:Generated_Source\PSoC4/CapSense_1_Structure.c **** 
 643:Generated_Source\PSoC4/CapSense_1_Structure.c ****     /* Button2 */
 644:Generated_Source\PSoC4/CapSense_1_Structure.c ****     CapSense_1_BUTTON2_SNS0_IDAC_COMP0,
 645:Generated_Source\PSoC4/CapSense_1_Structure.c **** 
 646:Generated_Source\PSoC4/CapSense_1_Structure.c ****     /* Button3 */
 647:Generated_Source\PSoC4/CapSense_1_Structure.c ****     CapSense_1_BUTTON3_SNS0_IDAC_COMP0,
 648:Generated_Source\PSoC4/CapSense_1_Structure.c **** 
 649:Generated_Source\PSoC4/CapSense_1_Structure.c ****     /* Button4 */
 650:Generated_Source\PSoC4/CapSense_1_Structure.c ****     CapSense_1_BUTTON4_SNS0_IDAC_COMP0,
 651:Generated_Source\PSoC4/CapSense_1_Structure.c **** 
 652:Generated_Source\PSoC4/CapSense_1_Structure.c ****     /* Button5 */
 653:Generated_Source\PSoC4/CapSense_1_Structure.c ****     CapSense_1_BUTTON5_SNS0_IDAC_COMP0,
 654:Generated_Source\PSoC4/CapSense_1_Structure.c **** };
 655:Generated_Source\PSoC4/CapSense_1_Structure.c **** 
 656:Generated_Source\PSoC4/CapSense_1_Structure.c **** 
 657:Generated_Source\PSoC4/CapSense_1_Structure.c **** 
 658:Generated_Source\PSoC4/CapSense_1_Structure.c **** 
ARM GAS  C:\Users\exp32\AppData\Local\Temp\cc6N2LT5.s 			page 13


 659:Generated_Source\PSoC4/CapSense_1_Structure.c **** 
 660:Generated_Source\PSoC4/CapSense_1_Structure.c **** /*******************************************************************************
 661:Generated_Source\PSoC4/CapSense_1_Structure.c **** * Defines internal data types and statements
 662:Generated_Source\PSoC4/CapSense_1_Structure.c **** *******************************************************************************/
 663:Generated_Source\PSoC4/CapSense_1_Structure.c **** #define PARAM_TYPE_OFFSET       (30u)
 664:Generated_Source\PSoC4/CapSense_1_Structure.c **** #define PARAM_TYPE_MASK         (3Lu << PARAM_TYPE_OFFSET)
 665:Generated_Source\PSoC4/CapSense_1_Structure.c **** #define PARAM_RWBIT_OFFSET      (29u)
 666:Generated_Source\PSoC4/CapSense_1_Structure.c **** #define PARAM_RWBIT_MASK        (1Lu << PARAM_RWBIT_OFFSET)
 667:Generated_Source\PSoC4/CapSense_1_Structure.c **** #define PARAM_FBIT_OFFSET       (28u)
 668:Generated_Source\PSoC4/CapSense_1_Structure.c **** #define PARAM_FBIT_MASK         (1Lu << PARAM_FBIT_OFFSET)
 669:Generated_Source\PSoC4/CapSense_1_Structure.c **** #define PARAM_UBIT_OFFSET       (23u)
 670:Generated_Source\PSoC4/CapSense_1_Structure.c **** #define PARAM_UBIT_MASK         (1Lu << PARAM_UBIT_OFFSET)
 671:Generated_Source\PSoC4/CapSense_1_Structure.c **** #define PARAM_WDID_OFFSET       (16u)
 672:Generated_Source\PSoC4/CapSense_1_Structure.c **** #define PARAM_WDID_MASK         (0x7FLu << PARAM_WDID_OFFSET)
 673:Generated_Source\PSoC4/CapSense_1_Structure.c **** #define PARAM_CRC_OFFSET        (24u)
 674:Generated_Source\PSoC4/CapSense_1_Structure.c **** #define PARAM_CRC_MASK          (0x0FLu << PARAM_CRC_OFFSET)
 675:Generated_Source\PSoC4/CapSense_1_Structure.c **** 
 676:Generated_Source\PSoC4/CapSense_1_Structure.c **** /* Defines align masks for uint16 and uint32 */
 677:Generated_Source\PSoC4/CapSense_1_Structure.c **** #define UINT16_ALIGN_MASK       (1Lu)
 678:Generated_Source\PSoC4/CapSense_1_Structure.c **** #define UINT32_ALIGN_MASK       (3Lu)
 679:Generated_Source\PSoC4/CapSense_1_Structure.c **** 
 680:Generated_Source\PSoC4/CapSense_1_Structure.c **** /* Defines supported parameter types */
 681:Generated_Source\PSoC4/CapSense_1_Structure.c **** #define DS_PARAM_TYPE_UINT8     (0x01u)
 682:Generated_Source\PSoC4/CapSense_1_Structure.c **** #define DS_PARAM_TYPE_UINT16    (0x02u)
 683:Generated_Source\PSoC4/CapSense_1_Structure.c **** #define DS_PARAM_TYPE_UINT32    (0x03u)
 684:Generated_Source\PSoC4/CapSense_1_Structure.c **** 
 685:Generated_Source\PSoC4/CapSense_1_Structure.c **** 
 686:Generated_Source\PSoC4/CapSense_1_Structure.c **** /* Defines PARAM_ID structure */
 687:Generated_Source\PSoC4/CapSense_1_Structure.c **** typedef struct
 688:Generated_Source\PSoC4/CapSense_1_Structure.c **** {
 689:Generated_Source\PSoC4/CapSense_1_Structure.c ****     uint16 offset;      /* parameter offset */
 690:Generated_Source\PSoC4/CapSense_1_Structure.c ****     uint8  widgetId;    /* widget Id parameter belongs to */
 691:Generated_Source\PSoC4/CapSense_1_Structure.c ****     uint8  affectsCrc;  /* parameter affects widget CRC */
 692:Generated_Source\PSoC4/CapSense_1_Structure.c ****     uint8  crc;         /* parameter CRC */
 693:Generated_Source\PSoC4/CapSense_1_Structure.c ****     uint8  flash;       /* parameter located in FLASH flag */
 694:Generated_Source\PSoC4/CapSense_1_Structure.c ****     uint8  rw;          /* parameter is read/write flag */
 695:Generated_Source\PSoC4/CapSense_1_Structure.c ****     uint8  type;        /* parameter type: uint8/uint16/uint32 */
 696:Generated_Source\PSoC4/CapSense_1_Structure.c **** } PARAM_ID_STRUCT;
 697:Generated_Source\PSoC4/CapSense_1_Structure.c **** 
 698:Generated_Source\PSoC4/CapSense_1_Structure.c **** 
 699:Generated_Source\PSoC4/CapSense_1_Structure.c **** /*******************************************************************************
 700:Generated_Source\PSoC4/CapSense_1_Structure.c **** * Static Function Prototypes
 701:Generated_Source\PSoC4/CapSense_1_Structure.c **** *******************************************************************************/
 702:Generated_Source\PSoC4/CapSense_1_Structure.c **** /**
 703:Generated_Source\PSoC4/CapSense_1_Structure.c **** * \cond SECTION_C_INTERNAL
 704:Generated_Source\PSoC4/CapSense_1_Structure.c **** * \addtogroup group_c_internal
 705:Generated_Source\PSoC4/CapSense_1_Structure.c **** * \{
 706:Generated_Source\PSoC4/CapSense_1_Structure.c **** */
 707:Generated_Source\PSoC4/CapSense_1_Structure.c **** 
 708:Generated_Source\PSoC4/CapSense_1_Structure.c **** 
 709:Generated_Source\PSoC4/CapSense_1_Structure.c **** 
 710:Generated_Source\PSoC4/CapSense_1_Structure.c **** static cystatus DsParseParamId(uint32 paramId, PARAM_ID_STRUCT *pData);
 711:Generated_Source\PSoC4/CapSense_1_Structure.c **** 
 712:Generated_Source\PSoC4/CapSense_1_Structure.c **** /** \}
 713:Generated_Source\PSoC4/CapSense_1_Structure.c **** * \endcond */
 714:Generated_Source\PSoC4/CapSense_1_Structure.c **** 
 715:Generated_Source\PSoC4/CapSense_1_Structure.c **** 
ARM GAS  C:\Users\exp32\AppData\Local\Temp\cc6N2LT5.s 			page 14


 716:Generated_Source\PSoC4/CapSense_1_Structure.c **** /*******************************************************************************
 717:Generated_Source\PSoC4/CapSense_1_Structure.c **** * Function Name: CapSense_1_DsInitialize
 718:Generated_Source\PSoC4/CapSense_1_Structure.c **** ****************************************************************************//**
 719:Generated_Source\PSoC4/CapSense_1_Structure.c **** *
 720:Generated_Source\PSoC4/CapSense_1_Structure.c **** * \brief
 721:Generated_Source\PSoC4/CapSense_1_Structure.c **** *   This function initializes the Data Structure storage.
 722:Generated_Source\PSoC4/CapSense_1_Structure.c **** *
 723:Generated_Source\PSoC4/CapSense_1_Structure.c **** * \details
 724:Generated_Source\PSoC4/CapSense_1_Structure.c **** *   This function copies the default widget configuration parameters
 725:Generated_Source\PSoC4/CapSense_1_Structure.c **** *   from the Flash storage into the RAM Data Structure.
 726:Generated_Source\PSoC4/CapSense_1_Structure.c **** *
 727:Generated_Source\PSoC4/CapSense_1_Structure.c **** *******************************************************************************/
 728:Generated_Source\PSoC4/CapSense_1_Structure.c **** void CapSense_1_DsInitialize(void)
 729:Generated_Source\PSoC4/CapSense_1_Structure.c **** {
 730:Generated_Source\PSoC4/CapSense_1_Structure.c ****     #if ((CapSense_1_ENABLE == CapSense_1_CSX_EN) || \
 731:Generated_Source\PSoC4/CapSense_1_Structure.c ****          (CapSense_1_ENABLE == CapSense_1_CSD_IDAC_COMP_EN) || \
 732:Generated_Source\PSoC4/CapSense_1_Structure.c ****         ((CapSense_1_ENABLE == CapSense_1_CSX_EN) && \
 733:Generated_Source\PSoC4/CapSense_1_Structure.c ****          (CapSense_1_ENABLE == CapSense_1_CSX_SKIP_OVSMPL_SPECIFIC_NODES)))
 734:Generated_Source\PSoC4/CapSense_1_Structure.c ****         uint32 snsId;
 735:Generated_Source\PSoC4/CapSense_1_Structure.c ****         uint32 wdgtId;
 736:Generated_Source\PSoC4/CapSense_1_Structure.c ****         CapSense_1_RAM_SNS_STRUCT * ptrSnsTmp;
 737:Generated_Source\PSoC4/CapSense_1_Structure.c ****         CapSense_1_FLASH_WD_STRUCT const * ptrFlashWdgt;
 738:Generated_Source\PSoC4/CapSense_1_Structure.c ****     #endif
 739:Generated_Source\PSoC4/CapSense_1_Structure.c **** 
 740:Generated_Source\PSoC4/CapSense_1_Structure.c ****     #if ((CapSense_1_ENABLE == CapSense_1_CSX_EN) && \
 741:Generated_Source\PSoC4/CapSense_1_Structure.c ****          (CapSense_1_ENABLE == CapSense_1_CSX_SKIP_OVSMPL_SPECIFIC_NODES))
 742:Generated_Source\PSoC4/CapSense_1_Structure.c ****         uint16 subConvNumber;
 743:Generated_Source\PSoC4/CapSense_1_Structure.c ****     #endif
 744:Generated_Source\PSoC4/CapSense_1_Structure.c **** 
 745:Generated_Source\PSoC4/CapSense_1_Structure.c ****     #if ((0u != CapSense_1_CSX_EN) || (0 != CapSense_1_CSD_IDAC_COMP_EN))
 746:Generated_Source\PSoC4/CapSense_1_Structure.c ****         uint8 const * ptrIdacInit = CapSense_1_ramIdacInit;
 747:Generated_Source\PSoC4/CapSense_1_Structure.c ****     #endif
 748:Generated_Source\PSoC4/CapSense_1_Structure.c **** 
 749:Generated_Source\PSoC4/CapSense_1_Structure.c ****     /* Reset RAM data structure content */
 750:Generated_Source\PSoC4/CapSense_1_Structure.c ****     (void)memset(&CapSense_1_dsRam, 0, sizeof(CapSense_1_dsRam));
 751:Generated_Source\PSoC4/CapSense_1_Structure.c **** 
 752:Generated_Source\PSoC4/CapSense_1_Structure.c ****     /* Initialize configId, deviceId and hwClock registers */
 753:Generated_Source\PSoC4/CapSense_1_Structure.c ****     CapSense_1_dsRam.configId = CapSense_1_CONFIG_ID;
 754:Generated_Source\PSoC4/CapSense_1_Structure.c ****     CapSense_1_dsRam.deviceId = CapSense_1_DEVICE_ID;
 755:Generated_Source\PSoC4/CapSense_1_Structure.c ****     CapSense_1_dsRam.hwClock = CapSense_1_HW_CLOCK;
 756:Generated_Source\PSoC4/CapSense_1_Structure.c **** 
 757:Generated_Source\PSoC4/CapSense_1_Structure.c ****     /* Initialize global RAM data */
 758:Generated_Source\PSoC4/CapSense_1_Structure.c ****     CapSense_1_dsRam.csd0Config = CapSense_1_CSD0_CONFIG;
 759:Generated_Source\PSoC4/CapSense_1_Structure.c **** 
 760:Generated_Source\PSoC4/CapSense_1_Structure.c ****     CapSense_1_dsRam.scanCurrentISC = CapSense_1_SNS_CONNECTION_UNDEFINED;
 761:Generated_Source\PSoC4/CapSense_1_Structure.c ****     #if (0u != CapSense_1_TOTAL_CSD_WIDGETS)
 762:Generated_Source\PSoC4/CapSense_1_Structure.c ****         CapSense_1_dsRam.modCsdClk = CapSense_1_CSD_SCANSPEED_DIVIDER;
 763:Generated_Source\PSoC4/CapSense_1_Structure.c ****         CapSense_1_dsRam.scanCsdISC = CapSense_1_CSD_INACTIVE_SNS_CONNECTION;
 764:Generated_Source\PSoC4/CapSense_1_Structure.c **** 
 765:Generated_Source\PSoC4/CapSense_1_Structure.c ****         #if (0u != CapSense_1_CSD_COMMON_SNS_CLK_EN)
 766:Generated_Source\PSoC4/CapSense_1_Structure.c ****             CapSense_1_dsRam.snsCsdClk = CapSense_1_CSD_SNS_CLK_DIVIDER;
 767:Generated_Source\PSoC4/CapSense_1_Structure.c ****         #endif /* #if (0u != CapSense_1_CSD_COMMON_SNS_CLK_EN) */
 768:Generated_Source\PSoC4/CapSense_1_Structure.c ****     #endif /* #if (0u != CapSense_1_TOTAL_CSD_WIDGETS) */
 769:Generated_Source\PSoC4/CapSense_1_Structure.c **** 
 770:Generated_Source\PSoC4/CapSense_1_Structure.c ****     #if (CapSense_1_ENABLE == CapSense_1_CSX_EN)
 771:Generated_Source\PSoC4/CapSense_1_Structure.c ****         CapSense_1_dsRam.modCsxClk = CapSense_1_CSX_SCANSPEED_DIVIDER;
 772:Generated_Source\PSoC4/CapSense_1_Structure.c ****         CapSense_1_dsRam.scanCsxISC = CapSense_1_CSX_INACTIVE_SNS_CONNECTION;
ARM GAS  C:\Users\exp32\AppData\Local\Temp\cc6N2LT5.s 			page 15


 773:Generated_Source\PSoC4/CapSense_1_Structure.c **** 
 774:Generated_Source\PSoC4/CapSense_1_Structure.c ****         #if (0u != CapSense_1_CSX_COMMON_TX_CLK_EN)
 775:Generated_Source\PSoC4/CapSense_1_Structure.c ****             CapSense_1_dsRam.snsCsxClk = CapSense_1_CSX_TX_CLK_DIVIDER;
 776:Generated_Source\PSoC4/CapSense_1_Structure.c ****         #endif /* #if (0u != CapSense_1_CSX_COMMON_TX_CLK_EN) */
 777:Generated_Source\PSoC4/CapSense_1_Structure.c ****     #endif /* #if (CapSense_1_ENABLE == CapSense_1_CSX_EN) */
 778:Generated_Source\PSoC4/CapSense_1_Structure.c **** 
 779:Generated_Source\PSoC4/CapSense_1_Structure.c ****     #if (CapSense_1_ENABLE == CapSense_1_ISX_EN)
 780:Generated_Source\PSoC4/CapSense_1_Structure.c ****         CapSense_1_dsRam.modIsxClk = CapSense_1_ISX_SCANSPEED_DIVIDER;
 781:Generated_Source\PSoC4/CapSense_1_Structure.c ****     #endif /* #if (0u != CapSense_1_ISX_EN) */
 782:Generated_Source\PSoC4/CapSense_1_Structure.c **** 
 783:Generated_Source\PSoC4/CapSense_1_Structure.c ****     #if (0u != CapSense_1_SELF_TEST_EN)
 784:Generated_Source\PSoC4/CapSense_1_Structure.c **** 
 785:Generated_Source\PSoC4/CapSense_1_Structure.c ****         CapSense_1_dsRam.glbCrc = CapSense_1_GLB_CRC;
 786:Generated_Source\PSoC4/CapSense_1_Structure.c ****         CapSense_1_dsRam.selfTestConfig.fineInitTime = (uint8)CapSense_1_TST_FINE_INIT_TIME;
 787:Generated_Source\PSoC4/CapSense_1_Structure.c ****         CapSense_1_dsRam.selfTestConfig.startupDelay = CapSense_1_TST_ANALOG_STARTUP_DELAY_US;
 788:Generated_Source\PSoC4/CapSense_1_Structure.c **** 
 789:Generated_Source\PSoC4/CapSense_1_Structure.c ****         #if (0u != CapSense_1_TST_SNS_SHORT_EN)
 790:Generated_Source\PSoC4/CapSense_1_Structure.c ****             CapSense_1_dsRam.selfTestConfig.snsShortTimeUs = CapSense_1_TST_SNS_SHORT_TIME;
 791:Generated_Source\PSoC4/CapSense_1_Structure.c ****         #endif
 792:Generated_Source\PSoC4/CapSense_1_Structure.c **** 
 793:Generated_Source\PSoC4/CapSense_1_Structure.c ****         #if ((0u != CapSense_1_TST_SNS_CAP_EN) ||\
 794:Generated_Source\PSoC4/CapSense_1_Structure.c ****              (0u != CapSense_1_TST_SH_CAP_EN))
 795:Generated_Source\PSoC4/CapSense_1_Structure.c ****             CapSense_1_dsRam.selfTestConfig.snsCapSnsClkDivider = CapSense_1_TST_SNS_CAP_SNS_CLK_DI
 796:Generated_Source\PSoC4/CapSense_1_Structure.c ****             CapSense_1_dsRam.selfTestConfig.snsCapSnsClkHz = CapSense_1_TST_SNS_CAP_SNS_CLK_HZ;
 797:Generated_Source\PSoC4/CapSense_1_Structure.c ****             CapSense_1_dsRam.selfTestConfig.snsCapResolution = CapSense_1_TST_SNS_CAP_RESOLUTION;
 798:Generated_Source\PSoC4/CapSense_1_Structure.c ****             CapSense_1_dsRam.selfTestConfig.snsCapVrefGain = CapSense_1_TST_SNS_CAP_VREF_GAIN ;
 799:Generated_Source\PSoC4/CapSense_1_Structure.c ****             CapSense_1_dsRam.selfTestConfig.snsCapVrefVoltage = CapSense_1_TST_SNS_CAP_VREF_MV;
 800:Generated_Source\PSoC4/CapSense_1_Structure.c ****             CapSense_1_dsRam.selfTestConfig.snsCapModClkDivider = CapSense_1_TST_MOD_CLK_DIVIDER ;
 801:Generated_Source\PSoC4/CapSense_1_Structure.c ****             CapSense_1_dsRam.selfTestConfig.snsCapModClkKHz = CapSense_1_TST_MOD_CLK_KHZ ;
 802:Generated_Source\PSoC4/CapSense_1_Structure.c ****         #endif /* ((0u != CapSense_1_TST_SNS_CAP_EN) ||
 803:Generated_Source\PSoC4/CapSense_1_Structure.c ****                    (0u != CapSense_1_TST_SH_CAP_EN)) */
 804:Generated_Source\PSoC4/CapSense_1_Structure.c **** 
 805:Generated_Source\PSoC4/CapSense_1_Structure.c ****         #if (0u != CapSense_1_TST_SNS_CAP_EN)
 806:Generated_Source\PSoC4/CapSense_1_Structure.c ****             #if (0u != CapSense_1_CSD_EN)
 807:Generated_Source\PSoC4/CapSense_1_Structure.c ****                 CapSense_1_dsRam.selfTestConfig.bistCsdSnsCapISC = CapSense_1_SNS_CAP_CSD_INACTIVE_
 808:Generated_Source\PSoC4/CapSense_1_Structure.c ****             #endif /* (0u != CapSense_1_CSD_EN) */
 809:Generated_Source\PSoC4/CapSense_1_Structure.c ****             #if (0u != CapSense_1_CSX_EN)
 810:Generated_Source\PSoC4/CapSense_1_Structure.c ****                 CapSense_1_dsRam.selfTestConfig.bistCsxSnsCapISC = CapSense_1_SNS_CAP_CSX_INACTIVE_
 811:Generated_Source\PSoC4/CapSense_1_Structure.c ****             #endif /* (0u != CapSense_1_CSX_EN) */
 812:Generated_Source\PSoC4/CapSense_1_Structure.c ****         #endif /* (0u != CapSense_1_TST_SNS_CAP_EN) */
 813:Generated_Source\PSoC4/CapSense_1_Structure.c **** 
 814:Generated_Source\PSoC4/CapSense_1_Structure.c ****         #if (0u != CapSense_1_TST_SH_CAP_EN)
 815:Generated_Source\PSoC4/CapSense_1_Structure.c ****             #if ((0u != CapSense_1_CSD_EN) && (0u != CapSense_1_CSD_SHIELD_EN))
 816:Generated_Source\PSoC4/CapSense_1_Structure.c ****                 CapSense_1_dsRam.selfTestConfig.bistCsdShCapISC = CapSense_1_SHIELD_CAP_INACTIVE_CO
 817:Generated_Source\PSoC4/CapSense_1_Structure.c ****             #endif /* ((0u != CapSense_1_CSD_EN) && (0u != CapSense_1_CSD_SHIELD_EN)) */
 818:Generated_Source\PSoC4/CapSense_1_Structure.c ****         #endif /* (0u != CapSense_1_TST_SH_CAP_EN) */
 819:Generated_Source\PSoC4/CapSense_1_Structure.c **** 
 820:Generated_Source\PSoC4/CapSense_1_Structure.c ****         #if (0u != CapSense_1_TST_EXTERNAL_CAP_EN)
 821:Generated_Source\PSoC4/CapSense_1_Structure.c ****             CapSense_1_dsRam.selfTestConfig.extCapVrefGain = CapSense_1_TST_EXT_CAP_VREF_GAIN;
 822:Generated_Source\PSoC4/CapSense_1_Structure.c ****             CapSense_1_dsRam.selfTestConfig.extCapVrefVoltage = CapSense_1_TST_EXT_CAP_VREF_MV;
 823:Generated_Source\PSoC4/CapSense_1_Structure.c ****         #endif /* #if (0u != CapSense_1_TST_EXTERNAL_CAP_EN) */
 824:Generated_Source\PSoC4/CapSense_1_Structure.c **** 
 825:Generated_Source\PSoC4/CapSense_1_Structure.c ****         #if (0u != CapSense_1_TST_VDDA_EN)
 826:Generated_Source\PSoC4/CapSense_1_Structure.c ****             CapSense_1_dsRam.selfTestConfig.vddaResolution = CapSense_1_TST_VDDA_RESOLUTION;
 827:Generated_Source\PSoC4/CapSense_1_Structure.c ****             CapSense_1_dsRam.selfTestConfig.vddaModClkDivider = CapSense_1_TST_VDDA_MOD_CLK_DIVIDER
 828:Generated_Source\PSoC4/CapSense_1_Structure.c **** 
 829:Generated_Source\PSoC4/CapSense_1_Structure.c ****             CapSense_1_dsRam.selfTestConfig.vddaVrefGain = CapSense_1_TST_VDDA_VREF_GAIN;
ARM GAS  C:\Users\exp32\AppData\Local\Temp\cc6N2LT5.s 			page 16


 830:Generated_Source\PSoC4/CapSense_1_Structure.c ****             CapSense_1_dsRam.selfTestConfig.vddaVrefVoltage = CapSense_1_TST_VDDA_VREF_MV;
 831:Generated_Source\PSoC4/CapSense_1_Structure.c ****         #endif /* #if (0u != CapSense_1_TST_VDDA_EN) */
 832:Generated_Source\PSoC4/CapSense_1_Structure.c **** 
 833:Generated_Source\PSoC4/CapSense_1_Structure.c ****     #endif /* #if (0u != CapSense_1_SELF_TEST_EN) */
 834:Generated_Source\PSoC4/CapSense_1_Structure.c **** 
 835:Generated_Source\PSoC4/CapSense_1_Structure.c ****     /* Initialize RAM widget data */
 836:Generated_Source\PSoC4/CapSense_1_Structure.c ****     CapSense_1_dsRam.wdgtList = CapSense_1_ramWidgetInit;
 837:Generated_Source\PSoC4/CapSense_1_Structure.c **** 
 838:Generated_Source\PSoC4/CapSense_1_Structure.c ****     /* Initialize Gesture configuration structure */
 839:Generated_Source\PSoC4/CapSense_1_Structure.c ****     #if ((0u != CapSense_1_GES_GLOBAL_EN) || (0u != CapSense_1_BALLISTIC_MULTIPLIER_EN))
 840:Generated_Source\PSoC4/CapSense_1_Structure.c ****         CapSense_1_dsRam.timestampInterval = CapSense_1_TIMESTAMP_INTERVAL;
 841:Generated_Source\PSoC4/CapSense_1_Structure.c ****     #endif /* ((0u != CapSense_1_GES_GLOBAL_EN) || (0u != CapSense_1_BALLISTIC_MULTIPLIER_EN)) */
 842:Generated_Source\PSoC4/CapSense_1_Structure.c **** 
 843:Generated_Source\PSoC4/CapSense_1_Structure.c ****     #if (0u != CapSense_1_GES_GLOBAL_EN)
 844:Generated_Source\PSoC4/CapSense_1_Structure.c ****         CapSense_1_dsRam.gestures = CapSense_1_ramGesturesInit;
 845:Generated_Source\PSoC4/CapSense_1_Structure.c ****     #endif /* (0u != CapSense_1_GES_GLOBAL_EN) */
 846:Generated_Source\PSoC4/CapSense_1_Structure.c **** 
 847:Generated_Source\PSoC4/CapSense_1_Structure.c ****     #if (0u != CapSense_1_BALLISTIC_MULTIPLIER_EN)
 848:Generated_Source\PSoC4/CapSense_1_Structure.c ****         CapSense_1_dsRam.ballisticConfig = CapSense_1_ramBallisticInit;
 849:Generated_Source\PSoC4/CapSense_1_Structure.c ****     #endif /* (0u != CapSense_1_BALLISTIC_MULTIPLIER_EN) */
 850:Generated_Source\PSoC4/CapSense_1_Structure.c **** 
 851:Generated_Source\PSoC4/CapSense_1_Structure.c ****     #if (0u != CapSense_1_CSX_EN) || (0 != CapSense_1_CSD_IDAC_COMP_EN)
 852:Generated_Source\PSoC4/CapSense_1_Structure.c ****         /* Initialize IDAC data */
 853:Generated_Source\PSoC4/CapSense_1_Structure.c ****         ptrFlashWdgt = CapSense_1_dsFlash.wdgtArray;
 854:Generated_Source\PSoC4/CapSense_1_Structure.c **** 
 855:Generated_Source\PSoC4/CapSense_1_Structure.c ****         for (wdgtId = CapSense_1_TOTAL_WIDGETS; wdgtId-- > 0u; )
 856:Generated_Source\PSoC4/CapSense_1_Structure.c ****         {
 857:Generated_Source\PSoC4/CapSense_1_Structure.c ****             ptrSnsTmp = ptrFlashWdgt->ptr2SnsRam;
 858:Generated_Source\PSoC4/CapSense_1_Structure.c **** 
 859:Generated_Source\PSoC4/CapSense_1_Structure.c ****             for (snsId = CapSense_1_GET_SNS_CNT_BY_PTR(ptrFlashWdgt); snsId-- > 0u;)
 860:Generated_Source\PSoC4/CapSense_1_Structure.c ****             {
 861:Generated_Source\PSoC4/CapSense_1_Structure.c ****                 ptrSnsTmp->idacComp[0u] = *ptrIdacInit;
 862:Generated_Source\PSoC4/CapSense_1_Structure.c ****                 ptrIdacInit++;
 863:Generated_Source\PSoC4/CapSense_1_Structure.c **** 
 864:Generated_Source\PSoC4/CapSense_1_Structure.c ****                 #if (0u != CapSense_1_MULTI_FREQ_SCAN_EN)
 865:Generated_Source\PSoC4/CapSense_1_Structure.c ****                     ptrSnsTmp->idacComp[1u] = *ptrIdacInit;
 866:Generated_Source\PSoC4/CapSense_1_Structure.c ****                     ptrIdacInit++;
 867:Generated_Source\PSoC4/CapSense_1_Structure.c **** 
 868:Generated_Source\PSoC4/CapSense_1_Structure.c ****                     ptrSnsTmp->idacComp[2u] = *ptrIdacInit;
 869:Generated_Source\PSoC4/CapSense_1_Structure.c ****                     ptrIdacInit++;
 870:Generated_Source\PSoC4/CapSense_1_Structure.c ****                 #endif /* #if (0u != CapSense_1_MULTI_FREQ_SCAN_EN) */
 871:Generated_Source\PSoC4/CapSense_1_Structure.c **** 
 872:Generated_Source\PSoC4/CapSense_1_Structure.c ****                 ptrSnsTmp++;
 873:Generated_Source\PSoC4/CapSense_1_Structure.c ****             }
 874:Generated_Source\PSoC4/CapSense_1_Structure.c **** 
 875:Generated_Source\PSoC4/CapSense_1_Structure.c ****             ptrFlashWdgt++; /* Move to next widget */
 876:Generated_Source\PSoC4/CapSense_1_Structure.c ****         }
 877:Generated_Source\PSoC4/CapSense_1_Structure.c ****     #endif /*(0u != CapSense_1_CSX_EN) || (0 != CapSense_1_CSD_IDAC_COMP_EN)*/
 878:Generated_Source\PSoC4/CapSense_1_Structure.c **** 
 879:Generated_Source\PSoC4/CapSense_1_Structure.c ****     #if ((CapSense_1_ENABLE == CapSense_1_CSX_EN) && \
 880:Generated_Source\PSoC4/CapSense_1_Structure.c ****          (CapSense_1_ENABLE == CapSense_1_CSX_SKIP_OVSMPL_SPECIFIC_NODES))
 881:Generated_Source\PSoC4/CapSense_1_Structure.c ****         /* Initialize Sub-Conversion Number for each node of each CSX widget */
 882:Generated_Source\PSoC4/CapSense_1_Structure.c ****         ptrFlashWdgt = CapSense_1_dsFlash.wdgtArray;
 883:Generated_Source\PSoC4/CapSense_1_Structure.c ****         for (wdgtId = CapSense_1_TOTAL_WIDGETS; wdgtId-- > 0u;)
 884:Generated_Source\PSoC4/CapSense_1_Structure.c ****         {
 885:Generated_Source\PSoC4/CapSense_1_Structure.c ****             /* Check for widget sense method */
 886:Generated_Source\PSoC4/CapSense_1_Structure.c ****             if (CapSense_1_SENSE_METHOD_CSX_E == CapSense_1_GET_SENSE_METHOD(ptrFlashWdgt))
ARM GAS  C:\Users\exp32\AppData\Local\Temp\cc6N2LT5.s 			page 17


 887:Generated_Source\PSoC4/CapSense_1_Structure.c ****             {
 888:Generated_Source\PSoC4/CapSense_1_Structure.c ****                 /* Take the sub-convesion number of a CSX widget and initialize each node of this w
 889:Generated_Source\PSoC4/CapSense_1_Structure.c ****                 subConvNumber = ((CapSense_1_RAM_WD_BASE_STRUCT *)(ptrFlashWdgt->ptr2WdgtRam))->res
 890:Generated_Source\PSoC4/CapSense_1_Structure.c ****                 ptrSnsTmp = ptrFlashWdgt->ptr2SnsRam;
 891:Generated_Source\PSoC4/CapSense_1_Structure.c ****                 for (snsId = CapSense_1_GET_SNS_CNT_BY_PTR(ptrFlashWdgt); snsId-- > 0u;)
 892:Generated_Source\PSoC4/CapSense_1_Structure.c ****                 {
 893:Generated_Source\PSoC4/CapSense_1_Structure.c ****                     ptrSnsTmp->subConvNum = subConvNumber;
 894:Generated_Source\PSoC4/CapSense_1_Structure.c ****                     ptrSnsTmp++;
 895:Generated_Source\PSoC4/CapSense_1_Structure.c ****                 }
 896:Generated_Source\PSoC4/CapSense_1_Structure.c ****             }
 897:Generated_Source\PSoC4/CapSense_1_Structure.c ****             /* Move to the next widget */
 898:Generated_Source\PSoC4/CapSense_1_Structure.c ****             ptrFlashWdgt++;
 899:Generated_Source\PSoC4/CapSense_1_Structure.c ****         }
 900:Generated_Source\PSoC4/CapSense_1_Structure.c ****     #endif /* ((CapSense_1_ENABLE == CapSense_1_CSX_EN) && \
 901:Generated_Source\PSoC4/CapSense_1_Structure.c ****                (CapSense_1_ENABLE == CapSense_1_CSX_SKIP_OVSMPL_SPECIFIC_NODES)) */
 902:Generated_Source\PSoC4/CapSense_1_Structure.c **** 
 903:Generated_Source\PSoC4/CapSense_1_Structure.c ****     #if (0u != CapSense_1_ADC_EN)
 904:Generated_Source\PSoC4/CapSense_1_Structure.c ****         CapSense_1_AdcDsInitialize();
 905:Generated_Source\PSoC4/CapSense_1_Structure.c ****     #endif /* (0u != CapSense_1_ADC_EN) */
 906:Generated_Source\PSoC4/CapSense_1_Structure.c **** }
 907:Generated_Source\PSoC4/CapSense_1_Structure.c **** 
 908:Generated_Source\PSoC4/CapSense_1_Structure.c **** 
 909:Generated_Source\PSoC4/CapSense_1_Structure.c **** #if (0u != CapSense_1_ADC_EN)
 910:Generated_Source\PSoC4/CapSense_1_Structure.c ****     /*******************************************************************************
 911:Generated_Source\PSoC4/CapSense_1_Structure.c ****     * Function Name: CapSense_1_AdcDsInitialize
 912:Generated_Source\PSoC4/CapSense_1_Structure.c ****     ****************************************************************************//**
 913:Generated_Source\PSoC4/CapSense_1_Structure.c ****     *
 914:Generated_Source\PSoC4/CapSense_1_Structure.c ****     * \brief
 915:Generated_Source\PSoC4/CapSense_1_Structure.c ****     *   Configures the initial Adc datastructure members.
 916:Generated_Source\PSoC4/CapSense_1_Structure.c ****     *
 917:Generated_Source\PSoC4/CapSense_1_Structure.c ****     *******************************************************************************/
 918:Generated_Source\PSoC4/CapSense_1_Structure.c ****     void CapSense_1_AdcDsInitialize(void)
 919:Generated_Source\PSoC4/CapSense_1_Structure.c ****     {
 920:Generated_Source\PSoC4/CapSense_1_Structure.c ****         CapSense_1_dsRam.adcResolution = CapSense_1_ADC_RESOLUTION;
 921:Generated_Source\PSoC4/CapSense_1_Structure.c ****         CapSense_1_dsRam.adcIdac = (uint8)(CapSense_1_ADC_IDAC_DEFAULT);
 922:Generated_Source\PSoC4/CapSense_1_Structure.c ****         CapSense_1_dsRam.adcActiveCh = CapSense_1_AdcNO_CHANNEL;
 923:Generated_Source\PSoC4/CapSense_1_Structure.c ****     }
 924:Generated_Source\PSoC4/CapSense_1_Structure.c **** #endif /* (0u != CapSense_1_ADC_EN) */
 925:Generated_Source\PSoC4/CapSense_1_Structure.c **** 
 926:Generated_Source\PSoC4/CapSense_1_Structure.c **** 
 927:Generated_Source\PSoC4/CapSense_1_Structure.c **** /*******************************************************************************
 928:Generated_Source\PSoC4/CapSense_1_Structure.c **** * Function Name: DsParseParamId
 929:Generated_Source\PSoC4/CapSense_1_Structure.c **** ****************************************************************************//**
 930:Generated_Source\PSoC4/CapSense_1_Structure.c **** *
 931:Generated_Source\PSoC4/CapSense_1_Structure.c **** * \brief
 932:Generated_Source\PSoC4/CapSense_1_Structure.c **** *   This function parses the parameter ID and checks its correctness.
 933:Generated_Source\PSoC4/CapSense_1_Structure.c **** *
 934:Generated_Source\PSoC4/CapSense_1_Structure.c **** * \details
 935:Generated_Source\PSoC4/CapSense_1_Structure.c **** *   This function checks the parameter CRC if the self-test is enabled,
 936:Generated_Source\PSoC4/CapSense_1_Structure.c **** *   validates the offset value and parameter type.
 937:Generated_Source\PSoC4/CapSense_1_Structure.c **** *
 938:Generated_Source\PSoC4/CapSense_1_Structure.c **** * \param paramId The parameter to parse.
 939:Generated_Source\PSoC4/CapSense_1_Structure.c **** * \param pData   The pointer to the structure that will hold parsed data.
 940:Generated_Source\PSoC4/CapSense_1_Structure.c **** *
 941:Generated_Source\PSoC4/CapSense_1_Structure.c **** * \return CYRET_SUCCESS     If the parameter is valid
 942:Generated_Source\PSoC4/CapSense_1_Structure.c **** *         CYRET_BAD_PARAM   If the parameter is invalid
 943:Generated_Source\PSoC4/CapSense_1_Structure.c **** *
ARM GAS  C:\Users\exp32\AppData\Local\Temp\cc6N2LT5.s 			page 18


 944:Generated_Source\PSoC4/CapSense_1_Structure.c **** *******************************************************************************/
 945:Generated_Source\PSoC4/CapSense_1_Structure.c **** static cystatus DsParseParamId(uint32 paramId, PARAM_ID_STRUCT *pData)
 946:Generated_Source\PSoC4/CapSense_1_Structure.c **** {
  27              		.loc 1 946 0
  28              		.cfi_startproc
  29              		@ args = 0, pretend = 0, frame = 0
  30              		@ frame_needed = 0, uses_anonymous_args = 0
  31              	.LVL0:
  32 0000 70B5     		push	{r4, r5, r6, lr}
  33              		.cfi_def_cfa_offset 16
  34              		.cfi_offset 4, -16
  35              		.cfi_offset 5, -12
  36              		.cfi_offset 6, -8
  37              		.cfi_offset 14, -4
  38              	.LVL1:
 947:Generated_Source\PSoC4/CapSense_1_Structure.c ****     cystatus result = CYRET_SUCCESS;
 948:Generated_Source\PSoC4/CapSense_1_Structure.c **** 
 949:Generated_Source\PSoC4/CapSense_1_Structure.c ****     #if (0u != CapSense_1_SELF_TEST_EN)
 950:Generated_Source\PSoC4/CapSense_1_Structure.c ****         const uint8 crcTable[] =
 951:Generated_Source\PSoC4/CapSense_1_Structure.c ****         {
 952:Generated_Source\PSoC4/CapSense_1_Structure.c ****             0x00u, 0x09u, 0x0Bu, 0x02u, 0x0Fu, 0x06u, 0x04u, 0x0Du,
 953:Generated_Source\PSoC4/CapSense_1_Structure.c ****             0x07u, 0x0Eu, 0x0Cu, 0x05u, 0x08u, 0x01u, 0x03u, 0x0Au
 954:Generated_Source\PSoC4/CapSense_1_Structure.c ****         };
 955:Generated_Source\PSoC4/CapSense_1_Structure.c **** 
 956:Generated_Source\PSoC4/CapSense_1_Structure.c ****         uint32 i;
 957:Generated_Source\PSoC4/CapSense_1_Structure.c ****         uint32 actualCrc = 0u;
 958:Generated_Source\PSoC4/CapSense_1_Structure.c ****         uint32 crcIndex;
 959:Generated_Source\PSoC4/CapSense_1_Structure.c ****     #endif /* #if (0u != CapSense_1_SELF_TEST_EN) */
 960:Generated_Source\PSoC4/CapSense_1_Structure.c **** 
 961:Generated_Source\PSoC4/CapSense_1_Structure.c ****     /* Extract parameter data */
 962:Generated_Source\PSoC4/CapSense_1_Structure.c ****     pData->offset     = LO16(paramId);
  39              		.loc 1 962 0
  40 0002 85B2     		uxth	r5, r0
  41 0004 0D80     		strh	r5, [r1]
 963:Generated_Source\PSoC4/CapSense_1_Structure.c ****     pData->affectsCrc = LO8((paramId & PARAM_UBIT_MASK)  >> PARAM_UBIT_OFFSET);
  42              		.loc 1 963 0
  43 0006 C30D     		lsrs	r3, r0, #23
  44 0008 0124     		movs	r4, #1
  45 000a 2340     		ands	r3, r4
  46 000c CB70     		strb	r3, [r1, #3]
 964:Generated_Source\PSoC4/CapSense_1_Structure.c ****     pData->widgetId   = LO8((paramId & PARAM_WDID_MASK)  >> PARAM_WDID_OFFSET);
  47              		.loc 1 964 0
  48 000e 030C     		lsrs	r3, r0, #16
  49 0010 7F22     		movs	r2, #127
  50 0012 1340     		ands	r3, r2
  51 0014 8B70     		strb	r3, [r1, #2]
 965:Generated_Source\PSoC4/CapSense_1_Structure.c ****     pData->type       = LO8((paramId & PARAM_TYPE_MASK)  >> PARAM_TYPE_OFFSET);
  52              		.loc 1 965 0
  53 0016 860F     		lsrs	r6, r0, #30
  54 0018 CE71     		strb	r6, [r1, #7]
 966:Generated_Source\PSoC4/CapSense_1_Structure.c ****     pData->flash      = LO8((paramId & PARAM_FBIT_MASK)  >> PARAM_FBIT_OFFSET);
  55              		.loc 1 966 0
  56 001a 030F     		lsrs	r3, r0, #28
  57 001c 2340     		ands	r3, r4
  58 001e 4B71     		strb	r3, [r1, #5]
 967:Generated_Source\PSoC4/CapSense_1_Structure.c ****     pData->rw         = LO8((paramId & PARAM_RWBIT_MASK) >> PARAM_RWBIT_OFFSET);
  59              		.loc 1 967 0
ARM GAS  C:\Users\exp32\AppData\Local\Temp\cc6N2LT5.s 			page 19


  60 0020 420F     		lsrs	r2, r0, #29
  61 0022 2240     		ands	r2, r4
  62 0024 8A71     		strb	r2, [r1, #6]
 968:Generated_Source\PSoC4/CapSense_1_Structure.c ****     pData->crc        = LO8((paramId & PARAM_CRC_MASK)   >> PARAM_CRC_OFFSET);
  63              		.loc 1 968 0
  64 0026 000E     		lsrs	r0, r0, #24
  65              	.LVL2:
  66 0028 0E34     		adds	r4, r4, #14
  67 002a 2040     		ands	r0, r4
  68 002c 0871     		strb	r0, [r1, #4]
 969:Generated_Source\PSoC4/CapSense_1_Structure.c **** 
 970:Generated_Source\PSoC4/CapSense_1_Structure.c ****     /* Check parameter CRC if self-test is enabled */
 971:Generated_Source\PSoC4/CapSense_1_Structure.c ****     #if (0u != CapSense_1_SELF_TEST_EN)
 972:Generated_Source\PSoC4/CapSense_1_Structure.c **** 
 973:Generated_Source\PSoC4/CapSense_1_Structure.c ****         /* Calculate CRC for bits 0..24.
 974:Generated_Source\PSoC4/CapSense_1_Structure.c ****          * The CRC is calculated using nibbles (4-bits).
 975:Generated_Source\PSoC4/CapSense_1_Structure.c ****          * So for 0..24 bits there are in total 6 nibbles. */
 976:Generated_Source\PSoC4/CapSense_1_Structure.c ****         for (i = 6u; i > 0u; i--)
 977:Generated_Source\PSoC4/CapSense_1_Structure.c ****         {
 978:Generated_Source\PSoC4/CapSense_1_Structure.c ****             crcIndex = actualCrc ^ (paramId & 0x0Fu);
 979:Generated_Source\PSoC4/CapSense_1_Structure.c ****             actualCrc = crcTable[crcIndex];
 980:Generated_Source\PSoC4/CapSense_1_Structure.c ****             paramId >>= 4u;
 981:Generated_Source\PSoC4/CapSense_1_Structure.c ****         }
 982:Generated_Source\PSoC4/CapSense_1_Structure.c **** 
 983:Generated_Source\PSoC4/CapSense_1_Structure.c ****         /* Add bits 28..32 */
 984:Generated_Source\PSoC4/CapSense_1_Structure.c ****         crcIndex = actualCrc ^ ((paramId >> 4u) & 0x0Fu);
 985:Generated_Source\PSoC4/CapSense_1_Structure.c ****         actualCrc = crcTable[crcIndex];
 986:Generated_Source\PSoC4/CapSense_1_Structure.c **** 
 987:Generated_Source\PSoC4/CapSense_1_Structure.c ****         /* Add bits 24..28 (CRC) */
 988:Generated_Source\PSoC4/CapSense_1_Structure.c ****         crcIndex = actualCrc ^ (paramId & 0x0Fu);
 989:Generated_Source\PSoC4/CapSense_1_Structure.c ****         actualCrc = crcTable[crcIndex];
 990:Generated_Source\PSoC4/CapSense_1_Structure.c **** 
 991:Generated_Source\PSoC4/CapSense_1_Structure.c ****         if (0u != actualCrc)
 992:Generated_Source\PSoC4/CapSense_1_Structure.c ****         {
 993:Generated_Source\PSoC4/CapSense_1_Structure.c ****             /* CRC mismatch */
 994:Generated_Source\PSoC4/CapSense_1_Structure.c ****             result = CYRET_BAD_PARAM;
 995:Generated_Source\PSoC4/CapSense_1_Structure.c ****         }
 996:Generated_Source\PSoC4/CapSense_1_Structure.c **** 
 997:Generated_Source\PSoC4/CapSense_1_Structure.c ****         if ((CYRET_SUCCESS == result) &&
 998:Generated_Source\PSoC4/CapSense_1_Structure.c ****             (0u != pData->affectsCrc) && (pData->widgetId >= CapSense_1_TOTAL_WIDGETS ))
 999:Generated_Source\PSoC4/CapSense_1_Structure.c ****         {
1000:Generated_Source\PSoC4/CapSense_1_Structure.c ****             /* Wrong widgetId for protected parameter */
1001:Generated_Source\PSoC4/CapSense_1_Structure.c ****             result = CYRET_BAD_PARAM;
1002:Generated_Source\PSoC4/CapSense_1_Structure.c ****         }
1003:Generated_Source\PSoC4/CapSense_1_Structure.c **** 
1004:Generated_Source\PSoC4/CapSense_1_Structure.c ****         /* Check offset value range */
1005:Generated_Source\PSoC4/CapSense_1_Structure.c ****         if (CYRET_SUCCESS == result)
1006:Generated_Source\PSoC4/CapSense_1_Structure.c ****         {
1007:Generated_Source\PSoC4/CapSense_1_Structure.c ****             if (0u == pData->flash)
1008:Generated_Source\PSoC4/CapSense_1_Structure.c ****             {
1009:Generated_Source\PSoC4/CapSense_1_Structure.c ****                 /* Check offset for RAM Data Structure range */
1010:Generated_Source\PSoC4/CapSense_1_Structure.c ****                 if (pData->offset >= sizeof(CapSense_1_dsRam))
1011:Generated_Source\PSoC4/CapSense_1_Structure.c ****                 {
1012:Generated_Source\PSoC4/CapSense_1_Structure.c ****                     result = CYRET_BAD_PARAM;
1013:Generated_Source\PSoC4/CapSense_1_Structure.c ****                 }
1014:Generated_Source\PSoC4/CapSense_1_Structure.c ****             }
1015:Generated_Source\PSoC4/CapSense_1_Structure.c ****             else
ARM GAS  C:\Users\exp32\AppData\Local\Temp\cc6N2LT5.s 			page 20


1016:Generated_Source\PSoC4/CapSense_1_Structure.c ****             {
1017:Generated_Source\PSoC4/CapSense_1_Structure.c ****                 /* Check offset for Flash Data Structure range */
1018:Generated_Source\PSoC4/CapSense_1_Structure.c ****                 if (pData->offset >= sizeof(CapSense_1_dsFlash))
1019:Generated_Source\PSoC4/CapSense_1_Structure.c ****                 {
1020:Generated_Source\PSoC4/CapSense_1_Structure.c ****                     result = CYRET_BAD_PARAM;
1021:Generated_Source\PSoC4/CapSense_1_Structure.c ****                 }
1022:Generated_Source\PSoC4/CapSense_1_Structure.c **** 
1023:Generated_Source\PSoC4/CapSense_1_Structure.c ****                 /* Check if it is marked as Read Only */
1024:Generated_Source\PSoC4/CapSense_1_Structure.c ****                 if (0u != pData->rw)
1025:Generated_Source\PSoC4/CapSense_1_Structure.c ****                 {
1026:Generated_Source\PSoC4/CapSense_1_Structure.c ****                     result = CYRET_BAD_PARAM;
1027:Generated_Source\PSoC4/CapSense_1_Structure.c ****                 }
1028:Generated_Source\PSoC4/CapSense_1_Structure.c ****             }
1029:Generated_Source\PSoC4/CapSense_1_Structure.c ****         }
1030:Generated_Source\PSoC4/CapSense_1_Structure.c ****     #else /* #if (0u != CapSense_1_SELF_TEST_EN) */
1031:Generated_Source\PSoC4/CapSense_1_Structure.c ****         /* Check offset value range */
1032:Generated_Source\PSoC4/CapSense_1_Structure.c ****         if (0u == pData->flash)
  69              		.loc 1 1032 0
  70 002e 002B     		cmp	r3, #0
  71 0030 05D1     		bne	.L2
1033:Generated_Source\PSoC4/CapSense_1_Structure.c ****         {
1034:Generated_Source\PSoC4/CapSense_1_Structure.c ****             /* Check offset for RAM Data Structure range */
1035:Generated_Source\PSoC4/CapSense_1_Structure.c ****             if (pData->offset >= sizeof(CapSense_1_dsRam))
  72              		.loc 1 1035 0
  73 0032 8423     		movs	r3, #132
  74 0034 FF33     		adds	r3, r3, #255
  75 0036 9D42     		cmp	r5, r3
  76 0038 0BD8     		bhi	.L9
 947:Generated_Source\PSoC4/CapSense_1_Structure.c **** 
  77              		.loc 1 947 0
  78 003a 0020     		movs	r0, #0
  79 003c 0CE0     		b	.L3
  80              	.L2:
1036:Generated_Source\PSoC4/CapSense_1_Structure.c ****             {
1037:Generated_Source\PSoC4/CapSense_1_Structure.c ****                 result = CYRET_BAD_PARAM;
1038:Generated_Source\PSoC4/CapSense_1_Structure.c ****             }
1039:Generated_Source\PSoC4/CapSense_1_Structure.c ****         }
1040:Generated_Source\PSoC4/CapSense_1_Structure.c ****         else
1041:Generated_Source\PSoC4/CapSense_1_Structure.c ****         {
1042:Generated_Source\PSoC4/CapSense_1_Structure.c ****             /* Check offset for Flash Data Structure range */
1043:Generated_Source\PSoC4/CapSense_1_Structure.c ****             if (pData->offset >= sizeof(CapSense_1_dsFlash))
  81              		.loc 1 1043 0
  82 003e 6C23     		movs	r3, #108
  83 0040 FF33     		adds	r3, r3, #255
  84 0042 9D42     		cmp	r5, r3
  85 0044 01D8     		bhi	.L10
 947:Generated_Source\PSoC4/CapSense_1_Structure.c **** 
  86              		.loc 1 947 0
  87 0046 0020     		movs	r0, #0
  88 0048 00E0     		b	.L4
  89              	.L10:
1044:Generated_Source\PSoC4/CapSense_1_Structure.c ****             {
1045:Generated_Source\PSoC4/CapSense_1_Structure.c ****                 result = CYRET_BAD_PARAM;
  90              		.loc 1 1045 0
  91 004a 0120     		movs	r0, #1
  92              	.L4:
  93              	.LVL3:
ARM GAS  C:\Users\exp32\AppData\Local\Temp\cc6N2LT5.s 			page 21


1046:Generated_Source\PSoC4/CapSense_1_Structure.c ****             }
1047:Generated_Source\PSoC4/CapSense_1_Structure.c **** 
1048:Generated_Source\PSoC4/CapSense_1_Structure.c ****             /* Check if it is marked as Read Only */
1049:Generated_Source\PSoC4/CapSense_1_Structure.c ****             if (0u != pData->rw)
  94              		.loc 1 1049 0
  95 004c 002A     		cmp	r2, #0
  96 004e 02D1     		bne	.L11
  97 0050 02E0     		b	.L3
  98              	.LVL4:
  99              	.L9:
1037:Generated_Source\PSoC4/CapSense_1_Structure.c ****             }
 100              		.loc 1 1037 0
 101 0052 0120     		movs	r0, #1
 102 0054 00E0     		b	.L3
 103              	.LVL5:
 104              	.L11:
1050:Generated_Source\PSoC4/CapSense_1_Structure.c ****             {
1051:Generated_Source\PSoC4/CapSense_1_Structure.c ****                 result = CYRET_BAD_PARAM;
 105              		.loc 1 1051 0
 106 0056 0120     		movs	r0, #1
 107              	.LVL6:
 108              	.L3:
1052:Generated_Source\PSoC4/CapSense_1_Structure.c ****             }
1053:Generated_Source\PSoC4/CapSense_1_Structure.c ****         }
1054:Generated_Source\PSoC4/CapSense_1_Structure.c ****     #endif /* #if (0u != CapSense_1_SELF_TEST_EN) */
1055:Generated_Source\PSoC4/CapSense_1_Structure.c **** 
1056:Generated_Source\PSoC4/CapSense_1_Structure.c ****     if (CYRET_SUCCESS == result)
 109              		.loc 1 1056 0
 110 0058 0028     		cmp	r0, #0
 111 005a 11D1     		bne	.L5
1057:Generated_Source\PSoC4/CapSense_1_Structure.c ****     {
1058:Generated_Source\PSoC4/CapSense_1_Structure.c ****         /* Check parameter type, offset alignment */
1059:Generated_Source\PSoC4/CapSense_1_Structure.c ****         switch (pData->type)
 112              		.loc 1 1059 0
 113 005c 022E     		cmp	r6, #2
 114 005e 04D0     		beq	.L6
 115 0060 032E     		cmp	r6, #3
 116 0062 05D0     		beq	.L7
 117 0064 012E     		cmp	r6, #1
 118 0066 06D1     		bne	.L15
 119 0068 0AE0     		b	.L5
 120              	.L6:
1060:Generated_Source\PSoC4/CapSense_1_Structure.c ****         {
1061:Generated_Source\PSoC4/CapSense_1_Structure.c ****         case DS_PARAM_TYPE_UINT16:
1062:Generated_Source\PSoC4/CapSense_1_Structure.c ****             if (0u != (pData->offset & UINT16_ALIGN_MASK))
 121              		.loc 1 1062 0
 122 006a EB07     		lsls	r3, r5, #31
 123 006c 05D4     		bmi	.L13
 124 006e 07E0     		b	.L5
 125              	.L7:
1063:Generated_Source\PSoC4/CapSense_1_Structure.c ****             {
1064:Generated_Source\PSoC4/CapSense_1_Structure.c ****                 result = CYRET_BAD_PARAM;
1065:Generated_Source\PSoC4/CapSense_1_Structure.c ****             }
1066:Generated_Source\PSoC4/CapSense_1_Structure.c ****             break;
1067:Generated_Source\PSoC4/CapSense_1_Structure.c **** 
1068:Generated_Source\PSoC4/CapSense_1_Structure.c ****         case DS_PARAM_TYPE_UINT32:
1069:Generated_Source\PSoC4/CapSense_1_Structure.c ****             if (0u != (pData->offset & UINT32_ALIGN_MASK))
ARM GAS  C:\Users\exp32\AppData\Local\Temp\cc6N2LT5.s 			page 22


 126              		.loc 1 1069 0
 127 0070 AB07     		lsls	r3, r5, #30
 128 0072 04D1     		bne	.L14
 129 0074 04E0     		b	.L5
 130              	.L15:
1070:Generated_Source\PSoC4/CapSense_1_Structure.c ****             {
1071:Generated_Source\PSoC4/CapSense_1_Structure.c ****                 result = CYRET_BAD_PARAM;
1072:Generated_Source\PSoC4/CapSense_1_Structure.c ****             }
1073:Generated_Source\PSoC4/CapSense_1_Structure.c ****             break;
1074:Generated_Source\PSoC4/CapSense_1_Structure.c **** 
1075:Generated_Source\PSoC4/CapSense_1_Structure.c ****         case DS_PARAM_TYPE_UINT8:
1076:Generated_Source\PSoC4/CapSense_1_Structure.c ****             break;
1077:Generated_Source\PSoC4/CapSense_1_Structure.c **** 
1078:Generated_Source\PSoC4/CapSense_1_Structure.c ****         default:
1079:Generated_Source\PSoC4/CapSense_1_Structure.c ****             result = CYRET_BAD_PARAM;
 131              		.loc 1 1079 0
 132 0076 0120     		movs	r0, #1
 133              	.LVL7:
 134 0078 02E0     		b	.L5
 135              	.LVL8:
 136              	.L13:
1064:Generated_Source\PSoC4/CapSense_1_Structure.c ****             }
 137              		.loc 1 1064 0
 138 007a 0120     		movs	r0, #1
 139              	.LVL9:
 140 007c 00E0     		b	.L5
 141              	.LVL10:
 142              	.L14:
1071:Generated_Source\PSoC4/CapSense_1_Structure.c ****             }
 143              		.loc 1 1071 0
 144 007e 0120     		movs	r0, #1
 145              	.LVL11:
 146              	.L5:
1080:Generated_Source\PSoC4/CapSense_1_Structure.c ****             break;
1081:Generated_Source\PSoC4/CapSense_1_Structure.c ****         }
1082:Generated_Source\PSoC4/CapSense_1_Structure.c ****     }
1083:Generated_Source\PSoC4/CapSense_1_Structure.c **** 
1084:Generated_Source\PSoC4/CapSense_1_Structure.c ****     return result;
1085:Generated_Source\PSoC4/CapSense_1_Structure.c **** }
 147              		.loc 1 1085 0
 148              		@ sp needed
 149 0080 70BD     		pop	{r4, r5, r6, pc}
 150              		.cfi_endproc
 151              	.LFE2:
 152              		.size	DsParseParamId, .-DsParseParamId
 153 0082 C046     		.section	.text.CapSense_1_DsInitialize,"ax",%progbits
 154              		.align	2
 155              		.global	CapSense_1_DsInitialize
 156              		.code	16
 157              		.thumb_func
 158              		.type	CapSense_1_DsInitialize, %function
 159              	CapSense_1_DsInitialize:
 160              	.LFB1:
 729:Generated_Source\PSoC4/CapSense_1_Structure.c ****     #if ((CapSense_1_ENABLE == CapSense_1_CSX_EN) || \
 161              		.loc 1 729 0
 162              		.cfi_startproc
 163              		@ args = 0, pretend = 0, frame = 0
ARM GAS  C:\Users\exp32\AppData\Local\Temp\cc6N2LT5.s 			page 23


 164              		@ frame_needed = 0, uses_anonymous_args = 0
 165 0000 70B5     		push	{r4, r5, r6, lr}
 166              		.cfi_def_cfa_offset 16
 167              		.cfi_offset 4, -16
 168              		.cfi_offset 5, -12
 169              		.cfi_offset 6, -8
 170              		.cfi_offset 14, -4
 171              	.LVL12:
 750:Generated_Source\PSoC4/CapSense_1_Structure.c **** 
 172              		.loc 1 750 0
 173 0002 1A4C     		ldr	r4, .L21
 174 0004 C222     		movs	r2, #194
 175 0006 5200     		lsls	r2, r2, #1
 176 0008 0021     		movs	r1, #0
 177 000a 2000     		movs	r0, r4
 178 000c FFF7FEFF 		bl	memset
 179              	.LVL13:
 753:Generated_Source\PSoC4/CapSense_1_Structure.c ****     CapSense_1_dsRam.deviceId = CapSense_1_DEVICE_ID;
 180              		.loc 1 753 0
 181 0010 174B     		ldr	r3, .L21+4
 182 0012 2380     		strh	r3, [r4]
 754:Generated_Source\PSoC4/CapSense_1_Structure.c ****     CapSense_1_dsRam.hwClock = CapSense_1_HW_CLOCK;
 183              		.loc 1 754 0
 184 0014 9023     		movs	r3, #144
 185 0016 1B01     		lsls	r3, r3, #4
 186 0018 6380     		strh	r3, [r4, #2]
 755:Generated_Source\PSoC4/CapSense_1_Structure.c **** 
 187              		.loc 1 755 0
 188 001a 164B     		ldr	r3, .L21+8
 189 001c A380     		strh	r3, [r4, #4]
 758:Generated_Source\PSoC4/CapSense_1_Structure.c **** 
 190              		.loc 1 758 0
 191 001e 0823     		movs	r3, #8
 192 0020 E384     		strh	r3, [r4, #38]
 760:Generated_Source\PSoC4/CapSense_1_Structure.c ****     #if (0u != CapSense_1_TOTAL_CSD_WIDGETS)
 193              		.loc 1 760 0
 194 0022 0322     		movs	r2, #3
 195 0024 8423     		movs	r3, #132
 196 0026 FF33     		adds	r3, r3, #255
 197 0028 E254     		strb	r2, [r4, r3]
 762:Generated_Source\PSoC4/CapSense_1_Structure.c ****         CapSense_1_dsRam.scanCsdISC = CapSense_1_CSD_INACTIVE_SNS_CONNECTION;
 198              		.loc 1 762 0
 199 002a 023A     		subs	r2, r2, #2
 200 002c 5C3B     		subs	r3, r3, #92
 201 002e FF3B     		subs	r3, r3, #255
 202 0030 E254     		strb	r2, [r4, r3]
 836:Generated_Source\PSoC4/CapSense_1_Structure.c **** 
 203              		.loc 1 836 0
 204 0032 2000     		movs	r0, r4
 205 0034 2A30     		adds	r0, r0, #42
 206 0036 9D32     		adds	r2, r2, #157
 207 0038 0F49     		ldr	r1, .L21+12
 208 003a FFF7FEFF 		bl	memcpy
 209              	.LVL14:
 746:Generated_Source\PSoC4/CapSense_1_Structure.c ****     #endif
 210              		.loc 1 746 0
 211 003e 0F49     		ldr	r1, .L21+16
ARM GAS  C:\Users\exp32\AppData\Local\Temp\cc6N2LT5.s 			page 24


 853:Generated_Source\PSoC4/CapSense_1_Structure.c **** 
 212              		.loc 1 853 0
 213 0040 0C00     		movs	r4, r1
 214 0042 1434     		adds	r4, r4, #20
 855:Generated_Source\PSoC4/CapSense_1_Structure.c ****         {
 215              		.loc 1 855 0
 216 0044 0723     		movs	r3, #7
 217 0046 0CE0     		b	.L17
 218              	.LVL15:
 219              	.L20:
 857:Generated_Source\PSoC4/CapSense_1_Structure.c **** 
 220              		.loc 1 857 0
 221 0048 A268     		ldr	r2, [r4, #8]
 222              	.LVL16:
 859:Generated_Source\PSoC4/CapSense_1_Structure.c ****             {
 223              		.loc 1 859 0
 224 004a 238B     		ldrh	r3, [r4, #24]
 225              	.LVL17:
 226 004c 04E0     		b	.L18
 227              	.LVL18:
 228              	.L19:
 861:Generated_Source\PSoC4/CapSense_1_Structure.c ****                 ptrIdacInit++;
 229              		.loc 1 861 0
 230 004e 0B78     		ldrb	r3, [r1]
 231 0050 5372     		strb	r3, [r2, #9]
 862:Generated_Source\PSoC4/CapSense_1_Structure.c **** 
 232              		.loc 1 862 0
 233 0052 0131     		adds	r1, r1, #1
 234              	.LVL19:
 872:Generated_Source\PSoC4/CapSense_1_Structure.c ****             }
 235              		.loc 1 872 0
 236 0054 0A32     		adds	r2, r2, #10
 237              	.LVL20:
 859:Generated_Source\PSoC4/CapSense_1_Structure.c ****             {
 238              		.loc 1 859 0
 239 0056 0300     		movs	r3, r0
 240              	.LVL21:
 241              	.L18:
 859:Generated_Source\PSoC4/CapSense_1_Structure.c ****             {
 242              		.loc 1 859 0 is_stmt 0 discriminator 1
 243 0058 581E     		subs	r0, r3, #1
 244              	.LVL22:
 245 005a 002B     		cmp	r3, #0
 246 005c F7D1     		bne	.L19
 875:Generated_Source\PSoC4/CapSense_1_Structure.c ****         }
 247              		.loc 1 875 0 is_stmt 1
 248 005e 3434     		adds	r4, r4, #52
 249              	.LVL23:
 855:Generated_Source\PSoC4/CapSense_1_Structure.c ****         {
 250              		.loc 1 855 0
 251 0060 2B00     		movs	r3, r5
 252              	.LVL24:
 253              	.L17:
 855:Generated_Source\PSoC4/CapSense_1_Structure.c ****         {
 254              		.loc 1 855 0 is_stmt 0 discriminator 1
 255 0062 5D1E     		subs	r5, r3, #1
 256              	.LVL25:
ARM GAS  C:\Users\exp32\AppData\Local\Temp\cc6N2LT5.s 			page 25


 257 0064 002B     		cmp	r3, #0
 258 0066 EFD1     		bne	.L20
 906:Generated_Source\PSoC4/CapSense_1_Structure.c **** 
 259              		.loc 1 906 0 is_stmt 1
 260              		@ sp needed
 261              	.LVL26:
 262              	.LVL27:
 263 0068 70BD     		pop	{r4, r5, r6, pc}
 264              	.L22:
 265 006a C046     		.align	2
 266              	.L21:
 267 006c 00000000 		.word	CapSense_1_dsRam
 268 0070 E48EFFFF 		.word	-28956
 269 0074 B80B0000 		.word	3000
 270 0078 80010000 		.word	.LANCHOR1
 271 007c 00000000 		.word	.LANCHOR0
 272              		.cfi_endproc
 273              	.LFE1:
 274              		.size	CapSense_1_DsInitialize, .-CapSense_1_DsInitialize
 275              		.section	.text.CapSense_1_GetParam,"ax",%progbits
 276              		.align	2
 277              		.global	CapSense_1_GetParam
 278              		.code	16
 279              		.thumb_func
 280              		.type	CapSense_1_GetParam, %function
 281              	CapSense_1_GetParam:
 282              	.LFB3:
1086:Generated_Source\PSoC4/CapSense_1_Structure.c **** 
1087:Generated_Source\PSoC4/CapSense_1_Structure.c **** /*******************************************************************************
1088:Generated_Source\PSoC4/CapSense_1_Structure.c **** * Function Name: CapSense_1_GetParam
1089:Generated_Source\PSoC4/CapSense_1_Structure.c **** ****************************************************************************//**
1090:Generated_Source\PSoC4/CapSense_1_Structure.c **** *
1091:Generated_Source\PSoC4/CapSense_1_Structure.c **** * \brief
1092:Generated_Source\PSoC4/CapSense_1_Structure.c **** *  Gets the specified parameter value from the \ref group_structures.
1093:Generated_Source\PSoC4/CapSense_1_Structure.c **** *
1094:Generated_Source\PSoC4/CapSense_1_Structure.c **** * \details
1095:Generated_Source\PSoC4/CapSense_1_Structure.c **** *  This function gets the value of the specified parameter by the paramId
1096:Generated_Source\PSoC4/CapSense_1_Structure.c **** *  argument. The paramId for each register is available in the
1097:Generated_Source\PSoC4/CapSense_1_Structure.c **** *  CapSense_1 RegisterMap header file as
1098:Generated_Source\PSoC4/CapSense_1_Structure.c **** *  CapSense_1_<ParameterName>_PARAM_ID. The paramId is a special
1099:Generated_Source\PSoC4/CapSense_1_Structure.c **** *  enumerated value generated by the customizer. The format of paramId is as
1100:Generated_Source\PSoC4/CapSense_1_Structure.c **** *  follows:
1101:Generated_Source\PSoC4/CapSense_1_Structure.c **** *    1. [ byte 3 byte 2 byte 1 byte 0 ]
1102:Generated_Source\PSoC4/CapSense_1_Structure.c **** *    2. [ TTWFCCCC UIIIIIII MMMMMMMM LLLLLLLL ]
1103:Generated_Source\PSoC4/CapSense_1_Structure.c **** *    3. T - encodes the parameter type:
1104:Generated_Source\PSoC4/CapSense_1_Structure.c **** *      - 01b: uint8
1105:Generated_Source\PSoC4/CapSense_1_Structure.c **** *      - 10b: uint16
1106:Generated_Source\PSoC4/CapSense_1_Structure.c **** *      - 11b: uint32
1107:Generated_Source\PSoC4/CapSense_1_Structure.c **** *    4. W - indicates whether the parameter is writable:
1108:Generated_Source\PSoC4/CapSense_1_Structure.c **** *      - 0: ReadOnly
1109:Generated_Source\PSoC4/CapSense_1_Structure.c **** *      - 1: Read/Write
1110:Generated_Source\PSoC4/CapSense_1_Structure.c **** *    5. C - 4 bit CRC (X^3 + 1) of the whole paramId word, the C bits are
1111:Generated_Source\PSoC4/CapSense_1_Structure.c **** *       filled with 0s when the CRC is calculated.
1112:Generated_Source\PSoC4/CapSense_1_Structure.c **** *    6. U - indicates if the parameter affects the RAM Widget Object CRC.
1113:Generated_Source\PSoC4/CapSense_1_Structure.c **** *    7. I - specifies that the widgetId parameter belongs to
1114:Generated_Source\PSoC4/CapSense_1_Structure.c **** *    8. M,L - the parameter offset MSB and LSB accordingly in:
1115:Generated_Source\PSoC4/CapSense_1_Structure.c **** *      - Flash Data Structure if W bit is 0.
ARM GAS  C:\Users\exp32\AppData\Local\Temp\cc6N2LT5.s 			page 26


1116:Generated_Source\PSoC4/CapSense_1_Structure.c **** *      - RAM Data Structure if W bit is 1.
1117:Generated_Source\PSoC4/CapSense_1_Structure.c **** *
1118:Generated_Source\PSoC4/CapSense_1_Structure.c **** *  Refer to the \ref group_structures section for details of the data structure
1119:Generated_Source\PSoC4/CapSense_1_Structure.c **** *  organization and examples of its register access.
1120:Generated_Source\PSoC4/CapSense_1_Structure.c **** *
1121:Generated_Source\PSoC4/CapSense_1_Structure.c **** * \param paramId
1122:Generated_Source\PSoC4/CapSense_1_Structure.c **** *  Specifies the ID of parameter to get its value.
1123:Generated_Source\PSoC4/CapSense_1_Structure.c **** *  A macro for the parameter ID can be found in the CapSense_1 RegisterMap header
1124:Generated_Source\PSoC4/CapSense_1_Structure.c **** *  file defined as CapSense_1_<ParameterName>_PARAM_ID.
1125:Generated_Source\PSoC4/CapSense_1_Structure.c **** *
1126:Generated_Source\PSoC4/CapSense_1_Structure.c **** * \param value
1127:Generated_Source\PSoC4/CapSense_1_Structure.c **** *  The pointer to a variable to be updated with the obtained value.
1128:Generated_Source\PSoC4/CapSense_1_Structure.c **** *
1129:Generated_Source\PSoC4/CapSense_1_Structure.c **** * \return
1130:Generated_Source\PSoC4/CapSense_1_Structure.c **** *  Returns the status of the operation:
1131:Generated_Source\PSoC4/CapSense_1_Structure.c **** *    - CYRET_SUCCESS - The operation is successfully completed.
1132:Generated_Source\PSoC4/CapSense_1_Structure.c **** *    - CYRET_BAD_PARAM - The input parameter is invalid.
1133:Generated_Source\PSoC4/CapSense_1_Structure.c **** *
1134:Generated_Source\PSoC4/CapSense_1_Structure.c **** *******************************************************************************/
1135:Generated_Source\PSoC4/CapSense_1_Structure.c **** cystatus CapSense_1_GetParam(uint32 paramId, uint32 *value)
1136:Generated_Source\PSoC4/CapSense_1_Structure.c **** {
 283              		.loc 1 1136 0
 284              		.cfi_startproc
 285              		@ args = 0, pretend = 0, frame = 8
 286              		@ frame_needed = 0, uses_anonymous_args = 0
 287              	.LVL28:
 288 0000 30B5     		push	{r4, r5, lr}
 289              		.cfi_def_cfa_offset 12
 290              		.cfi_offset 4, -12
 291              		.cfi_offset 5, -8
 292              		.cfi_offset 14, -4
 293 0002 83B0     		sub	sp, sp, #12
 294              		.cfi_def_cfa_offset 24
 295 0004 0D00     		movs	r5, r1
1137:Generated_Source\PSoC4/CapSense_1_Structure.c ****     PARAM_ID_STRUCT pData;
1138:Generated_Source\PSoC4/CapSense_1_Structure.c ****     cystatus result;
1139:Generated_Source\PSoC4/CapSense_1_Structure.c **** 
1140:Generated_Source\PSoC4/CapSense_1_Structure.c ****     union
1141:Generated_Source\PSoC4/CapSense_1_Structure.c ****     {
1142:Generated_Source\PSoC4/CapSense_1_Structure.c ****         volatile void   const * ptr;
1143:Generated_Source\PSoC4/CapSense_1_Structure.c ****         volatile uint8  const * ptrUint8;
1144:Generated_Source\PSoC4/CapSense_1_Structure.c ****         volatile uint16 const * ptrUint16;
1145:Generated_Source\PSoC4/CapSense_1_Structure.c ****         volatile uint32 const * ptrUint32;
1146:Generated_Source\PSoC4/CapSense_1_Structure.c ****     } ptrData;
1147:Generated_Source\PSoC4/CapSense_1_Structure.c **** 
1148:Generated_Source\PSoC4/CapSense_1_Structure.c ****     result = DsParseParamId(paramId, &pData);
 296              		.loc 1 1148 0
 297 0006 6946     		mov	r1, sp
 298              	.LVL29:
 299 0008 FFF7FEFF 		bl	DsParseParamId
 300              	.LVL30:
 301 000c 041E     		subs	r4, r0, #0
 302              	.LVL31:
1149:Generated_Source\PSoC4/CapSense_1_Structure.c **** 
1150:Generated_Source\PSoC4/CapSense_1_Structure.c ****     /* Parse and validate paramId */
1151:Generated_Source\PSoC4/CapSense_1_Structure.c ****     if (CYRET_SUCCESS == result)
 303              		.loc 1 1151 0
ARM GAS  C:\Users\exp32\AppData\Local\Temp\cc6N2LT5.s 			page 27


 304 000e 1FD1     		bne	.L24
1152:Generated_Source\PSoC4/CapSense_1_Structure.c ****     {
1153:Generated_Source\PSoC4/CapSense_1_Structure.c ****         /* Get base address of parameter */
1154:Generated_Source\PSoC4/CapSense_1_Structure.c ****         if (0u == pData.flash)
 305              		.loc 1 1154 0
 306 0010 6B46     		mov	r3, sp
 307 0012 5B79     		ldrb	r3, [r3, #5]
 308 0014 002B     		cmp	r3, #0
 309 0016 01D1     		bne	.L25
1155:Generated_Source\PSoC4/CapSense_1_Structure.c ****         {
1156:Generated_Source\PSoC4/CapSense_1_Structure.c ****             ptrData.ptr = &CapSense_1_dsRam;
 310              		.loc 1 1156 0
 311 0018 0F4A     		ldr	r2, .L30
 312              	.LVL32:
 313 001a 02E0     		b	.L26
 314              	.L25:
1157:Generated_Source\PSoC4/CapSense_1_Structure.c ****         }
1158:Generated_Source\PSoC4/CapSense_1_Structure.c ****         else
1159:Generated_Source\PSoC4/CapSense_1_Structure.c ****         {
1160:Generated_Source\PSoC4/CapSense_1_Structure.c ****             ptrData.ptr = &CapSense_1_dsFlash;
 315              		.loc 1 1160 0
 316 001c 0F4B     		ldr	r3, .L30+4
 317 001e 1433     		adds	r3, r3, #20
 318 0020 1A00     		movs	r2, r3
 319              	.L26:
1161:Generated_Source\PSoC4/CapSense_1_Structure.c ****         }
1162:Generated_Source\PSoC4/CapSense_1_Structure.c **** 
1163:Generated_Source\PSoC4/CapSense_1_Structure.c ****         /* Add offset to base address */
1164:Generated_Source\PSoC4/CapSense_1_Structure.c ****         ptrData.ptrUint8 += pData.offset;
 320              		.loc 1 1164 0
 321 0022 6B46     		mov	r3, sp
 322 0024 1B88     		ldrh	r3, [r3]
 323              	.LVL33:
 324 0026 D318     		adds	r3, r2, r3
1165:Generated_Source\PSoC4/CapSense_1_Structure.c **** 
1166:Generated_Source\PSoC4/CapSense_1_Structure.c ****         /* Read data */
1167:Generated_Source\PSoC4/CapSense_1_Structure.c ****         if (DS_PARAM_TYPE_UINT8 == pData.type)
 325              		.loc 1 1167 0
 326 0028 6A46     		mov	r2, sp
 327              	.LVL34:
 328 002a D279     		ldrb	r2, [r2, #7]
 329 002c 012A     		cmp	r2, #1
 330 002e 02D1     		bne	.L27
1168:Generated_Source\PSoC4/CapSense_1_Structure.c ****         {
1169:Generated_Source\PSoC4/CapSense_1_Structure.c ****             *value = (uint32) (*ptrData.ptrUint8);
 331              		.loc 1 1169 0
 332 0030 1B78     		ldrb	r3, [r3]
 333 0032 2B60     		str	r3, [r5]
 334 0034 0CE0     		b	.L24
 335              	.L27:
1170:Generated_Source\PSoC4/CapSense_1_Structure.c ****         }
1171:Generated_Source\PSoC4/CapSense_1_Structure.c ****         else if (DS_PARAM_TYPE_UINT16 == pData.type)
 336              		.loc 1 1171 0
 337 0036 022A     		cmp	r2, #2
 338 0038 02D1     		bne	.L28
1172:Generated_Source\PSoC4/CapSense_1_Structure.c ****         {
1173:Generated_Source\PSoC4/CapSense_1_Structure.c ****             *value = (uint32) (*ptrData.ptrUint16);
ARM GAS  C:\Users\exp32\AppData\Local\Temp\cc6N2LT5.s 			page 28


 339              		.loc 1 1173 0
 340 003a 1B88     		ldrh	r3, [r3]
 341 003c 2B60     		str	r3, [r5]
 342 003e 07E0     		b	.L24
 343              	.L28:
1174:Generated_Source\PSoC4/CapSense_1_Structure.c ****         }
1175:Generated_Source\PSoC4/CapSense_1_Structure.c ****         else if (DS_PARAM_TYPE_UINT32 == pData.type)
 344              		.loc 1 1175 0
 345 0040 032A     		cmp	r2, #3
 346 0042 02D1     		bne	.L29
1176:Generated_Source\PSoC4/CapSense_1_Structure.c ****         {
1177:Generated_Source\PSoC4/CapSense_1_Structure.c ****             *value = *ptrData.ptrUint32;
 347              		.loc 1 1177 0
 348 0044 1B68     		ldr	r3, [r3]
 349 0046 2B60     		str	r3, [r5]
 350 0048 02E0     		b	.L24
 351              	.L29:
1178:Generated_Source\PSoC4/CapSense_1_Structure.c ****         }
1179:Generated_Source\PSoC4/CapSense_1_Structure.c ****         else
1180:Generated_Source\PSoC4/CapSense_1_Structure.c ****         {
1181:Generated_Source\PSoC4/CapSense_1_Structure.c ****             /* Parameter comes here already validated. */
1182:Generated_Source\PSoC4/CapSense_1_Structure.c ****             CYASSERT(0u);
 352              		.loc 1 1182 0 discriminator 1
 353 004a 0020     		movs	r0, #0
 354              	.LVL35:
 355 004c FFF7FEFF 		bl	CyHalt
 356              	.LVL36:
 357              	.L24:
1183:Generated_Source\PSoC4/CapSense_1_Structure.c ****         }
1184:Generated_Source\PSoC4/CapSense_1_Structure.c ****     }
1185:Generated_Source\PSoC4/CapSense_1_Structure.c **** 
1186:Generated_Source\PSoC4/CapSense_1_Structure.c ****     return result;
1187:Generated_Source\PSoC4/CapSense_1_Structure.c **** }
 358              		.loc 1 1187 0
 359 0050 2000     		movs	r0, r4
 360 0052 03B0     		add	sp, sp, #12
 361              		@ sp needed
 362              	.LVL37:
 363              	.LVL38:
 364 0054 30BD     		pop	{r4, r5, pc}
 365              	.L31:
 366 0056 C046     		.align	2
 367              	.L30:
 368 0058 00000000 		.word	CapSense_1_dsRam
 369 005c 00000000 		.word	.LANCHOR0
 370              		.cfi_endproc
 371              	.LFE3:
 372              		.size	CapSense_1_GetParam, .-CapSense_1_GetParam
 373              		.section	.text.CapSense_1_SetParam,"ax",%progbits
 374              		.align	2
 375              		.global	CapSense_1_SetParam
 376              		.code	16
 377              		.thumb_func
 378              		.type	CapSense_1_SetParam, %function
 379              	CapSense_1_SetParam:
 380              	.LFB4:
1188:Generated_Source\PSoC4/CapSense_1_Structure.c **** 
ARM GAS  C:\Users\exp32\AppData\Local\Temp\cc6N2LT5.s 			page 29


1189:Generated_Source\PSoC4/CapSense_1_Structure.c **** 
1190:Generated_Source\PSoC4/CapSense_1_Structure.c **** /*******************************************************************************
1191:Generated_Source\PSoC4/CapSense_1_Structure.c **** * Function Name: CapSense_1_SetParam
1192:Generated_Source\PSoC4/CapSense_1_Structure.c **** ****************************************************************************//**
1193:Generated_Source\PSoC4/CapSense_1_Structure.c **** *
1194:Generated_Source\PSoC4/CapSense_1_Structure.c **** * \brief
1195:Generated_Source\PSoC4/CapSense_1_Structure.c **** *  Sets a new value for the specified parameter in the \ref group_structures.
1196:Generated_Source\PSoC4/CapSense_1_Structure.c **** *
1197:Generated_Source\PSoC4/CapSense_1_Structure.c **** * \details
1198:Generated_Source\PSoC4/CapSense_1_Structure.c **** *  This function sets the value of the specified parameter by the paramId
1199:Generated_Source\PSoC4/CapSense_1_Structure.c **** *  argument. The paramId for each register is available in the
1200:Generated_Source\PSoC4/CapSense_1_Structure.c **** *  CapSense_1 RegisterMap header file as
1201:Generated_Source\PSoC4/CapSense_1_Structure.c **** *  CapSense_1_<ParameterName>_PARAM_ID. The paramId is a special
1202:Generated_Source\PSoC4/CapSense_1_Structure.c **** *  enumerated value generated by the customizer. The format of paramId is as
1203:Generated_Source\PSoC4/CapSense_1_Structure.c **** *  follows:
1204:Generated_Source\PSoC4/CapSense_1_Structure.c **** *    1. [ byte 3 byte 2 byte 1 byte 0 ]
1205:Generated_Source\PSoC4/CapSense_1_Structure.c **** *    2. [ TTWFCCCC UIIIIIII MMMMMMMM LLLLLLLL ]
1206:Generated_Source\PSoC4/CapSense_1_Structure.c **** *    3. T - encodes the parameter type:
1207:Generated_Source\PSoC4/CapSense_1_Structure.c **** *      - 01b: uint8
1208:Generated_Source\PSoC4/CapSense_1_Structure.c **** *      - 10b: uint16
1209:Generated_Source\PSoC4/CapSense_1_Structure.c **** *      - 11b: uint32
1210:Generated_Source\PSoC4/CapSense_1_Structure.c **** *    4. W - indicates whether the parameter is writable:
1211:Generated_Source\PSoC4/CapSense_1_Structure.c **** *      - 0: ReadOnly
1212:Generated_Source\PSoC4/CapSense_1_Structure.c **** *      - 1: Read/Write
1213:Generated_Source\PSoC4/CapSense_1_Structure.c **** *    5. C - 4 bit CRC (X^3 + 1) of the whole paramId word, the C bits are
1214:Generated_Source\PSoC4/CapSense_1_Structure.c **** *       filled with 0s when the CRC is calculated.
1215:Generated_Source\PSoC4/CapSense_1_Structure.c **** *    6. U - indicates if the parameter affects the RAM Widget Object CRC.
1216:Generated_Source\PSoC4/CapSense_1_Structure.c **** *    7. I - specifies that the widgetId parameter belongs to
1217:Generated_Source\PSoC4/CapSense_1_Structure.c **** *    8. M,L - the parameter offset MSB and LSB accordingly in:
1218:Generated_Source\PSoC4/CapSense_1_Structure.c **** *      - Flash Data Structure if W bit is 0.
1219:Generated_Source\PSoC4/CapSense_1_Structure.c **** *      - RAM Data Structure if W bit is 1.
1220:Generated_Source\PSoC4/CapSense_1_Structure.c **** *
1221:Generated_Source\PSoC4/CapSense_1_Structure.c **** *  Refer to the \ref group_structures section for details of the data structure
1222:Generated_Source\PSoC4/CapSense_1_Structure.c **** *  organization and examples of its register access.
1223:Generated_Source\PSoC4/CapSense_1_Structure.c **** *
1224:Generated_Source\PSoC4/CapSense_1_Structure.c **** *  This function writes specified value into the desired register without
1225:Generated_Source\PSoC4/CapSense_1_Structure.c **** *  other registers update. It is application layer responsibility to keep all
1226:Generated_Source\PSoC4/CapSense_1_Structure.c **** *  the data structure registers aligned. Repeated call of
1227:Generated_Source\PSoC4/CapSense_1_Structure.c **** *  CapSense_1_Start() function helps aligning dependent register values.
1228:Generated_Source\PSoC4/CapSense_1_Structure.c **** *
1229:Generated_Source\PSoC4/CapSense_1_Structure.c **** * \param paramId
1230:Generated_Source\PSoC4/CapSense_1_Structure.c **** *  Specifies the ID of parameter to set its value.
1231:Generated_Source\PSoC4/CapSense_1_Structure.c **** *  A macro for the parameter ID can be found in the CapSense_1 RegisterMap header
1232:Generated_Source\PSoC4/CapSense_1_Structure.c **** *  file defined as CapSense_1_<ParameterName>_PARAM_ID.
1233:Generated_Source\PSoC4/CapSense_1_Structure.c **** 
1234:Generated_Source\PSoC4/CapSense_1_Structure.c **** * \param value
1235:Generated_Source\PSoC4/CapSense_1_Structure.c **** *  Specifies the new parameter's value.
1236:Generated_Source\PSoC4/CapSense_1_Structure.c **** *
1237:Generated_Source\PSoC4/CapSense_1_Structure.c **** * \return
1238:Generated_Source\PSoC4/CapSense_1_Structure.c **** *  Returns the status of the operation:
1239:Generated_Source\PSoC4/CapSense_1_Structure.c **** *    - CYRET_SUCCESS - The operation is successfully completed.
1240:Generated_Source\PSoC4/CapSense_1_Structure.c **** *    - CYRET_BAD_PARAM - The input parameter is invalid.
1241:Generated_Source\PSoC4/CapSense_1_Structure.c **** *
1242:Generated_Source\PSoC4/CapSense_1_Structure.c **** *******************************************************************************/
1243:Generated_Source\PSoC4/CapSense_1_Structure.c **** cystatus CapSense_1_SetParam(uint32 paramId, uint32 value)
1244:Generated_Source\PSoC4/CapSense_1_Structure.c **** {
 381              		.loc 1 1244 0
ARM GAS  C:\Users\exp32\AppData\Local\Temp\cc6N2LT5.s 			page 30


 382              		.cfi_startproc
 383              		@ args = 0, pretend = 0, frame = 8
 384              		@ frame_needed = 0, uses_anonymous_args = 0
 385              	.LVL39:
 386 0000 30B5     		push	{r4, r5, lr}
 387              		.cfi_def_cfa_offset 12
 388              		.cfi_offset 4, -12
 389              		.cfi_offset 5, -8
 390              		.cfi_offset 14, -4
 391 0002 83B0     		sub	sp, sp, #12
 392              		.cfi_def_cfa_offset 24
 393 0004 0D00     		movs	r5, r1
1245:Generated_Source\PSoC4/CapSense_1_Structure.c ****     cystatus result;
1246:Generated_Source\PSoC4/CapSense_1_Structure.c ****     PARAM_ID_STRUCT pData;
1247:Generated_Source\PSoC4/CapSense_1_Structure.c **** 
1248:Generated_Source\PSoC4/CapSense_1_Structure.c ****     union
1249:Generated_Source\PSoC4/CapSense_1_Structure.c ****     {
1250:Generated_Source\PSoC4/CapSense_1_Structure.c ****         volatile void   * ptr;
1251:Generated_Source\PSoC4/CapSense_1_Structure.c ****         volatile uint8  * ptrUint8;
1252:Generated_Source\PSoC4/CapSense_1_Structure.c ****         volatile uint16 * ptrUint16;
1253:Generated_Source\PSoC4/CapSense_1_Structure.c ****         volatile uint32 * ptrUint32;
1254:Generated_Source\PSoC4/CapSense_1_Structure.c ****     } ptrData;
1255:Generated_Source\PSoC4/CapSense_1_Structure.c **** 
1256:Generated_Source\PSoC4/CapSense_1_Structure.c ****     result = DsParseParamId(paramId, &pData);
 394              		.loc 1 1256 0
 395 0006 6946     		mov	r1, sp
 396              	.LVL40:
 397 0008 FFF7FEFF 		bl	DsParseParamId
 398              	.LVL41:
 399 000c 041E     		subs	r4, r0, #0
 400              	.LVL42:
1257:Generated_Source\PSoC4/CapSense_1_Structure.c **** 
1258:Generated_Source\PSoC4/CapSense_1_Structure.c ****     /* verify if parameter is writable */
1259:Generated_Source\PSoC4/CapSense_1_Structure.c ****     if (CYRET_SUCCESS == result)
 401              		.loc 1 1259 0
 402 000e 04D1     		bne	.L33
1260:Generated_Source\PSoC4/CapSense_1_Structure.c ****     {
1261:Generated_Source\PSoC4/CapSense_1_Structure.c ****         if (0u == pData.rw)
 403              		.loc 1 1261 0
 404 0010 6B46     		mov	r3, sp
 405 0012 9B79     		ldrb	r3, [r3, #6]
 406 0014 002B     		cmp	r3, #0
 407 0016 00D1     		bne	.L33
1262:Generated_Source\PSoC4/CapSense_1_Structure.c ****         {
1263:Generated_Source\PSoC4/CapSense_1_Structure.c ****             result = CYRET_BAD_PARAM;
 408              		.loc 1 1263 0
 409 0018 0134     		adds	r4, r4, #1
 410              	.L33:
 411              	.LVL43:
1264:Generated_Source\PSoC4/CapSense_1_Structure.c ****         }
1265:Generated_Source\PSoC4/CapSense_1_Structure.c ****     }
1266:Generated_Source\PSoC4/CapSense_1_Structure.c **** 
1267:Generated_Source\PSoC4/CapSense_1_Structure.c ****     /* Parse and validate paramId */
1268:Generated_Source\PSoC4/CapSense_1_Structure.c ****     if (CYRET_SUCCESS == result)
 412              		.loc 1 1268 0
 413 001a 002C     		cmp	r4, #0
 414 001c 16D1     		bne	.L34
ARM GAS  C:\Users\exp32\AppData\Local\Temp\cc6N2LT5.s 			page 31


1269:Generated_Source\PSoC4/CapSense_1_Structure.c ****     {
1270:Generated_Source\PSoC4/CapSense_1_Structure.c ****         /* Get base address of parameter */
1271:Generated_Source\PSoC4/CapSense_1_Structure.c ****         ptrData.ptr = &CapSense_1_dsRam;
1272:Generated_Source\PSoC4/CapSense_1_Structure.c **** 
1273:Generated_Source\PSoC4/CapSense_1_Structure.c ****         /* Add offset to base address */
1274:Generated_Source\PSoC4/CapSense_1_Structure.c ****         ptrData.ptrUint8 += pData.offset;
 415              		.loc 1 1274 0
 416 001e 6B46     		mov	r3, sp
 417 0020 1A88     		ldrh	r2, [r3]
 418 0022 0C4B     		ldr	r3, .L39
 419 0024 D318     		adds	r3, r2, r3
1275:Generated_Source\PSoC4/CapSense_1_Structure.c **** 
1276:Generated_Source\PSoC4/CapSense_1_Structure.c ****         /* Write data */
1277:Generated_Source\PSoC4/CapSense_1_Structure.c ****         if (DS_PARAM_TYPE_UINT8 == pData.type)
 420              		.loc 1 1277 0
 421 0026 6A46     		mov	r2, sp
 422 0028 D279     		ldrb	r2, [r2, #7]
 423 002a 012A     		cmp	r2, #1
 424 002c 02D1     		bne	.L35
1278:Generated_Source\PSoC4/CapSense_1_Structure.c ****         {
1279:Generated_Source\PSoC4/CapSense_1_Structure.c ****             *ptrData.ptrUint8 = LO8(value);
 425              		.loc 1 1279 0
 426 002e EDB2     		uxtb	r5, r5
 427              	.LVL44:
 428 0030 1D70     		strb	r5, [r3]
 429 0032 0BE0     		b	.L34
 430              	.LVL45:
 431              	.L35:
1280:Generated_Source\PSoC4/CapSense_1_Structure.c ****         }
1281:Generated_Source\PSoC4/CapSense_1_Structure.c ****         else if (DS_PARAM_TYPE_UINT16 == pData.type)
 432              		.loc 1 1281 0
 433 0034 022A     		cmp	r2, #2
 434 0036 02D1     		bne	.L36
1282:Generated_Source\PSoC4/CapSense_1_Structure.c ****         {
1283:Generated_Source\PSoC4/CapSense_1_Structure.c ****             *ptrData.ptrUint16 = LO16(value);
 435              		.loc 1 1283 0
 436 0038 ADB2     		uxth	r5, r5
 437              	.LVL46:
 438 003a 1D80     		strh	r5, [r3]
 439 003c 06E0     		b	.L34
 440              	.LVL47:
 441              	.L36:
1284:Generated_Source\PSoC4/CapSense_1_Structure.c ****         }
1285:Generated_Source\PSoC4/CapSense_1_Structure.c ****         else if (DS_PARAM_TYPE_UINT32 == pData.type)
 442              		.loc 1 1285 0
 443 003e 032A     		cmp	r2, #3
 444 0040 01D1     		bne	.L37
1286:Generated_Source\PSoC4/CapSense_1_Structure.c ****         {
1287:Generated_Source\PSoC4/CapSense_1_Structure.c ****             *ptrData.ptrUint32 = value;
 445              		.loc 1 1287 0
 446 0042 1D60     		str	r5, [r3]
 447 0044 02E0     		b	.L34
 448              	.L37:
1288:Generated_Source\PSoC4/CapSense_1_Structure.c ****         }
1289:Generated_Source\PSoC4/CapSense_1_Structure.c ****         else
1290:Generated_Source\PSoC4/CapSense_1_Structure.c ****         {
1291:Generated_Source\PSoC4/CapSense_1_Structure.c ****             /* Parameter comes here already validated. */
ARM GAS  C:\Users\exp32\AppData\Local\Temp\cc6N2LT5.s 			page 32


1292:Generated_Source\PSoC4/CapSense_1_Structure.c ****             CYASSERT(0u);
 449              		.loc 1 1292 0 discriminator 1
 450 0046 0020     		movs	r0, #0
 451 0048 FFF7FEFF 		bl	CyHalt
 452              	.LVL48:
 453              	.L34:
1293:Generated_Source\PSoC4/CapSense_1_Structure.c ****         }
1294:Generated_Source\PSoC4/CapSense_1_Structure.c **** 
1295:Generated_Source\PSoC4/CapSense_1_Structure.c ****         #if (CapSense_1_ENABLE == (CapSense_1_TST_WDGT_CRC_EN || CapSense_1_TST_GLOBAL_CRC_EN))
1296:Generated_Source\PSoC4/CapSense_1_Structure.c ****             /* Update widget or global CRC if self-test is enabled and parameter affects it */
1297:Generated_Source\PSoC4/CapSense_1_Structure.c ****             if (0u != pData.affectsCrc)
1298:Generated_Source\PSoC4/CapSense_1_Structure.c ****             {
1299:Generated_Source\PSoC4/CapSense_1_Structure.c ****                 if ((ptrData.ptrUint16 >= &CapSense_1_dsRam.csd0Config) &&
1300:Generated_Source\PSoC4/CapSense_1_Structure.c ****                     (ptrData.ptrUint16 <  &CapSense_1_dsRam.glbCrc))
1301:Generated_Source\PSoC4/CapSense_1_Structure.c ****                 {
1302:Generated_Source\PSoC4/CapSense_1_Structure.c **** 
1303:Generated_Source\PSoC4/CapSense_1_Structure.c ****                     #if (CapSense_1_ENABLE == CapSense_1_TST_GLOBAL_CRC_EN)
1304:Generated_Source\PSoC4/CapSense_1_Structure.c ****                         CapSense_1_DsUpdateGlobalCrc();
1305:Generated_Source\PSoC4/CapSense_1_Structure.c ****                     #endif /* (CapSense_1_ENABLE == CapSense_1_TST_GLOBAL_CRC_EN) */
1306:Generated_Source\PSoC4/CapSense_1_Structure.c **** 
1307:Generated_Source\PSoC4/CapSense_1_Structure.c ****                 }
1308:Generated_Source\PSoC4/CapSense_1_Structure.c ****                 else
1309:Generated_Source\PSoC4/CapSense_1_Structure.c ****                 {
1310:Generated_Source\PSoC4/CapSense_1_Structure.c ****                     #if (CapSense_1_ENABLE == CapSense_1_TST_WDGT_CRC_EN)
1311:Generated_Source\PSoC4/CapSense_1_Structure.c ****                         CapSense_1_DsUpdateWidgetCrc((uint32)pData.widgetId);
1312:Generated_Source\PSoC4/CapSense_1_Structure.c ****                     #endif /* (CapSense_1_ENABLE == CapSense_1_TST_WDGT_CRC_EN) */
1313:Generated_Source\PSoC4/CapSense_1_Structure.c ****                 }
1314:Generated_Source\PSoC4/CapSense_1_Structure.c ****             }
1315:Generated_Source\PSoC4/CapSense_1_Structure.c ****         #endif /* (CapSense_1_ENABLE == (CapSense_1_TST_WDGT_CRC_EN || CapSense_1_TST_GLOBAL_CRC_EN
1316:Generated_Source\PSoC4/CapSense_1_Structure.c ****     }
1317:Generated_Source\PSoC4/CapSense_1_Structure.c **** 
1318:Generated_Source\PSoC4/CapSense_1_Structure.c ****     return result;
1319:Generated_Source\PSoC4/CapSense_1_Structure.c **** }
 454              		.loc 1 1319 0
 455 004c 2000     		movs	r0, r4
 456 004e 03B0     		add	sp, sp, #12
 457              		@ sp needed
 458              	.LVL49:
 459 0050 30BD     		pop	{r4, r5, pc}
 460              	.L40:
 461 0052 C046     		.align	2
 462              	.L39:
 463 0054 00000000 		.word	CapSense_1_dsRam
 464              		.cfi_endproc
 465              	.LFE4:
 466              		.size	CapSense_1_SetParam, .-CapSense_1_SetParam
 467              		.section	.text.CapSense_1_IsAnyWidgetActive,"ax",%progbits
 468              		.align	2
 469              		.global	CapSense_1_IsAnyWidgetActive
 470              		.code	16
 471              		.thumb_func
 472              		.type	CapSense_1_IsAnyWidgetActive, %function
 473              	CapSense_1_IsAnyWidgetActive:
 474              	.LFB5:
1320:Generated_Source\PSoC4/CapSense_1_Structure.c **** 
1321:Generated_Source\PSoC4/CapSense_1_Structure.c **** /*******************************************************************************
1322:Generated_Source\PSoC4/CapSense_1_Structure.c **** * Function Name: CapSense_1_IsAnyWidgetActive
ARM GAS  C:\Users\exp32\AppData\Local\Temp\cc6N2LT5.s 			page 33


1323:Generated_Source\PSoC4/CapSense_1_Structure.c **** ****************************************************************************//**
1324:Generated_Source\PSoC4/CapSense_1_Structure.c **** *
1325:Generated_Source\PSoC4/CapSense_1_Structure.c **** * \brief
1326:Generated_Source\PSoC4/CapSense_1_Structure.c **** *  Reports if any widget has detected a touch.
1327:Generated_Source\PSoC4/CapSense_1_Structure.c **** *
1328:Generated_Source\PSoC4/CapSense_1_Structure.c **** * \details
1329:Generated_Source\PSoC4/CapSense_1_Structure.c **** *  This function reports if any widget has detected a touch or not by extracting
1330:Generated_Source\PSoC4/CapSense_1_Structure.c **** *  information from the wdgtStatus registers
1331:Generated_Source\PSoC4/CapSense_1_Structure.c **** *  (CapSense_1_WDGT_STATUS<X>_VALUE). This function does not process a
1332:Generated_Source\PSoC4/CapSense_1_Structure.c **** *  widget but extracts processed results from the \ref group_structures.
1333:Generated_Source\PSoC4/CapSense_1_Structure.c **** *
1334:Generated_Source\PSoC4/CapSense_1_Structure.c **** * \return
1335:Generated_Source\PSoC4/CapSense_1_Structure.c **** *   Returns the touch detection status of all the widgets:
1336:Generated_Source\PSoC4/CapSense_1_Structure.c **** *     - Zero - No touch is detected in all the widgets or sensors.
1337:Generated_Source\PSoC4/CapSense_1_Structure.c **** *     - Non-zero - At least one widget or sensor detected a touch.
1338:Generated_Source\PSoC4/CapSense_1_Structure.c **** *
1339:Generated_Source\PSoC4/CapSense_1_Structure.c **** *******************************************************************************/
1340:Generated_Source\PSoC4/CapSense_1_Structure.c **** uint32 CapSense_1_IsAnyWidgetActive(void)
1341:Generated_Source\PSoC4/CapSense_1_Structure.c **** {
 475              		.loc 1 1341 0
 476              		.cfi_startproc
 477              		@ args = 0, pretend = 0, frame = 0
 478              		@ frame_needed = 0, uses_anonymous_args = 0
 479              		@ link register save eliminated.
 480              	.LVL50:
1342:Generated_Source\PSoC4/CapSense_1_Structure.c ****     uint32 result = 0Lu;
1343:Generated_Source\PSoC4/CapSense_1_Structure.c ****     uint32 wdWord;
1344:Generated_Source\PSoC4/CapSense_1_Structure.c **** 
1345:Generated_Source\PSoC4/CapSense_1_Structure.c ****     for (wdWord = CapSense_1_WDGT_STATUS_WORDS; wdWord-- > 0u;)
 481              		.loc 1 1345 0
 482 0000 0123     		movs	r3, #1
1342:Generated_Source\PSoC4/CapSense_1_Structure.c ****     uint32 result = 0Lu;
 483              		.loc 1 1342 0
 484 0002 0020     		movs	r0, #0
 485              		.loc 1 1345 0
 486 0004 06E0     		b	.L42
 487              	.LVL51:
 488              	.L43:
1346:Generated_Source\PSoC4/CapSense_1_Structure.c ****     {
1347:Generated_Source\PSoC4/CapSense_1_Structure.c ****         result |= CapSense_1_dsRam.wdgtStatus[wdWord];
 489              		.loc 1 1347 0
 490 0006 131D     		adds	r3, r2, #4
 491 0008 9B00     		lsls	r3, r3, #2
 492 000a 0449     		ldr	r1, .L44
 493 000c CB18     		adds	r3, r1, r3
 494 000e 5B68     		ldr	r3, [r3, #4]
 495 0010 1843     		orrs	r0, r3
 496              	.LVL52:
1345:Generated_Source\PSoC4/CapSense_1_Structure.c ****     {
 497              		.loc 1 1345 0
 498 0012 1300     		movs	r3, r2
 499              	.LVL53:
 500              	.L42:
1345:Generated_Source\PSoC4/CapSense_1_Structure.c ****     {
 501              		.loc 1 1345 0 is_stmt 0 discriminator 1
 502 0014 5A1E     		subs	r2, r3, #1
 503              	.LVL54:
ARM GAS  C:\Users\exp32\AppData\Local\Temp\cc6N2LT5.s 			page 34


 504 0016 002B     		cmp	r3, #0
 505 0018 F5D1     		bne	.L43
1348:Generated_Source\PSoC4/CapSense_1_Structure.c ****     }
1349:Generated_Source\PSoC4/CapSense_1_Structure.c **** 
1350:Generated_Source\PSoC4/CapSense_1_Structure.c ****     return result;
1351:Generated_Source\PSoC4/CapSense_1_Structure.c **** }
 506              		.loc 1 1351 0 is_stmt 1
 507              		@ sp needed
 508 001a 7047     		bx	lr
 509              	.L45:
 510              		.align	2
 511              	.L44:
 512 001c 00000000 		.word	CapSense_1_dsRam
 513              		.cfi_endproc
 514              	.LFE5:
 515              		.size	CapSense_1_IsAnyWidgetActive, .-CapSense_1_IsAnyWidgetActive
 516              		.section	.text.CapSense_1_IsWidgetActive,"ax",%progbits
 517              		.align	2
 518              		.global	CapSense_1_IsWidgetActive
 519              		.code	16
 520              		.thumb_func
 521              		.type	CapSense_1_IsWidgetActive, %function
 522              	CapSense_1_IsWidgetActive:
 523              	.LFB6:
1352:Generated_Source\PSoC4/CapSense_1_Structure.c **** 
1353:Generated_Source\PSoC4/CapSense_1_Structure.c **** 
1354:Generated_Source\PSoC4/CapSense_1_Structure.c **** /*******************************************************************************
1355:Generated_Source\PSoC4/CapSense_1_Structure.c **** * Function Name: CapSense_1_IsWidgetActive
1356:Generated_Source\PSoC4/CapSense_1_Structure.c **** ****************************************************************************//**
1357:Generated_Source\PSoC4/CapSense_1_Structure.c **** *
1358:Generated_Source\PSoC4/CapSense_1_Structure.c **** * \brief
1359:Generated_Source\PSoC4/CapSense_1_Structure.c **** *  Reports if the specified widget detects a touch on any of its sensors.
1360:Generated_Source\PSoC4/CapSense_1_Structure.c **** *
1361:Generated_Source\PSoC4/CapSense_1_Structure.c **** * \details
1362:Generated_Source\PSoC4/CapSense_1_Structure.c **** *  This function reports if the specified widget has detected a touch or not by
1363:Generated_Source\PSoC4/CapSense_1_Structure.c **** *  extracting information from the wdgtStatus registers
1364:Generated_Source\PSoC4/CapSense_1_Structure.c **** *  (CapSense_1_WDGT_STATUS<X>_VALUE). This function does not process the
1365:Generated_Source\PSoC4/CapSense_1_Structure.c **** *  widget but extracts processed results from the \ref group_structures.
1366:Generated_Source\PSoC4/CapSense_1_Structure.c **** *
1367:Generated_Source\PSoC4/CapSense_1_Structure.c **** * \param widgetId
1368:Generated_Source\PSoC4/CapSense_1_Structure.c **** *  Specifies the ID number of the widget to get its status.
1369:Generated_Source\PSoC4/CapSense_1_Structure.c **** *  A macro for the widget ID can be found in the CapSense_1 Configuration header
1370:Generated_Source\PSoC4/CapSense_1_Structure.c **** *  file defined as CapSense_1_<WidgetName>_WDGT_ID.
1371:Generated_Source\PSoC4/CapSense_1_Structure.c **** *
1372:Generated_Source\PSoC4/CapSense_1_Structure.c **** * \return
1373:Generated_Source\PSoC4/CapSense_1_Structure.c **** *  Returns the touch detection status of the specified widgets:
1374:Generated_Source\PSoC4/CapSense_1_Structure.c **** *    - Zero - No touch is detected in the specified widget or a wrong widgetId
1375:Generated_Source\PSoC4/CapSense_1_Structure.c **** *      is specified.
1376:Generated_Source\PSoC4/CapSense_1_Structure.c **** *    - Non-zero if at least one sensor of the specified widget is active, i.e.
1377:Generated_Source\PSoC4/CapSense_1_Structure.c **** *      a touch is detected.
1378:Generated_Source\PSoC4/CapSense_1_Structure.c **** *
1379:Generated_Source\PSoC4/CapSense_1_Structure.c **** *******************************************************************************/
1380:Generated_Source\PSoC4/CapSense_1_Structure.c **** uint32 CapSense_1_IsWidgetActive(uint32 widgetId)
1381:Generated_Source\PSoC4/CapSense_1_Structure.c **** {
 524              		.loc 1 1381 0
 525              		.cfi_startproc
 526              		@ args = 0, pretend = 0, frame = 0
ARM GAS  C:\Users\exp32\AppData\Local\Temp\cc6N2LT5.s 			page 35


 527              		@ frame_needed = 0, uses_anonymous_args = 0
 528              		@ link register save eliminated.
 529              	.LVL55:
1382:Generated_Source\PSoC4/CapSense_1_Structure.c ****     uint32 result = 0Lu;
1383:Generated_Source\PSoC4/CapSense_1_Structure.c **** 
1384:Generated_Source\PSoC4/CapSense_1_Structure.c ****     if (widgetId < CapSense_1_TOTAL_WIDGETS)
 530              		.loc 1 1384 0
 531 0000 0628     		cmp	r0, #6
 532 0002 0BD8     		bhi	.L48
1385:Generated_Source\PSoC4/CapSense_1_Structure.c ****     {
1386:Generated_Source\PSoC4/CapSense_1_Structure.c ****         result = CapSense_1_GET_WIDGET_ACTIVE_STATUS(widgetId);
 533              		.loc 1 1386 0
 534 0004 1F23     		movs	r3, #31
 535 0006 0340     		ands	r3, r0
 536 0008 0122     		movs	r2, #1
 537 000a 9A40     		lsls	r2, r2, r3
 538 000c 4009     		lsrs	r0, r0, #5
 539              	.LVL56:
 540 000e 031D     		adds	r3, r0, #4
 541 0010 9B00     		lsls	r3, r3, #2
 542 0012 0348     		ldr	r0, .L49
 543 0014 C318     		adds	r3, r0, r3
 544 0016 5868     		ldr	r0, [r3, #4]
 545 0018 1040     		ands	r0, r2
 546              	.LVL57:
 547 001a 00E0     		b	.L47
 548              	.LVL58:
 549              	.L48:
1382:Generated_Source\PSoC4/CapSense_1_Structure.c ****     uint32 result = 0Lu;
 550              		.loc 1 1382 0
 551 001c 0020     		movs	r0, #0
 552              	.LVL59:
 553              	.L47:
1387:Generated_Source\PSoC4/CapSense_1_Structure.c ****     }
1388:Generated_Source\PSoC4/CapSense_1_Structure.c ****     return result;
1389:Generated_Source\PSoC4/CapSense_1_Structure.c **** }
 554              		.loc 1 1389 0
 555              		@ sp needed
 556 001e 7047     		bx	lr
 557              	.L50:
 558              		.align	2
 559              	.L49:
 560 0020 00000000 		.word	CapSense_1_dsRam
 561              		.cfi_endproc
 562              	.LFE6:
 563              		.size	CapSense_1_IsWidgetActive, .-CapSense_1_IsWidgetActive
 564              		.section	.text.CapSense_1_IsSensorActive,"ax",%progbits
 565              		.align	2
 566              		.global	CapSense_1_IsSensorActive
 567              		.code	16
 568              		.thumb_func
 569              		.type	CapSense_1_IsSensorActive, %function
 570              	CapSense_1_IsSensorActive:
 571              	.LFB7:
1390:Generated_Source\PSoC4/CapSense_1_Structure.c **** 
1391:Generated_Source\PSoC4/CapSense_1_Structure.c **** 
1392:Generated_Source\PSoC4/CapSense_1_Structure.c **** /*******************************************************************************
ARM GAS  C:\Users\exp32\AppData\Local\Temp\cc6N2LT5.s 			page 36


1393:Generated_Source\PSoC4/CapSense_1_Structure.c **** * Function Name: CapSense_1_IsSensorActive
1394:Generated_Source\PSoC4/CapSense_1_Structure.c **** ****************************************************************************//**
1395:Generated_Source\PSoC4/CapSense_1_Structure.c **** *
1396:Generated_Source\PSoC4/CapSense_1_Structure.c **** * \brief
1397:Generated_Source\PSoC4/CapSense_1_Structure.c **** *  Reports if the specified sensor in the widget detects a touch.
1398:Generated_Source\PSoC4/CapSense_1_Structure.c **** *
1399:Generated_Source\PSoC4/CapSense_1_Structure.c **** * \details
1400:Generated_Source\PSoC4/CapSense_1_Structure.c **** *  This function reports if the specified sensor in the widget has detected a
1401:Generated_Source\PSoC4/CapSense_1_Structure.c **** *  touch or not by extracting information from the wdgtStatus registers
1402:Generated_Source\PSoC4/CapSense_1_Structure.c **** *  (CapSense_1_WDGT_STATUS<X>_VALUE). This function does not process the
1403:Generated_Source\PSoC4/CapSense_1_Structure.c **** *  widget or sensor but extracts processed results from the \ref group_structures.
1404:Generated_Source\PSoC4/CapSense_1_Structure.c **** *
1405:Generated_Source\PSoC4/CapSense_1_Structure.c **** *  For proximity sensors, this function returns the proximity detection status. To
1406:Generated_Source\PSoC4/CapSense_1_Structure.c **** *  get the finger touch status of proximity sensors, use the
1407:Generated_Source\PSoC4/CapSense_1_Structure.c **** *  CapSense_1_IsProximitySensorActive() function.
1408:Generated_Source\PSoC4/CapSense_1_Structure.c **** *
1409:Generated_Source\PSoC4/CapSense_1_Structure.c **** * \param widgetId
1410:Generated_Source\PSoC4/CapSense_1_Structure.c **** *  Specifies the ID number of the widget.
1411:Generated_Source\PSoC4/CapSense_1_Structure.c **** *  A macro for the widget ID can be found in the CapSense_1 Configuration header
1412:Generated_Source\PSoC4/CapSense_1_Structure.c **** *  file defined as CapSense_1_<WidgetName>_WDGT_ID.
1413:Generated_Source\PSoC4/CapSense_1_Structure.c **** 
1414:Generated_Source\PSoC4/CapSense_1_Structure.c **** * \param sensorId
1415:Generated_Source\PSoC4/CapSense_1_Structure.c **** *  Specifies the ID number of the sensor within the widget to get its touch
1416:Generated_Source\PSoC4/CapSense_1_Structure.c **** *  detection status.
1417:Generated_Source\PSoC4/CapSense_1_Structure.c **** *  A macro for the sensor ID within the specified widget can be found in the
1418:Generated_Source\PSoC4/CapSense_1_Structure.c **** *  CapSense_1 Configuration header file defined as
1419:Generated_Source\PSoC4/CapSense_1_Structure.c **** *  CapSense_1_<WidgetName>_SNS<SensorNumber>_ID.
1420:Generated_Source\PSoC4/CapSense_1_Structure.c **** *
1421:Generated_Source\PSoC4/CapSense_1_Structure.c **** * \return
1422:Generated_Source\PSoC4/CapSense_1_Structure.c **** *  Returns the touch detection status of the specified sensor / widget:
1423:Generated_Source\PSoC4/CapSense_1_Structure.c **** *    - Zero if no touch is detected in the specified sensor / widget or a wrong
1424:Generated_Source\PSoC4/CapSense_1_Structure.c **** *      widget ID / sensor ID is specified.
1425:Generated_Source\PSoC4/CapSense_1_Structure.c **** *    - Non-zero if the specified sensor is active i.e. touch is detected. If the
1426:Generated_Source\PSoC4/CapSense_1_Structure.c **** *      specific sensor belongs to a proximity widget, the proximity detection
1427:Generated_Source\PSoC4/CapSense_1_Structure.c **** *      status is returned.
1428:Generated_Source\PSoC4/CapSense_1_Structure.c **** *
1429:Generated_Source\PSoC4/CapSense_1_Structure.c **** *******************************************************************************/
1430:Generated_Source\PSoC4/CapSense_1_Structure.c **** uint32 CapSense_1_IsSensorActive(uint32 widgetId, uint32 sensorId)
1431:Generated_Source\PSoC4/CapSense_1_Structure.c **** {
 572              		.loc 1 1431 0
 573              		.cfi_startproc
 574              		@ args = 0, pretend = 0, frame = 0
 575              		@ frame_needed = 0, uses_anonymous_args = 0
 576              		@ link register save eliminated.
 577              	.LVL60:
1432:Generated_Source\PSoC4/CapSense_1_Structure.c ****     uint32 result = 0Lu;
1433:Generated_Source\PSoC4/CapSense_1_Structure.c **** 
1434:Generated_Source\PSoC4/CapSense_1_Structure.c ****     if ((widgetId < CapSense_1_TOTAL_WIDGETS) &&
 578              		.loc 1 1434 0
 579 0000 0628     		cmp	r0, #6
 580 0002 0ED8     		bhi	.L53
1435:Generated_Source\PSoC4/CapSense_1_Structure.c ****         (sensorId < CapSense_1_GET_SENSOR_COUNT(widgetId)))
 581              		.loc 1 1435 0 discriminator 1
 582 0004 3423     		movs	r3, #52
 583 0006 4343     		muls	r3, r0
 584 0008 084A     		ldr	r2, .L55
 585 000a D318     		adds	r3, r2, r3
ARM GAS  C:\Users\exp32\AppData\Local\Temp\cc6N2LT5.s 			page 37


 586 000c 9B8D     		ldrh	r3, [r3, #44]
1434:Generated_Source\PSoC4/CapSense_1_Structure.c ****         (sensorId < CapSense_1_GET_SENSOR_COUNT(widgetId)))
 587              		.loc 1 1434 0 discriminator 1
 588 000e 8B42     		cmp	r3, r1
 589 0010 09D9     		bls	.L54
1436:Generated_Source\PSoC4/CapSense_1_Structure.c ****     {
1437:Generated_Source\PSoC4/CapSense_1_Structure.c ****         #if (CapSense_1_ENABLE == CapSense_1_PROXIMITY_WIDGET_EN)
1438:Generated_Source\PSoC4/CapSense_1_Structure.c ****             if (CapSense_1_WD_PROXIMITY_E ==
1439:Generated_Source\PSoC4/CapSense_1_Structure.c ****                 (CapSense_1_WD_TYPE_ENUM)CapSense_1_dsFlash.wdgtArray[widgetId].wdgtType)
1440:Generated_Source\PSoC4/CapSense_1_Structure.c ****             {
1441:Generated_Source\PSoC4/CapSense_1_Structure.c ****                 sensorId = CapSense_1_PROX_STS_OFFSET(sensorId);
1442:Generated_Source\PSoC4/CapSense_1_Structure.c ****             }
1443:Generated_Source\PSoC4/CapSense_1_Structure.c ****         #endif /* (CapSense_1_ENABLE != CapSense_1_PROXIMITY_WIDGET_EN) */
1444:Generated_Source\PSoC4/CapSense_1_Structure.c ****         result = CapSense_1_dsRam.snsStatus[widgetId] & (1Lu << sensorId);
 590              		.loc 1 1444 0
 591 0012 0C30     		adds	r0, r0, #12
 592              	.LVL61:
 593 0014 4000     		lsls	r0, r0, #1
 594              	.LVL62:
 595 0016 064B     		ldr	r3, .L55+4
 596 0018 C35A     		ldrh	r3, [r0, r3]
 597 001a 0120     		movs	r0, #1
 598 001c 8840     		lsls	r0, r0, r1
 599 001e 1840     		ands	r0, r3
 600              	.LVL63:
 601 0020 02E0     		b	.L52
 602              	.LVL64:
 603              	.L53:
1432:Generated_Source\PSoC4/CapSense_1_Structure.c **** 
 604              		.loc 1 1432 0
 605 0022 0020     		movs	r0, #0
 606              	.LVL65:
 607 0024 00E0     		b	.L52
 608              	.LVL66:
 609              	.L54:
 610 0026 0020     		movs	r0, #0
 611              	.LVL67:
 612              	.L52:
1445:Generated_Source\PSoC4/CapSense_1_Structure.c ****     }
1446:Generated_Source\PSoC4/CapSense_1_Structure.c **** 
1447:Generated_Source\PSoC4/CapSense_1_Structure.c ****     return result;
1448:Generated_Source\PSoC4/CapSense_1_Structure.c **** }
 613              		.loc 1 1448 0
 614              		@ sp needed
 615 0028 7047     		bx	lr
 616              	.L56:
 617 002a C046     		.align	2
 618              	.L55:
 619 002c 00000000 		.word	.LANCHOR0
 620 0030 00000000 		.word	CapSense_1_dsRam
 621              		.cfi_endproc
 622              	.LFE7:
 623              		.size	CapSense_1_IsSensorActive, .-CapSense_1_IsSensorActive
 624              		.section	.text.CapSense_1_GetXYCoordinates,"ax",%progbits
 625              		.align	2
 626              		.global	CapSense_1_GetXYCoordinates
 627              		.code	16
ARM GAS  C:\Users\exp32\AppData\Local\Temp\cc6N2LT5.s 			page 38


 628              		.thumb_func
 629              		.type	CapSense_1_GetXYCoordinates, %function
 630              	CapSense_1_GetXYCoordinates:
 631              	.LFB8:
1449:Generated_Source\PSoC4/CapSense_1_Structure.c **** 
1450:Generated_Source\PSoC4/CapSense_1_Structure.c **** #if (0u != CapSense_1_MATRIX_WIDGET_EN)
1451:Generated_Source\PSoC4/CapSense_1_Structure.c **** /*******************************************************************************
1452:Generated_Source\PSoC4/CapSense_1_Structure.c **** * Function Name: CapSense_1_IsMatrixButtonsActive
1453:Generated_Source\PSoC4/CapSense_1_Structure.c **** ****************************************************************************//**
1454:Generated_Source\PSoC4/CapSense_1_Structure.c **** *
1455:Generated_Source\PSoC4/CapSense_1_Structure.c **** * \brief
1456:Generated_Source\PSoC4/CapSense_1_Structure.c **** *  Reports the status of the specified matrix button widget.
1457:Generated_Source\PSoC4/CapSense_1_Structure.c **** *
1458:Generated_Source\PSoC4/CapSense_1_Structure.c **** * \details
1459:Generated_Source\PSoC4/CapSense_1_Structure.c **** *  This function reports if the specified matrix widget has detected a touch or
1460:Generated_Source\PSoC4/CapSense_1_Structure.c **** *  not by extracting information from the wdgtStatus registers
1461:Generated_Source\PSoC4/CapSense_1_Structure.c **** *  (CapSense_1_WDGT_STATUS<X>_VALUE for the CSD widgets and
1462:Generated_Source\PSoC4/CapSense_1_Structure.c **** *  CapSense_1_SNS_STATUS<WidgetId>_VALUE for CSX widget). In addition, the
1463:Generated_Source\PSoC4/CapSense_1_Structure.c **** *  function provides details of the active sensor including active rows/columns
1464:Generated_Source\PSoC4/CapSense_1_Structure.c **** *  for the CSD widgets. This function is used only with the matrix button
1465:Generated_Source\PSoC4/CapSense_1_Structure.c **** *  widgets. This function does not process the widget but extracts
1466:Generated_Source\PSoC4/CapSense_1_Structure.c **** *  processed results from the \ref group_structures.
1467:Generated_Source\PSoC4/CapSense_1_Structure.c **** *
1468:Generated_Source\PSoC4/CapSense_1_Structure.c **** * \param widgetId
1469:Generated_Source\PSoC4/CapSense_1_Structure.c **** *  Specifies the ID number of the matrix button widget to check the status of its
1470:Generated_Source\PSoC4/CapSense_1_Structure.c **** *  sensors.
1471:Generated_Source\PSoC4/CapSense_1_Structure.c **** *  A macro for the widget ID can be found in the CapSense_1 Configuration header file
1472:Generated_Source\PSoC4/CapSense_1_Structure.c **** *  defined as CapSense_1_<WidgetName>_WDGT_ID
1473:Generated_Source\PSoC4/CapSense_1_Structure.c **** *
1474:Generated_Source\PSoC4/CapSense_1_Structure.c **** * \return
1475:Generated_Source\PSoC4/CapSense_1_Structure.c **** *  Returns the touch detection status of the sensors in the specified matrix
1476:Generated_Source\PSoC4/CapSense_1_Structure.c **** *  buttons widget. Zero indicates that no touch is detected in the specified
1477:Generated_Source\PSoC4/CapSense_1_Structure.c **** *  widget or a wrong widgetId is specified.
1478:Generated_Source\PSoC4/CapSense_1_Structure.c **** *    1. For the matrix buttons widgets with the CSD sensing mode:
1479:Generated_Source\PSoC4/CapSense_1_Structure.c **** *      - Bit [31] if set, indicates that one or more sensors in the widget
1480:Generated_Source\PSoC4/CapSense_1_Structure.c **** *        detected a touch.
1481:Generated_Source\PSoC4/CapSense_1_Structure.c **** *      - Bits [30..24] are reserved
1482:Generated_Source\PSoC4/CapSense_1_Structure.c **** *      - Bits [23..16] indicate the logical sensor number of the sensor that
1483:Generated_Source\PSoC4/CapSense_1_Structure.c **** *        detected a touch. If more than one sensor detected a touch for the CSD
1484:Generated_Source\PSoC4/CapSense_1_Structure.c **** *        widget, no status is reported because more than one touch is invalid for the
1485:Generated_Source\PSoC4/CapSense_1_Structure.c **** *        CSD matrix buttons widgets.
1486:Generated_Source\PSoC4/CapSense_1_Structure.c **** *      - Bits [15..8] indicate the active row number.
1487:Generated_Source\PSoC4/CapSense_1_Structure.c **** *      - Bits [7..0] indicate the active column number.
1488:Generated_Source\PSoC4/CapSense_1_Structure.c **** *    2. For the matrix buttons widgets with the CSX widgets, each bit (31..0)
1489:Generated_Source\PSoC4/CapSense_1_Structure.c **** *      corresponds to the TX/RX intersection.
1490:Generated_Source\PSoC4/CapSense_1_Structure.c **** *
1491:Generated_Source\PSoC4/CapSense_1_Structure.c **** *******************************************************************************/
1492:Generated_Source\PSoC4/CapSense_1_Structure.c **** uint32 CapSense_1_IsMatrixButtonsActive(uint32 widgetId)
1493:Generated_Source\PSoC4/CapSense_1_Structure.c **** {
1494:Generated_Source\PSoC4/CapSense_1_Structure.c ****     uint32 result = 0Lu;
1495:Generated_Source\PSoC4/CapSense_1_Structure.c ****     cystatus state = CYRET_SUCCESS;
1496:Generated_Source\PSoC4/CapSense_1_Structure.c ****     CapSense_1_FLASH_WD_STRUCT const *ptrFlashWdgt = 0u;
1497:Generated_Source\PSoC4/CapSense_1_Structure.c **** 
1498:Generated_Source\PSoC4/CapSense_1_Structure.c ****     #if (0u != CapSense_1_CSD_MATRIX_WIDGET_EN)
1499:Generated_Source\PSoC4/CapSense_1_Structure.c ****         CapSense_1_RAM_WD_CSD_MATRIX_STRUCT *wdCsdMatrix;
1500:Generated_Source\PSoC4/CapSense_1_Structure.c ****     #endif
1501:Generated_Source\PSoC4/CapSense_1_Structure.c **** 
ARM GAS  C:\Users\exp32\AppData\Local\Temp\cc6N2LT5.s 			page 39


1502:Generated_Source\PSoC4/CapSense_1_Structure.c ****     if (widgetId >= CapSense_1_TOTAL_WIDGETS)
1503:Generated_Source\PSoC4/CapSense_1_Structure.c ****     {
1504:Generated_Source\PSoC4/CapSense_1_Structure.c ****         state = CYRET_BAD_PARAM;
1505:Generated_Source\PSoC4/CapSense_1_Structure.c ****     }
1506:Generated_Source\PSoC4/CapSense_1_Structure.c ****     else
1507:Generated_Source\PSoC4/CapSense_1_Structure.c ****     {
1508:Generated_Source\PSoC4/CapSense_1_Structure.c ****         ptrFlashWdgt = &CapSense_1_dsFlash.wdgtArray[widgetId];
1509:Generated_Source\PSoC4/CapSense_1_Structure.c **** 
1510:Generated_Source\PSoC4/CapSense_1_Structure.c ****         if ((CapSense_1_WD_TYPE_ENUM)ptrFlashWdgt->wdgtType != CapSense_1_WD_MATRIX_BUTTON_E)
1511:Generated_Source\PSoC4/CapSense_1_Structure.c ****         {
1512:Generated_Source\PSoC4/CapSense_1_Structure.c ****             state = CYRET_BAD_PARAM;
1513:Generated_Source\PSoC4/CapSense_1_Structure.c ****         }
1514:Generated_Source\PSoC4/CapSense_1_Structure.c ****         else if (0u == CapSense_1_GET_WIDGET_ACTIVE_STATUS(widgetId))
1515:Generated_Source\PSoC4/CapSense_1_Structure.c ****         {
1516:Generated_Source\PSoC4/CapSense_1_Structure.c ****             state = CYRET_BAD_PARAM;
1517:Generated_Source\PSoC4/CapSense_1_Structure.c ****         }
1518:Generated_Source\PSoC4/CapSense_1_Structure.c ****         else
1519:Generated_Source\PSoC4/CapSense_1_Structure.c ****         {
1520:Generated_Source\PSoC4/CapSense_1_Structure.c ****             /* input parameters are OK */
1521:Generated_Source\PSoC4/CapSense_1_Structure.c ****         }
1522:Generated_Source\PSoC4/CapSense_1_Structure.c ****     }
1523:Generated_Source\PSoC4/CapSense_1_Structure.c **** 
1524:Generated_Source\PSoC4/CapSense_1_Structure.c ****     if (CYRET_SUCCESS == state)
1525:Generated_Source\PSoC4/CapSense_1_Structure.c ****     {
1526:Generated_Source\PSoC4/CapSense_1_Structure.c ****         switch(CapSense_1_GET_SENSE_METHOD(ptrFlashWdgt))
1527:Generated_Source\PSoC4/CapSense_1_Structure.c ****         {
1528:Generated_Source\PSoC4/CapSense_1_Structure.c ****         #if (0u != CapSense_1_CSD_MATRIX_WIDGET_EN)
1529:Generated_Source\PSoC4/CapSense_1_Structure.c ****             case CapSense_1_SENSE_METHOD_CSD_E:
1530:Generated_Source\PSoC4/CapSense_1_Structure.c ****                 wdCsdMatrix = ptrFlashWdgt->ptr2WdgtRam;
1531:Generated_Source\PSoC4/CapSense_1_Structure.c **** 
1532:Generated_Source\PSoC4/CapSense_1_Structure.c ****                 result = CapSense_1_MATRIX_BUTTONS_TOUCHED |
1533:Generated_Source\PSoC4/CapSense_1_Structure.c ****                          ((uint32)wdCsdMatrix->posSnsId << 16u)  |
1534:Generated_Source\PSoC4/CapSense_1_Structure.c ****                          ((uint32)wdCsdMatrix->posRow   << 8u)   |
1535:Generated_Source\PSoC4/CapSense_1_Structure.c ****                          (uint32)wdCsdMatrix->posCol;
1536:Generated_Source\PSoC4/CapSense_1_Structure.c ****                 break;
1537:Generated_Source\PSoC4/CapSense_1_Structure.c ****         #endif /* #if (0u != CapSense_1_CSD_MATRIX_WIDGET_EN) */
1538:Generated_Source\PSoC4/CapSense_1_Structure.c **** 
1539:Generated_Source\PSoC4/CapSense_1_Structure.c ****         #if (0u != CapSense_1_CSX_MATRIX_WIDGET_EN)
1540:Generated_Source\PSoC4/CapSense_1_Structure.c ****             case CapSense_1_SENSE_METHOD_CSX_E:
1541:Generated_Source\PSoC4/CapSense_1_Structure.c ****                 result = CapSense_1_dsRam.snsStatus[widgetId];
1542:Generated_Source\PSoC4/CapSense_1_Structure.c ****                 break;
1543:Generated_Source\PSoC4/CapSense_1_Structure.c ****         #endif /* #if (0u != CapSense_1_CSX_MATRIX_WIDGET_EN) */
1544:Generated_Source\PSoC4/CapSense_1_Structure.c **** 
1545:Generated_Source\PSoC4/CapSense_1_Structure.c ****         default:
1546:Generated_Source\PSoC4/CapSense_1_Structure.c ****             CYASSERT(0u);
1547:Generated_Source\PSoC4/CapSense_1_Structure.c ****             break;
1548:Generated_Source\PSoC4/CapSense_1_Structure.c ****         }
1549:Generated_Source\PSoC4/CapSense_1_Structure.c ****     }
1550:Generated_Source\PSoC4/CapSense_1_Structure.c **** 
1551:Generated_Source\PSoC4/CapSense_1_Structure.c ****     return result;
1552:Generated_Source\PSoC4/CapSense_1_Structure.c **** }
1553:Generated_Source\PSoC4/CapSense_1_Structure.c **** #endif /* #if (0u != CapSense_1_MATRIX_WIDGET_EN) */
1554:Generated_Source\PSoC4/CapSense_1_Structure.c **** 
1555:Generated_Source\PSoC4/CapSense_1_Structure.c **** #if (0u != CapSense_1_PROXIMITY_WIDGET_EN)
1556:Generated_Source\PSoC4/CapSense_1_Structure.c **** /*******************************************************************************
1557:Generated_Source\PSoC4/CapSense_1_Structure.c **** * Function Name: CapSense_1_IsProximitySensorActive
1558:Generated_Source\PSoC4/CapSense_1_Structure.c **** ****************************************************************************//**
ARM GAS  C:\Users\exp32\AppData\Local\Temp\cc6N2LT5.s 			page 40


1559:Generated_Source\PSoC4/CapSense_1_Structure.c **** *
1560:Generated_Source\PSoC4/CapSense_1_Structure.c **** * \brief
1561:Generated_Source\PSoC4/CapSense_1_Structure.c **** *  Reports the finger detection status of the specified proximity widget/sensor.
1562:Generated_Source\PSoC4/CapSense_1_Structure.c **** *
1563:Generated_Source\PSoC4/CapSense_1_Structure.c **** * \details
1564:Generated_Source\PSoC4/CapSense_1_Structure.c **** *  This function reports if the specified proximity sensor has detected a touch
1565:Generated_Source\PSoC4/CapSense_1_Structure.c **** *  or not by extracting information from the wdgtStatus registers
1566:Generated_Source\PSoC4/CapSense_1_Structure.c **** *  (CapSense_1_SNS_STATUS<WidgetId>_VALUE). This function is used
1567:Generated_Source\PSoC4/CapSense_1_Structure.c **** *  only with proximity sensor widgets. This function does not process the
1568:Generated_Source\PSoC4/CapSense_1_Structure.c **** *  widget but extracts processed results from the \ref group_structures.
1569:Generated_Source\PSoC4/CapSense_1_Structure.c **** *
1570:Generated_Source\PSoC4/CapSense_1_Structure.c **** * \param widgetId
1571:Generated_Source\PSoC4/CapSense_1_Structure.c **** *  Specifies the ID number of the proximity widget.
1572:Generated_Source\PSoC4/CapSense_1_Structure.c **** *  A macro for the widget ID can be found in the CapSense_1 Configuration header
1573:Generated_Source\PSoC4/CapSense_1_Structure.c **** *  file defined as CapSense_1_<WidgetName>_WDGT_ID
1574:Generated_Source\PSoC4/CapSense_1_Structure.c **** *
1575:Generated_Source\PSoC4/CapSense_1_Structure.c **** * \param proxId
1576:Generated_Source\PSoC4/CapSense_1_Structure.c **** *  Specifies the ID number of the proximity sensor within the proximity widget to
1577:Generated_Source\PSoC4/CapSense_1_Structure.c **** *  get its touch detection status.
1578:Generated_Source\PSoC4/CapSense_1_Structure.c **** *  A macro for the proximity ID within a specified widget can be found in the
1579:Generated_Source\PSoC4/CapSense_1_Structure.c **** *  CapSense_1 Configuration header file defined as
1580:Generated_Source\PSoC4/CapSense_1_Structure.c **** *  CapSense_1_<WidgetName>_SNS<SensorNumber>_ID
1581:Generated_Source\PSoC4/CapSense_1_Structure.c **** *
1582:Generated_Source\PSoC4/CapSense_1_Structure.c **** * \return
1583:Generated_Source\PSoC4/CapSense_1_Structure.c **** *  Returns the status of the specified sensor of the proximity widget. Zero
1584:Generated_Source\PSoC4/CapSense_1_Structure.c **** *  indicates that no touch is detected in the specified sensor / widget or a
1585:Generated_Source\PSoC4/CapSense_1_Structure.c **** *  wrong widgetId / proxId is specified.
1586:Generated_Source\PSoC4/CapSense_1_Structure.c **** *    - Bits [31..2] are reserved.
1587:Generated_Source\PSoC4/CapSense_1_Structure.c **** *    - Bit [1] indicates that a touch is detected.
1588:Generated_Source\PSoC4/CapSense_1_Structure.c **** *    - Bit [0] indicates that a proximity is detected.
1589:Generated_Source\PSoC4/CapSense_1_Structure.c **** *
1590:Generated_Source\PSoC4/CapSense_1_Structure.c **** *******************************************************************************/
1591:Generated_Source\PSoC4/CapSense_1_Structure.c **** uint32 CapSense_1_IsProximitySensorActive(uint32 widgetId, uint32 proxId)
1592:Generated_Source\PSoC4/CapSense_1_Structure.c **** {
1593:Generated_Source\PSoC4/CapSense_1_Structure.c ****     uint32 result = 0Lu;
1594:Generated_Source\PSoC4/CapSense_1_Structure.c **** 
1595:Generated_Source\PSoC4/CapSense_1_Structure.c ****     if ((widgetId < CapSense_1_TOTAL_WIDGETS) && (proxId < CapSense_1_GET_SENSOR_COUNT(widgetId)) &
1596:Generated_Source\PSoC4/CapSense_1_Structure.c ****         (CapSense_1_WD_PROXIMITY_E ==
1597:Generated_Source\PSoC4/CapSense_1_Structure.c ****             (CapSense_1_WD_TYPE_ENUM)CapSense_1_dsFlash.wdgtArray[widgetId].wdgtType))
1598:Generated_Source\PSoC4/CapSense_1_Structure.c ****     {
1599:Generated_Source\PSoC4/CapSense_1_Structure.c ****         result = CapSense_1_dsRam.snsStatus[widgetId];
1600:Generated_Source\PSoC4/CapSense_1_Structure.c ****         result >>= CapSense_1_PROX_STS_OFFSET(proxId);
1601:Generated_Source\PSoC4/CapSense_1_Structure.c ****         result &=  CapSense_1_PROX_STS_MASK;
1602:Generated_Source\PSoC4/CapSense_1_Structure.c ****     }
1603:Generated_Source\PSoC4/CapSense_1_Structure.c **** 
1604:Generated_Source\PSoC4/CapSense_1_Structure.c ****     return result;
1605:Generated_Source\PSoC4/CapSense_1_Structure.c **** }
1606:Generated_Source\PSoC4/CapSense_1_Structure.c **** #endif /* #if (0u != CapSense_1_PROXIMITY_WIDGET_EN) */
1607:Generated_Source\PSoC4/CapSense_1_Structure.c **** 
1608:Generated_Source\PSoC4/CapSense_1_Structure.c **** 
1609:Generated_Source\PSoC4/CapSense_1_Structure.c **** #if (0u != CapSense_1_SLIDER_WIDGET_EN)
1610:Generated_Source\PSoC4/CapSense_1_Structure.c **** /*******************************************************************************
1611:Generated_Source\PSoC4/CapSense_1_Structure.c **** * Function Name: CapSense_1_GetCentroidPos
1612:Generated_Source\PSoC4/CapSense_1_Structure.c **** ****************************************************************************//**
1613:Generated_Source\PSoC4/CapSense_1_Structure.c **** *
1614:Generated_Source\PSoC4/CapSense_1_Structure.c **** * \brief
1615:Generated_Source\PSoC4/CapSense_1_Structure.c **** *  Reports the centroid position for the specified slider widget.
ARM GAS  C:\Users\exp32\AppData\Local\Temp\cc6N2LT5.s 			page 41


1616:Generated_Source\PSoC4/CapSense_1_Structure.c **** *
1617:Generated_Source\PSoC4/CapSense_1_Structure.c **** * \details
1618:Generated_Source\PSoC4/CapSense_1_Structure.c **** *  This function reports the centroid value of a specified radial or linear
1619:Generated_Source\PSoC4/CapSense_1_Structure.c **** *  slider widget by extracting information from the wdgtStatus registers
1620:Generated_Source\PSoC4/CapSense_1_Structure.c **** *  (CapSense_1_<WidgetName>_POSITION<X>_VALUE). This function is
1621:Generated_Source\PSoC4/CapSense_1_Structure.c **** *  used only with radial or linear slider widgets. This function does not
1622:Generated_Source\PSoC4/CapSense_1_Structure.c **** *  process the widget but extracts processed results from the \ref group_structures.
1623:Generated_Source\PSoC4/CapSense_1_Structure.c **** *
1624:Generated_Source\PSoC4/CapSense_1_Structure.c **** * \param widgetId
1625:Generated_Source\PSoC4/CapSense_1_Structure.c **** *  Specifies the ID number of a slider widget to get the centroid of the
1626:Generated_Source\PSoC4/CapSense_1_Structure.c **** *  detected touch.
1627:Generated_Source\PSoC4/CapSense_1_Structure.c **** *  A macro for the widget ID can be found in the
1628:Generated_Source\PSoC4/CapSense_1_Structure.c **** *  CapSense_1 Configuration header file defined as
1629:Generated_Source\PSoC4/CapSense_1_Structure.c **** *  CapSense_1_<WidgetName>_WDGT_ID
1630:Generated_Source\PSoC4/CapSense_1_Structure.c **** *
1631:Generated_Source\PSoC4/CapSense_1_Structure.c **** * \return
1632:Generated_Source\PSoC4/CapSense_1_Structure.c **** *  Returns the centroid position of a specified slider widget:
1633:Generated_Source\PSoC4/CapSense_1_Structure.c **** *    - The centroid position if a touch is detected.
1634:Generated_Source\PSoC4/CapSense_1_Structure.c **** *    - CapSense_1_SLIDER_NO_TOUCH - No touch is detected or a wrong
1635:Generated_Source\PSoC4/CapSense_1_Structure.c **** *      widgetId is specified.
1636:Generated_Source\PSoC4/CapSense_1_Structure.c **** *
1637:Generated_Source\PSoC4/CapSense_1_Structure.c **** *******************************************************************************/
1638:Generated_Source\PSoC4/CapSense_1_Structure.c **** uint32 CapSense_1_GetCentroidPos(uint32 widgetId)
1639:Generated_Source\PSoC4/CapSense_1_Structure.c **** {
1640:Generated_Source\PSoC4/CapSense_1_Structure.c ****     uint32 result = CapSense_1_SLIDER_NO_TOUCH;
1641:Generated_Source\PSoC4/CapSense_1_Structure.c ****     CapSense_1_RAM_WD_SLIDER_STRUCT *wdSlider;
1642:Generated_Source\PSoC4/CapSense_1_Structure.c **** 
1643:Generated_Source\PSoC4/CapSense_1_Structure.c ****     if ((widgetId < CapSense_1_TOTAL_WIDGETS) &&
1644:Generated_Source\PSoC4/CapSense_1_Structure.c ****         ((CapSense_1_WD_LINEAR_SLIDER_E ==
1645:Generated_Source\PSoC4/CapSense_1_Structure.c ****             (CapSense_1_WD_TYPE_ENUM)CapSense_1_dsFlash.wdgtArray[widgetId].wdgtType) ||
1646:Generated_Source\PSoC4/CapSense_1_Structure.c ****          (CapSense_1_WD_RADIAL_SLIDER_E ==
1647:Generated_Source\PSoC4/CapSense_1_Structure.c ****             (CapSense_1_WD_TYPE_ENUM)CapSense_1_dsFlash.wdgtArray[widgetId].wdgtType)))
1648:Generated_Source\PSoC4/CapSense_1_Structure.c ****     {
1649:Generated_Source\PSoC4/CapSense_1_Structure.c ****         wdSlider = CapSense_1_dsFlash.wdgtArray[widgetId].ptr2WdgtRam;
1650:Generated_Source\PSoC4/CapSense_1_Structure.c ****         result = (uint32)wdSlider->position[0u];
1651:Generated_Source\PSoC4/CapSense_1_Structure.c ****     }
1652:Generated_Source\PSoC4/CapSense_1_Structure.c **** 
1653:Generated_Source\PSoC4/CapSense_1_Structure.c ****     return result;
1654:Generated_Source\PSoC4/CapSense_1_Structure.c **** }
1655:Generated_Source\PSoC4/CapSense_1_Structure.c **** #endif /* #if (0u != CapSense_1_SLIDER_WIDGET_EN) */
1656:Generated_Source\PSoC4/CapSense_1_Structure.c **** 
1657:Generated_Source\PSoC4/CapSense_1_Structure.c **** 
1658:Generated_Source\PSoC4/CapSense_1_Structure.c **** #if (0u != CapSense_1_TOUCHPAD_WIDGET_EN)
1659:Generated_Source\PSoC4/CapSense_1_Structure.c **** /*******************************************************************************
1660:Generated_Source\PSoC4/CapSense_1_Structure.c **** * Function Name: CapSense_1_GetXYCoordinates
1661:Generated_Source\PSoC4/CapSense_1_Structure.c **** ****************************************************************************//**
1662:Generated_Source\PSoC4/CapSense_1_Structure.c **** *
1663:Generated_Source\PSoC4/CapSense_1_Structure.c **** * \brief
1664:Generated_Source\PSoC4/CapSense_1_Structure.c **** *  Reports the X/Y position detected for the specified touchpad widget.
1665:Generated_Source\PSoC4/CapSense_1_Structure.c **** *
1666:Generated_Source\PSoC4/CapSense_1_Structure.c **** * \details
1667:Generated_Source\PSoC4/CapSense_1_Structure.c **** *  This function reports a touch position (X and Y coordinates) value of a
1668:Generated_Source\PSoC4/CapSense_1_Structure.c **** *  specified touchpad widget by extracting information from the wdgtStatus
1669:Generated_Source\PSoC4/CapSense_1_Structure.c **** *  registers (CapSense_1_<WidgetName>_POS_Y_VALUE). This function should
1670:Generated_Source\PSoC4/CapSense_1_Structure.c **** *  be used only with the touchpad widgets. This function does not process the
1671:Generated_Source\PSoC4/CapSense_1_Structure.c **** *  widget but extracts processed results from the \ref group_structures.
1672:Generated_Source\PSoC4/CapSense_1_Structure.c **** *
ARM GAS  C:\Users\exp32\AppData\Local\Temp\cc6N2LT5.s 			page 42


1673:Generated_Source\PSoC4/CapSense_1_Structure.c **** * \param widgetId
1674:Generated_Source\PSoC4/CapSense_1_Structure.c **** *  Specifies the ID number of a touchpad widget to get the X/Y position of a
1675:Generated_Source\PSoC4/CapSense_1_Structure.c **** *  detected touch.
1676:Generated_Source\PSoC4/CapSense_1_Structure.c **** *  A macro for the widget ID can be found in the
1677:Generated_Source\PSoC4/CapSense_1_Structure.c **** *  CapSense_1 Configuration header file defined as
1678:Generated_Source\PSoC4/CapSense_1_Structure.c **** *  CapSense_1_<WidgetName>_WDGT_ID.
1679:Generated_Source\PSoC4/CapSense_1_Structure.c **** *
1680:Generated_Source\PSoC4/CapSense_1_Structure.c **** * \return
1681:Generated_Source\PSoC4/CapSense_1_Structure.c **** *  Returns the touch position of a specified touchpad widget:
1682:Generated_Source\PSoC4/CapSense_1_Structure.c **** *    1. If a touch is detected:
1683:Generated_Source\PSoC4/CapSense_1_Structure.c **** *      - Bits [31..16] indicate the Y coordinate.
1684:Generated_Source\PSoC4/CapSense_1_Structure.c **** *      - Bits [15..0] indicate the X coordinate.
1685:Generated_Source\PSoC4/CapSense_1_Structure.c **** *    2. If no touch is detected or a wrong widgetId is specified:
1686:Generated_Source\PSoC4/CapSense_1_Structure.c **** *      - CapSense_1_TOUCHPAD_NO_TOUCH.
1687:Generated_Source\PSoC4/CapSense_1_Structure.c **** *
1688:Generated_Source\PSoC4/CapSense_1_Structure.c **** *******************************************************************************/
1689:Generated_Source\PSoC4/CapSense_1_Structure.c **** uint32 CapSense_1_GetXYCoordinates(uint32 widgetId)
1690:Generated_Source\PSoC4/CapSense_1_Structure.c **** {
 632              		.loc 1 1690 0
 633              		.cfi_startproc
 634              		@ args = 0, pretend = 0, frame = 0
 635              		@ frame_needed = 0, uses_anonymous_args = 0
 636              		@ link register save eliminated.
 637              	.LVL68:
1691:Generated_Source\PSoC4/CapSense_1_Structure.c ****     CapSense_1_FLASH_WD_STRUCT const *ptrFlashWdgt = NULL;
1692:Generated_Source\PSoC4/CapSense_1_Structure.c **** 
1693:Generated_Source\PSoC4/CapSense_1_Structure.c ****     #if (0u != CapSense_1_CSD_TOUCHPAD_WIDGET_EN)
1694:Generated_Source\PSoC4/CapSense_1_Structure.c ****         CapSense_1_RAM_WD_CSD_TOUCHPAD_STRUCT *wdCsdTouchpad;
1695:Generated_Source\PSoC4/CapSense_1_Structure.c ****     #endif /* #if (0u != CapSense_1_CSD_TOUCHPAD_WIDGET_EN) */
1696:Generated_Source\PSoC4/CapSense_1_Structure.c **** 
1697:Generated_Source\PSoC4/CapSense_1_Structure.c ****     #if (0u != CapSense_1_CSX_TOUCHPAD_WIDGET_EN)
1698:Generated_Source\PSoC4/CapSense_1_Structure.c ****         CapSense_1_RAM_WD_CSX_TOUCHPAD_STRUCT *wdCsxTouchpad;
1699:Generated_Source\PSoC4/CapSense_1_Structure.c ****     #endif /* #if (0u != CapSense_1_CSX_TOUCHPAD_WIDGET_EN) */
1700:Generated_Source\PSoC4/CapSense_1_Structure.c **** 
1701:Generated_Source\PSoC4/CapSense_1_Structure.c ****     cystatus state = CYRET_SUCCESS;
1702:Generated_Source\PSoC4/CapSense_1_Structure.c ****     uint32 result = CapSense_1_TOUCHPAD_NO_TOUCH;
1703:Generated_Source\PSoC4/CapSense_1_Structure.c **** 
1704:Generated_Source\PSoC4/CapSense_1_Structure.c ****     if (widgetId >= CapSense_1_TOTAL_WIDGETS)
 638              		.loc 1 1704 0
 639 0000 0628     		cmp	r0, #6
 640 0002 0CD8     		bhi	.L60
1705:Generated_Source\PSoC4/CapSense_1_Structure.c ****     {
1706:Generated_Source\PSoC4/CapSense_1_Structure.c ****         state = CYRET_BAD_PARAM;
1707:Generated_Source\PSoC4/CapSense_1_Structure.c ****     }
1708:Generated_Source\PSoC4/CapSense_1_Structure.c ****     else
1709:Generated_Source\PSoC4/CapSense_1_Structure.c ****     {
1710:Generated_Source\PSoC4/CapSense_1_Structure.c ****         ptrFlashWdgt = &CapSense_1_dsFlash.wdgtArray[widgetId];
 641              		.loc 1 1710 0
 642 0004 0D49     		ldr	r1, .L63
 643 0006 0A00     		movs	r2, r1
 644 0008 1432     		adds	r2, r2, #20
 645 000a 3423     		movs	r3, #52
 646 000c 5843     		muls	r0, r3
 647              	.LVL69:
 648 000e 1318     		adds	r3, r2, r0
 649              	.LVL70:
1711:Generated_Source\PSoC4/CapSense_1_Structure.c **** 
ARM GAS  C:\Users\exp32\AppData\Local\Temp\cc6N2LT5.s 			page 43


1712:Generated_Source\PSoC4/CapSense_1_Structure.c ****         if ((CapSense_1_WD_TYPE_ENUM)ptrFlashWdgt->wdgtType != CapSense_1_WD_TOUCHPAD_E)
 650              		.loc 1 1712 0
 651 0010 0818     		adds	r0, r1, r0
 652 0012 2E30     		adds	r0, r0, #46
 653 0014 0278     		ldrb	r2, [r0]
 654 0016 052A     		cmp	r2, #5
 655 0018 04D1     		bne	.L61
1701:Generated_Source\PSoC4/CapSense_1_Structure.c ****     uint32 result = CapSense_1_TOUCHPAD_NO_TOUCH;
 656              		.loc 1 1701 0
 657 001a 0022     		movs	r2, #0
 658 001c 03E0     		b	.L58
 659              	.LVL71:
 660              	.L60:
1706:Generated_Source\PSoC4/CapSense_1_Structure.c ****     }
 661              		.loc 1 1706 0
 662 001e 0122     		movs	r2, #1
1691:Generated_Source\PSoC4/CapSense_1_Structure.c **** 
 663              		.loc 1 1691 0
 664 0020 0023     		movs	r3, #0
 665 0022 00E0     		b	.L58
 666              	.LVL72:
 667              	.L61:
1713:Generated_Source\PSoC4/CapSense_1_Structure.c ****         {
1714:Generated_Source\PSoC4/CapSense_1_Structure.c ****             state = CYRET_BAD_PARAM;
 668              		.loc 1 1714 0
 669 0024 0122     		movs	r2, #1
 670              	.LVL73:
 671              	.L58:
1715:Generated_Source\PSoC4/CapSense_1_Structure.c ****         }
1716:Generated_Source\PSoC4/CapSense_1_Structure.c ****     }
1717:Generated_Source\PSoC4/CapSense_1_Structure.c **** 
1718:Generated_Source\PSoC4/CapSense_1_Structure.c ****     if (CYRET_SUCCESS == state)
 672              		.loc 1 1718 0
 673 0026 002A     		cmp	r2, #0
 674 0028 05D1     		bne	.L62
1719:Generated_Source\PSoC4/CapSense_1_Structure.c ****     {
1720:Generated_Source\PSoC4/CapSense_1_Structure.c ****         switch(CapSense_1_GET_SENSE_METHOD(ptrFlashWdgt))
1721:Generated_Source\PSoC4/CapSense_1_Structure.c ****         {
1722:Generated_Source\PSoC4/CapSense_1_Structure.c ****         #if (0u != CapSense_1_CSD_TOUCHPAD_WIDGET_EN)
1723:Generated_Source\PSoC4/CapSense_1_Structure.c ****             case CapSense_1_SENSE_METHOD_CSD_E:
1724:Generated_Source\PSoC4/CapSense_1_Structure.c ****                 wdCsdTouchpad = ptrFlashWdgt->ptr2WdgtRam;
 675              		.loc 1 1724 0
 676 002a 5B68     		ldr	r3, [r3, #4]
 677              	.LVL74:
1725:Generated_Source\PSoC4/CapSense_1_Structure.c ****                 #if (CapSense_1_ENABLE == CapSense_1_CENTROID_5X5_CSD_EN)
1726:Generated_Source\PSoC4/CapSense_1_Structure.c ****                     #if (CapSense_1_ENABLE == CapSense_1_CENTROID_3X3_CSD_EN)
1727:Generated_Source\PSoC4/CapSense_1_Structure.c ****                         if (0 != (ptrFlashWdgt->staticConfig & CapSense_1_CENTROID_5X5_MASK))
1728:Generated_Source\PSoC4/CapSense_1_Structure.c ****                         {
1729:Generated_Source\PSoC4/CapSense_1_Structure.c ****                     #endif
1730:Generated_Source\PSoC4/CapSense_1_Structure.c ****                         result = ((uint32)wdCsdTouchpad->position.pos[0u].x) |
1731:Generated_Source\PSoC4/CapSense_1_Structure.c ****                                  ((uint32)wdCsdTouchpad->position.pos[0u].y << 16u);
1732:Generated_Source\PSoC4/CapSense_1_Structure.c ****                     #if (CapSense_1_ENABLE == CapSense_1_CENTROID_3X3_CSD_EN)
1733:Generated_Source\PSoC4/CapSense_1_Structure.c ****                         }
1734:Generated_Source\PSoC4/CapSense_1_Structure.c ****                     #endif
1735:Generated_Source\PSoC4/CapSense_1_Structure.c ****                 #endif
1736:Generated_Source\PSoC4/CapSense_1_Structure.c **** 
1737:Generated_Source\PSoC4/CapSense_1_Structure.c ****                 #if (CapSense_1_ENABLE == CapSense_1_CENTROID_3X3_CSD_EN)
ARM GAS  C:\Users\exp32\AppData\Local\Temp\cc6N2LT5.s 			page 44


1738:Generated_Source\PSoC4/CapSense_1_Structure.c ****                     #if (CapSense_1_ENABLE == CapSense_1_CENTROID_5X5_CSD_EN)
1739:Generated_Source\PSoC4/CapSense_1_Structure.c ****                         if (0 != (ptrFlashWdgt->staticConfig & CapSense_1_CENTROID_3X3_MASK))
1740:Generated_Source\PSoC4/CapSense_1_Structure.c ****                         {
1741:Generated_Source\PSoC4/CapSense_1_Structure.c ****                     #endif
1742:Generated_Source\PSoC4/CapSense_1_Structure.c ****                         result = ((uint32)wdCsdTouchpad->posX) |
 678              		.loc 1 1742 0
 679 002c DA8A     		ldrh	r2, [r3, #22]
 680              	.LVL75:
1743:Generated_Source\PSoC4/CapSense_1_Structure.c ****                                  ((uint32)wdCsdTouchpad->posY << 16u);
 681              		.loc 1 1743 0
 682 002e 188B     		ldrh	r0, [r3, #24]
 683 0030 0004     		lsls	r0, r0, #16
1742:Generated_Source\PSoC4/CapSense_1_Structure.c ****                                  ((uint32)wdCsdTouchpad->posY << 16u);
 684              		.loc 1 1742 0
 685 0032 1043     		orrs	r0, r2
 686              	.LVL76:
1744:Generated_Source\PSoC4/CapSense_1_Structure.c ****                     #if (CapSense_1_ENABLE == CapSense_1_CENTROID_5X5_CSD_EN)
1745:Generated_Source\PSoC4/CapSense_1_Structure.c ****                         }
1746:Generated_Source\PSoC4/CapSense_1_Structure.c ****                     #endif
1747:Generated_Source\PSoC4/CapSense_1_Structure.c ****                 #endif
1748:Generated_Source\PSoC4/CapSense_1_Structure.c **** 
1749:Generated_Source\PSoC4/CapSense_1_Structure.c ****                 break;
 687              		.loc 1 1749 0
 688 0034 01E0     		b	.L59
 689              	.LVL77:
 690              	.L62:
1702:Generated_Source\PSoC4/CapSense_1_Structure.c **** 
 691              		.loc 1 1702 0
 692 0036 0120     		movs	r0, #1
 693 0038 4042     		rsbs	r0, r0, #0
 694              	.LVL78:
 695              	.L59:
1750:Generated_Source\PSoC4/CapSense_1_Structure.c ****         #endif /* #if (0u != CapSense_1_CSD_TOUCHPAD_WIDGET_EN) */
1751:Generated_Source\PSoC4/CapSense_1_Structure.c **** 
1752:Generated_Source\PSoC4/CapSense_1_Structure.c ****         #if (0u != CapSense_1_CSX_TOUCHPAD_WIDGET_EN)
1753:Generated_Source\PSoC4/CapSense_1_Structure.c ****             case CapSense_1_SENSE_METHOD_CSX_E:
1754:Generated_Source\PSoC4/CapSense_1_Structure.c ****                 wdCsxTouchpad = ptrFlashWdgt->ptr2WdgtRam;
1755:Generated_Source\PSoC4/CapSense_1_Structure.c **** 
1756:Generated_Source\PSoC4/CapSense_1_Structure.c ****                 result = ((uint32)wdCsxTouchpad->touch[0u].x) |
1757:Generated_Source\PSoC4/CapSense_1_Structure.c ****                          ((uint32)wdCsxTouchpad->touch[0u].y << 16u);
1758:Generated_Source\PSoC4/CapSense_1_Structure.c ****                 break;
1759:Generated_Source\PSoC4/CapSense_1_Structure.c ****         #endif /* #if (0u != CapSense_1_CSX_TOUCHPAD_WIDGET_EN) */
1760:Generated_Source\PSoC4/CapSense_1_Structure.c **** 
1761:Generated_Source\PSoC4/CapSense_1_Structure.c ****         default:
1762:Generated_Source\PSoC4/CapSense_1_Structure.c ****             CYASSERT(0u);
1763:Generated_Source\PSoC4/CapSense_1_Structure.c ****             break;
1764:Generated_Source\PSoC4/CapSense_1_Structure.c ****         }
1765:Generated_Source\PSoC4/CapSense_1_Structure.c ****     }
1766:Generated_Source\PSoC4/CapSense_1_Structure.c **** 
1767:Generated_Source\PSoC4/CapSense_1_Structure.c ****     return result;
1768:Generated_Source\PSoC4/CapSense_1_Structure.c **** }
 696              		.loc 1 1768 0
 697              		@ sp needed
 698 003a 7047     		bx	lr
 699              	.L64:
 700              		.align	2
 701              	.L63:
ARM GAS  C:\Users\exp32\AppData\Local\Temp\cc6N2LT5.s 			page 45


 702 003c 00000000 		.word	.LANCHOR0
 703              		.cfi_endproc
 704              	.LFE8:
 705              		.size	CapSense_1_GetXYCoordinates, .-CapSense_1_GetXYCoordinates
 706              		.global	CapSense_1_ramIdacInit
 707              		.global	CapSense_1_ramWidgetInit
 708              		.global	CapSense_1_ioList
 709              		.global	CapSense_1_dsFlash
 710              		.comm	CapSense_1_dsRam,388,4
 711              		.section	.rodata
 712              		.align	2
 713              		.set	.LANCHOR0,. + 0
 714              		.set	.LANCHOR1,. + 384
 715              		.type	CapSense_1_ramIdacInit, %object
 716              		.size	CapSense_1_ramIdacInit, 18
 717              	CapSense_1_ramIdacInit:
 718 0000 20       		.byte	32
 719 0001 20       		.byte	32
 720 0002 20       		.byte	32
 721 0003 20       		.byte	32
 722 0004 20       		.byte	32
 723 0005 20       		.byte	32
 724 0006 20       		.byte	32
 725 0007 20       		.byte	32
 726 0008 20       		.byte	32
 727 0009 20       		.byte	32
 728 000a 20       		.byte	32
 729 000b 20       		.byte	32
 730 000c 20       		.byte	32
 731 000d 20       		.byte	32
 732 000e 20       		.byte	32
 733 000f 20       		.byte	32
 734 0010 20       		.byte	32
 735 0011 20       		.byte	32
 736 0012 0000     		.space	2
 737              		.type	CapSense_1_dsFlash, %object
 738              		.size	CapSense_1_dsFlash, 364
 739              	CapSense_1_dsFlash:
 740 0014 00000000 		.word	CapSense_1_ioList
 741 0018 2A000000 		.word	CapSense_1_dsRam+42
 742 001c C8000000 		.word	CapSense_1_dsRam+200
 743 0020 00000000 		.word	0
 744 0024 F0000000 		.word	CapSense_1_debounceButton0
 745 0028 01280000 		.word	10241
 746 002c 0100     		.short	1
 747 002e 01       		.byte	1
 748 002f 01       		.byte	1
 749 0030 00       		.byte	0
 750 0031 00       		.space	1
 751 0032 0000     		.short	0
 752 0034 0000     		.short	0
 753 0036 0000     		.space	2
 754 0038 00000000 		.word	0
 755 003c 00000000 		.word	0
 756 0040 CC000000 		.word	CapSense_1_noiseEnvlpButton0
 757 0044 00       		.byte	0
 758 0045 000000   		.space	3
ARM GAS  C:\Users\exp32\AppData\Local\Temp\cc6N2LT5.s 			page 46


 759 0048 1C000000 		.word	CapSense_1_ioList+28
 760 004c 40000000 		.word	CapSense_1_dsRam+64
 761 0050 D2000000 		.word	CapSense_1_dsRam+210
 762 0054 00000000 		.word	0
 763 0058 EC000000 		.word	CapSense_1_debounceButton1
 764 005c 01280000 		.word	10241
 765 0060 0100     		.short	1
 766 0062 01       		.byte	1
 767 0063 01       		.byte	1
 768 0064 00       		.byte	0
 769 0065 00       		.space	1
 770 0066 0000     		.short	0
 771 0068 0000     		.short	0
 772 006a 0000     		.space	2
 773 006c 00000000 		.word	0
 774 0070 00000000 		.word	0
 775 0074 C0000000 		.word	CapSense_1_noiseEnvlpButton1
 776 0078 00       		.byte	0
 777 0079 000000   		.space	3
 778 007c 38000000 		.word	CapSense_1_ioList+56
 779 0080 56000000 		.word	CapSense_1_dsRam+86
 780 0084 DC000000 		.word	CapSense_1_dsRam+220
 781 0088 00000000 		.word	0
 782 008c E8000000 		.word	CapSense_1_debounceTouchpad0
 783 0090 01280000 		.word	10241
 784 0094 0C00     		.short	12
 785 0096 05       		.byte	5
 786 0097 06       		.byte	6
 787 0098 06       		.byte	6
 788 0099 00       		.space	1
 789 009a 6400     		.short	100
 790 009c 6400     		.short	100
 791 009e 0000     		.space	2
 792 00a0 00140000 		.word	5120
 793 00a4 00140000 		.word	5120
 794 00a8 30000000 		.word	CapSense_1_noiseEnvlpTouchpad0
 795 00ac 80       		.byte	-128
 796 00ad 000000   		.space	3
 797 00b0 88010000 		.word	CapSense_1_ioList+392
 798 00b4 70000000 		.word	CapSense_1_dsRam+112
 799 00b8 54010000 		.word	CapSense_1_dsRam+340
 800 00bc 00000000 		.word	0
 801 00c0 E4000000 		.word	CapSense_1_debounceButton2
 802 00c4 01280000 		.word	10241
 803 00c8 0100     		.short	1
 804 00ca 01       		.byte	1
 805 00cb 01       		.byte	1
 806 00cc 00       		.byte	0
 807 00cd 00       		.space	1
 808 00ce 0000     		.short	0
 809 00d0 0000     		.short	0
 810 00d2 0000     		.space	2
 811 00d4 00000000 		.word	0
 812 00d8 00000000 		.word	0
 813 00dc 24000000 		.word	CapSense_1_noiseEnvlpButton2
 814 00e0 00       		.byte	0
 815 00e1 000000   		.space	3
ARM GAS  C:\Users\exp32\AppData\Local\Temp\cc6N2LT5.s 			page 47


 816 00e4 A4010000 		.word	CapSense_1_ioList+420
 817 00e8 86000000 		.word	CapSense_1_dsRam+134
 818 00ec 5E010000 		.word	CapSense_1_dsRam+350
 819 00f0 00000000 		.word	0
 820 00f4 E0000000 		.word	CapSense_1_debounceButton3
 821 00f8 01280000 		.word	10241
 822 00fc 0100     		.short	1
 823 00fe 01       		.byte	1
 824 00ff 01       		.byte	1
 825 0100 00       		.byte	0
 826 0101 00       		.space	1
 827 0102 0000     		.short	0
 828 0104 0000     		.short	0
 829 0106 0000     		.space	2
 830 0108 00000000 		.word	0
 831 010c 00000000 		.word	0
 832 0110 18000000 		.word	CapSense_1_noiseEnvlpButton3
 833 0114 00       		.byte	0
 834 0115 000000   		.space	3
 835 0118 C0010000 		.word	CapSense_1_ioList+448
 836 011c 9C000000 		.word	CapSense_1_dsRam+156
 837 0120 68010000 		.word	CapSense_1_dsRam+360
 838 0124 00000000 		.word	0
 839 0128 DC000000 		.word	CapSense_1_debounceButton4
 840 012c 01280000 		.word	10241
 841 0130 0100     		.short	1
 842 0132 01       		.byte	1
 843 0133 01       		.byte	1
 844 0134 00       		.byte	0
 845 0135 00       		.space	1
 846 0136 0000     		.short	0
 847 0138 0000     		.short	0
 848 013a 0000     		.space	2
 849 013c 00000000 		.word	0
 850 0140 00000000 		.word	0
 851 0144 0C000000 		.word	CapSense_1_noiseEnvlpButton4
 852 0148 00       		.byte	0
 853 0149 000000   		.space	3
 854 014c DC010000 		.word	CapSense_1_ioList+476
 855 0150 B2000000 		.word	CapSense_1_dsRam+178
 856 0154 72010000 		.word	CapSense_1_dsRam+370
 857 0158 00000000 		.word	0
 858 015c D8000000 		.word	CapSense_1_debounceButton5
 859 0160 01280000 		.word	10241
 860 0164 0100     		.short	1
 861 0166 01       		.byte	1
 862 0167 01       		.byte	1
 863 0168 00       		.byte	0
 864 0169 00       		.space	1
 865 016a 0000     		.short	0
 866 016c 0000     		.short	0
 867 016e 0000     		.space	2
 868 0170 00000000 		.word	0
 869 0174 00000000 		.word	0
 870 0178 00000000 		.word	CapSense_1_noiseEnvlpButton5
 871 017c 00       		.byte	0
 872 017d 000000   		.space	3
ARM GAS  C:\Users\exp32\AppData\Local\Temp\cc6N2LT5.s 			page 48


 873              		.type	CapSense_1_ramWidgetInit, %object
 874              		.size	CapSense_1_ramWidgetInit, 158
 875              	CapSense_1_ramWidgetInit:
 876 0180 0C00     		.short	12
 877 0182 6400     		.short	100
 878 0184 28       		.byte	40
 879 0185 28       		.byte	40
 880 0186 0A       		.byte	10
 881 0187 03       		.byte	3
 882 0188 1E       		.byte	30
 883 0189 20       		.byte	32
 884 018a 20       		.byte	32
 885 018b 05       		.byte	5
 886 018c 0400     		.short	4
 887 018e 0400     		.short	4
 888 0190 00       		.byte	0
 889 0191 00       		.byte	0
 890 0192 A000     		.short	160
 891 0194 0000     		.short	0
 892 0196 0C00     		.short	12
 893 0198 6400     		.short	100
 894 019a 28       		.byte	40
 895 019b 28       		.byte	40
 896 019c 0A       		.byte	10
 897 019d 03       		.byte	3
 898 019e 1E       		.byte	30
 899 019f 20       		.byte	32
 900 01a0 20       		.byte	32
 901 01a1 05       		.byte	5
 902 01a2 0400     		.short	4
 903 01a4 0400     		.short	4
 904 01a6 00       		.byte	0
 905 01a7 00       		.byte	0
 906 01a8 A000     		.short	160
 907 01aa 0000     		.short	0
 908 01ac 0C00     		.short	12
 909 01ae 6400     		.short	100
 910 01b0 28       		.byte	40
 911 01b1 28       		.byte	40
 912 01b2 0A       		.byte	10
 913 01b3 03       		.byte	3
 914 01b4 1E       		.byte	30
 915 01b5 20       		.byte	32
 916 01b6 20       		.byte	32
 917 01b7 05       		.byte	5
 918 01b8 0400     		.short	4
 919 01ba 0400     		.short	4
 920 01bc 00       		.byte	0
 921 01bd 00       		.byte	0
 922 01be A000     		.short	160
 923 01c0 0000     		.short	0
 924 01c2 FFFF     		.short	-1
 925 01c4 FFFF     		.short	-1
 926 01c6 0C00     		.short	12
 927 01c8 6400     		.short	100
 928 01ca 28       		.byte	40
 929 01cb 28       		.byte	40
ARM GAS  C:\Users\exp32\AppData\Local\Temp\cc6N2LT5.s 			page 49


 930 01cc 0A       		.byte	10
 931 01cd 03       		.byte	3
 932 01ce 1E       		.byte	30
 933 01cf 20       		.byte	32
 934 01d0 20       		.byte	32
 935 01d1 05       		.byte	5
 936 01d2 0400     		.short	4
 937 01d4 0400     		.short	4
 938 01d6 00       		.byte	0
 939 01d7 00       		.byte	0
 940 01d8 A000     		.short	160
 941 01da 0000     		.short	0
 942 01dc 0C00     		.short	12
 943 01de 6400     		.short	100
 944 01e0 28       		.byte	40
 945 01e1 28       		.byte	40
 946 01e2 0A       		.byte	10
 947 01e3 03       		.byte	3
 948 01e4 1E       		.byte	30
 949 01e5 20       		.byte	32
 950 01e6 20       		.byte	32
 951 01e7 05       		.byte	5
 952 01e8 0400     		.short	4
 953 01ea 0400     		.short	4
 954 01ec 00       		.byte	0
 955 01ed 00       		.byte	0
 956 01ee A000     		.short	160
 957 01f0 0000     		.short	0
 958 01f2 0C00     		.short	12
 959 01f4 6400     		.short	100
 960 01f6 28       		.byte	40
 961 01f7 28       		.byte	40
 962 01f8 0A       		.byte	10
 963 01f9 03       		.byte	3
 964 01fa 1E       		.byte	30
 965 01fb 20       		.byte	32
 966 01fc 20       		.byte	32
 967 01fd 05       		.byte	5
 968 01fe 0400     		.short	4
 969 0200 0400     		.short	4
 970 0202 00       		.byte	0
 971 0203 00       		.byte	0
 972 0204 A000     		.short	160
 973 0206 0000     		.short	0
 974 0208 0C00     		.short	12
 975 020a 6400     		.short	100
 976 020c 28       		.byte	40
 977 020d 28       		.byte	40
 978 020e 0A       		.byte	10
 979 020f 03       		.byte	3
 980 0210 1E       		.byte	30
 981 0211 20       		.byte	32
 982 0212 20       		.byte	32
 983 0213 05       		.byte	5
 984 0214 0400     		.short	4
 985 0216 0400     		.short	4
 986 0218 00       		.byte	0
ARM GAS  C:\Users\exp32\AppData\Local\Temp\cc6N2LT5.s 			page 50


 987 0219 00       		.byte	0
 988 021a A000     		.short	160
 989 021c 0000     		.short	0
 990 021e 0000     		.space	2
 991              		.type	CapSense_1_ioList, %object
 992              		.size	CapSense_1_ioList, 504
 993              	CapSense_1_ioList:
 994 0220 00000240 		.word	1073872896
 995 0224 08000440 		.word	1074003976
 996 0228 00000440 		.word	1074003968
 997 022c 04000440 		.word	1074003972
 998 0230 0000000F 		.word	251658240
 999 0234 40000000 		.word	64
 1000 0238 18       		.byte	24
 1001 0239 06       		.byte	6
 1002 023a 12       		.byte	18
 1003 023b 00       		.space	1
 1004 023c 00000240 		.word	1073872896
 1005 0240 08000440 		.word	1074003976
 1006 0244 00000440 		.word	1074003968
 1007 0248 04000440 		.word	1074003972
 1008 024c 000000F0 		.word	-268435456
 1009 0250 80000000 		.word	128
 1010 0254 1C       		.byte	28
 1011 0255 07       		.byte	7
 1012 0256 15       		.byte	21
 1013 0257 00       		.space	1
 1014 0258 00000240 		.word	1073872896
 1015 025c 08000440 		.word	1074003976
 1016 0260 00000440 		.word	1074003968
 1017 0264 04000440 		.word	1074003972
 1018 0268 0F000000 		.word	15
 1019 026c 01000000 		.word	1
 1020 0270 00       		.byte	0
 1021 0271 00       		.byte	0
 1022 0272 00       		.byte	0
 1023 0273 00       		.space	1
 1024 0274 00000240 		.word	1073872896
 1025 0278 08000440 		.word	1074003976
 1026 027c 00000440 		.word	1074003968
 1027 0280 04000440 		.word	1074003972
 1028 0284 F0000000 		.word	240
 1029 0288 02000000 		.word	2
 1030 028c 04       		.byte	4
 1031 028d 01       		.byte	1
 1032 028e 03       		.byte	3
 1033 028f 00       		.space	1
 1034 0290 00000240 		.word	1073872896
 1035 0294 08000440 		.word	1074003976
 1036 0298 00000440 		.word	1074003968
 1037 029c 04000440 		.word	1074003972
 1038 02a0 000F0000 		.word	3840
 1039 02a4 04000000 		.word	4
 1040 02a8 08       		.byte	8
 1041 02a9 02       		.byte	2
 1042 02aa 06       		.byte	6
 1043 02ab 00       		.space	1
ARM GAS  C:\Users\exp32\AppData\Local\Temp\cc6N2LT5.s 			page 51


 1044 02ac 00000240 		.word	1073872896
 1045 02b0 08000440 		.word	1074003976
 1046 02b4 00000440 		.word	1074003968
 1047 02b8 04000440 		.word	1074003972
 1048 02bc 00F00000 		.word	61440
 1049 02c0 08000000 		.word	8
 1050 02c4 0C       		.byte	12
 1051 02c5 03       		.byte	3
 1052 02c6 09       		.byte	9
 1053 02c7 00       		.space	1
 1054 02c8 00000240 		.word	1073872896
 1055 02cc 08000440 		.word	1074003976
 1056 02d0 00000440 		.word	1074003968
 1057 02d4 04000440 		.word	1074003972
 1058 02d8 00000F00 		.word	983040
 1059 02dc 10000000 		.word	16
 1060 02e0 10       		.byte	16
 1061 02e1 04       		.byte	4
 1062 02e2 0C       		.byte	12
 1063 02e3 00       		.space	1
 1064 02e4 00000240 		.word	1073872896
 1065 02e8 08000440 		.word	1074003976
 1066 02ec 00000440 		.word	1074003968
 1067 02f0 04000440 		.word	1074003972
 1068 02f4 0000F000 		.word	15728640
 1069 02f8 20000000 		.word	32
 1070 02fc 14       		.byte	20
 1071 02fd 05       		.byte	5
 1072 02fe 0F       		.byte	15
 1073 02ff 00       		.space	1
 1074 0300 00030240 		.word	1073873664
 1075 0304 08030440 		.word	1074004744
 1076 0308 00030440 		.word	1074004736
 1077 030c 04030440 		.word	1074004740
 1078 0310 0000F000 		.word	15728640
 1079 0314 20000000 		.word	32
 1080 0318 14       		.byte	20
 1081 0319 05       		.byte	5
 1082 031a 0F       		.byte	15
 1083 031b 00       		.space	1
 1084 031c 00030240 		.word	1073873664
 1085 0320 08030440 		.word	1074004744
 1086 0324 00030440 		.word	1074004736
 1087 0328 04030440 		.word	1074004740
 1088 032c 0000000F 		.word	251658240
 1089 0330 40000000 		.word	64
 1090 0334 18       		.byte	24
 1091 0335 06       		.byte	6
 1092 0336 12       		.byte	18
 1093 0337 00       		.space	1
 1094 0338 00030240 		.word	1073873664
 1095 033c 08030440 		.word	1074004744
 1096 0340 00030440 		.word	1074004736
 1097 0344 04030440 		.word	1074004740
 1098 0348 000000F0 		.word	-268435456
 1099 034c 80000000 		.word	128
 1100 0350 1C       		.byte	28
ARM GAS  C:\Users\exp32\AppData\Local\Temp\cc6N2LT5.s 			page 52


 1101 0351 07       		.byte	7
 1102 0352 15       		.byte	21
 1103 0353 00       		.space	1
 1104 0354 00040240 		.word	1073873920
 1105 0358 08040440 		.word	1074005000
 1106 035c 00040440 		.word	1074004992
 1107 0360 04040440 		.word	1074004996
 1108 0364 0F000000 		.word	15
 1109 0368 01000000 		.word	1
 1110 036c 00       		.byte	0
 1111 036d 00       		.byte	0
 1112 036e 00       		.byte	0
 1113 036f 00       		.space	1
 1114 0370 00040240 		.word	1073873920
 1115 0374 08040440 		.word	1074005000
 1116 0378 00040440 		.word	1074004992
 1117 037c 04040440 		.word	1074004996
 1118 0380 F0000000 		.word	240
 1119 0384 02000000 		.word	2
 1120 0388 04       		.byte	4
 1121 0389 01       		.byte	1
 1122 038a 03       		.byte	3
 1123 038b 00       		.space	1
 1124 038c 00040240 		.word	1073873920
 1125 0390 08040440 		.word	1074005000
 1126 0394 00040440 		.word	1074004992
 1127 0398 04040440 		.word	1074004996
 1128 039c 000F0000 		.word	3840
 1129 03a0 04000000 		.word	4
 1130 03a4 08       		.byte	8
 1131 03a5 02       		.byte	2
 1132 03a6 06       		.byte	6
 1133 03a7 00       		.space	1
 1134 03a8 00060240 		.word	1073874432
 1135 03ac 08060440 		.word	1074005512
 1136 03b0 00060440 		.word	1074005504
 1137 03b4 04060440 		.word	1074005508
 1138 03b8 F0000000 		.word	240
 1139 03bc 02000000 		.word	2
 1140 03c0 04       		.byte	4
 1141 03c1 01       		.byte	1
 1142 03c2 03       		.byte	3
 1143 03c3 00       		.space	1
 1144 03c4 00060240 		.word	1073874432
 1145 03c8 08060440 		.word	1074005512
 1146 03cc 00060440 		.word	1074005504
 1147 03d0 04060440 		.word	1074005508
 1148 03d4 000F0000 		.word	3840
 1149 03d8 04000000 		.word	4
 1150 03dc 08       		.byte	8
 1151 03dd 02       		.byte	2
 1152 03de 06       		.byte	6
 1153 03df 00       		.space	1
 1154 03e0 00030240 		.word	1073873664
 1155 03e4 08030440 		.word	1074004744
 1156 03e8 00030440 		.word	1074004736
 1157 03ec 04030440 		.word	1074004740
ARM GAS  C:\Users\exp32\AppData\Local\Temp\cc6N2LT5.s 			page 53


 1158 03f0 0F000000 		.word	15
 1159 03f4 01000000 		.word	1
 1160 03f8 00       		.byte	0
 1161 03f9 00       		.byte	0
 1162 03fa 00       		.byte	0
 1163 03fb 00       		.space	1
 1164 03fc 00030240 		.word	1073873664
 1165 0400 08030440 		.word	1074004744
 1166 0404 00030440 		.word	1074004736
 1167 0408 04030440 		.word	1074004740
 1168 040c F0000000 		.word	240
 1169 0410 02000000 		.word	2
 1170 0414 04       		.byte	4
 1171 0415 01       		.byte	1
 1172 0416 03       		.byte	3
 1173 0417 00       		.space	1
 1174              		.bss
 1175              		.align	2
 1176              		.type	CapSense_1_noiseEnvlpButton5, %object
 1177              		.size	CapSense_1_noiseEnvlpButton5, 12
 1178              	CapSense_1_noiseEnvlpButton5:
 1179 0000 00000000 		.space	12
 1179      00000000 
 1179      00000000 
 1180              		.type	CapSense_1_noiseEnvlpButton4, %object
 1181              		.size	CapSense_1_noiseEnvlpButton4, 12
 1182              	CapSense_1_noiseEnvlpButton4:
 1183 000c 00000000 		.space	12
 1183      00000000 
 1183      00000000 
 1184              		.type	CapSense_1_noiseEnvlpButton3, %object
 1185              		.size	CapSense_1_noiseEnvlpButton3, 12
 1186              	CapSense_1_noiseEnvlpButton3:
 1187 0018 00000000 		.space	12
 1187      00000000 
 1187      00000000 
 1188              		.type	CapSense_1_noiseEnvlpButton2, %object
 1189              		.size	CapSense_1_noiseEnvlpButton2, 12
 1190              	CapSense_1_noiseEnvlpButton2:
 1191 0024 00000000 		.space	12
 1191      00000000 
 1191      00000000 
 1192              		.type	CapSense_1_noiseEnvlpTouchpad0, %object
 1193              		.size	CapSense_1_noiseEnvlpTouchpad0, 144
 1194              	CapSense_1_noiseEnvlpTouchpad0:
 1195 0030 00000000 		.space	144
 1195      00000000 
 1195      00000000 
 1195      00000000 
 1195      00000000 
 1196              		.type	CapSense_1_noiseEnvlpButton1, %object
 1197              		.size	CapSense_1_noiseEnvlpButton1, 12
 1198              	CapSense_1_noiseEnvlpButton1:
 1199 00c0 00000000 		.space	12
 1199      00000000 
 1199      00000000 
 1200              		.type	CapSense_1_noiseEnvlpButton0, %object
ARM GAS  C:\Users\exp32\AppData\Local\Temp\cc6N2LT5.s 			page 54


 1201              		.size	CapSense_1_noiseEnvlpButton0, 12
 1202              	CapSense_1_noiseEnvlpButton0:
 1203 00cc 00000000 		.space	12
 1203      00000000 
 1203      00000000 
 1204              		.type	CapSense_1_debounceButton5, %object
 1205              		.size	CapSense_1_debounceButton5, 1
 1206              	CapSense_1_debounceButton5:
 1207 00d8 00       		.space	1
 1208 00d9 000000   		.space	3
 1209              		.type	CapSense_1_debounceButton4, %object
 1210              		.size	CapSense_1_debounceButton4, 1
 1211              	CapSense_1_debounceButton4:
 1212 00dc 00       		.space	1
 1213 00dd 000000   		.space	3
 1214              		.type	CapSense_1_debounceButton3, %object
 1215              		.size	CapSense_1_debounceButton3, 1
 1216              	CapSense_1_debounceButton3:
 1217 00e0 00       		.space	1
 1218 00e1 000000   		.space	3
 1219              		.type	CapSense_1_debounceButton2, %object
 1220              		.size	CapSense_1_debounceButton2, 1
 1221              	CapSense_1_debounceButton2:
 1222 00e4 00       		.space	1
 1223 00e5 000000   		.space	3
 1224              		.type	CapSense_1_debounceTouchpad0, %object
 1225              		.size	CapSense_1_debounceTouchpad0, 1
 1226              	CapSense_1_debounceTouchpad0:
 1227 00e8 00       		.space	1
 1228 00e9 000000   		.space	3
 1229              		.type	CapSense_1_debounceButton1, %object
 1230              		.size	CapSense_1_debounceButton1, 1
 1231              	CapSense_1_debounceButton1:
 1232 00ec 00       		.space	1
 1233 00ed 000000   		.space	3
 1234              		.type	CapSense_1_debounceButton0, %object
 1235              		.size	CapSense_1_debounceButton0, 1
 1236              	CapSense_1_debounceButton0:
 1237 00f0 00       		.space	1
 1238              		.text
 1239              	.Letext0:
 1240              		.file 2 "Generated_Source\\PSoC4/cytypes.h"
 1241              		.file 3 "Generated_Source\\PSoC4\\CapSense_1_Configuration.h"
 1242              		.file 4 "Generated_Source\\PSoC4\\CapSense_1_SmartSense_LL.h"
 1243              		.file 5 "Generated_Source\\PSoC4\\CapSense_1_Structure.h"
 1244              		.file 6 "Generated_Source\\PSoC4\\CyLib.h"