ARM GAS  C:\Users\exp32\AppData\Local\Temp\ccki8209.s 			page 1


   1              		.syntax unified
   2              		.cpu cortex-m0plus
   3              		.fpu softvfp
   4              		.eabi_attribute 20, 1
   5              		.eabi_attribute 21, 1
   6              		.eabi_attribute 23, 3
   7              		.eabi_attribute 24, 1
   8              		.eabi_attribute 25, 1
   9              		.eabi_attribute 26, 1
  10              		.eabi_attribute 30, 1
  11              		.eabi_attribute 34, 0
  12              		.eabi_attribute 18, 4
  13              		.thumb
  14              		.syntax unified
  15              		.file	"CapSense_1_Processing.c"
  16              		.text
  17              	.Ltext0:
  18              		.cfi_sections	.debug_frame
  19              		.section	.text.CapSense_1_DpInitialize,"ax",%progbits
  20              		.align	2
  21              		.global	CapSense_1_DpInitialize
  22              		.code	16
  23              		.thumb_func
  24              		.type	CapSense_1_DpInitialize, %function
  25              	CapSense_1_DpInitialize:
  26              	.LFB3:
  27              		.file 1 "Generated_Source\\PSoC4\\CapSense_1_Processing.c"
   1:Generated_Source\PSoC4/CapSense_1_Processing.c **** /***************************************************************************//**
   2:Generated_Source\PSoC4/CapSense_1_Processing.c **** * \file CapSense_1_Processing.c
   3:Generated_Source\PSoC4/CapSense_1_Processing.c **** * \version 7.0
   4:Generated_Source\PSoC4/CapSense_1_Processing.c **** *
   5:Generated_Source\PSoC4/CapSense_1_Processing.c **** * \brief
   6:Generated_Source\PSoC4/CapSense_1_Processing.c **** *   This file provides the source code for the Data Processing module APIs
   7:Generated_Source\PSoC4/CapSense_1_Processing.c **** *   of the Component. The Data Processing module is responsible for the
   8:Generated_Source\PSoC4/CapSense_1_Processing.c **** *   low level raw counts processing provided by the sensing module, maintaining
   9:Generated_Source\PSoC4/CapSense_1_Processing.c **** *   baseline and difference values and performing high-level widget processing
  10:Generated_Source\PSoC4/CapSense_1_Processing.c **** *   like updating button status or calculating slider position.
  11:Generated_Source\PSoC4/CapSense_1_Processing.c **** *
  12:Generated_Source\PSoC4/CapSense_1_Processing.c **** * \see CapSense_1 v7.0 Datasheet
  13:Generated_Source\PSoC4/CapSense_1_Processing.c **** *
  14:Generated_Source\PSoC4/CapSense_1_Processing.c **** *//*****************************************************************************
  15:Generated_Source\PSoC4/CapSense_1_Processing.c **** * Copyright (2016-2019), Cypress Semiconductor Corporation.
  16:Generated_Source\PSoC4/CapSense_1_Processing.c **** ********************************************************************************
  17:Generated_Source\PSoC4/CapSense_1_Processing.c **** * This software is owned by Cypress Semiconductor Corporation (Cypress) and is
  18:Generated_Source\PSoC4/CapSense_1_Processing.c **** * protected by and subject to worldwide patent protection (United States and
  19:Generated_Source\PSoC4/CapSense_1_Processing.c **** * foreign), United States copyright laws and international treaty provisions.
  20:Generated_Source\PSoC4/CapSense_1_Processing.c **** * Cypress hereby grants to licensee a personal, non-exclusive, non-transferable
  21:Generated_Source\PSoC4/CapSense_1_Processing.c **** * license to copy, use, modify, create derivative works of, and compile the
  22:Generated_Source\PSoC4/CapSense_1_Processing.c **** * Cypress Source Code and derivative works for the sole purpose of creating
  23:Generated_Source\PSoC4/CapSense_1_Processing.c **** * custom software in support of licensee product to be used only in conjunction
  24:Generated_Source\PSoC4/CapSense_1_Processing.c **** * with a Cypress integrated circuit as specified in the applicable agreement.
  25:Generated_Source\PSoC4/CapSense_1_Processing.c **** * Any reproduction, modification, translation, compilation, or representation of
  26:Generated_Source\PSoC4/CapSense_1_Processing.c **** * this software except as specified above is prohibited without the express
  27:Generated_Source\PSoC4/CapSense_1_Processing.c **** * written permission of Cypress.
  28:Generated_Source\PSoC4/CapSense_1_Processing.c **** *
  29:Generated_Source\PSoC4/CapSense_1_Processing.c **** * Disclaimer: CYPRESS MAKES NO WARRANTY OF ANY KIND, EXPRESS OR IMPLIED, WITH
  30:Generated_Source\PSoC4/CapSense_1_Processing.c **** * REGARD TO THIS MATERIAL, INCLUDING, BUT NOT LIMITED TO, THE IMPLIED
ARM GAS  C:\Users\exp32\AppData\Local\Temp\ccki8209.s 			page 2


  31:Generated_Source\PSoC4/CapSense_1_Processing.c **** * WARRANTIES OF MERCHANTABILITY AND FITNESS FOR A PARTICULAR PURPOSE.
  32:Generated_Source\PSoC4/CapSense_1_Processing.c **** * Cypress reserves the right to make changes without further notice to the
  33:Generated_Source\PSoC4/CapSense_1_Processing.c **** * materials described herein. Cypress does not assume any liability arising out
  34:Generated_Source\PSoC4/CapSense_1_Processing.c **** * of the application or use of any product or circuit described herein. Cypress
  35:Generated_Source\PSoC4/CapSense_1_Processing.c **** * does not authorize its products for use as critical components in life-support
  36:Generated_Source\PSoC4/CapSense_1_Processing.c **** * systems where a malfunction or failure may reasonably be expected to result in
  37:Generated_Source\PSoC4/CapSense_1_Processing.c **** * significant injury to the user. The inclusion of Cypress' product in a life-
  38:Generated_Source\PSoC4/CapSense_1_Processing.c **** * support systems application implies that the manufacturer assumes all risk of
  39:Generated_Source\PSoC4/CapSense_1_Processing.c **** * such use and in doing so indemnifies Cypress against all charges. Use may be
  40:Generated_Source\PSoC4/CapSense_1_Processing.c **** * limited by and subject to the applicable Cypress software license agreement.
  41:Generated_Source\PSoC4/CapSense_1_Processing.c **** *******************************************************************************/
  42:Generated_Source\PSoC4/CapSense_1_Processing.c **** 
  43:Generated_Source\PSoC4/CapSense_1_Processing.c **** #include "CyLib.h"
  44:Generated_Source\PSoC4/CapSense_1_Processing.c **** #include "cytypes.h"
  45:Generated_Source\PSoC4/CapSense_1_Processing.c **** #include "CapSense_1_Configuration.h"
  46:Generated_Source\PSoC4/CapSense_1_Processing.c **** #include "CapSense_1_Processing.h"
  47:Generated_Source\PSoC4/CapSense_1_Processing.c **** #include "CapSense_1_Filter.h"
  48:Generated_Source\PSoC4/CapSense_1_Processing.c **** 
  49:Generated_Source\PSoC4/CapSense_1_Processing.c **** #if (0u != CapSense_1_CENTROID_EN)
  50:Generated_Source\PSoC4/CapSense_1_Processing.c ****     #include "CapSense_1_Centroid_LL.h"
  51:Generated_Source\PSoC4/CapSense_1_Processing.c **** #endif /* (0 != CapSense_1_CENTROID_EN) */
  52:Generated_Source\PSoC4/CapSense_1_Processing.c **** 
  53:Generated_Source\PSoC4/CapSense_1_Processing.c **** #if (0 != (CapSense_1_CSD_AUTOTUNE & CapSense_1_CSD_SS_TH_EN))
  54:Generated_Source\PSoC4/CapSense_1_Processing.c ****     #include "CapSense_1_SmartSense_LL.h"
  55:Generated_Source\PSoC4/CapSense_1_Processing.c **** #endif /* (0 != (CapSense_1_CSD_AUTOTUNE & CapSense_1_CSD_SS_TH_EN)) */
  56:Generated_Source\PSoC4/CapSense_1_Processing.c **** 
  57:Generated_Source\PSoC4/CapSense_1_Processing.c **** #if (CapSense_1_ENABLE == CapSense_1_SELF_TEST_EN)
  58:Generated_Source\PSoC4/CapSense_1_Processing.c ****     #include "CapSense_1_SelfTest.h"
  59:Generated_Source\PSoC4/CapSense_1_Processing.c **** #endif
  60:Generated_Source\PSoC4/CapSense_1_Processing.c **** 
  61:Generated_Source\PSoC4/CapSense_1_Processing.c **** #if (CapSense_1_ENABLE == CapSense_1_CENTROID_5X5_CSD_EN)
  62:Generated_Source\PSoC4/CapSense_1_Processing.c ****     #include "CapSense_1_AdvancedCentroid_LL.h"
  63:Generated_Source\PSoC4/CapSense_1_Processing.c **** #endif
  64:Generated_Source\PSoC4/CapSense_1_Processing.c **** 
  65:Generated_Source\PSoC4/CapSense_1_Processing.c **** #if (CapSense_1_ENABLE == CapSense_1_POS_ADAPTIVE_IIR_FILTER_EN)
  66:Generated_Source\PSoC4/CapSense_1_Processing.c ****     #include "CapSense_1_AdaptiveFilter_LL.h"
  67:Generated_Source\PSoC4/CapSense_1_Processing.c **** #endif
  68:Generated_Source\PSoC4/CapSense_1_Processing.c **** 
  69:Generated_Source\PSoC4/CapSense_1_Processing.c **** #if(CapSense_1_ENABLE == CapSense_1_BALLISTIC_MULTIPLIER_EN)
  70:Generated_Source\PSoC4/CapSense_1_Processing.c ****     #include "CapSense_1_Gesture.h"
  71:Generated_Source\PSoC4/CapSense_1_Processing.c **** #endif
  72:Generated_Source\PSoC4/CapSense_1_Processing.c **** 
  73:Generated_Source\PSoC4/CapSense_1_Processing.c **** /**************************************************************************************************
  74:Generated_Source\PSoC4/CapSense_1_Processing.c **** * Local definition
  75:Generated_Source\PSoC4/CapSense_1_Processing.c **** ***************************************************************************************************
  76:Generated_Source\PSoC4/CapSense_1_Processing.c **** 
  77:Generated_Source\PSoC4/CapSense_1_Processing.c **** /* UINT32 constant with all odd bits set. It is used by the processing function of the Proximity wi
  78:Generated_Source\PSoC4/CapSense_1_Processing.c **** *  determine type of the status bit: odd bits report proximity status; even bits report touch statu
  79:Generated_Source\PSoC4/CapSense_1_Processing.c **** */
  80:Generated_Source\PSoC4/CapSense_1_Processing.c **** #define UINT32_ODD_BITS_CONST       (0x55555555u)
  81:Generated_Source\PSoC4/CapSense_1_Processing.c **** 
  82:Generated_Source\PSoC4/CapSense_1_Processing.c **** /* Default value for the Off Debounce counter when the Off Debounce is disabled */
  83:Generated_Source\PSoC4/CapSense_1_Processing.c **** #define DEFAULT_OFF_DEBOUNCE_VALUE  (1u)
  84:Generated_Source\PSoC4/CapSense_1_Processing.c **** #define PERCENTAGE_100              (100u)
  85:Generated_Source\PSoC4/CapSense_1_Processing.c **** #define TEMP_BUFFER_MSB_SHIFT       (16)
  86:Generated_Source\PSoC4/CapSense_1_Processing.c **** 
  87:Generated_Source\PSoC4/CapSense_1_Processing.c **** /**************************************************************************************************
ARM GAS  C:\Users\exp32\AppData\Local\Temp\ccki8209.s 			page 3


  88:Generated_Source\PSoC4/CapSense_1_Processing.c **** * Local variables
  89:Generated_Source\PSoC4/CapSense_1_Processing.c **** ***************************************************************************************************
  90:Generated_Source\PSoC4/CapSense_1_Processing.c **** #if (0u != CapSense_1_CSX_MULTIPHASE_TX_EN)
  91:Generated_Source\PSoC4/CapSense_1_Processing.c ****     static uint16 deconvRowData[CapSense_1_CSX_MAX_TX_PHASE_LENGTH];
  92:Generated_Source\PSoC4/CapSense_1_Processing.c **** #endif
  93:Generated_Source\PSoC4/CapSense_1_Processing.c **** 
  94:Generated_Source\PSoC4/CapSense_1_Processing.c **** 
  95:Generated_Source\PSoC4/CapSense_1_Processing.c **** /**************************************************************************************************
  96:Generated_Source\PSoC4/CapSense_1_Processing.c **** * Static Function Prototypes
  97:Generated_Source\PSoC4/CapSense_1_Processing.c **** ***************************************************************************************************
  98:Generated_Source\PSoC4/CapSense_1_Processing.c **** /**
  99:Generated_Source\PSoC4/CapSense_1_Processing.c **** * \cond SECTION_C_INTERNAL
 100:Generated_Source\PSoC4/CapSense_1_Processing.c **** * \addtogroup group_c_internal
 101:Generated_Source\PSoC4/CapSense_1_Processing.c **** * \{
 102:Generated_Source\PSoC4/CapSense_1_Processing.c **** */
 103:Generated_Source\PSoC4/CapSense_1_Processing.c **** #if (0u != CapSense_1_TOTAL_LINEAR_SLIDERS)
 104:Generated_Source\PSoC4/CapSense_1_Processing.c ****     static CY_INLINE void DpUpdateLinSlider(
 105:Generated_Source\PSoC4/CapSense_1_Processing.c ****                         const uint16 newPos[], uint32 numTouches,
 106:Generated_Source\PSoC4/CapSense_1_Processing.c ****                         CapSense_1_FLASH_WD_STRUCT const *ptrFlashWdgt,
 107:Generated_Source\PSoC4/CapSense_1_Processing.c ****                         CapSense_1_RAM_WD_SLIDER_STRUCT *ptrRamWdgt);
 108:Generated_Source\PSoC4/CapSense_1_Processing.c **** #endif /* #if (0u != CapSense_1_TOTAL_LINEAR_SLIDERS) */
 109:Generated_Source\PSoC4/CapSense_1_Processing.c **** 
 110:Generated_Source\PSoC4/CapSense_1_Processing.c **** #if (0u != CapSense_1_TOTAL_RADIAL_SLIDERS)
 111:Generated_Source\PSoC4/CapSense_1_Processing.c ****     static CY_INLINE void DpUpdateRadSlider(
 112:Generated_Source\PSoC4/CapSense_1_Processing.c ****                         const uint16 newPos[], uint32 numTouches,
 113:Generated_Source\PSoC4/CapSense_1_Processing.c ****                         CapSense_1_FLASH_WD_STRUCT const * ptrFlashWdgt,
 114:Generated_Source\PSoC4/CapSense_1_Processing.c ****                         CapSense_1_RAM_WD_SLIDER_STRUCT *ptrRamWdgt);
 115:Generated_Source\PSoC4/CapSense_1_Processing.c **** #endif /* #if (0u != CapSense_1_TOTAL_RADIAL_SLIDERS) */
 116:Generated_Source\PSoC4/CapSense_1_Processing.c **** 
 117:Generated_Source\PSoC4/CapSense_1_Processing.c **** #if (0u != CapSense_1_CSD_TOUCHPAD_WIDGET_EN)
 118:Generated_Source\PSoC4/CapSense_1_Processing.c ****     static CY_INLINE void CapSense_1_DpInitCsdTouchpad(CapSense_1_FLASH_WD_STRUCT const * ptrFlashW
 119:Generated_Source\PSoC4/CapSense_1_Processing.c **** #endif /* #if (0u != CapSense_1_CSD_TOUCHPAD_WIDGET_EN) */
 120:Generated_Source\PSoC4/CapSense_1_Processing.c **** 
 121:Generated_Source\PSoC4/CapSense_1_Processing.c **** #if (0u != CapSense_1_CSX_TOUCHPAD_WIDGET_EN)
 122:Generated_Source\PSoC4/CapSense_1_Processing.c ****     static CY_INLINE void CapSense_1_DpInitCsxTouchpad(CapSense_1_FLASH_WD_STRUCT const * ptrFlashW
 123:Generated_Source\PSoC4/CapSense_1_Processing.c **** #endif /* #if (0u != CapSense_1_CSX_TOUCHPAD_WIDGET_EN) */
 124:Generated_Source\PSoC4/CapSense_1_Processing.c **** 
 125:Generated_Source\PSoC4/CapSense_1_Processing.c **** #if (0u != CapSense_1_SLIDER_WIDGET_EN)
 126:Generated_Source\PSoC4/CapSense_1_Processing.c ****     static CY_INLINE void CapSense_1_DpInitSlider(CapSense_1_FLASH_WD_STRUCT const * ptrFlashWdgt);
 127:Generated_Source\PSoC4/CapSense_1_Processing.c **** #endif /* #if (0u != CapSense_1_SLIDER_WIDGET_EN) */
 128:Generated_Source\PSoC4/CapSense_1_Processing.c **** 
 129:Generated_Source\PSoC4/CapSense_1_Processing.c **** #if (0u != CapSense_1_CSD_MATRIX_WIDGET_EN)
 130:Generated_Source\PSoC4/CapSense_1_Processing.c ****     static CY_INLINE void CapSense_1_DpInitCsdMatrix(CapSense_1_FLASH_WD_STRUCT const * ptrFlashWdg
 131:Generated_Source\PSoC4/CapSense_1_Processing.c **** #endif /* #if (0u != CapSense_1_CSD_MATRIX_WIDGET_EN) */
 132:Generated_Source\PSoC4/CapSense_1_Processing.c **** 
 133:Generated_Source\PSoC4/CapSense_1_Processing.c **** /** \}
 134:Generated_Source\PSoC4/CapSense_1_Processing.c **** * \endcond */
 135:Generated_Source\PSoC4/CapSense_1_Processing.c **** 
 136:Generated_Source\PSoC4/CapSense_1_Processing.c **** #if (0u != CapSense_1_CSD_TOUCHPAD_WIDGET_EN)
 137:Generated_Source\PSoC4/CapSense_1_Processing.c **** /*******************************************************************************
 138:Generated_Source\PSoC4/CapSense_1_Processing.c **** * Function Name: CapSense_1_DpInitCsdTouchpad
 139:Generated_Source\PSoC4/CapSense_1_Processing.c **** ****************************************************************************//**
 140:Generated_Source\PSoC4/CapSense_1_Processing.c **** *
 141:Generated_Source\PSoC4/CapSense_1_Processing.c **** * \brief
 142:Generated_Source\PSoC4/CapSense_1_Processing.c **** *  Performs initialization of the CSD touchpad widget.
 143:Generated_Source\PSoC4/CapSense_1_Processing.c **** *   - Resets the position data to NONE
 144:Generated_Source\PSoC4/CapSense_1_Processing.c **** *   - Initializes the position filter history if enabled.
ARM GAS  C:\Users\exp32\AppData\Local\Temp\ccki8209.s 			page 4


 145:Generated_Source\PSoC4/CapSense_1_Processing.c **** *
 146:Generated_Source\PSoC4/CapSense_1_Processing.c **** * \details
 147:Generated_Source\PSoC4/CapSense_1_Processing.c **** *  The position data is always reset to the CapSense_1_TOUCHPAD_POS_NONE value.
 148:Generated_Source\PSoC4/CapSense_1_Processing.c **** *  The same happens to the position filter history data if enabled.
 149:Generated_Source\PSoC4/CapSense_1_Processing.c **** *
 150:Generated_Source\PSoC4/CapSense_1_Processing.c **** *******************************************************************************/
 151:Generated_Source\PSoC4/CapSense_1_Processing.c **** static CY_INLINE void CapSense_1_DpInitCsdTouchpad(CapSense_1_FLASH_WD_STRUCT const * ptrFlashWdgt)
 152:Generated_Source\PSoC4/CapSense_1_Processing.c **** {
 153:Generated_Source\PSoC4/CapSense_1_Processing.c ****     #if (CapSense_1_ENABLE == CapSense_1_CENTROID_5X5_CSD_EN)
 154:Generated_Source\PSoC4/CapSense_1_Processing.c ****         uint32 touchIndex;
 155:Generated_Source\PSoC4/CapSense_1_Processing.c ****     #endif
 156:Generated_Source\PSoC4/CapSense_1_Processing.c **** 
 157:Generated_Source\PSoC4/CapSense_1_Processing.c ****     CapSense_1_RAM_WD_CSD_TOUCHPAD_STRUCT *ptrWdTouchpad;
 158:Generated_Source\PSoC4/CapSense_1_Processing.c **** 
 159:Generated_Source\PSoC4/CapSense_1_Processing.c ****     #if (0u != CapSense_1_POSITION_FILTER_EN)
 160:Generated_Source\PSoC4/CapSense_1_Processing.c ****         CapSense_1_TOUCHPAD_POS_HISTORY_STRUCT *ptrHistory;
 161:Generated_Source\PSoC4/CapSense_1_Processing.c ****     #endif  /* #if (0u != CapSense_1_POSITION_FILTER_EN) */
 162:Generated_Source\PSoC4/CapSense_1_Processing.c **** 
 163:Generated_Source\PSoC4/CapSense_1_Processing.c ****     #if (0u != CapSense_1_POS_ADAPTIVE_IIR_FILTER_EN)
 164:Generated_Source\PSoC4/CapSense_1_Processing.c ****         ADAPTIVE_FILTER_CONTEXT_STRUCT adpContext;
 165:Generated_Source\PSoC4/CapSense_1_Processing.c ****     #endif /* (0u != CapSense_1_POS_ADAPTIVE_IIR_FILTER_EN) */
 166:Generated_Source\PSoC4/CapSense_1_Processing.c **** 
 167:Generated_Source\PSoC4/CapSense_1_Processing.c ****     ptrWdTouchpad = ptrFlashWdgt->ptr2WdgtRam;
 168:Generated_Source\PSoC4/CapSense_1_Processing.c **** 
 169:Generated_Source\PSoC4/CapSense_1_Processing.c ****     /* Reset position data */
 170:Generated_Source\PSoC4/CapSense_1_Processing.c ****     #if (CapSense_1_ENABLE == CapSense_1_CENTROID_5X5_CSD_EN)
 171:Generated_Source\PSoC4/CapSense_1_Processing.c ****         #if (CapSense_1_ENABLE == CapSense_1_CENTROID_3X3_CSD_EN)
 172:Generated_Source\PSoC4/CapSense_1_Processing.c ****             if (0u != (ptrFlashWdgt->staticConfig & CapSense_1_CENTROID_5X5_MASK))
 173:Generated_Source\PSoC4/CapSense_1_Processing.c ****             {
 174:Generated_Source\PSoC4/CapSense_1_Processing.c ****         #endif
 175:Generated_Source\PSoC4/CapSense_1_Processing.c **** 
 176:Generated_Source\PSoC4/CapSense_1_Processing.c ****         ptrWdTouchpad->position.touchNum = 0u;
 177:Generated_Source\PSoC4/CapSense_1_Processing.c **** 
 178:Generated_Source\PSoC4/CapSense_1_Processing.c ****         #if (0u != CapSense_1_POSITION_FILTER_EN)
 179:Generated_Source\PSoC4/CapSense_1_Processing.c ****             ptrHistory = ptrFlashWdgt->ptr2PosHistory;
 180:Generated_Source\PSoC4/CapSense_1_Processing.c ****         #endif /* (0u != CapSense_1_POSITION_FILTER_EN) */
 181:Generated_Source\PSoC4/CapSense_1_Processing.c **** 
 182:Generated_Source\PSoC4/CapSense_1_Processing.c ****         for (touchIndex = 0u; touchIndex < ADVANCED_CENTROID_MAX_TOUCHES; touchIndex++)
 183:Generated_Source\PSoC4/CapSense_1_Processing.c ****         {
 184:Generated_Source\PSoC4/CapSense_1_Processing.c ****             ptrWdTouchpad->position.pos[touchIndex].x = ADVANCED_CENTROID_POSITION_NONE;
 185:Generated_Source\PSoC4/CapSense_1_Processing.c ****             ptrWdTouchpad->position.pos[touchIndex].y = ADVANCED_CENTROID_POSITION_NONE;
 186:Generated_Source\PSoC4/CapSense_1_Processing.c ****             ptrWdTouchpad->position.pos[touchIndex].zX = ADVANCED_CENTROID_POSITION_NONE;
 187:Generated_Source\PSoC4/CapSense_1_Processing.c ****             ptrWdTouchpad->position.pos[touchIndex].zY = ADVANCED_CENTROID_POSITION_NONE;
 188:Generated_Source\PSoC4/CapSense_1_Processing.c **** 
 189:Generated_Source\PSoC4/CapSense_1_Processing.c ****             /* Clear position filter history data if available */
 190:Generated_Source\PSoC4/CapSense_1_Processing.c ****             #if (0u != CapSense_1_POSITION_FILTER_EN)
 191:Generated_Source\PSoC4/CapSense_1_Processing.c ****                 if (NULL != ptrHistory)
 192:Generated_Source\PSoC4/CapSense_1_Processing.c ****                 {
 193:Generated_Source\PSoC4/CapSense_1_Processing.c ****                     CapSense_1_InitPosFiltersDd(&ptrHistory[touchIndex], CapSense_1_TOUCHPAD_POS_NO
 194:Generated_Source\PSoC4/CapSense_1_Processing.c ****                     #if (0u != CapSense_1_POS_ADAPTIVE_IIR_FILTER_EN)
 195:Generated_Source\PSoC4/CapSense_1_Processing.c ****                         AdaptiveFilter_Initialize(&ptrWdTouchpad->aiirConfig, &adpContext);
 196:Generated_Source\PSoC4/CapSense_1_Processing.c ****                         ptrHistory[touchIndex].xPos.posAIIRCoeff = adpContext.coefficient;
 197:Generated_Source\PSoC4/CapSense_1_Processing.c ****                         ptrHistory[touchIndex].yPos.posAIIRCoeff = adpContext.coefficient;
 198:Generated_Source\PSoC4/CapSense_1_Processing.c ****                     #endif /* (0u != CapSense_1_POS_ADAPTIVE_IIR_FILTER_EN) */
 199:Generated_Source\PSoC4/CapSense_1_Processing.c ****                 }
 200:Generated_Source\PSoC4/CapSense_1_Processing.c ****             #endif /* (0u != CapSense_1_POSITION_FILTER_EN) */
 201:Generated_Source\PSoC4/CapSense_1_Processing.c ****         }
ARM GAS  C:\Users\exp32\AppData\Local\Temp\ccki8209.s 			page 5


 202:Generated_Source\PSoC4/CapSense_1_Processing.c **** 
 203:Generated_Source\PSoC4/CapSense_1_Processing.c ****         #if (CapSense_1_ENABLE == CapSense_1_CENTROID_3X3_CSD_EN)
 204:Generated_Source\PSoC4/CapSense_1_Processing.c ****             }
 205:Generated_Source\PSoC4/CapSense_1_Processing.c ****         #endif
 206:Generated_Source\PSoC4/CapSense_1_Processing.c ****     #endif
 207:Generated_Source\PSoC4/CapSense_1_Processing.c **** 
 208:Generated_Source\PSoC4/CapSense_1_Processing.c ****     #if (CapSense_1_ENABLE == CapSense_1_CENTROID_3X3_CSD_EN)
 209:Generated_Source\PSoC4/CapSense_1_Processing.c ****         if (0u != (ptrFlashWdgt->staticConfig & CapSense_1_CENTROID_3X3_MASK))
 210:Generated_Source\PSoC4/CapSense_1_Processing.c ****         {
 211:Generated_Source\PSoC4/CapSense_1_Processing.c ****             ptrWdTouchpad->posX = CapSense_1_TOUCHPAD_POS_NONE;
 212:Generated_Source\PSoC4/CapSense_1_Processing.c ****             ptrWdTouchpad->posY = CapSense_1_TOUCHPAD_POS_NONE;
 213:Generated_Source\PSoC4/CapSense_1_Processing.c **** 
 214:Generated_Source\PSoC4/CapSense_1_Processing.c ****             /* Clear position filter history data if available */
 215:Generated_Source\PSoC4/CapSense_1_Processing.c ****             #if (0u != CapSense_1_POSITION_FILTER_EN)
 216:Generated_Source\PSoC4/CapSense_1_Processing.c ****                 ptrHistory = ptrFlashWdgt->ptr2PosHistory;
 217:Generated_Source\PSoC4/CapSense_1_Processing.c ****                 CapSense_1_InitPosFiltersDd(ptrHistory, CapSense_1_TOUCHPAD_POS_NONE, CapSense_1_TO
 218:Generated_Source\PSoC4/CapSense_1_Processing.c **** 
 219:Generated_Source\PSoC4/CapSense_1_Processing.c ****                 #if (0u != CapSense_1_POS_ADAPTIVE_IIR_FILTER_EN)
 220:Generated_Source\PSoC4/CapSense_1_Processing.c ****                     if (NULL != ptrHistory)
 221:Generated_Source\PSoC4/CapSense_1_Processing.c ****                     {
 222:Generated_Source\PSoC4/CapSense_1_Processing.c ****                         AdaptiveFilter_Initialize(&ptrWdTouchpad->aiirConfig, &adpContext);
 223:Generated_Source\PSoC4/CapSense_1_Processing.c ****                         ptrHistory->xPos.posAIIRCoeff = adpContext.coefficient;
 224:Generated_Source\PSoC4/CapSense_1_Processing.c ****                         ptrHistory->yPos.posAIIRCoeff = adpContext.coefficient;
 225:Generated_Source\PSoC4/CapSense_1_Processing.c ****                     }
 226:Generated_Source\PSoC4/CapSense_1_Processing.c ****                 #endif /* (0u != CapSense_1_POS_ADAPTIVE_IIR_FILTER_EN) */
 227:Generated_Source\PSoC4/CapSense_1_Processing.c ****             #endif /* (0u != CapSense_1_POSITION_FILTER_EN) */
 228:Generated_Source\PSoC4/CapSense_1_Processing.c ****         }
 229:Generated_Source\PSoC4/CapSense_1_Processing.c ****     #endif
 230:Generated_Source\PSoC4/CapSense_1_Processing.c **** }
 231:Generated_Source\PSoC4/CapSense_1_Processing.c **** #endif /* #if (0u != CapSense_1_CSD_TOUCHPAD_WIDGET_EN) */
 232:Generated_Source\PSoC4/CapSense_1_Processing.c **** 
 233:Generated_Source\PSoC4/CapSense_1_Processing.c **** #if (0u != CapSense_1_CSX_TOUCHPAD_WIDGET_EN)
 234:Generated_Source\PSoC4/CapSense_1_Processing.c **** /*******************************************************************************
 235:Generated_Source\PSoC4/CapSense_1_Processing.c **** * Function Name: CapSense_1_DpInitCsxTouchpad
 236:Generated_Source\PSoC4/CapSense_1_Processing.c **** ****************************************************************************//**
 237:Generated_Source\PSoC4/CapSense_1_Processing.c **** *
 238:Generated_Source\PSoC4/CapSense_1_Processing.c **** * \brief
 239:Generated_Source\PSoC4/CapSense_1_Processing.c **** *  Performs initialization of the CSX touchpad widget i.e. Resets the position data to NONE.
 240:Generated_Source\PSoC4/CapSense_1_Processing.c **** *
 241:Generated_Source\PSoC4/CapSense_1_Processing.c **** * \details
 242:Generated_Source\PSoC4/CapSense_1_Processing.c **** *  The position data is always reset to the CapSense_1_TOUCHPAD_POS_NONE value.
 243:Generated_Source\PSoC4/CapSense_1_Processing.c **** *
 244:Generated_Source\PSoC4/CapSense_1_Processing.c **** *******************************************************************************/
 245:Generated_Source\PSoC4/CapSense_1_Processing.c **** static CY_INLINE void CapSense_1_DpInitCsxTouchpad(CapSense_1_FLASH_WD_STRUCT const * ptrFlashWdgt)
 246:Generated_Source\PSoC4/CapSense_1_Processing.c **** {
 247:Generated_Source\PSoC4/CapSense_1_Processing.c ****     CapSense_1_RAM_WD_CSX_TOUCHPAD_STRUCT *ptrWdTouchpad;
 248:Generated_Source\PSoC4/CapSense_1_Processing.c **** 
 249:Generated_Source\PSoC4/CapSense_1_Processing.c ****     #if (0u != CapSense_1_POSITION_FILTER_EN)
 250:Generated_Source\PSoC4/CapSense_1_Processing.c ****         uint32 touchIndex;
 251:Generated_Source\PSoC4/CapSense_1_Processing.c ****         CapSense_1_TOUCHPAD_POS_HISTORY_STRUCT *ptrHistory;
 252:Generated_Source\PSoC4/CapSense_1_Processing.c ****     #endif  /* #if (0u != CapSense_1_POSITION_FILTER_EN) */
 253:Generated_Source\PSoC4/CapSense_1_Processing.c **** 
 254:Generated_Source\PSoC4/CapSense_1_Processing.c ****     #if (0u != CapSense_1_POS_ADAPTIVE_IIR_FILTER_EN)
 255:Generated_Source\PSoC4/CapSense_1_Processing.c ****         ADAPTIVE_FILTER_CONTEXT_STRUCT adpContext;
 256:Generated_Source\PSoC4/CapSense_1_Processing.c ****     #endif /* (0u != CapSense_1_POS_ADAPTIVE_IIR_FILTER_EN) */
 257:Generated_Source\PSoC4/CapSense_1_Processing.c **** 
 258:Generated_Source\PSoC4/CapSense_1_Processing.c ****     ptrWdTouchpad = ptrFlashWdgt->ptr2WdgtRam;
ARM GAS  C:\Users\exp32\AppData\Local\Temp\ccki8209.s 			page 6


 259:Generated_Source\PSoC4/CapSense_1_Processing.c **** 
 260:Generated_Source\PSoC4/CapSense_1_Processing.c ****     #if (0u != CapSense_1_POSITION_FILTER_EN)
 261:Generated_Source\PSoC4/CapSense_1_Processing.c ****         ptrHistory = ptrFlashWdgt->ptr2PosHistory;
 262:Generated_Source\PSoC4/CapSense_1_Processing.c ****     #endif /* (0u != CapSense_1_POSITION_FILTER_EN) */
 263:Generated_Source\PSoC4/CapSense_1_Processing.c **** 
 264:Generated_Source\PSoC4/CapSense_1_Processing.c ****     /* Reset position data for finger */
 265:Generated_Source\PSoC4/CapSense_1_Processing.c ****     ptrWdTouchpad->touch[0u].x = CapSense_1_TOUCHPAD_POS_NONE;
 266:Generated_Source\PSoC4/CapSense_1_Processing.c ****     ptrWdTouchpad->touch[0u].y = CapSense_1_TOUCHPAD_POS_NONE;
 267:Generated_Source\PSoC4/CapSense_1_Processing.c ****     ptrWdTouchpad->touch[0u].z = LO8(CapSense_1_TOUCHPAD_POS_NONE);
 268:Generated_Source\PSoC4/CapSense_1_Processing.c **** 
 269:Generated_Source\PSoC4/CapSense_1_Processing.c ****     #if (CapSense_1_CSX_MAX_FINGERS > 1u)
 270:Generated_Source\PSoC4/CapSense_1_Processing.c ****         ptrWdTouchpad->touch[1u].x = CapSense_1_TOUCHPAD_POS_NONE;
 271:Generated_Source\PSoC4/CapSense_1_Processing.c ****         ptrWdTouchpad->touch[1u].y = CapSense_1_TOUCHPAD_POS_NONE;
 272:Generated_Source\PSoC4/CapSense_1_Processing.c ****         ptrWdTouchpad->touch[1u].z = LO8(CapSense_1_TOUCHPAD_POS_NONE);
 273:Generated_Source\PSoC4/CapSense_1_Processing.c ****     #endif /* #if (CapSense_1_CSX_MAX_FINGERS > 1u) */
 274:Generated_Source\PSoC4/CapSense_1_Processing.c **** 
 275:Generated_Source\PSoC4/CapSense_1_Processing.c ****     #if (CapSense_1_CSX_MAX_FINGERS > 2u)
 276:Generated_Source\PSoC4/CapSense_1_Processing.c ****         ptrWdTouchpad->touch[2u].x = CapSense_1_TOUCHPAD_POS_NONE;
 277:Generated_Source\PSoC4/CapSense_1_Processing.c ****         ptrWdTouchpad->touch[2u].y = CapSense_1_TOUCHPAD_POS_NONE;
 278:Generated_Source\PSoC4/CapSense_1_Processing.c ****         ptrWdTouchpad->touch[2u].z = LO8(CapSense_1_TOUCHPAD_POS_NONE);
 279:Generated_Source\PSoC4/CapSense_1_Processing.c ****     #endif /* #if (CapSense_1_CSX_MAX_FINGERS > 2u) */
 280:Generated_Source\PSoC4/CapSense_1_Processing.c **** 
 281:Generated_Source\PSoC4/CapSense_1_Processing.c ****     #if (0u != CapSense_1_POSITION_FILTER_EN)
 282:Generated_Source\PSoC4/CapSense_1_Processing.c ****         for (touchIndex = 0u; touchIndex < CapSense_1_CSX_MAX_FINGERS; touchIndex++)
 283:Generated_Source\PSoC4/CapSense_1_Processing.c ****         {
 284:Generated_Source\PSoC4/CapSense_1_Processing.c ****             if (NULL != ptrHistory)
 285:Generated_Source\PSoC4/CapSense_1_Processing.c ****             {
 286:Generated_Source\PSoC4/CapSense_1_Processing.c ****                 /* Clear position filter history data if available */
 287:Generated_Source\PSoC4/CapSense_1_Processing.c ****                 CapSense_1_InitPosFiltersDd(&ptrHistory[touchIndex], CapSense_1_TOUCHPAD_POS_NONE, 
 288:Generated_Source\PSoC4/CapSense_1_Processing.c ****                 #if (0u != CapSense_1_POS_ADAPTIVE_IIR_FILTER_EN)
 289:Generated_Source\PSoC4/CapSense_1_Processing.c ****                     AdaptiveFilter_Initialize(&ptrWdTouchpad->aiirConfig, &adpContext);
 290:Generated_Source\PSoC4/CapSense_1_Processing.c ****                     ptrHistory[touchIndex].xPos.posAIIRCoeff = adpContext.coefficient;
 291:Generated_Source\PSoC4/CapSense_1_Processing.c ****                     ptrHistory[touchIndex].yPos.posAIIRCoeff = adpContext.coefficient;
 292:Generated_Source\PSoC4/CapSense_1_Processing.c ****                 #endif /* (0u != CapSense_1_POS_ADAPTIVE_IIR_FILTER_EN) */
 293:Generated_Source\PSoC4/CapSense_1_Processing.c ****             }
 294:Generated_Source\PSoC4/CapSense_1_Processing.c ****         }
 295:Generated_Source\PSoC4/CapSense_1_Processing.c ****     #endif /* (0u != CapSense_1_POSITION_FILTER_EN) */
 296:Generated_Source\PSoC4/CapSense_1_Processing.c **** }
 297:Generated_Source\PSoC4/CapSense_1_Processing.c **** #endif /* #if (0u != CapSense_1_CSX_TOUCHPAD_WIDGET_EN) */
 298:Generated_Source\PSoC4/CapSense_1_Processing.c **** 
 299:Generated_Source\PSoC4/CapSense_1_Processing.c **** #if (0u != CapSense_1_SLIDER_WIDGET_EN)
 300:Generated_Source\PSoC4/CapSense_1_Processing.c **** /*******************************************************************************
 301:Generated_Source\PSoC4/CapSense_1_Processing.c **** * Function Name: CapSense_1_DpInitSlider
 302:Generated_Source\PSoC4/CapSense_1_Processing.c **** ****************************************************************************//**
 303:Generated_Source\PSoC4/CapSense_1_Processing.c **** *
 304:Generated_Source\PSoC4/CapSense_1_Processing.c **** * \brief
 305:Generated_Source\PSoC4/CapSense_1_Processing.c **** *  Performs initialization of the Radial and Linear Slider widget.
 306:Generated_Source\PSoC4/CapSense_1_Processing.c **** *   - Resets the position data to NONE
 307:Generated_Source\PSoC4/CapSense_1_Processing.c **** *   - Initializes the position filter history to NONE if enabled.
 308:Generated_Source\PSoC4/CapSense_1_Processing.c **** *
 309:Generated_Source\PSoC4/CapSense_1_Processing.c **** * \details
 310:Generated_Source\PSoC4/CapSense_1_Processing.c **** *  Position data is always reset to the CapSense_1_SLIDER_POS_NONE value.
 311:Generated_Source\PSoC4/CapSense_1_Processing.c **** *  The same happens to the position filter history data if enabled.
 312:Generated_Source\PSoC4/CapSense_1_Processing.c **** *
 313:Generated_Source\PSoC4/CapSense_1_Processing.c **** *******************************************************************************/
 314:Generated_Source\PSoC4/CapSense_1_Processing.c **** static CY_INLINE void CapSense_1_DpInitSlider(CapSense_1_FLASH_WD_STRUCT const * ptrFlashWdgt)
 315:Generated_Source\PSoC4/CapSense_1_Processing.c **** {
ARM GAS  C:\Users\exp32\AppData\Local\Temp\ccki8209.s 			page 7


 316:Generated_Source\PSoC4/CapSense_1_Processing.c ****     uint32 idx;
 317:Generated_Source\PSoC4/CapSense_1_Processing.c ****     CapSense_1_RAM_WD_SLIDER_STRUCT *ptrWdSlider;
 318:Generated_Source\PSoC4/CapSense_1_Processing.c **** 
 319:Generated_Source\PSoC4/CapSense_1_Processing.c ****     #if (0u != CapSense_1_POSITION_FILTER_EN)
 320:Generated_Source\PSoC4/CapSense_1_Processing.c ****         CapSense_1_SLIDER_POS_HISTORY_STRUCT *ptrHistory;
 321:Generated_Source\PSoC4/CapSense_1_Processing.c ****     #endif /* #if (0u != CapSense_1_POSITION_FILTER_EN) */
 322:Generated_Source\PSoC4/CapSense_1_Processing.c **** 
 323:Generated_Source\PSoC4/CapSense_1_Processing.c ****     #if (0u != CapSense_1_POS_ADAPTIVE_IIR_FILTER_EN)
 324:Generated_Source\PSoC4/CapSense_1_Processing.c ****         ADAPTIVE_FILTER_CONTEXT_STRUCT context;
 325:Generated_Source\PSoC4/CapSense_1_Processing.c ****     #endif /* (0u != CapSense_1_POS_ADAPTIVE_IIR_FILTER_EN) */
 326:Generated_Source\PSoC4/CapSense_1_Processing.c **** 
 327:Generated_Source\PSoC4/CapSense_1_Processing.c ****     ptrWdSlider = ptrFlashWdgt->ptr2WdgtRam;
 328:Generated_Source\PSoC4/CapSense_1_Processing.c **** 
 329:Generated_Source\PSoC4/CapSense_1_Processing.c ****     /* Reset slider position data to NONE */
 330:Generated_Source\PSoC4/CapSense_1_Processing.c ****     for (idx = 0u; idx < CapSense_1_NUM_CENTROIDS; idx++)
 331:Generated_Source\PSoC4/CapSense_1_Processing.c ****     {
 332:Generated_Source\PSoC4/CapSense_1_Processing.c ****         ptrWdSlider->position[idx] = CapSense_1_SLIDER_POS_NONE;
 333:Generated_Source\PSoC4/CapSense_1_Processing.c **** 
 334:Generated_Source\PSoC4/CapSense_1_Processing.c ****         #if (0u != CapSense_1_POSITION_FILTER_EN)
 335:Generated_Source\PSoC4/CapSense_1_Processing.c ****             ptrHistory = ptrFlashWdgt->ptr2PosHistory;
 336:Generated_Source\PSoC4/CapSense_1_Processing.c ****             if (NULL != ptrHistory)
 337:Generated_Source\PSoC4/CapSense_1_Processing.c ****             {
 338:Generated_Source\PSoC4/CapSense_1_Processing.c ****                 CapSense_1_InitPosFiltersSd(&ptrHistory[idx], CapSense_1_SLIDER_POS_NONE);
 339:Generated_Source\PSoC4/CapSense_1_Processing.c ****                 #if (0u != CapSense_1_POS_ADAPTIVE_IIR_FILTER_EN)
 340:Generated_Source\PSoC4/CapSense_1_Processing.c ****                     AdaptiveFilter_Initialize(&ptrWdSlider->aiirConfig, &context);
 341:Generated_Source\PSoC4/CapSense_1_Processing.c ****                     ptrHistory->posAIIRCoeff = context.coefficient;
 342:Generated_Source\PSoC4/CapSense_1_Processing.c ****                 #endif /* (0u != CapSense_1_POS_ADAPTIVE_IIR_FILTER_EN) */
 343:Generated_Source\PSoC4/CapSense_1_Processing.c ****             }
 344:Generated_Source\PSoC4/CapSense_1_Processing.c **** 
 345:Generated_Source\PSoC4/CapSense_1_Processing.c ****         #endif /* #if (0u != CapSense_1_POSITION_FILTER_EN) */
 346:Generated_Source\PSoC4/CapSense_1_Processing.c ****     }
 347:Generated_Source\PSoC4/CapSense_1_Processing.c **** }
 348:Generated_Source\PSoC4/CapSense_1_Processing.c **** #endif /* #if (0u != CapSense_1_SLIDER_WIDGET_EN) */
 349:Generated_Source\PSoC4/CapSense_1_Processing.c **** 
 350:Generated_Source\PSoC4/CapSense_1_Processing.c **** #if (0u != CapSense_1_CSD_MATRIX_WIDGET_EN)
 351:Generated_Source\PSoC4/CapSense_1_Processing.c **** /*******************************************************************************
 352:Generated_Source\PSoC4/CapSense_1_Processing.c **** * Function Name: CapSense_1_DpInitCsdMatrix
 353:Generated_Source\PSoC4/CapSense_1_Processing.c **** ****************************************************************************//**
 354:Generated_Source\PSoC4/CapSense_1_Processing.c **** *
 355:Generated_Source\PSoC4/CapSense_1_Processing.c **** * \brief
 356:Generated_Source\PSoC4/CapSense_1_Processing.c **** *  Performs initialization of the CSD Matrix Buttons widget.
 357:Generated_Source\PSoC4/CapSense_1_Processing.c **** *   - Resets the active button position data to NONE.
 358:Generated_Source\PSoC4/CapSense_1_Processing.c **** *
 359:Generated_Source\PSoC4/CapSense_1_Processing.c **** * \details
 360:Generated_Source\PSoC4/CapSense_1_Processing.c **** *  Position data is always reset to the CapSense_1_MATRIX_POS_NONE value.
 361:Generated_Source\PSoC4/CapSense_1_Processing.c **** *
 362:Generated_Source\PSoC4/CapSense_1_Processing.c **** *******************************************************************************/
 363:Generated_Source\PSoC4/CapSense_1_Processing.c **** static CY_INLINE void CapSense_1_DpInitCsdMatrix(CapSense_1_FLASH_WD_STRUCT const * ptrFlashWdgt)
 364:Generated_Source\PSoC4/CapSense_1_Processing.c **** {
 365:Generated_Source\PSoC4/CapSense_1_Processing.c ****     CapSense_1_RAM_WD_CSD_MATRIX_STRUCT *ptrRamWdgt;
 366:Generated_Source\PSoC4/CapSense_1_Processing.c **** 
 367:Generated_Source\PSoC4/CapSense_1_Processing.c ****     ptrRamWdgt = (CapSense_1_RAM_WD_CSD_MATRIX_STRUCT *)ptrFlashWdgt->ptr2WdgtRam;
 368:Generated_Source\PSoC4/CapSense_1_Processing.c **** 
 369:Generated_Source\PSoC4/CapSense_1_Processing.c ****     /* Reset sensor id, row and col registers in data structure */
 370:Generated_Source\PSoC4/CapSense_1_Processing.c ****     ptrRamWdgt->posRow   = CapSense_1_MATRIX_POS_NONE;
 371:Generated_Source\PSoC4/CapSense_1_Processing.c ****     ptrRamWdgt->posCol   = CapSense_1_MATRIX_POS_NONE;
 372:Generated_Source\PSoC4/CapSense_1_Processing.c ****     ptrRamWdgt->posSnsId = CapSense_1_MATRIX_POS_NONE;
ARM GAS  C:\Users\exp32\AppData\Local\Temp\ccki8209.s 			page 8


 373:Generated_Source\PSoC4/CapSense_1_Processing.c **** }
 374:Generated_Source\PSoC4/CapSense_1_Processing.c **** #endif /* #if (0u != CapSense_1_CSD_MATRIX_WIDGET_EN) */
 375:Generated_Source\PSoC4/CapSense_1_Processing.c **** 
 376:Generated_Source\PSoC4/CapSense_1_Processing.c **** /*******************************************************************************
 377:Generated_Source\PSoC4/CapSense_1_Processing.c **** * Function Name: CapSense_1_DpInitialize
 378:Generated_Source\PSoC4/CapSense_1_Processing.c **** ****************************************************************************//**
 379:Generated_Source\PSoC4/CapSense_1_Processing.c **** *
 380:Generated_Source\PSoC4/CapSense_1_Processing.c **** * \brief
 381:Generated_Source\PSoC4/CapSense_1_Processing.c **** *  Performs initialization of the data processing FW module:
 382:Generated_Source\PSoC4/CapSense_1_Processing.c **** *   - Resets the de-bounce counters of all the widgets
 383:Generated_Source\PSoC4/CapSense_1_Processing.c **** *   - Resets the position filter history for slider and touchpad widgets
 384:Generated_Source\PSoC4/CapSense_1_Processing.c **** *   - Clears widget and sensor statuses
 385:Generated_Source\PSoC4/CapSense_1_Processing.c **** *   - Enables all the widgets.
 386:Generated_Source\PSoC4/CapSense_1_Processing.c **** *
 387:Generated_Source\PSoC4/CapSense_1_Processing.c **** * \details
 388:Generated_Source\PSoC4/CapSense_1_Processing.c **** *  The Button and Matrix Button widgets have individual de-bounce counter per
 389:Generated_Source\PSoC4/CapSense_1_Processing.c **** *  sensor for the CSD widgets and per node for the CSX widgets.
 390:Generated_Source\PSoC4/CapSense_1_Processing.c **** *
 391:Generated_Source\PSoC4/CapSense_1_Processing.c **** *  The Slider and Touchpad widgets have a single de-bounce counter per widget.
 392:Generated_Source\PSoC4/CapSense_1_Processing.c **** *
 393:Generated_Source\PSoC4/CapSense_1_Processing.c **** *  The Proximity widget has two de-bounce counters per sensor. One for the
 394:Generated_Source\PSoC4/CapSense_1_Processing.c **** *  proximity event and second for the touch event.
 395:Generated_Source\PSoC4/CapSense_1_Processing.c **** *
 396:Generated_Source\PSoC4/CapSense_1_Processing.c **** *  All debounce counters during initialization are set to the value of the
 397:Generated_Source\PSoC4/CapSense_1_Processing.c **** *  onDebounce widget parameter.
 398:Generated_Source\PSoC4/CapSense_1_Processing.c **** *
 399:Generated_Source\PSoC4/CapSense_1_Processing.c **** *******************************************************************************/
 400:Generated_Source\PSoC4/CapSense_1_Processing.c **** void CapSense_1_DpInitialize(void)
 401:Generated_Source\PSoC4/CapSense_1_Processing.c **** {
  28              		.loc 1 401 0
  29              		.cfi_startproc
  30              		@ args = 0, pretend = 0, frame = 0
  31              		@ frame_needed = 0, uses_anonymous_args = 0
  32 0000 70B5     		push	{r4, r5, r6, lr}
  33              		.cfi_def_cfa_offset 16
  34              		.cfi_offset 4, -16
  35              		.cfi_offset 5, -12
  36              		.cfi_offset 6, -8
  37              		.cfi_offset 14, -4
  38              	.LVL0:
 402:Generated_Source\PSoC4/CapSense_1_Processing.c ****     uint32 wdgtId;
 403:Generated_Source\PSoC4/CapSense_1_Processing.c ****     CapSense_1_WD_TYPE_ENUM widgetType;
 404:Generated_Source\PSoC4/CapSense_1_Processing.c ****     CapSense_1_RAM_WD_BASE_STRUCT * ptrRamWdgt;
 405:Generated_Source\PSoC4/CapSense_1_Processing.c ****     CapSense_1_FLASH_WD_STRUCT const * ptrFlashWdgt;
 406:Generated_Source\PSoC4/CapSense_1_Processing.c **** 
 407:Generated_Source\PSoC4/CapSense_1_Processing.c ****     for (wdgtId = 0u; wdgtId < CapSense_1_WDGT_STATUS_WORDS; wdgtId++)
  39              		.loc 1 407 0
  40 0002 0023     		movs	r3, #0
  41 0004 09E0     		b	.L2
  42              	.LVL1:
  43              	.L3:
 408:Generated_Source\PSoC4/CapSense_1_Processing.c ****     {
 409:Generated_Source\PSoC4/CapSense_1_Processing.c ****         /* Clear widget status */
 410:Generated_Source\PSoC4/CapSense_1_Processing.c ****         CapSense_1_dsRam.wdgtStatus[wdgtId] = 0u;
  44              		.loc 1 410 0 discriminator 3
  45 0006 2749     		ldr	r1, .L15
  46 0008 1A1D     		adds	r2, r3, #4
ARM GAS  C:\Users\exp32\AppData\Local\Temp\ccki8209.s 			page 9


  47 000a 9200     		lsls	r2, r2, #2
  48 000c 8818     		adds	r0, r1, r2
  49 000e 0024     		movs	r4, #0
  50 0010 4460     		str	r4, [r0, #4]
 411:Generated_Source\PSoC4/CapSense_1_Processing.c **** 
 412:Generated_Source\PSoC4/CapSense_1_Processing.c ****         /* Enable all the widgets */
 413:Generated_Source\PSoC4/CapSense_1_Processing.c ****         CapSense_1_dsRam.wdgtEnable[wdgtId] = 0xFFFFFFFFLu;
  51              		.loc 1 413 0 discriminator 3
  52 0012 0120     		movs	r0, #1
  53 0014 4042     		rsbs	r0, r0, #0
  54 0016 5050     		str	r0, [r2, r1]
 407:Generated_Source\PSoC4/CapSense_1_Processing.c ****     {
  55              		.loc 1 407 0 discriminator 3
  56 0018 0133     		adds	r3, r3, #1
  57              	.LVL2:
  58              	.L2:
 407:Generated_Source\PSoC4/CapSense_1_Processing.c ****     {
  59              		.loc 1 407 0 is_stmt 0 discriminator 1
  60 001a 002B     		cmp	r3, #0
  61 001c F3D0     		beq	.L3
  62 001e 224C     		ldr	r4, .L15+4
  63 0020 0423     		movs	r3, #4
  64              	.LVL3:
  65 0022 3BE0     		b	.L4
  66              	.LVL4:
  67              	.L14:
 414:Generated_Source\PSoC4/CapSense_1_Processing.c **** 
 415:Generated_Source\PSoC4/CapSense_1_Processing.c ****         /* Set all the widgets to working state if the Self-Test is not enabled */
 416:Generated_Source\PSoC4/CapSense_1_Processing.c ****         #if (0u != CapSense_1_SELF_TEST_EN)
 417:Generated_Source\PSoC4/CapSense_1_Processing.c ****             CapSense_1_dsRam.wdgtWorking[wdgtId] = 0xFFFFFFFFLu;
 418:Generated_Source\PSoC4/CapSense_1_Processing.c ****         #endif /* #if (0u == CapSense_1_SELF_TEST_EN) */
 419:Generated_Source\PSoC4/CapSense_1_Processing.c ****     }
 420:Generated_Source\PSoC4/CapSense_1_Processing.c **** 
 421:Generated_Source\PSoC4/CapSense_1_Processing.c ****     ptrFlashWdgt = CapSense_1_dsFlash.wdgtArray;
 422:Generated_Source\PSoC4/CapSense_1_Processing.c **** 
 423:Generated_Source\PSoC4/CapSense_1_Processing.c ****     for (wdgtId = CapSense_1_TOTAL_WIDGETS; wdgtId-- > 0u; )
 424:Generated_Source\PSoC4/CapSense_1_Processing.c ****     {
 425:Generated_Source\PSoC4/CapSense_1_Processing.c ****         ptrRamWdgt = (CapSense_1_RAM_WD_BASE_STRUCT *)ptrFlashWdgt->ptr2WdgtRam;
  68              		.loc 1 425 0 is_stmt 1
  69 0024 6668     		ldr	r6, [r4, #4]
  70              	.LVL5:
 426:Generated_Source\PSoC4/CapSense_1_Processing.c ****         widgetType = (CapSense_1_WD_TYPE_ENUM)ptrFlashWdgt->wdgtType;
  71              		.loc 1 426 0
  72 0026 A27E     		ldrb	r2, [r4, #26]
  73              	.LVL6:
 427:Generated_Source\PSoC4/CapSense_1_Processing.c **** 
 428:Generated_Source\PSoC4/CapSense_1_Processing.c ****         /* Clear all sensor statuses */
 429:Generated_Source\PSoC4/CapSense_1_Processing.c ****         CapSense_1_dsRam.snsStatus[wdgtId] = 0u;
  74              		.loc 1 429 0
  75 0028 2B00     		movs	r3, r5
  76 002a 0C33     		adds	r3, r3, #12
  77 002c 5B00     		lsls	r3, r3, #1
  78 002e 0020     		movs	r0, #0
  79 0030 1C49     		ldr	r1, .L15
  80 0032 5852     		strh	r0, [r3, r1]
 430:Generated_Source\PSoC4/CapSense_1_Processing.c **** 
 431:Generated_Source\PSoC4/CapSense_1_Processing.c ****         /* Reset de-bounce counters */
ARM GAS  C:\Users\exp32\AppData\Local\Temp\ccki8209.s 			page 10


 432:Generated_Source\PSoC4/CapSense_1_Processing.c ****         switch (widgetType)
  81              		.loc 1 432 0
  82 0034 032A     		cmp	r2, #3
  83 0036 04D8     		bhi	.L6
  84 0038 022A     		cmp	r2, #2
  85 003a 0DD2     		bcs	.L7
  86 003c 012A     		cmp	r2, #1
  87 003e 03D0     		beq	.L8
  88 0040 2AE0     		b	.L5
  89              	.L6:
  90 0042 052A     		cmp	r2, #5
  91 0044 1BD0     		beq	.L9
  92 0046 27E0     		b	.L5
  93              	.L8:
 433:Generated_Source\PSoC4/CapSense_1_Processing.c ****         {
 434:Generated_Source\PSoC4/CapSense_1_Processing.c ****         #if (0u != CapSense_1_MATRIX_WIDGET_EN)
 435:Generated_Source\PSoC4/CapSense_1_Processing.c ****             case CapSense_1_WD_MATRIX_BUTTON_E:
 436:Generated_Source\PSoC4/CapSense_1_Processing.c ****                 #if (0u != CapSense_1_CSD_MATRIX_WIDGET_EN)
 437:Generated_Source\PSoC4/CapSense_1_Processing.c ****                     if (CapSense_1_SENSE_METHOD_CSD_E == CapSense_1_GET_SENSE_METHOD(ptrFlashWdgt))
 438:Generated_Source\PSoC4/CapSense_1_Processing.c ****                     {
 439:Generated_Source\PSoC4/CapSense_1_Processing.c ****                         CapSense_1_DpInitCsdMatrix(ptrFlashWdgt);
 440:Generated_Source\PSoC4/CapSense_1_Processing.c ****                     }
 441:Generated_Source\PSoC4/CapSense_1_Processing.c ****                 #endif /* #if (0u != CapSense_1_CSD_MATRIX_WIDGET_EN) */
 442:Generated_Source\PSoC4/CapSense_1_Processing.c **** 
 443:Generated_Source\PSoC4/CapSense_1_Processing.c ****                 if (NULL != ptrFlashWdgt->ptr2DebounceArr)
 444:Generated_Source\PSoC4/CapSense_1_Processing.c ****                 {
 445:Generated_Source\PSoC4/CapSense_1_Processing.c ****                     /* Initialize array of debounce counters */
 446:Generated_Source\PSoC4/CapSense_1_Processing.c ****                     (void)memset(ptrFlashWdgt->ptr2DebounceArr,
 447:Generated_Source\PSoC4/CapSense_1_Processing.c ****                                  (int32)ptrRamWdgt->onDebounce,
 448:Generated_Source\PSoC4/CapSense_1_Processing.c ****                                  (size_t)ptrFlashWdgt->totalNumSns);
 449:Generated_Source\PSoC4/CapSense_1_Processing.c ****                 }
 450:Generated_Source\PSoC4/CapSense_1_Processing.c ****                 break;
 451:Generated_Source\PSoC4/CapSense_1_Processing.c ****         #endif /* #if (0u != CapSense_1_MATRIX_WIDGET_EN) */
 452:Generated_Source\PSoC4/CapSense_1_Processing.c **** 
 453:Generated_Source\PSoC4/CapSense_1_Processing.c ****         #if (0u != CapSense_1_BUTTON_WIDGET_EN)
 454:Generated_Source\PSoC4/CapSense_1_Processing.c ****             case CapSense_1_WD_BUTTON_E:
 455:Generated_Source\PSoC4/CapSense_1_Processing.c ****                 if (NULL != ptrFlashWdgt->ptr2DebounceArr)
  94              		.loc 1 455 0
  95 0048 2069     		ldr	r0, [r4, #16]
  96 004a 0028     		cmp	r0, #0
  97 004c 24D0     		beq	.L5
 456:Generated_Source\PSoC4/CapSense_1_Processing.c ****                 {
 457:Generated_Source\PSoC4/CapSense_1_Processing.c ****                     /* Initialize array of debounce counters */
 458:Generated_Source\PSoC4/CapSense_1_Processing.c ****                     (void)memset(ptrFlashWdgt->ptr2DebounceArr,
 459:Generated_Source\PSoC4/CapSense_1_Processing.c ****                                  (int32)ptrRamWdgt->onDebounce,
  98              		.loc 1 459 0
  99 004e F179     		ldrb	r1, [r6, #7]
 460:Generated_Source\PSoC4/CapSense_1_Processing.c ****                                  (size_t)ptrFlashWdgt->totalNumSns);
 100              		.loc 1 460 0
 101 0050 228B     		ldrh	r2, [r4, #24]
 102              	.LVL7:
 458:Generated_Source\PSoC4/CapSense_1_Processing.c ****                                  (int32)ptrRamWdgt->onDebounce,
 103              		.loc 1 458 0
 104 0052 FFF7FEFF 		bl	memset
 105              	.LVL8:
 106 0056 1FE0     		b	.L5
 107              	.LVL9:
ARM GAS  C:\Users\exp32\AppData\Local\Temp\ccki8209.s 			page 11


 108              	.L7:
 461:Generated_Source\PSoC4/CapSense_1_Processing.c ****                 }
 462:Generated_Source\PSoC4/CapSense_1_Processing.c ****                 break;
 463:Generated_Source\PSoC4/CapSense_1_Processing.c ****         #endif /* #if (0u != CapSense_1_BUTTON_WIDGET_EN) */
 464:Generated_Source\PSoC4/CapSense_1_Processing.c **** 
 465:Generated_Source\PSoC4/CapSense_1_Processing.c ****         #if (0u != CapSense_1_SLIDER_WIDGET_EN)
 466:Generated_Source\PSoC4/CapSense_1_Processing.c ****             case CapSense_1_WD_LINEAR_SLIDER_E:
 467:Generated_Source\PSoC4/CapSense_1_Processing.c ****             case CapSense_1_WD_RADIAL_SLIDER_E:
 468:Generated_Source\PSoC4/CapSense_1_Processing.c ****                 if (NULL != ptrFlashWdgt->ptr2DebounceArr)
 109              		.loc 1 468 0
 110 0058 2369     		ldr	r3, [r4, #16]
 111 005a 002B     		cmp	r3, #0
 112 005c 01D0     		beq	.L10
 469:Generated_Source\PSoC4/CapSense_1_Processing.c ****                 {
 470:Generated_Source\PSoC4/CapSense_1_Processing.c ****                     /* Initialize single debounce counter of slider */
 471:Generated_Source\PSoC4/CapSense_1_Processing.c ****                     *(uint8 *)(ptrFlashWdgt->ptr2DebounceArr) = ptrRamWdgt->onDebounce;
 113              		.loc 1 471 0
 114 005e F279     		ldrb	r2, [r6, #7]
 115              	.LVL10:
 116 0060 1A70     		strb	r2, [r3]
 117              	.L10:
 118              	.LVL11:
 119              	.LBB8:
 120              	.LBB9:
 327:Generated_Source\PSoC4/CapSense_1_Processing.c **** 
 121              		.loc 1 327 0
 122 0062 6168     		ldr	r1, [r4, #4]
 123              	.LVL12:
 330:Generated_Source\PSoC4/CapSense_1_Processing.c ****     {
 124              		.loc 1 330 0
 125 0064 0023     		movs	r3, #0
 126 0066 07E0     		b	.L11
 127              	.LVL13:
 128              	.L12:
 332:Generated_Source\PSoC4/CapSense_1_Processing.c **** 
 129              		.loc 1 332 0
 130 0068 1A00     		movs	r2, r3
 131 006a 0832     		adds	r2, r2, #8
 132 006c 5200     		lsls	r2, r2, #1
 133 006e 8A18     		adds	r2, r1, r2
 134 0070 0120     		movs	r0, #1
 135 0072 4042     		rsbs	r0, r0, #0
 136 0074 D080     		strh	r0, [r2, #6]
 330:Generated_Source\PSoC4/CapSense_1_Processing.c ****     {
 137              		.loc 1 330 0
 138 0076 0133     		adds	r3, r3, #1
 139              	.LVL14:
 140              	.L11:
 141 0078 002B     		cmp	r3, #0
 142 007a F5D0     		beq	.L12
 143 007c 0CE0     		b	.L5
 144              	.LVL15:
 145              	.L9:
 146              	.LBE9:
 147              	.LBE8:
 472:Generated_Source\PSoC4/CapSense_1_Processing.c ****                 }
 473:Generated_Source\PSoC4/CapSense_1_Processing.c **** 
ARM GAS  C:\Users\exp32\AppData\Local\Temp\ccki8209.s 			page 12


 474:Generated_Source\PSoC4/CapSense_1_Processing.c ****                 CapSense_1_DpInitSlider(ptrFlashWdgt);
 475:Generated_Source\PSoC4/CapSense_1_Processing.c **** 
 476:Generated_Source\PSoC4/CapSense_1_Processing.c ****                 break;
 477:Generated_Source\PSoC4/CapSense_1_Processing.c ****         #endif /* #if (0u != CapSense_1_SLIDER_WIDGET_EN) */
 478:Generated_Source\PSoC4/CapSense_1_Processing.c **** 
 479:Generated_Source\PSoC4/CapSense_1_Processing.c ****         #if (0u != CapSense_1_TOUCHPAD_WIDGET_EN)
 480:Generated_Source\PSoC4/CapSense_1_Processing.c ****             case CapSense_1_WD_TOUCHPAD_E:
 481:Generated_Source\PSoC4/CapSense_1_Processing.c ****                 if (NULL != ptrFlashWdgt->ptr2DebounceArr)
 148              		.loc 1 481 0
 149 007e 2369     		ldr	r3, [r4, #16]
 150 0080 002B     		cmp	r3, #0
 151 0082 01D0     		beq	.L13
 482:Generated_Source\PSoC4/CapSense_1_Processing.c ****                 {
 483:Generated_Source\PSoC4/CapSense_1_Processing.c ****                     /* Initialize single debounce counter of touchpad */
 484:Generated_Source\PSoC4/CapSense_1_Processing.c ****                     *(uint8 *)(ptrFlashWdgt->ptr2DebounceArr) = ptrRamWdgt->onDebounce;
 152              		.loc 1 484 0
 153 0084 F279     		ldrb	r2, [r6, #7]
 154              	.LVL16:
 155 0086 1A70     		strb	r2, [r3]
 156              	.L13:
 157              	.LVL17:
 158              	.LBB10:
 159              	.LBB11:
 167:Generated_Source\PSoC4/CapSense_1_Processing.c **** 
 160              		.loc 1 167 0
 161 0088 6368     		ldr	r3, [r4, #4]
 162              	.LVL18:
 209:Generated_Source\PSoC4/CapSense_1_Processing.c ****         {
 163              		.loc 1 209 0
 164 008a 6269     		ldr	r2, [r4, #20]
 165 008c 1205     		lsls	r2, r2, #20
 166 008e 03D5     		bpl	.L5
 211:Generated_Source\PSoC4/CapSense_1_Processing.c ****             ptrWdTouchpad->posY = CapSense_1_TOUCHPAD_POS_NONE;
 167              		.loc 1 211 0
 168 0090 0122     		movs	r2, #1
 169 0092 5242     		rsbs	r2, r2, #0
 170 0094 DA82     		strh	r2, [r3, #22]
 212:Generated_Source\PSoC4/CapSense_1_Processing.c **** 
 171              		.loc 1 212 0
 172 0096 1A83     		strh	r2, [r3, #24]
 173              	.LVL19:
 174              	.L5:
 175              	.LBE11:
 176              	.LBE10:
 485:Generated_Source\PSoC4/CapSense_1_Processing.c ****                 }
 486:Generated_Source\PSoC4/CapSense_1_Processing.c **** 
 487:Generated_Source\PSoC4/CapSense_1_Processing.c ****                 #if (0u != CapSense_1_CSD_TOUCHPAD_WIDGET_EN)
 488:Generated_Source\PSoC4/CapSense_1_Processing.c ****                     if (CapSense_1_SENSE_METHOD_CSD_E == CapSense_1_GET_SENSE_METHOD(ptrFlashWdgt))
 489:Generated_Source\PSoC4/CapSense_1_Processing.c ****                     {
 490:Generated_Source\PSoC4/CapSense_1_Processing.c ****                         CapSense_1_DpInitCsdTouchpad(ptrFlashWdgt);
 491:Generated_Source\PSoC4/CapSense_1_Processing.c ****                     }
 492:Generated_Source\PSoC4/CapSense_1_Processing.c ****                 #endif /* #if (0u != CapSense_1_CSD_TOUCHPAD_WIDGET_EN) */
 493:Generated_Source\PSoC4/CapSense_1_Processing.c **** 
 494:Generated_Source\PSoC4/CapSense_1_Processing.c ****                 #if (0u != CapSense_1_CSX_TOUCHPAD_WIDGET_EN)
 495:Generated_Source\PSoC4/CapSense_1_Processing.c ****                     if (CapSense_1_SENSE_METHOD_CSX_E == CapSense_1_GET_SENSE_METHOD(ptrFlashWdgt))
 496:Generated_Source\PSoC4/CapSense_1_Processing.c ****                     {
 497:Generated_Source\PSoC4/CapSense_1_Processing.c ****                         CapSense_1_DpInitCsxTouchpad(ptrFlashWdgt);
ARM GAS  C:\Users\exp32\AppData\Local\Temp\ccki8209.s 			page 13


 498:Generated_Source\PSoC4/CapSense_1_Processing.c ****                     }
 499:Generated_Source\PSoC4/CapSense_1_Processing.c ****                 #endif /* #if (0u != CapSense_1_CSX_TOUCHPAD_WIDGET_EN) */
 500:Generated_Source\PSoC4/CapSense_1_Processing.c **** 
 501:Generated_Source\PSoC4/CapSense_1_Processing.c ****                 break;
 502:Generated_Source\PSoC4/CapSense_1_Processing.c ****         #endif /* #if (0u != CapSense_1_TOUCHPAD_WIDGET_EN) */
 503:Generated_Source\PSoC4/CapSense_1_Processing.c **** 
 504:Generated_Source\PSoC4/CapSense_1_Processing.c ****         #if (0u != CapSense_1_PROXIMITY_WIDGET_EN)
 505:Generated_Source\PSoC4/CapSense_1_Processing.c ****             case CapSense_1_WD_PROXIMITY_E:
 506:Generated_Source\PSoC4/CapSense_1_Processing.c ****                 if (NULL != ptrFlashWdgt->ptr2DebounceArr)
 507:Generated_Source\PSoC4/CapSense_1_Processing.c ****                 {
 508:Generated_Source\PSoC4/CapSense_1_Processing.c ****                     /* Proximity widgets have 2 de-bounce counters per sensor.
 509:Generated_Source\PSoC4/CapSense_1_Processing.c ****                      * Therefore the number of sensors is multiplied by 2.
 510:Generated_Source\PSoC4/CapSense_1_Processing.c ****                      */
 511:Generated_Source\PSoC4/CapSense_1_Processing.c ****                    (void)memset(ptrFlashWdgt->ptr2DebounceArr,
 512:Generated_Source\PSoC4/CapSense_1_Processing.c ****                                 (int32)ptrRamWdgt->onDebounce,
 513:Generated_Source\PSoC4/CapSense_1_Processing.c ****                                 (size_t)ptrFlashWdgt->totalNumSns * 2u);
 514:Generated_Source\PSoC4/CapSense_1_Processing.c ****                 }
 515:Generated_Source\PSoC4/CapSense_1_Processing.c ****                 break;
 516:Generated_Source\PSoC4/CapSense_1_Processing.c ****         #endif /* #if (0u != CapSense_1_PROXIMITY_WIDGET_EN) */
 517:Generated_Source\PSoC4/CapSense_1_Processing.c **** 
 518:Generated_Source\PSoC4/CapSense_1_Processing.c ****         #if (0u != CapSense_1_ENCODERDIAL_WIDGET_EN)
 519:Generated_Source\PSoC4/CapSense_1_Processing.c ****             case CapSense_1_WD_ENCODERDIAL_E:
 520:Generated_Source\PSoC4/CapSense_1_Processing.c ****                 if (NULL != ptrFlashWdgt->ptr2DebounceArr)
 521:Generated_Source\PSoC4/CapSense_1_Processing.c ****                 {
 522:Generated_Source\PSoC4/CapSense_1_Processing.c ****                     /* Proximity widgets have 2 de-bounce counters per sensor.
 523:Generated_Source\PSoC4/CapSense_1_Processing.c ****                      * Therefore the number of sensors is multiplied by 2.
 524:Generated_Source\PSoC4/CapSense_1_Processing.c ****                      */
 525:Generated_Source\PSoC4/CapSense_1_Processing.c ****                    (void)memset(ptrFlashWdgt->ptr2DebounceArr,
 526:Generated_Source\PSoC4/CapSense_1_Processing.c ****                                 (int32)ptrRamWdgt->onDebounce,
 527:Generated_Source\PSoC4/CapSense_1_Processing.c ****                                 (size_t)ptrFlashWdgt->totalNumSns);
 528:Generated_Source\PSoC4/CapSense_1_Processing.c ****                 }
 529:Generated_Source\PSoC4/CapSense_1_Processing.c ****                 break;
 530:Generated_Source\PSoC4/CapSense_1_Processing.c ****         #endif /* (0u != CapSense_1_ENCODERDIAL_WIDGET_EN) */
 531:Generated_Source\PSoC4/CapSense_1_Processing.c ****             default:
 532:Generated_Source\PSoC4/CapSense_1_Processing.c ****                 break;
 533:Generated_Source\PSoC4/CapSense_1_Processing.c ****         }
 534:Generated_Source\PSoC4/CapSense_1_Processing.c **** 
 535:Generated_Source\PSoC4/CapSense_1_Processing.c ****         /* Move to next widget */
 536:Generated_Source\PSoC4/CapSense_1_Processing.c ****         ptrFlashWdgt++;
 177              		.loc 1 536 0
 178 0098 3434     		adds	r4, r4, #52
 179              	.LVL20:
 423:Generated_Source\PSoC4/CapSense_1_Processing.c ****     {
 180              		.loc 1 423 0
 181 009a 2B00     		movs	r3, r5
 182              	.LVL21:
 183              	.L4:
 423:Generated_Source\PSoC4/CapSense_1_Processing.c ****     {
 184              		.loc 1 423 0 is_stmt 0 discriminator 1
 185 009c 5D1E     		subs	r5, r3, #1
 186              	.LVL22:
 187 009e 002B     		cmp	r3, #0
 188 00a0 C0D1     		bne	.L14
 537:Generated_Source\PSoC4/CapSense_1_Processing.c ****     }
 538:Generated_Source\PSoC4/CapSense_1_Processing.c **** }
 189              		.loc 1 538 0 is_stmt 1
 190              		@ sp needed
ARM GAS  C:\Users\exp32\AppData\Local\Temp\ccki8209.s 			page 14


 191              	.LVL23:
 192              	.LVL24:
 193 00a2 70BD     		pop	{r4, r5, r6, pc}
 194              	.L16:
 195              		.align	2
 196              	.L15:
 197 00a4 00000000 		.word	CapSense_1_dsRam
 198 00a8 00000000 		.word	CapSense_1_dsFlash
 199              		.cfi_endproc
 200              	.LFE3:
 201              		.size	CapSense_1_DpInitialize, .-CapSense_1_DpInitialize
 202              		.section	.text.CapSense_1_DpUpdateThresholds,"ax",%progbits
 203              		.align	2
 204              		.global	CapSense_1_DpUpdateThresholds
 205              		.code	16
 206              		.thumb_func
 207              		.type	CapSense_1_DpUpdateThresholds, %function
 208              	CapSense_1_DpUpdateThresholds:
 209              	.LFB7:
 539:Generated_Source\PSoC4/CapSense_1_Processing.c **** 
 540:Generated_Source\PSoC4/CapSense_1_Processing.c **** #if (0u != CapSense_1_TOTAL_CSX_WIDGETS)
 541:Generated_Source\PSoC4/CapSense_1_Processing.c **** /*******************************************************************************
 542:Generated_Source\PSoC4/CapSense_1_Processing.c **** * Function Name: CapSense_1_DpProcessCsxWidgetRawCounts
 543:Generated_Source\PSoC4/CapSense_1_Processing.c **** ****************************************************************************//**
 544:Generated_Source\PSoC4/CapSense_1_Processing.c **** *
 545:Generated_Source\PSoC4/CapSense_1_Processing.c **** * \brief
 546:Generated_Source\PSoC4/CapSense_1_Processing.c **** *  Performs default processing of the CSX raw counts.
 547:Generated_Source\PSoC4/CapSense_1_Processing.c **** *
 548:Generated_Source\PSoC4/CapSense_1_Processing.c **** * \details
 549:Generated_Source\PSoC4/CapSense_1_Processing.c **** *  Performs default processing of the CSX raw counts:
 550:Generated_Source\PSoC4/CapSense_1_Processing.c **** *   - Run Filters
 551:Generated_Source\PSoC4/CapSense_1_Processing.c **** *   - Update Baselines
 552:Generated_Source\PSoC4/CapSense_1_Processing.c **** *   - Update Differences
 553:Generated_Source\PSoC4/CapSense_1_Processing.c **** *   - Update Status.
 554:Generated_Source\PSoC4/CapSense_1_Processing.c **** *  The same process is applied to all the sensors of the specified widget.
 555:Generated_Source\PSoC4/CapSense_1_Processing.c **** *
 556:Generated_Source\PSoC4/CapSense_1_Processing.c **** * \param ptrFlashWdgt The pointer to the Flash widget structure.
 557:Generated_Source\PSoC4/CapSense_1_Processing.c **** *
 558:Generated_Source\PSoC4/CapSense_1_Processing.c **** * \return
 559:Generated_Source\PSoC4/CapSense_1_Processing.c **** *  Returns the status of the specified widget processing operation:
 560:Generated_Source\PSoC4/CapSense_1_Processing.c **** *  - CYRET_SUCCESS if operation was successfully completed;
 561:Generated_Source\PSoC4/CapSense_1_Processing.c **** *  - CapSense_1_PROCESS_BASELINE_FAILED if baseline processing of any
 562:Generated_Source\PSoC4/CapSense_1_Processing.c **** *    sensor of the specified widget failed. The result is concatenated with the index
 563:Generated_Source\PSoC4/CapSense_1_Processing.c **** *    of failed sensor.
 564:Generated_Source\PSoC4/CapSense_1_Processing.c **** *
 565:Generated_Source\PSoC4/CapSense_1_Processing.c **** *******************************************************************************/
 566:Generated_Source\PSoC4/CapSense_1_Processing.c **** uint32 CapSense_1_DpProcessCsxWidgetRawCounts(CapSense_1_FLASH_WD_STRUCT const *ptrFlashWdgt)
 567:Generated_Source\PSoC4/CapSense_1_Processing.c **** {
 568:Generated_Source\PSoC4/CapSense_1_Processing.c ****     uint32 result = CYRET_SUCCESS;
 569:Generated_Source\PSoC4/CapSense_1_Processing.c ****     uint32 widgetType;
 570:Generated_Source\PSoC4/CapSense_1_Processing.c ****     uint32 snsCount;
 571:Generated_Source\PSoC4/CapSense_1_Processing.c ****     CapSense_1_RAM_SNS_STRUCT *ptrSnsTmp;
 572:Generated_Source\PSoC4/CapSense_1_Processing.c ****     CapSense_1_RAM_WD_BASE_STRUCT *ptrRamWdgt;
 573:Generated_Source\PSoC4/CapSense_1_Processing.c **** 
 574:Generated_Source\PSoC4/CapSense_1_Processing.c ****     #if (CapSense_1_ENABLE == CapSense_1_RC_FILTER_EN)
 575:Generated_Source\PSoC4/CapSense_1_Processing.c ****         CapSense_1_PTR_FILTER_VARIANT fltrHistV;
 576:Generated_Source\PSoC4/CapSense_1_Processing.c **** 
ARM GAS  C:\Users\exp32\AppData\Local\Temp\ccki8209.s 			page 15


 577:Generated_Source\PSoC4/CapSense_1_Processing.c ****         fltrHistV.ptr = ptrFlashWdgt->ptr2FltrHistory;
 578:Generated_Source\PSoC4/CapSense_1_Processing.c ****     #endif /* #if (CapSense_1_ENABLE == CapSense_1_RC_FILTER_EN) */
 579:Generated_Source\PSoC4/CapSense_1_Processing.c **** 
 580:Generated_Source\PSoC4/CapSense_1_Processing.c ****     ptrSnsTmp = ptrFlashWdgt->ptr2SnsRam;
 581:Generated_Source\PSoC4/CapSense_1_Processing.c ****     snsCount = ptrFlashWdgt->totalNumSns;
 582:Generated_Source\PSoC4/CapSense_1_Processing.c ****     ptrRamWdgt = (CapSense_1_RAM_WD_BASE_STRUCT *)ptrFlashWdgt->ptr2WdgtRam;
 583:Generated_Source\PSoC4/CapSense_1_Processing.c ****     widgetType = ptrFlashWdgt->wdgtType;
 584:Generated_Source\PSoC4/CapSense_1_Processing.c **** 
 585:Generated_Source\PSoC4/CapSense_1_Processing.c ****     /* Run deconvolution algorithm for the widgets with multiphase TX support */
 586:Generated_Source\PSoC4/CapSense_1_Processing.c ****     #if (0u != CapSense_1_CSX_MULTIPHASE_TX_EN)
 587:Generated_Source\PSoC4/CapSense_1_Processing.c ****         if (0u != (ptrFlashWdgt->staticConfig & CapSense_1_MULTIPHASE_TX_MASK))
 588:Generated_Source\PSoC4/CapSense_1_Processing.c ****         {
 589:Generated_Source\PSoC4/CapSense_1_Processing.c ****             CapSense_1_DpDeconvolution(ptrFlashWdgt);
 590:Generated_Source\PSoC4/CapSense_1_Processing.c ****         }
 591:Generated_Source\PSoC4/CapSense_1_Processing.c ****     #endif  /* #if (0u != CapSense_1_CSX_MULTIPHASE_TX_EN) */
 592:Generated_Source\PSoC4/CapSense_1_Processing.c **** 
 593:Generated_Source\PSoC4/CapSense_1_Processing.c ****     for (;snsCount-- > 0u;)
 594:Generated_Source\PSoC4/CapSense_1_Processing.c ****     {
 595:Generated_Source\PSoC4/CapSense_1_Processing.c ****         #if (CapSense_1_ENABLE == CapSense_1_RC_FILTER_EN)
 596:Generated_Source\PSoC4/CapSense_1_Processing.c ****             CapSense_1_FtRunEnabledFiltersInternal(fltrHistV, ptrSnsTmp, widgetType);
 597:Generated_Source\PSoC4/CapSense_1_Processing.c ****             #if (CapSense_1_ALP_FILTER_EN)
 598:Generated_Source\PSoC4/CapSense_1_Processing.c ****                 CapSense_1_ConfigRunALPInternal(fltrHistV, ptrRamWdgt, ptrSnsTmp, widgetType);
 599:Generated_Source\PSoC4/CapSense_1_Processing.c ****             #endif
 600:Generated_Source\PSoC4/CapSense_1_Processing.c ****         #endif /* #if (CapSense_1_ENABLE == CapSense_1_RC_FILTER_EN) */
 601:Generated_Source\PSoC4/CapSense_1_Processing.c **** 
 602:Generated_Source\PSoC4/CapSense_1_Processing.c ****         result = CapSense_1_FtUpdateBaseline(ptrRamWdgt, ptrSnsTmp, widgetType);
 603:Generated_Source\PSoC4/CapSense_1_Processing.c **** 
 604:Generated_Source\PSoC4/CapSense_1_Processing.c ****         #if (CapSense_1_ENABLE == CapSense_1_TST_BSLN_DUPLICATION_EN)
 605:Generated_Source\PSoC4/CapSense_1_Processing.c ****             if (CYRET_SUCCESS != result)
 606:Generated_Source\PSoC4/CapSense_1_Processing.c ****             {
 607:Generated_Source\PSoC4/CapSense_1_Processing.c ****                 result = snsCount | CapSense_1_PROCESS_BASELINE_FAILED;
 608:Generated_Source\PSoC4/CapSense_1_Processing.c ****             }
 609:Generated_Source\PSoC4/CapSense_1_Processing.c ****         #endif /* (CapSense_1_ENABLE == CapSense_1_TST_BSLN_DUPLICATION_EN) */
 610:Generated_Source\PSoC4/CapSense_1_Processing.c **** 
 611:Generated_Source\PSoC4/CapSense_1_Processing.c ****         CapSense_1_DpUpdateDifferences(ptrRamWdgt, ptrSnsTmp);
 612:Generated_Source\PSoC4/CapSense_1_Processing.c **** 
 613:Generated_Source\PSoC4/CapSense_1_Processing.c ****         /* Move pointers to the next sensor and filter history objects */
 614:Generated_Source\PSoC4/CapSense_1_Processing.c ****         ptrSnsTmp++;
 615:Generated_Source\PSoC4/CapSense_1_Processing.c **** 
 616:Generated_Source\PSoC4/CapSense_1_Processing.c ****         #if (CapSense_1_ENABLE == CapSense_1_RC_FILTER_EN)
 617:Generated_Source\PSoC4/CapSense_1_Processing.c ****             CapSense_1_INC_REG_FLTR_OBJ(fltrHistV);
 618:Generated_Source\PSoC4/CapSense_1_Processing.c ****         #endif /* #if (CapSense_1_ENABLE == CapSense_1_RC_FILTER_EN) */
 619:Generated_Source\PSoC4/CapSense_1_Processing.c ****     }
 620:Generated_Source\PSoC4/CapSense_1_Processing.c ****     return result;
 621:Generated_Source\PSoC4/CapSense_1_Processing.c **** }
 622:Generated_Source\PSoC4/CapSense_1_Processing.c **** 
 623:Generated_Source\PSoC4/CapSense_1_Processing.c **** /*******************************************************************************
 624:Generated_Source\PSoC4/CapSense_1_Processing.c **** * Function Name: CapSense_1_DpProcessCsxSensorRawCountsExt
 625:Generated_Source\PSoC4/CapSense_1_Processing.c **** ****************************************************************************//**
 626:Generated_Source\PSoC4/CapSense_1_Processing.c **** *
 627:Generated_Source\PSoC4/CapSense_1_Processing.c **** * \brief
 628:Generated_Source\PSoC4/CapSense_1_Processing.c **** *   Performs customized processing of the CSX sensor raw counts.
 629:Generated_Source\PSoC4/CapSense_1_Processing.c **** *
 630:Generated_Source\PSoC4/CapSense_1_Processing.c **** * \details
 631:Generated_Source\PSoC4/CapSense_1_Processing.c **** *   Performs customized processing of the CSX sensor raw counts.
 632:Generated_Source\PSoC4/CapSense_1_Processing.c **** *
 633:Generated_Source\PSoC4/CapSense_1_Processing.c **** *   If all bits are set at once the default processing order will take place.
ARM GAS  C:\Users\exp32\AppData\Local\Temp\ccki8209.s 			page 16


 634:Generated_Source\PSoC4/CapSense_1_Processing.c **** *   For the custom order this API can be called multiple times and execute one task at a time.
 635:Generated_Source\PSoC4/CapSense_1_Processing.c **** *
 636:Generated_Source\PSoC4/CapSense_1_Processing.c **** * \param ptrFlashWdgt The pointer to the Flash Widget Object.
 637:Generated_Source\PSoC4/CapSense_1_Processing.c **** * \param curSnsPtr    The pointer to the specific RAM Sensor Object.
 638:Generated_Source\PSoC4/CapSense_1_Processing.c **** * \param fltrHistV    The pointer to the Filter History Object in RAM associated with specific sens
 639:Generated_Source\PSoC4/CapSense_1_Processing.c **** * \param mode         The bit-mask with the data processing tasks to be executed.
 640:Generated_Source\PSoC4/CapSense_1_Processing.c **** *   The mode parameters can take the following values:
 641:Generated_Source\PSoC4/CapSense_1_Processing.c **** *    - CapSense_1_PROCESS_FILTER     (0x01) Run Firmware Filter
 642:Generated_Source\PSoC4/CapSense_1_Processing.c **** *    - CapSense_1_PROCESS_BASELINE   (0x02) Update Baselines
 643:Generated_Source\PSoC4/CapSense_1_Processing.c **** *    - CapSense_1_PROCESS_DIFFCOUNTS (0x04) Update Difference Counts
 644:Generated_Source\PSoC4/CapSense_1_Processing.c **** *    - CapSense_1_PROCESS_ALL               Execute all tasks
 645:Generated_Source\PSoC4/CapSense_1_Processing.c **** *
 646:Generated_Source\PSoC4/CapSense_1_Processing.c **** * \return
 647:Generated_Source\PSoC4/CapSense_1_Processing.c **** *  Returns the status of the specified sensor processing operation:
 648:Generated_Source\PSoC4/CapSense_1_Processing.c **** *  - CYRET_SUCCESS if operation was successfully completed;
 649:Generated_Source\PSoC4/CapSense_1_Processing.c **** *  - CapSense_1_PROCESS_BASELINE_FAILED if baseline processing of any
 650:Generated_Source\PSoC4/CapSense_1_Processing.c **** *    sensor of the specified widget failed. The result is concatenated with the index
 651:Generated_Source\PSoC4/CapSense_1_Processing.c **** *    of failed sensor.
 652:Generated_Source\PSoC4/CapSense_1_Processing.c **** *
 653:Generated_Source\PSoC4/CapSense_1_Processing.c **** *******************************************************************************/
 654:Generated_Source\PSoC4/CapSense_1_Processing.c **** uint32 CapSense_1_DpProcessCsxSensorRawCountsExt(
 655:Generated_Source\PSoC4/CapSense_1_Processing.c ****                 CapSense_1_FLASH_WD_STRUCT const *ptrFlashWdgt,
 656:Generated_Source\PSoC4/CapSense_1_Processing.c ****                 CapSense_1_RAM_SNS_STRUCT *curSnsPtr,
 657:Generated_Source\PSoC4/CapSense_1_Processing.c ****                 CapSense_1_PTR_FILTER_VARIANT fltrHistV,
 658:Generated_Source\PSoC4/CapSense_1_Processing.c ****                 uint32 mode)
 659:Generated_Source\PSoC4/CapSense_1_Processing.c **** {
 660:Generated_Source\PSoC4/CapSense_1_Processing.c ****     uint32  result = CYRET_SUCCESS;
 661:Generated_Source\PSoC4/CapSense_1_Processing.c ****     uint32  widgetType;
 662:Generated_Source\PSoC4/CapSense_1_Processing.c ****     CapSense_1_RAM_WD_BASE_STRUCT *ptrRamWdgt;
 663:Generated_Source\PSoC4/CapSense_1_Processing.c **** 
 664:Generated_Source\PSoC4/CapSense_1_Processing.c ****     widgetType = ptrFlashWdgt->wdgtType;
 665:Generated_Source\PSoC4/CapSense_1_Processing.c ****     ptrRamWdgt = (CapSense_1_RAM_WD_BASE_STRUCT *)ptrFlashWdgt->ptr2WdgtRam;
 666:Generated_Source\PSoC4/CapSense_1_Processing.c **** 
 667:Generated_Source\PSoC4/CapSense_1_Processing.c ****     #if (CapSense_1_ENABLE == CapSense_1_RC_FILTER_EN)
 668:Generated_Source\PSoC4/CapSense_1_Processing.c ****         if (0u != (mode & CapSense_1_PROCESS_FILTER))
 669:Generated_Source\PSoC4/CapSense_1_Processing.c ****         {
 670:Generated_Source\PSoC4/CapSense_1_Processing.c ****             CapSense_1_FtRunEnabledFiltersInternal(fltrHistV, curSnsPtr, widgetType);
 671:Generated_Source\PSoC4/CapSense_1_Processing.c ****             #if (CapSense_1_ALP_FILTER_EN)
 672:Generated_Source\PSoC4/CapSense_1_Processing.c ****                 CapSense_1_ConfigRunALPInternal(fltrHistV, ptrRamWdgt, curSnsPtr, widgetType);
 673:Generated_Source\PSoC4/CapSense_1_Processing.c ****             #endif
 674:Generated_Source\PSoC4/CapSense_1_Processing.c ****         }
 675:Generated_Source\PSoC4/CapSense_1_Processing.c ****     #else
 676:Generated_Source\PSoC4/CapSense_1_Processing.c ****         (void)fltrHistV; /* This parameter is unused in such configurations */
 677:Generated_Source\PSoC4/CapSense_1_Processing.c ****     #endif /* #if (CapSense_1_ENABLE == CapSense_1_RC_FILTER_EN) */
 678:Generated_Source\PSoC4/CapSense_1_Processing.c **** 
 679:Generated_Source\PSoC4/CapSense_1_Processing.c ****     if (0u != (mode & CapSense_1_PROCESS_BASELINE))
 680:Generated_Source\PSoC4/CapSense_1_Processing.c ****     {
 681:Generated_Source\PSoC4/CapSense_1_Processing.c ****         result = CapSense_1_FtUpdateBaseline(ptrRamWdgt, curSnsPtr, widgetType);
 682:Generated_Source\PSoC4/CapSense_1_Processing.c ****     }
 683:Generated_Source\PSoC4/CapSense_1_Processing.c **** 
 684:Generated_Source\PSoC4/CapSense_1_Processing.c ****     if (0u != (mode & CapSense_1_PROCESS_DIFFCOUNTS))
 685:Generated_Source\PSoC4/CapSense_1_Processing.c ****     {
 686:Generated_Source\PSoC4/CapSense_1_Processing.c ****         CapSense_1_DpUpdateDifferences(ptrRamWdgt, curSnsPtr);
 687:Generated_Source\PSoC4/CapSense_1_Processing.c ****     }
 688:Generated_Source\PSoC4/CapSense_1_Processing.c ****     return result;
 689:Generated_Source\PSoC4/CapSense_1_Processing.c **** }
 690:Generated_Source\PSoC4/CapSense_1_Processing.c **** 
ARM GAS  C:\Users\exp32\AppData\Local\Temp\ccki8209.s 			page 17


 691:Generated_Source\PSoC4/CapSense_1_Processing.c **** 
 692:Generated_Source\PSoC4/CapSense_1_Processing.c **** /*******************************************************************************
 693:Generated_Source\PSoC4/CapSense_1_Processing.c **** * Function Name: CapSense_1_DpProcessCsxWidgetStatus
 694:Generated_Source\PSoC4/CapSense_1_Processing.c **** ****************************************************************************//**
 695:Generated_Source\PSoC4/CapSense_1_Processing.c **** *
 696:Generated_Source\PSoC4/CapSense_1_Processing.c **** * \brief
 697:Generated_Source\PSoC4/CapSense_1_Processing.c **** *   Updates the status of the CSX widget in the Data Structure.
 698:Generated_Source\PSoC4/CapSense_1_Processing.c **** *
 699:Generated_Source\PSoC4/CapSense_1_Processing.c **** * \details
 700:Generated_Source\PSoC4/CapSense_1_Processing.c **** *  This API determines the type of widget and runs the appropriate function
 701:Generated_Source\PSoC4/CapSense_1_Processing.c **** *  that implements the status update algorithm for this type of widget.
 702:Generated_Source\PSoC4/CapSense_1_Processing.c **** *
 703:Generated_Source\PSoC4/CapSense_1_Processing.c **** *  When the widget-specific processing completes this API updates the snsStatus
 704:Generated_Source\PSoC4/CapSense_1_Processing.c **** *  and wdgtStatus registers in the data structure. The wdgtStatus register
 705:Generated_Source\PSoC4/CapSense_1_Processing.c **** *  is a bitmask were each bit corresponds to the specific widget identified by
 706:Generated_Source\PSoC4/CapSense_1_Processing.c **** *  the widget index. When the bit is set the widget is active (touched);
 707:Generated_Source\PSoC4/CapSense_1_Processing.c **** *
 708:Generated_Source\PSoC4/CapSense_1_Processing.c **** *  Depending on the type of widget the snsStatus register may contain either
 709:Generated_Source\PSoC4/CapSense_1_Processing.c **** *  status of each widget node (active/non-active) or in case of the CSX Touchpad
 710:Generated_Source\PSoC4/CapSense_1_Processing.c **** *  is contains the number of touches. In both cases 0 means that widget is not
 711:Generated_Source\PSoC4/CapSense_1_Processing.c **** *  active.
 712:Generated_Source\PSoC4/CapSense_1_Processing.c **** *
 713:Generated_Source\PSoC4/CapSense_1_Processing.c **** * \param widgetId     The widget ID number.
 714:Generated_Source\PSoC4/CapSense_1_Processing.c **** * \param ptrFlashWdgt The pointer to the Flash Widget Object.
 715:Generated_Source\PSoC4/CapSense_1_Processing.c **** *
 716:Generated_Source\PSoC4/CapSense_1_Processing.c **** *******************************************************************************/
 717:Generated_Source\PSoC4/CapSense_1_Processing.c **** void CapSense_1_DpProcessCsxWidgetStatus(uint32 widgetId, CapSense_1_FLASH_WD_STRUCT const *ptrFlas
 718:Generated_Source\PSoC4/CapSense_1_Processing.c **** {
 719:Generated_Source\PSoC4/CapSense_1_Processing.c ****     uint32 sensorStatus;
 720:Generated_Source\PSoC4/CapSense_1_Processing.c ****     uint32 wdStatusIndex;
 721:Generated_Source\PSoC4/CapSense_1_Processing.c ****     uint32 wdStatusMask;
 722:Generated_Source\PSoC4/CapSense_1_Processing.c ****     CapSense_1_WD_TYPE_ENUM widgetType;
 723:Generated_Source\PSoC4/CapSense_1_Processing.c **** 
 724:Generated_Source\PSoC4/CapSense_1_Processing.c ****     widgetType = (CapSense_1_WD_TYPE_ENUM)ptrFlashWdgt->wdgtType;
 725:Generated_Source\PSoC4/CapSense_1_Processing.c ****     sensorStatus = CapSense_1_dsRam.snsStatus[widgetId];
 726:Generated_Source\PSoC4/CapSense_1_Processing.c **** 
 727:Generated_Source\PSoC4/CapSense_1_Processing.c ****     switch (widgetType)
 728:Generated_Source\PSoC4/CapSense_1_Processing.c ****     {
 729:Generated_Source\PSoC4/CapSense_1_Processing.c ****     #if (0u != CapSense_1_BUTTON_WIDGET_EN)
 730:Generated_Source\PSoC4/CapSense_1_Processing.c ****         case CapSense_1_WD_BUTTON_E:
 731:Generated_Source\PSoC4/CapSense_1_Processing.c ****             sensorStatus = CapSense_1_DpProcessButton(sensorStatus, ptrFlashWdgt);
 732:Generated_Source\PSoC4/CapSense_1_Processing.c ****             break;
 733:Generated_Source\PSoC4/CapSense_1_Processing.c ****     #endif /* #if (0u != CapSense_1_BUTTON_WIDGET_EN) */
 734:Generated_Source\PSoC4/CapSense_1_Processing.c **** 
 735:Generated_Source\PSoC4/CapSense_1_Processing.c ****     #if (0u != CapSense_1_CSX_MATRIX_WIDGET_EN)
 736:Generated_Source\PSoC4/CapSense_1_Processing.c ****         case CapSense_1_WD_MATRIX_BUTTON_E:
 737:Generated_Source\PSoC4/CapSense_1_Processing.c ****             sensorStatus = CapSense_1_DpProcessButton(sensorStatus, ptrFlashWdgt);
 738:Generated_Source\PSoC4/CapSense_1_Processing.c ****             break;
 739:Generated_Source\PSoC4/CapSense_1_Processing.c ****     #endif /* #if (0u != CapSense_1_CSX_MATRIX_WIDGET_EN) */
 740:Generated_Source\PSoC4/CapSense_1_Processing.c **** 
 741:Generated_Source\PSoC4/CapSense_1_Processing.c ****     #if (0u != CapSense_1_CSX_TOUCHPAD_WIDGET_EN)
 742:Generated_Source\PSoC4/CapSense_1_Processing.c ****         case CapSense_1_WD_TOUCHPAD_E:
 743:Generated_Source\PSoC4/CapSense_1_Processing.c ****             sensorStatus = CapSense_1_DpProcessCsxTouchpad(sensorStatus, ptrFlashWdgt);
 744:Generated_Source\PSoC4/CapSense_1_Processing.c ****             break;
 745:Generated_Source\PSoC4/CapSense_1_Processing.c ****     #endif /* #if (0u != CapSense_1_CSX_TOUCHPAD_WIDGET_EN) */
 746:Generated_Source\PSoC4/CapSense_1_Processing.c **** 
 747:Generated_Source\PSoC4/CapSense_1_Processing.c ****     default:
ARM GAS  C:\Users\exp32\AppData\Local\Temp\ccki8209.s 			page 18


 748:Generated_Source\PSoC4/CapSense_1_Processing.c ****         CYASSERT(0u);
 749:Generated_Source\PSoC4/CapSense_1_Processing.c ****         break;
 750:Generated_Source\PSoC4/CapSense_1_Processing.c ****     }
 751:Generated_Source\PSoC4/CapSense_1_Processing.c **** 
 752:Generated_Source\PSoC4/CapSense_1_Processing.c ****     /* Update sensor status in the data structure */
 753:Generated_Source\PSoC4/CapSense_1_Processing.c ****     CapSense_1_dsRam.snsStatus[widgetId] = (CapSense_1_SNS_STS_TYPE)sensorStatus;
 754:Generated_Source\PSoC4/CapSense_1_Processing.c **** 
 755:Generated_Source\PSoC4/CapSense_1_Processing.c ****     /* The next two lines calculate index and bitmask of the widget status bit in the wdgtStatus ar
 756:Generated_Source\PSoC4/CapSense_1_Processing.c ****     wdStatusIndex = CapSense_1_GET_WDGT_STATUS_INDEX(widgetId);
 757:Generated_Source\PSoC4/CapSense_1_Processing.c ****     wdStatusMask = CapSense_1_GET_WDGT_STATUS_MASK(widgetId);
 758:Generated_Source\PSoC4/CapSense_1_Processing.c **** 
 759:Generated_Source\PSoC4/CapSense_1_Processing.c ****     /* Check if there are active sensors and update widget status accordingly */
 760:Generated_Source\PSoC4/CapSense_1_Processing.c ****     if (0u == sensorStatus)
 761:Generated_Source\PSoC4/CapSense_1_Processing.c ****     {
 762:Generated_Source\PSoC4/CapSense_1_Processing.c ****         CapSense_1_dsRam.wdgtStatus[wdStatusIndex] &= ~wdStatusMask;
 763:Generated_Source\PSoC4/CapSense_1_Processing.c ****     }
 764:Generated_Source\PSoC4/CapSense_1_Processing.c ****     else
 765:Generated_Source\PSoC4/CapSense_1_Processing.c ****     {
 766:Generated_Source\PSoC4/CapSense_1_Processing.c ****         CapSense_1_dsRam.wdgtStatus[wdStatusIndex] |= wdStatusMask;
 767:Generated_Source\PSoC4/CapSense_1_Processing.c ****     }
 768:Generated_Source\PSoC4/CapSense_1_Processing.c **** }
 769:Generated_Source\PSoC4/CapSense_1_Processing.c **** #endif /* #if CapSense_1_TOTAL_CSX_WIDGETS */
 770:Generated_Source\PSoC4/CapSense_1_Processing.c **** 
 771:Generated_Source\PSoC4/CapSense_1_Processing.c **** #if (0u != CapSense_1_TOTAL_ISX_WIDGETS)
 772:Generated_Source\PSoC4/CapSense_1_Processing.c **** /*******************************************************************************
 773:Generated_Source\PSoC4/CapSense_1_Processing.c **** * Function Name: CapSense_1_DpProcessIsxWidgetRawCounts
 774:Generated_Source\PSoC4/CapSense_1_Processing.c **** ****************************************************************************//**
 775:Generated_Source\PSoC4/CapSense_1_Processing.c **** *
 776:Generated_Source\PSoC4/CapSense_1_Processing.c **** * \brief
 777:Generated_Source\PSoC4/CapSense_1_Processing.c **** *  Performs default processing of the ISX raw counts.
 778:Generated_Source\PSoC4/CapSense_1_Processing.c **** *
 779:Generated_Source\PSoC4/CapSense_1_Processing.c **** * \details
 780:Generated_Source\PSoC4/CapSense_1_Processing.c **** *  Performs default processing of the ISX raw counts:
 781:Generated_Source\PSoC4/CapSense_1_Processing.c **** *   - Run Filters
 782:Generated_Source\PSoC4/CapSense_1_Processing.c **** *   - Update Baselines
 783:Generated_Source\PSoC4/CapSense_1_Processing.c **** *   - Update Differences
 784:Generated_Source\PSoC4/CapSense_1_Processing.c **** *   - Update Status.
 785:Generated_Source\PSoC4/CapSense_1_Processing.c **** *  The same process is applied to all the sensors of the specified widget.
 786:Generated_Source\PSoC4/CapSense_1_Processing.c **** *
 787:Generated_Source\PSoC4/CapSense_1_Processing.c **** * \param ptrFlashWdgt The pointer to the Flash widget structure.
 788:Generated_Source\PSoC4/CapSense_1_Processing.c **** *
 789:Generated_Source\PSoC4/CapSense_1_Processing.c **** * \return
 790:Generated_Source\PSoC4/CapSense_1_Processing.c **** *  Returns the status of the specified widget processing operation:
 791:Generated_Source\PSoC4/CapSense_1_Processing.c **** *  - CYRET_SUCCESS if operation was successfully completed;
 792:Generated_Source\PSoC4/CapSense_1_Processing.c **** *  - CapSense_1_PROCESS_BASELINE_FAILED if baseline processing of any
 793:Generated_Source\PSoC4/CapSense_1_Processing.c **** *    sensor of the specified widget failed. The result is concatenated with the index
 794:Generated_Source\PSoC4/CapSense_1_Processing.c **** *    of failed sensor.
 795:Generated_Source\PSoC4/CapSense_1_Processing.c **** *
 796:Generated_Source\PSoC4/CapSense_1_Processing.c **** *******************************************************************************/
 797:Generated_Source\PSoC4/CapSense_1_Processing.c **** uint32 CapSense_1_DpProcessIsxWidgetRawCounts(CapSense_1_FLASH_WD_STRUCT const *ptrFlashWdgt)
 798:Generated_Source\PSoC4/CapSense_1_Processing.c **** {
 799:Generated_Source\PSoC4/CapSense_1_Processing.c ****     uint32 result = CYRET_SUCCESS;
 800:Generated_Source\PSoC4/CapSense_1_Processing.c ****     uint32 widgetType;
 801:Generated_Source\PSoC4/CapSense_1_Processing.c ****     uint32 snsCount;
 802:Generated_Source\PSoC4/CapSense_1_Processing.c ****     CapSense_1_RAM_SNS_STRUCT *ptrSns;
 803:Generated_Source\PSoC4/CapSense_1_Processing.c ****     CapSense_1_RAM_WD_BASE_STRUCT *ptrRamWdgt;
 804:Generated_Source\PSoC4/CapSense_1_Processing.c **** 
ARM GAS  C:\Users\exp32\AppData\Local\Temp\ccki8209.s 			page 19


 805:Generated_Source\PSoC4/CapSense_1_Processing.c ****     #if (CapSense_1_ENABLE == CapSense_1_RC_FILTER_EN)
 806:Generated_Source\PSoC4/CapSense_1_Processing.c ****         CapSense_1_PTR_FILTER_VARIANT fltrHistV;
 807:Generated_Source\PSoC4/CapSense_1_Processing.c **** 
 808:Generated_Source\PSoC4/CapSense_1_Processing.c ****         fltrHistV.ptr = ptrFlashWdgt->ptr2FltrHistory;
 809:Generated_Source\PSoC4/CapSense_1_Processing.c ****     #endif /* #if (CapSense_1_ENABLE == CapSense_1_RC_FILTER_EN) */
 810:Generated_Source\PSoC4/CapSense_1_Processing.c **** 
 811:Generated_Source\PSoC4/CapSense_1_Processing.c ****     ptrSns = ptrFlashWdgt->ptr2SnsRam;
 812:Generated_Source\PSoC4/CapSense_1_Processing.c ****     snsCount = ptrFlashWdgt->totalNumSns;
 813:Generated_Source\PSoC4/CapSense_1_Processing.c ****     ptrRamWdgt = ptrFlashWdgt->ptr2WdgtRam;
 814:Generated_Source\PSoC4/CapSense_1_Processing.c ****     widgetType = ptrFlashWdgt->wdgtType;
 815:Generated_Source\PSoC4/CapSense_1_Processing.c **** 
 816:Generated_Source\PSoC4/CapSense_1_Processing.c ****     #if (0u != CapSense_1_ISX_SKIP_OVSMPL_SPECIFIC_NODES)
 817:Generated_Source\PSoC4/CapSense_1_Processing.c ****         if (0u != ptrSns->resolution)
 818:Generated_Source\PSoC4/CapSense_1_Processing.c ****     #endif
 819:Generated_Source\PSoC4/CapSense_1_Processing.c ****     {
 820:Generated_Source\PSoC4/CapSense_1_Processing.c ****         for(;snsCount-- > 0u;)
 821:Generated_Source\PSoC4/CapSense_1_Processing.c ****         {
 822:Generated_Source\PSoC4/CapSense_1_Processing.c ****             #if (CapSense_1_ENABLE == CapSense_1_RC_FILTER_EN)
 823:Generated_Source\PSoC4/CapSense_1_Processing.c ****                 CapSense_1_FtRunEnabledFiltersInternal(fltrHistV, ptrSns, widgetType);
 824:Generated_Source\PSoC4/CapSense_1_Processing.c ****             #endif /* #if (CapSense_1_ENABLE == CapSense_1_RC_FILTER_EN) */
 825:Generated_Source\PSoC4/CapSense_1_Processing.c **** 
 826:Generated_Source\PSoC4/CapSense_1_Processing.c ****             result = CapSense_1_FtUpdateBaseline(ptrRamWdgt, ptrSns, widgetType);
 827:Generated_Source\PSoC4/CapSense_1_Processing.c **** 
 828:Generated_Source\PSoC4/CapSense_1_Processing.c ****             #if (CapSense_1_ENABLE == CapSense_1_TST_BSLN_DUPLICATION_EN)
 829:Generated_Source\PSoC4/CapSense_1_Processing.c ****                 if (CYRET_SUCCESS != result)
 830:Generated_Source\PSoC4/CapSense_1_Processing.c ****                 {
 831:Generated_Source\PSoC4/CapSense_1_Processing.c ****                     result = CapSense_1_PROCESS_BASELINE_FAILED;
 832:Generated_Source\PSoC4/CapSense_1_Processing.c ****                 }
 833:Generated_Source\PSoC4/CapSense_1_Processing.c ****             #endif /* (CapSense_1_ENABLE == CapSense_1_TST_BSLN_DUPLICATION_EN) */
 834:Generated_Source\PSoC4/CapSense_1_Processing.c **** 
 835:Generated_Source\PSoC4/CapSense_1_Processing.c ****             CapSense_1_DpUpdateDifferences(ptrRamWdgt, ptrSns);
 836:Generated_Source\PSoC4/CapSense_1_Processing.c ****             ptrSns++;
 837:Generated_Source\PSoC4/CapSense_1_Processing.c **** 
 838:Generated_Source\PSoC4/CapSense_1_Processing.c ****             #if (CapSense_1_ENABLE == CapSense_1_RC_FILTER_EN)
 839:Generated_Source\PSoC4/CapSense_1_Processing.c ****                 CapSense_1_INC_FLTR_OBJ_VARIANT(0u, fltrHistV);
 840:Generated_Source\PSoC4/CapSense_1_Processing.c ****             #endif /* #if (CapSense_1_ENABLE == CapSense_1_RC_FILTER_EN) */
 841:Generated_Source\PSoC4/CapSense_1_Processing.c ****         }
 842:Generated_Source\PSoC4/CapSense_1_Processing.c ****     }
 843:Generated_Source\PSoC4/CapSense_1_Processing.c **** 
 844:Generated_Source\PSoC4/CapSense_1_Processing.c ****     return result;
 845:Generated_Source\PSoC4/CapSense_1_Processing.c **** }
 846:Generated_Source\PSoC4/CapSense_1_Processing.c **** 
 847:Generated_Source\PSoC4/CapSense_1_Processing.c **** /*******************************************************************************
 848:Generated_Source\PSoC4/CapSense_1_Processing.c **** * Function Name: CapSense_1_DpProcessIsxSensorRawCountsExt
 849:Generated_Source\PSoC4/CapSense_1_Processing.c **** ****************************************************************************//**
 850:Generated_Source\PSoC4/CapSense_1_Processing.c **** *
 851:Generated_Source\PSoC4/CapSense_1_Processing.c **** * \brief
 852:Generated_Source\PSoC4/CapSense_1_Processing.c **** *   Performs customized processing of the ISX sensor raw counts.
 853:Generated_Source\PSoC4/CapSense_1_Processing.c **** *
 854:Generated_Source\PSoC4/CapSense_1_Processing.c **** * \details
 855:Generated_Source\PSoC4/CapSense_1_Processing.c **** *   Performs customized processing of the ISX sensor raw counts.
 856:Generated_Source\PSoC4/CapSense_1_Processing.c **** *
 857:Generated_Source\PSoC4/CapSense_1_Processing.c **** *   If all bits are set at once the default processing order will take place.
 858:Generated_Source\PSoC4/CapSense_1_Processing.c **** *   For the custom order this API can be called multiple times and execute one task at a time.
 859:Generated_Source\PSoC4/CapSense_1_Processing.c **** *
 860:Generated_Source\PSoC4/CapSense_1_Processing.c **** * \param ptrFlashWdgt The pointer to the Flash Widget Object.
 861:Generated_Source\PSoC4/CapSense_1_Processing.c **** * \param ptrSns       The pointer to the specific RAM Sensor Object.
ARM GAS  C:\Users\exp32\AppData\Local\Temp\ccki8209.s 			page 20


 862:Generated_Source\PSoC4/CapSense_1_Processing.c **** * \param fltrHistV    The pointer to the Filter History Object in RAM associated with specific sens
 863:Generated_Source\PSoC4/CapSense_1_Processing.c **** * \param mode         The bit-mask with the data processing tasks to be executed.
 864:Generated_Source\PSoC4/CapSense_1_Processing.c **** *   The mode parameters can take the following values:
 865:Generated_Source\PSoC4/CapSense_1_Processing.c **** *    - CapSense_1_PROCESS_FILTER     (0x01) Run Firmware Filter
 866:Generated_Source\PSoC4/CapSense_1_Processing.c **** *    - CapSense_1_PROCESS_BASELINE   (0x02) Update Baselines
 867:Generated_Source\PSoC4/CapSense_1_Processing.c **** *    - CapSense_1_PROCESS_DIFFCOUNTS (0x04) Update Difference Counts
 868:Generated_Source\PSoC4/CapSense_1_Processing.c **** *    - CapSense_1_PROCESS_ALL               Execute all tasks
 869:Generated_Source\PSoC4/CapSense_1_Processing.c **** *
 870:Generated_Source\PSoC4/CapSense_1_Processing.c **** * \return
 871:Generated_Source\PSoC4/CapSense_1_Processing.c **** *  Returns the status of the specified sensor processing operation:
 872:Generated_Source\PSoC4/CapSense_1_Processing.c **** *  - CYRET_SUCCESS if operation was successfully completed;
 873:Generated_Source\PSoC4/CapSense_1_Processing.c **** *  - CapSense_1_PROCESS_BASELINE_FAILED if baseline processing of any
 874:Generated_Source\PSoC4/CapSense_1_Processing.c **** *    sensor of the specified widget failed. The result is concatenated with the index
 875:Generated_Source\PSoC4/CapSense_1_Processing.c **** *    of failed sensor.
 876:Generated_Source\PSoC4/CapSense_1_Processing.c **** *
 877:Generated_Source\PSoC4/CapSense_1_Processing.c **** *******************************************************************************/
 878:Generated_Source\PSoC4/CapSense_1_Processing.c **** uint32 CapSense_1_DpProcessIsxSensorRawCountsExt(
 879:Generated_Source\PSoC4/CapSense_1_Processing.c ****                 CapSense_1_FLASH_WD_STRUCT const *ptrFlashWdgt,
 880:Generated_Source\PSoC4/CapSense_1_Processing.c ****                 CapSense_1_RAM_SNS_STRUCT *ptrSns,
 881:Generated_Source\PSoC4/CapSense_1_Processing.c ****                 CapSense_1_PTR_FILTER_VARIANT fltrHistV,
 882:Generated_Source\PSoC4/CapSense_1_Processing.c ****                 uint32 mode)
 883:Generated_Source\PSoC4/CapSense_1_Processing.c **** {
 884:Generated_Source\PSoC4/CapSense_1_Processing.c ****     uint32  result = CYRET_SUCCESS;
 885:Generated_Source\PSoC4/CapSense_1_Processing.c ****     uint32  widgetType;
 886:Generated_Source\PSoC4/CapSense_1_Processing.c ****     CapSense_1_RAM_WD_BASE_STRUCT *ptrRamWdgt;
 887:Generated_Source\PSoC4/CapSense_1_Processing.c **** 
 888:Generated_Source\PSoC4/CapSense_1_Processing.c ****     widgetType = ptrFlashWdgt->wdgtType;
 889:Generated_Source\PSoC4/CapSense_1_Processing.c ****     ptrRamWdgt = ptrFlashWdgt->ptr2WdgtRam;
 890:Generated_Source\PSoC4/CapSense_1_Processing.c **** 
 891:Generated_Source\PSoC4/CapSense_1_Processing.c ****     #if (CapSense_1_ENABLE == CapSense_1_RC_FILTER_EN)
 892:Generated_Source\PSoC4/CapSense_1_Processing.c ****         if (0u != (mode & CapSense_1_PROCESS_FILTER))
 893:Generated_Source\PSoC4/CapSense_1_Processing.c ****         {
 894:Generated_Source\PSoC4/CapSense_1_Processing.c ****             CapSense_1_FtRunEnabledFiltersInternal(fltrHistV, ptrSns, widgetType);
 895:Generated_Source\PSoC4/CapSense_1_Processing.c ****         }
 896:Generated_Source\PSoC4/CapSense_1_Processing.c ****     #else
 897:Generated_Source\PSoC4/CapSense_1_Processing.c ****         (void)fltrHistV; /* This parameter is unused in such configurations */
 898:Generated_Source\PSoC4/CapSense_1_Processing.c ****     #endif /* #if (CapSense_1_ENABLE == CapSense_1_RC_FILTER_EN) */
 899:Generated_Source\PSoC4/CapSense_1_Processing.c **** 
 900:Generated_Source\PSoC4/CapSense_1_Processing.c ****     if (0u != (mode & CapSense_1_PROCESS_BASELINE))
 901:Generated_Source\PSoC4/CapSense_1_Processing.c ****     {
 902:Generated_Source\PSoC4/CapSense_1_Processing.c ****         result = CapSense_1_FtUpdateBaseline(ptrRamWdgt, ptrSns, widgetType);
 903:Generated_Source\PSoC4/CapSense_1_Processing.c ****     }
 904:Generated_Source\PSoC4/CapSense_1_Processing.c **** 
 905:Generated_Source\PSoC4/CapSense_1_Processing.c ****     if (0u != (mode & CapSense_1_PROCESS_DIFFCOUNTS))
 906:Generated_Source\PSoC4/CapSense_1_Processing.c ****     {
 907:Generated_Source\PSoC4/CapSense_1_Processing.c ****         CapSense_1_DpUpdateDifferences(ptrRamWdgt, ptrSns);
 908:Generated_Source\PSoC4/CapSense_1_Processing.c ****     }
 909:Generated_Source\PSoC4/CapSense_1_Processing.c ****     return result;
 910:Generated_Source\PSoC4/CapSense_1_Processing.c **** }
 911:Generated_Source\PSoC4/CapSense_1_Processing.c **** 
 912:Generated_Source\PSoC4/CapSense_1_Processing.c **** 
 913:Generated_Source\PSoC4/CapSense_1_Processing.c **** /*******************************************************************************
 914:Generated_Source\PSoC4/CapSense_1_Processing.c **** * Function Name: CapSense_1_DpProcessIsxWidgetStatus
 915:Generated_Source\PSoC4/CapSense_1_Processing.c **** ****************************************************************************//**
 916:Generated_Source\PSoC4/CapSense_1_Processing.c **** *
 917:Generated_Source\PSoC4/CapSense_1_Processing.c **** * \brief
 918:Generated_Source\PSoC4/CapSense_1_Processing.c **** *   Updates the status of the ISX widget in the Data Structure.
ARM GAS  C:\Users\exp32\AppData\Local\Temp\ccki8209.s 			page 21


 919:Generated_Source\PSoC4/CapSense_1_Processing.c **** *
 920:Generated_Source\PSoC4/CapSense_1_Processing.c **** * \details
 921:Generated_Source\PSoC4/CapSense_1_Processing.c **** *  This API determines the type of widget and runs the appropriate function
 922:Generated_Source\PSoC4/CapSense_1_Processing.c **** *  that implements the status update algorithm for this type of widget.
 923:Generated_Source\PSoC4/CapSense_1_Processing.c **** *
 924:Generated_Source\PSoC4/CapSense_1_Processing.c **** *  When the widget-specific processing completes this API updates the snsStatus
 925:Generated_Source\PSoC4/CapSense_1_Processing.c **** *  and wdgtStatus registers in the data structure. The wdgtStatus register
 926:Generated_Source\PSoC4/CapSense_1_Processing.c **** *  is a bitmask were each bit corresponds to the specific widget identified by
 927:Generated_Source\PSoC4/CapSense_1_Processing.c **** *  the widget index. When the bit is set the widget is active (touched);
 928:Generated_Source\PSoC4/CapSense_1_Processing.c **** *
 929:Generated_Source\PSoC4/CapSense_1_Processing.c **** *  Depending on the type of widget the snsStatus register may contain either
 930:Generated_Source\PSoC4/CapSense_1_Processing.c **** *  status of each widget node (active/non-active) or in case of the ISX Touchpad
 931:Generated_Source\PSoC4/CapSense_1_Processing.c **** *  is contains the number of touches. In both cases 0 means that widget is not
 932:Generated_Source\PSoC4/CapSense_1_Processing.c **** *  active.
 933:Generated_Source\PSoC4/CapSense_1_Processing.c **** *
 934:Generated_Source\PSoC4/CapSense_1_Processing.c **** * \param wdgtId       The widget index number.
 935:Generated_Source\PSoC4/CapSense_1_Processing.c **** * \param ptrFlashWdgt The pointer to the Flash Widget Object.
 936:Generated_Source\PSoC4/CapSense_1_Processing.c **** *
 937:Generated_Source\PSoC4/CapSense_1_Processing.c **** *******************************************************************************/
 938:Generated_Source\PSoC4/CapSense_1_Processing.c **** void CapSense_1_DpProcessIsxWidgetStatus(uint32 wdgtId, CapSense_1_FLASH_WD_STRUCT const *ptrFlashW
 939:Generated_Source\PSoC4/CapSense_1_Processing.c **** {
 940:Generated_Source\PSoC4/CapSense_1_Processing.c ****     uint32 sensorStatus;
 941:Generated_Source\PSoC4/CapSense_1_Processing.c ****     uint32 wdStatusIndex;
 942:Generated_Source\PSoC4/CapSense_1_Processing.c ****     uint32 wdStatusMask;
 943:Generated_Source\PSoC4/CapSense_1_Processing.c ****     CapSense_1_WD_TYPE_ENUM widgetType;
 944:Generated_Source\PSoC4/CapSense_1_Processing.c **** 
 945:Generated_Source\PSoC4/CapSense_1_Processing.c ****     widgetType = (CapSense_1_WD_TYPE_ENUM)ptrFlashWdgt->wdgtType;
 946:Generated_Source\PSoC4/CapSense_1_Processing.c ****     sensorStatus = CapSense_1_dsRam.snsStatus[wdgtId];
 947:Generated_Source\PSoC4/CapSense_1_Processing.c **** 
 948:Generated_Source\PSoC4/CapSense_1_Processing.c ****     switch (widgetType)
 949:Generated_Source\PSoC4/CapSense_1_Processing.c ****     {
 950:Generated_Source\PSoC4/CapSense_1_Processing.c ****     #if (0u != CapSense_1_PROXIMITY_WIDGET_EN)
 951:Generated_Source\PSoC4/CapSense_1_Processing.c ****         case CapSense_1_WD_PROXIMITY_E:
 952:Generated_Source\PSoC4/CapSense_1_Processing.c ****             sensorStatus = CapSense_1_DpProcessProximity(sensorStatus, ptrFlashWdgt);
 953:Generated_Source\PSoC4/CapSense_1_Processing.c ****             break;
 954:Generated_Source\PSoC4/CapSense_1_Processing.c ****     #endif /* #if (0u != CapSense_1_Proximity_WIDGET_EN) */
 955:Generated_Source\PSoC4/CapSense_1_Processing.c ****     #if (0u != CapSense_1_ENCODERDIAL_WIDGET_EN)
 956:Generated_Source\PSoC4/CapSense_1_Processing.c ****         case CapSense_1_WD_ENCODERDIAL_E:
 957:Generated_Source\PSoC4/CapSense_1_Processing.c ****             sensorStatus = CapSense_1_DpProcessEncoderDial(sensorStatus, ptrFlashWdgt);
 958:Generated_Source\PSoC4/CapSense_1_Processing.c ****             break;
 959:Generated_Source\PSoC4/CapSense_1_Processing.c ****     #endif /* #if (0u != CapSense_1_Proximity_WIDGET_EN) */
 960:Generated_Source\PSoC4/CapSense_1_Processing.c ****     #if (0u != CapSense_1_BUTTON_WIDGET_EN)
 961:Generated_Source\PSoC4/CapSense_1_Processing.c ****         case CapSense_1_WD_BUTTON_E:
 962:Generated_Source\PSoC4/CapSense_1_Processing.c ****             sensorStatus = CapSense_1_DpProcessButton(sensorStatus, ptrFlashWdgt);
 963:Generated_Source\PSoC4/CapSense_1_Processing.c ****             break;
 964:Generated_Source\PSoC4/CapSense_1_Processing.c ****     #endif /* #if (0u != CapSense_1_Proximity_WIDGET_EN) */
 965:Generated_Source\PSoC4/CapSense_1_Processing.c **** 
 966:Generated_Source\PSoC4/CapSense_1_Processing.c ****     default:
 967:Generated_Source\PSoC4/CapSense_1_Processing.c ****         CYASSERT(0u);
 968:Generated_Source\PSoC4/CapSense_1_Processing.c ****         break;
 969:Generated_Source\PSoC4/CapSense_1_Processing.c ****     }
 970:Generated_Source\PSoC4/CapSense_1_Processing.c **** 
 971:Generated_Source\PSoC4/CapSense_1_Processing.c ****     /* Update sensor status in the data structure */
 972:Generated_Source\PSoC4/CapSense_1_Processing.c ****     CapSense_1_dsRam.snsStatus[wdgtId] = (CapSense_1_SNS_STS_TYPE)sensorStatus;
 973:Generated_Source\PSoC4/CapSense_1_Processing.c **** 
 974:Generated_Source\PSoC4/CapSense_1_Processing.c ****     /* The next two lines calculate index and bitmask of the widget status bit in the wdgtStatus ar
 975:Generated_Source\PSoC4/CapSense_1_Processing.c ****     wdStatusIndex = CapSense_1_GET_WDGT_STATUS_INDEX(wdgtId);
ARM GAS  C:\Users\exp32\AppData\Local\Temp\ccki8209.s 			page 22


 976:Generated_Source\PSoC4/CapSense_1_Processing.c ****     wdStatusMask = CapSense_1_GET_WDGT_STATUS_MASK(wdgtId);
 977:Generated_Source\PSoC4/CapSense_1_Processing.c **** 
 978:Generated_Source\PSoC4/CapSense_1_Processing.c ****     /* Check if there are active sensors and update widget status accordingly */
 979:Generated_Source\PSoC4/CapSense_1_Processing.c ****     if (0u == sensorStatus)
 980:Generated_Source\PSoC4/CapSense_1_Processing.c ****     {
 981:Generated_Source\PSoC4/CapSense_1_Processing.c ****         CapSense_1_dsRam.wdgtStatus[wdStatusIndex] &= ~wdStatusMask;
 982:Generated_Source\PSoC4/CapSense_1_Processing.c ****     }
 983:Generated_Source\PSoC4/CapSense_1_Processing.c ****     else
 984:Generated_Source\PSoC4/CapSense_1_Processing.c ****     {
 985:Generated_Source\PSoC4/CapSense_1_Processing.c ****         CapSense_1_dsRam.wdgtStatus[wdStatusIndex] |= wdStatusMask;
 986:Generated_Source\PSoC4/CapSense_1_Processing.c ****     }
 987:Generated_Source\PSoC4/CapSense_1_Processing.c **** }
 988:Generated_Source\PSoC4/CapSense_1_Processing.c **** #endif /* #if CapSense_1_TOTAL_ISX_WIDGETS */
 989:Generated_Source\PSoC4/CapSense_1_Processing.c **** 
 990:Generated_Source\PSoC4/CapSense_1_Processing.c **** #if (0u != CapSense_1_TOTAL_CSD_WIDGETS)
 991:Generated_Source\PSoC4/CapSense_1_Processing.c **** /*******************************************************************************
 992:Generated_Source\PSoC4/CapSense_1_Processing.c **** * Function Name: CapSense_1_DpProcessCsdWidgetRawCounts
 993:Generated_Source\PSoC4/CapSense_1_Processing.c **** ****************************************************************************//**
 994:Generated_Source\PSoC4/CapSense_1_Processing.c **** *
 995:Generated_Source\PSoC4/CapSense_1_Processing.c **** * \brief
 996:Generated_Source\PSoC4/CapSense_1_Processing.c **** *   Performs default processing for the CSD widget raw counts.
 997:Generated_Source\PSoC4/CapSense_1_Processing.c **** *
 998:Generated_Source\PSoC4/CapSense_1_Processing.c **** * \details
 999:Generated_Source\PSoC4/CapSense_1_Processing.c **** *   Performs default processing for the CSD widget raw counts:
1000:Generated_Source\PSoC4/CapSense_1_Processing.c **** *    - Run Filters
1001:Generated_Source\PSoC4/CapSense_1_Processing.c **** *    - Update Thresholds (FW Auto-tuning)
1002:Generated_Source\PSoC4/CapSense_1_Processing.c **** *    - Update Baselines
1003:Generated_Source\PSoC4/CapSense_1_Processing.c **** *    - Update Differences.
1004:Generated_Source\PSoC4/CapSense_1_Processing.c **** *   The process is applied to all widget's sensors.
1005:Generated_Source\PSoC4/CapSense_1_Processing.c **** *
1006:Generated_Source\PSoC4/CapSense_1_Processing.c **** * \param ptrFlashWdgt The pointer to the Flash Widget Object.
1007:Generated_Source\PSoC4/CapSense_1_Processing.c **** *
1008:Generated_Source\PSoC4/CapSense_1_Processing.c **** * \return
1009:Generated_Source\PSoC4/CapSense_1_Processing.c **** *  Returns the status of the specified widget processing operation:
1010:Generated_Source\PSoC4/CapSense_1_Processing.c **** *  - CYRET_SUCCESS if operation was successfully completed;
1011:Generated_Source\PSoC4/CapSense_1_Processing.c **** *  - CapSense_1_PROCESS_BASELINE_FAILED if baseline processing of any
1012:Generated_Source\PSoC4/CapSense_1_Processing.c **** *    sensor of the specified widget failed. The result is concatenated with the index
1013:Generated_Source\PSoC4/CapSense_1_Processing.c **** *    of failed sensor.
1014:Generated_Source\PSoC4/CapSense_1_Processing.c **** *
1015:Generated_Source\PSoC4/CapSense_1_Processing.c **** *******************************************************************************/
1016:Generated_Source\PSoC4/CapSense_1_Processing.c **** uint32 CapSense_1_DpProcessCsdWidgetRawCounts(CapSense_1_FLASH_WD_STRUCT const *ptrFlashWdgt)
1017:Generated_Source\PSoC4/CapSense_1_Processing.c **** {
1018:Generated_Source\PSoC4/CapSense_1_Processing.c ****     uint32  result = CYRET_SUCCESS;
1019:Generated_Source\PSoC4/CapSense_1_Processing.c **** 
1020:Generated_Source\PSoC4/CapSense_1_Processing.c ****     #if (CapSense_1_ENABLE == CapSense_1_TST_BSLN_DUPLICATION_EN)
1021:Generated_Source\PSoC4/CapSense_1_Processing.c ****         uint32 bslnTstResult = CYRET_SUCCESS;
1022:Generated_Source\PSoC4/CapSense_1_Processing.c ****     #endif /* (CapSense_1_ENABLE == CapSense_1_TST_BSLN_DUPLICATION_EN) */
1023:Generated_Source\PSoC4/CapSense_1_Processing.c **** 
1024:Generated_Source\PSoC4/CapSense_1_Processing.c ****     uint32  widgetType;
1025:Generated_Source\PSoC4/CapSense_1_Processing.c ****     uint32  snsId;
1026:Generated_Source\PSoC4/CapSense_1_Processing.c ****     CapSense_1_RAM_SNS_STRUCT *ptrSnsTmp;
1027:Generated_Source\PSoC4/CapSense_1_Processing.c ****     CapSense_1_RAM_WD_BASE_STRUCT *ptrRamWdgt;
1028:Generated_Source\PSoC4/CapSense_1_Processing.c **** 
1029:Generated_Source\PSoC4/CapSense_1_Processing.c ****     #if (0u != (CapSense_1_CSD_AUTOTUNE & CapSense_1_CSD_SS_TH_EN))
1030:Generated_Source\PSoC4/CapSense_1_Processing.c ****         /* The noise envelope data is available only when Full CSD Auto-Tuning is enabled */
1031:Generated_Source\PSoC4/CapSense_1_Processing.c ****         SMARTSENSE_CSD_NOISE_ENVELOPE_STRUCT *ptrNoiseEnvelope;
1032:Generated_Source\PSoC4/CapSense_1_Processing.c ****         #if (CapSense_1_ENABLE == CapSense_1_PROXIMITY_WIDGET_EN)
ARM GAS  C:\Users\exp32\AppData\Local\Temp\ccki8209.s 			page 23


1033:Generated_Source\PSoC4/CapSense_1_Processing.c ****             uint32  proximityThreshold;
1034:Generated_Source\PSoC4/CapSense_1_Processing.c ****         #endif /* (0 != CapSense_1_PROXIMITY_WIDGET_EN) */
1035:Generated_Source\PSoC4/CapSense_1_Processing.c ****     #endif /* #if (0u != (CapSense_1_CSD_AUTOTUNE & CapSense_1_CSD_SS_TH_EN)) */
1036:Generated_Source\PSoC4/CapSense_1_Processing.c **** 
1037:Generated_Source\PSoC4/CapSense_1_Processing.c ****     #if (CapSense_1_ENABLE == CapSense_1_RC_FILTER_EN)
1038:Generated_Source\PSoC4/CapSense_1_Processing.c ****         CapSense_1_PTR_FILTER_VARIANT fltrHistV;
1039:Generated_Source\PSoC4/CapSense_1_Processing.c **** 
1040:Generated_Source\PSoC4/CapSense_1_Processing.c ****         /* Determine if widget type is proximity */
1041:Generated_Source\PSoC4/CapSense_1_Processing.c ****         uint32 isProxWdgt = (CapSense_1_GET_WIDGET_TYPE(ptrFlashWdgt) == CapSense_1_WD_PROXIMITY_E)
1042:Generated_Source\PSoC4/CapSense_1_Processing.c **** 
1043:Generated_Source\PSoC4/CapSense_1_Processing.c ****         /* Get pointer to the filter history object */
1044:Generated_Source\PSoC4/CapSense_1_Processing.c ****         fltrHistV.ptr = ptrFlashWdgt->ptr2FltrHistory;
1045:Generated_Source\PSoC4/CapSense_1_Processing.c ****     #endif /* #if (CapSense_1_ENABLE == CapSense_1_RC_FILTER_EN) */
1046:Generated_Source\PSoC4/CapSense_1_Processing.c **** 
1047:Generated_Source\PSoC4/CapSense_1_Processing.c ****     ptrSnsTmp = ptrFlashWdgt->ptr2SnsRam;
1048:Generated_Source\PSoC4/CapSense_1_Processing.c ****     ptrRamWdgt = (CapSense_1_RAM_WD_BASE_STRUCT *)ptrFlashWdgt->ptr2WdgtRam;
1049:Generated_Source\PSoC4/CapSense_1_Processing.c ****     widgetType = ptrFlashWdgt->wdgtType;
1050:Generated_Source\PSoC4/CapSense_1_Processing.c **** 
1051:Generated_Source\PSoC4/CapSense_1_Processing.c ****     #if (0u != (CapSense_1_CSD_AUTOTUNE & CapSense_1_CSD_SS_TH_EN))
1052:Generated_Source\PSoC4/CapSense_1_Processing.c ****         ptrNoiseEnvelope = ptrFlashWdgt->ptr2NoiseEnvlp;
1053:Generated_Source\PSoC4/CapSense_1_Processing.c ****     #endif /* #if (0u != (CapSense_1_CSD_AUTOTUNE & CapSense_1_CSD_SS_TH_EN)) */
1054:Generated_Source\PSoC4/CapSense_1_Processing.c **** 
1055:Generated_Source\PSoC4/CapSense_1_Processing.c ****     /* Iterate through all widget's sensors */
1056:Generated_Source\PSoC4/CapSense_1_Processing.c ****     for(snsId = 0u; snsId < ptrFlashWdgt->totalNumSns; snsId++)
1057:Generated_Source\PSoC4/CapSense_1_Processing.c ****     {
1058:Generated_Source\PSoC4/CapSense_1_Processing.c ****         /* Run all enabled filter on specified widget's sensor */
1059:Generated_Source\PSoC4/CapSense_1_Processing.c ****         #if (CapSense_1_ENABLE == CapSense_1_RC_FILTER_EN)
1060:Generated_Source\PSoC4/CapSense_1_Processing.c ****             CapSense_1_FtRunEnabledFiltersInternal(fltrHistV, ptrSnsTmp, widgetType);
1061:Generated_Source\PSoC4/CapSense_1_Processing.c ****             #if (CapSense_1_ALP_FILTER_EN)
1062:Generated_Source\PSoC4/CapSense_1_Processing.c ****                 CapSense_1_ConfigRunALPInternal(fltrHistV, ptrRamWdgt, ptrSnsTmp, widgetType);
1063:Generated_Source\PSoC4/CapSense_1_Processing.c ****             #endif
1064:Generated_Source\PSoC4/CapSense_1_Processing.c ****         #endif /* #if (CapSense_1_ENABLE == CapSense_1_RC_FILTER_EN) */
1065:Generated_Source\PSoC4/CapSense_1_Processing.c **** 
1066:Generated_Source\PSoC4/CapSense_1_Processing.c ****         /* Run auto-tuning activities */
1067:Generated_Source\PSoC4/CapSense_1_Processing.c ****         #if (0u != (CapSense_1_CSD_AUTOTUNE & CapSense_1_CSD_SS_TH_EN))
1068:Generated_Source\PSoC4/CapSense_1_Processing.c ****             SmartSense_RunNoiseEnvelope(ptrSnsTmp->raw[0u], ptrRamWdgt->sigPFC, ptrNoiseEnvelope);
1069:Generated_Source\PSoC4/CapSense_1_Processing.c ****             CapSense_1_DpUpdateThresholds(ptrRamWdgt, ptrNoiseEnvelope, snsId);
1070:Generated_Source\PSoC4/CapSense_1_Processing.c **** 
1071:Generated_Source\PSoC4/CapSense_1_Processing.c ****             /* Calculate Proximity Touch Threshold in SmartSense mode based on Finger Threshold and
1072:Generated_Source\PSoC4/CapSense_1_Processing.c ****             #if (CapSense_1_ENABLE == CapSense_1_PROXIMITY_WIDGET_EN)
1073:Generated_Source\PSoC4/CapSense_1_Processing.c ****                 if (CapSense_1_WD_PROXIMITY_E == CapSense_1_GET_WIDGET_TYPE(ptrFlashWdgt))
1074:Generated_Source\PSoC4/CapSense_1_Processing.c ****                 {
1075:Generated_Source\PSoC4/CapSense_1_Processing.c ****                     proximityThreshold = ((uint32)ptrRamWdgt->fingerTh * CapSense_1_PROX_TOUCH_COEF
1076:Generated_Source\PSoC4/CapSense_1_Processing.c ****                     if ((((1Lu) << CapSense_1_THRESHOLD_SIZE) - 1u) < proximityThreshold)
1077:Generated_Source\PSoC4/CapSense_1_Processing.c ****                     {
1078:Generated_Source\PSoC4/CapSense_1_Processing.c ****                         proximityThreshold = ((1Lu) << CapSense_1_THRESHOLD_SIZE) - 1u;
1079:Generated_Source\PSoC4/CapSense_1_Processing.c ****                     }
1080:Generated_Source\PSoC4/CapSense_1_Processing.c ****                     ((CapSense_1_RAM_WD_PROXIMITY_STRUCT *)ptrFlashWdgt->ptr2WdgtRam)->proxTouchTh 
1081:Generated_Source\PSoC4/CapSense_1_Processing.c ****                         (CapSense_1_THRESHOLD_TYPE)proximityThreshold;
1082:Generated_Source\PSoC4/CapSense_1_Processing.c ****                 }
1083:Generated_Source\PSoC4/CapSense_1_Processing.c ****             #endif /* (0 != CapSense_1_PROXIMITY_WIDGET_EN) */
1084:Generated_Source\PSoC4/CapSense_1_Processing.c **** 
1085:Generated_Source\PSoC4/CapSense_1_Processing.c ****             /* Move to next noise-envelope object */
1086:Generated_Source\PSoC4/CapSense_1_Processing.c ****             ptrNoiseEnvelope++;
1087:Generated_Source\PSoC4/CapSense_1_Processing.c ****         #endif /* (0u != (CapSense_1_CSD_AUTOTUNE & CapSense_1_CSD_SS_TH_EN)) */
1088:Generated_Source\PSoC4/CapSense_1_Processing.c **** 
1089:Generated_Source\PSoC4/CapSense_1_Processing.c ****         #if (CapSense_1_ENABLE == CapSense_1_TST_BSLN_DUPLICATION_EN)
ARM GAS  C:\Users\exp32\AppData\Local\Temp\ccki8209.s 			page 24


1090:Generated_Source\PSoC4/CapSense_1_Processing.c ****             bslnTstResult = CapSense_1_FtUpdateBaseline(ptrRamWdgt, ptrSnsTmp, widgetType);
1091:Generated_Source\PSoC4/CapSense_1_Processing.c ****             if ((CYRET_SUCCESS != bslnTstResult) && (CYRET_SUCCESS == result))
1092:Generated_Source\PSoC4/CapSense_1_Processing.c ****             {
1093:Generated_Source\PSoC4/CapSense_1_Processing.c ****                 result = snsId | CapSense_1_PROCESS_BASELINE_FAILED;
1094:Generated_Source\PSoC4/CapSense_1_Processing.c ****             }
1095:Generated_Source\PSoC4/CapSense_1_Processing.c ****         #else /* (CapSense_1_ENABLE == CapSense_1_TST_BSLN_DUPLICATION_EN) */
1096:Generated_Source\PSoC4/CapSense_1_Processing.c ****             result = CapSense_1_FtUpdateBaseline(ptrRamWdgt, ptrSnsTmp, widgetType);
1097:Generated_Source\PSoC4/CapSense_1_Processing.c ****         #endif /* (CapSense_1_ENABLE == CapSense_1_TST_BSLN_DUPLICATION_EN) */
1098:Generated_Source\PSoC4/CapSense_1_Processing.c **** 
1099:Generated_Source\PSoC4/CapSense_1_Processing.c ****         CapSense_1_DpUpdateDifferences(ptrRamWdgt, ptrSnsTmp);
1100:Generated_Source\PSoC4/CapSense_1_Processing.c **** 
1101:Generated_Source\PSoC4/CapSense_1_Processing.c ****         /* Move to next sensor object */
1102:Generated_Source\PSoC4/CapSense_1_Processing.c ****         ptrSnsTmp++;
1103:Generated_Source\PSoC4/CapSense_1_Processing.c **** 
1104:Generated_Source\PSoC4/CapSense_1_Processing.c ****         #if (CapSense_1_ENABLE == CapSense_1_RC_FILTER_EN)
1105:Generated_Source\PSoC4/CapSense_1_Processing.c ****             /* Move to the next filter history object */
1106:Generated_Source\PSoC4/CapSense_1_Processing.c ****             CapSense_1_INC_FLTR_OBJ_VARIANT(isProxWdgt, fltrHistV);
1107:Generated_Source\PSoC4/CapSense_1_Processing.c ****         #endif /* #if (CapSense_1_ENABLE == CapSense_1_RC_FILTER_EN) */
1108:Generated_Source\PSoC4/CapSense_1_Processing.c ****     }
1109:Generated_Source\PSoC4/CapSense_1_Processing.c ****     return result;
1110:Generated_Source\PSoC4/CapSense_1_Processing.c **** }
1111:Generated_Source\PSoC4/CapSense_1_Processing.c **** 
1112:Generated_Source\PSoC4/CapSense_1_Processing.c **** 
1113:Generated_Source\PSoC4/CapSense_1_Processing.c **** /*******************************************************************************
1114:Generated_Source\PSoC4/CapSense_1_Processing.c **** * Function Name: CapSense_1_DpProcessCsdSensorRawCountsExt
1115:Generated_Source\PSoC4/CapSense_1_Processing.c **** ****************************************************************************//**
1116:Generated_Source\PSoC4/CapSense_1_Processing.c **** *
1117:Generated_Source\PSoC4/CapSense_1_Processing.c **** * \brief
1118:Generated_Source\PSoC4/CapSense_1_Processing.c **** *   Performs customized processing of the CSD sensor raw counts.
1119:Generated_Source\PSoC4/CapSense_1_Processing.c **** *
1120:Generated_Source\PSoC4/CapSense_1_Processing.c **** * \details
1121:Generated_Source\PSoC4/CapSense_1_Processing.c **** *   Performs customized processing of the CSD sensor raw counts.
1122:Generated_Source\PSoC4/CapSense_1_Processing.c **** *
1123:Generated_Source\PSoC4/CapSense_1_Processing.c **** *   Note that this API updates data associated only with the sensor. It cannot be used to update
1124:Generated_Source\PSoC4/CapSense_1_Processing.c **** *   widget status.
1125:Generated_Source\PSoC4/CapSense_1_Processing.c **** *
1126:Generated_Source\PSoC4/CapSense_1_Processing.c **** * \param ptrFlashWdgt The pointer to the Flash widget structure.
1127:Generated_Source\PSoC4/CapSense_1_Processing.c **** * \param curSnsPtr    The pointer to the sensor object in RAM.
1128:Generated_Source\PSoC4/CapSense_1_Processing.c **** * \param fltrHistV    The pointer to the Filter History Object in RAM.
1129:Generated_Source\PSoC4/CapSense_1_Processing.c **** * \param mode         The bit-mask with the data processing tasks to be executed.
1130:Generated_Source\PSoC4/CapSense_1_Processing.c **** *   The mode parameters can take the following values:
1131:Generated_Source\PSoC4/CapSense_1_Processing.c **** *    - CapSense_1_PROCESS_FILTER     (0x01) Run Firmware Filter
1132:Generated_Source\PSoC4/CapSense_1_Processing.c **** *    - CapSense_1_PROCESS_BASELINE   (0x02) Update Baselines
1133:Generated_Source\PSoC4/CapSense_1_Processing.c **** *    - CapSense_1_PROCESS_DIFFCOUNTS (0x04) Update Difference Counts
1134:Generated_Source\PSoC4/CapSense_1_Processing.c **** *    - CapSense_1_PROCESS_CALC_NOISE (0x08) Calculate Noise (only if FW Tuning is enabled)
1135:Generated_Source\PSoC4/CapSense_1_Processing.c **** *    - CapSense_1_PROCESS_THRESHOLDS (0x10) Update Thresholds (only if FW Tuning is enabled)
1136:Generated_Source\PSoC4/CapSense_1_Processing.c **** *    - CapSense_1_PROCESS_ALL               Execute all tasks
1137:Generated_Source\PSoC4/CapSense_1_Processing.c **** *
1138:Generated_Source\PSoC4/CapSense_1_Processing.c **** * \return
1139:Generated_Source\PSoC4/CapSense_1_Processing.c **** *  Returns the status of the specified sensor processing operation:
1140:Generated_Source\PSoC4/CapSense_1_Processing.c **** *  - CYRET_SUCCESS if operation was successfully completed.
1141:Generated_Source\PSoC4/CapSense_1_Processing.c **** *  - CapSense_1_PROCESS_BASELINE_FAILED if baseline processing of any
1142:Generated_Source\PSoC4/CapSense_1_Processing.c **** *    sensor of the specified widget failed. The result is concatenated with the index
1143:Generated_Source\PSoC4/CapSense_1_Processing.c **** *    of failed sensor.
1144:Generated_Source\PSoC4/CapSense_1_Processing.c **** *
1145:Generated_Source\PSoC4/CapSense_1_Processing.c **** *******************************************************************************/
1146:Generated_Source\PSoC4/CapSense_1_Processing.c **** uint32 CapSense_1_DpProcessCsdSensorRawCountsExt(
ARM GAS  C:\Users\exp32\AppData\Local\Temp\ccki8209.s 			page 25


1147:Generated_Source\PSoC4/CapSense_1_Processing.c ****                 CapSense_1_FLASH_WD_STRUCT const *ptrFlashWdgt,
1148:Generated_Source\PSoC4/CapSense_1_Processing.c ****                 CapSense_1_RAM_SNS_STRUCT *curSnsPtr,
1149:Generated_Source\PSoC4/CapSense_1_Processing.c ****                 CapSense_1_PTR_FILTER_VARIANT fltrHistV,
1150:Generated_Source\PSoC4/CapSense_1_Processing.c ****                  uint32 mode)
1151:Generated_Source\PSoC4/CapSense_1_Processing.c **** {
1152:Generated_Source\PSoC4/CapSense_1_Processing.c ****     uint32 result = CYRET_SUCCESS;
1153:Generated_Source\PSoC4/CapSense_1_Processing.c ****     uint32  widgetType;
1154:Generated_Source\PSoC4/CapSense_1_Processing.c ****     CapSense_1_RAM_WD_BASE_STRUCT *ptrRamWdgt;
1155:Generated_Source\PSoC4/CapSense_1_Processing.c **** 
1156:Generated_Source\PSoC4/CapSense_1_Processing.c ****     #if (0u != (CapSense_1_CSD_AUTOTUNE & CapSense_1_CSD_SS_TH_EN))
1157:Generated_Source\PSoC4/CapSense_1_Processing.c ****         SMARTSENSE_CSD_NOISE_ENVELOPE_STRUCT *ptrNoiseEnvelope;
1158:Generated_Source\PSoC4/CapSense_1_Processing.c ****         #if (CapSense_1_ENABLE == CapSense_1_PROXIMITY_WIDGET_EN)
1159:Generated_Source\PSoC4/CapSense_1_Processing.c ****             uint32  proximityThreshold;
1160:Generated_Source\PSoC4/CapSense_1_Processing.c ****         #endif /* (0 != CapSense_1_PROXIMITY_WIDGET_EN) */
1161:Generated_Source\PSoC4/CapSense_1_Processing.c **** 
1162:Generated_Source\PSoC4/CapSense_1_Processing.c ****         /* Need to specify pointer to corresponding sensor's noise-envelope object.*/
1163:Generated_Source\PSoC4/CapSense_1_Processing.c ****         ptrNoiseEnvelope = ptrFlashWdgt->ptr2NoiseEnvlp;
1164:Generated_Source\PSoC4/CapSense_1_Processing.c ****     #endif /* (0u != (CapSense_1_CSD_AUTOTUNE & CapSense_1_CSD_SS_TH_EN)) */
1165:Generated_Source\PSoC4/CapSense_1_Processing.c **** 
1166:Generated_Source\PSoC4/CapSense_1_Processing.c ****     widgetType = ptrFlashWdgt->wdgtType;
1167:Generated_Source\PSoC4/CapSense_1_Processing.c ****     ptrRamWdgt = (CapSense_1_RAM_WD_BASE_STRUCT *)ptrFlashWdgt->ptr2WdgtRam;
1168:Generated_Source\PSoC4/CapSense_1_Processing.c **** 
1169:Generated_Source\PSoC4/CapSense_1_Processing.c ****     #if (CapSense_1_ENABLE == CapSense_1_RC_FILTER_EN)
1170:Generated_Source\PSoC4/CapSense_1_Processing.c ****         if (0u != (mode & CapSense_1_PROCESS_FILTER))
1171:Generated_Source\PSoC4/CapSense_1_Processing.c ****         {
1172:Generated_Source\PSoC4/CapSense_1_Processing.c ****             CapSense_1_FtRunEnabledFiltersInternal(fltrHistV, curSnsPtr, widgetType);
1173:Generated_Source\PSoC4/CapSense_1_Processing.c ****             #if (CapSense_1_ALP_FILTER_EN)
1174:Generated_Source\PSoC4/CapSense_1_Processing.c ****                 CapSense_1_ConfigRunALPInternal(fltrHistV, ptrRamWdgt, curSnsPtr, widgetType);
1175:Generated_Source\PSoC4/CapSense_1_Processing.c ****             #endif
1176:Generated_Source\PSoC4/CapSense_1_Processing.c ****         }
1177:Generated_Source\PSoC4/CapSense_1_Processing.c ****     #else
1178:Generated_Source\PSoC4/CapSense_1_Processing.c ****         (void)fltrHistV; /* This parameter is unused in such configurations */
1179:Generated_Source\PSoC4/CapSense_1_Processing.c ****     #endif /* #if (CapSense_1_ENABLE == CapSense_1_RC_FILTER_EN) */
1180:Generated_Source\PSoC4/CapSense_1_Processing.c **** 
1181:Generated_Source\PSoC4/CapSense_1_Processing.c ****     #if (0u != (CapSense_1_CSD_AUTOTUNE & CapSense_1_CSD_SS_TH_EN))
1182:Generated_Source\PSoC4/CapSense_1_Processing.c ****         if (0u != (mode & CapSense_1_PROCESS_CALC_NOISE))
1183:Generated_Source\PSoC4/CapSense_1_Processing.c ****         {
1184:Generated_Source\PSoC4/CapSense_1_Processing.c ****             SmartSense_RunNoiseEnvelope(curSnsPtr->raw[0u], ptrRamWdgt->sigPFC, ptrNoiseEnvelope);
1185:Generated_Source\PSoC4/CapSense_1_Processing.c ****         }
1186:Generated_Source\PSoC4/CapSense_1_Processing.c **** 
1187:Generated_Source\PSoC4/CapSense_1_Processing.c ****         if (0u != (mode & CapSense_1_PROCESS_THRESHOLDS))
1188:Generated_Source\PSoC4/CapSense_1_Processing.c ****         {
1189:Generated_Source\PSoC4/CapSense_1_Processing.c ****             CapSense_1_DpUpdateThresholds(ptrRamWdgt, ptrNoiseEnvelope, 0u);
1190:Generated_Source\PSoC4/CapSense_1_Processing.c **** 
1191:Generated_Source\PSoC4/CapSense_1_Processing.c ****             /* Calculate Proximity Touch Threshold in SmartSense mode based on Finger Threshold and
1192:Generated_Source\PSoC4/CapSense_1_Processing.c ****             #if (CapSense_1_ENABLE == CapSense_1_PROXIMITY_WIDGET_EN)
1193:Generated_Source\PSoC4/CapSense_1_Processing.c ****                 if (CapSense_1_WD_PROXIMITY_E == CapSense_1_GET_WIDGET_TYPE(ptrFlashWdgt))
1194:Generated_Source\PSoC4/CapSense_1_Processing.c ****                 {
1195:Generated_Source\PSoC4/CapSense_1_Processing.c ****                     proximityThreshold = ((uint32)ptrRamWdgt->fingerTh * CapSense_1_PROX_TOUCH_COEF
1196:Generated_Source\PSoC4/CapSense_1_Processing.c ****                     if ((((1Lu) << CapSense_1_THRESHOLD_SIZE) - 1u) < proximityThreshold)
1197:Generated_Source\PSoC4/CapSense_1_Processing.c ****                     {
1198:Generated_Source\PSoC4/CapSense_1_Processing.c ****                         proximityThreshold = ((1Lu) << CapSense_1_THRESHOLD_SIZE) - 1u;
1199:Generated_Source\PSoC4/CapSense_1_Processing.c ****                     }
1200:Generated_Source\PSoC4/CapSense_1_Processing.c ****                     ((CapSense_1_RAM_WD_PROXIMITY_STRUCT *)ptrFlashWdgt->ptr2WdgtRam)->proxTouchTh 
1201:Generated_Source\PSoC4/CapSense_1_Processing.c ****                         (CapSense_1_THRESHOLD_TYPE)proximityThreshold;
1202:Generated_Source\PSoC4/CapSense_1_Processing.c ****                 }
1203:Generated_Source\PSoC4/CapSense_1_Processing.c ****             #endif /* (0 != CapSense_1_PROXIMITY_WIDGET_EN) */
ARM GAS  C:\Users\exp32\AppData\Local\Temp\ccki8209.s 			page 26


1204:Generated_Source\PSoC4/CapSense_1_Processing.c ****         }
1205:Generated_Source\PSoC4/CapSense_1_Processing.c ****     #endif /* #if (0u != (CapSense_1_CSD_AUTOTUNE & CapSense_1_CSD_SS_TH_EN)) */
1206:Generated_Source\PSoC4/CapSense_1_Processing.c **** 
1207:Generated_Source\PSoC4/CapSense_1_Processing.c ****     if (0u != (mode & CapSense_1_PROCESS_BASELINE))
1208:Generated_Source\PSoC4/CapSense_1_Processing.c ****     {
1209:Generated_Source\PSoC4/CapSense_1_Processing.c ****         result = CapSense_1_FtUpdateBaseline(ptrRamWdgt, curSnsPtr, widgetType);
1210:Generated_Source\PSoC4/CapSense_1_Processing.c ****     }
1211:Generated_Source\PSoC4/CapSense_1_Processing.c **** 
1212:Generated_Source\PSoC4/CapSense_1_Processing.c ****     if (0u != (mode & CapSense_1_PROCESS_DIFFCOUNTS))
1213:Generated_Source\PSoC4/CapSense_1_Processing.c ****     {
1214:Generated_Source\PSoC4/CapSense_1_Processing.c ****         CapSense_1_DpUpdateDifferences(ptrRamWdgt, curSnsPtr);
1215:Generated_Source\PSoC4/CapSense_1_Processing.c ****     }
1216:Generated_Source\PSoC4/CapSense_1_Processing.c ****     return result;
1217:Generated_Source\PSoC4/CapSense_1_Processing.c **** }
1218:Generated_Source\PSoC4/CapSense_1_Processing.c **** 
1219:Generated_Source\PSoC4/CapSense_1_Processing.c **** /*******************************************************************************
1220:Generated_Source\PSoC4/CapSense_1_Processing.c **** * Function Name: CapSense_1_DpProcessCsdWidgetStatus
1221:Generated_Source\PSoC4/CapSense_1_Processing.c **** ****************************************************************************//**
1222:Generated_Source\PSoC4/CapSense_1_Processing.c **** *
1223:Generated_Source\PSoC4/CapSense_1_Processing.c **** * \brief
1224:Generated_Source\PSoC4/CapSense_1_Processing.c **** *  Runs the status processing of the CSD widget and updates it in the Data Structure.
1225:Generated_Source\PSoC4/CapSense_1_Processing.c **** *
1226:Generated_Source\PSoC4/CapSense_1_Processing.c **** * \details
1227:Generated_Source\PSoC4/CapSense_1_Processing.c **** *  This API determines the widget type and calls the appropriate low-level processing
1228:Generated_Source\PSoC4/CapSense_1_Processing.c **** *  function. Based on the returned results it updates the widget and sensor
1229:Generated_Source\PSoC4/CapSense_1_Processing.c **** *  status in the data structure. Any widget specific registers like the centroid
1230:Generated_Source\PSoC4/CapSense_1_Processing.c **** *  position are updated directly in the low-level processing function.
1231:Generated_Source\PSoC4/CapSense_1_Processing.c **** *
1232:Generated_Source\PSoC4/CapSense_1_Processing.c **** *  When the widget-specific processing completes this API updates the snsStatus
1233:Generated_Source\PSoC4/CapSense_1_Processing.c **** *  and wdgtStatus registers in the data structure. The wdgtStatus register
1234:Generated_Source\PSoC4/CapSense_1_Processing.c **** *  is a bitmask were each bit corresponds to the specific widget identified by
1235:Generated_Source\PSoC4/CapSense_1_Processing.c **** *  the widget index. When the bit is set the widget is active (touched);
1236:Generated_Source\PSoC4/CapSense_1_Processing.c **** *
1237:Generated_Source\PSoC4/CapSense_1_Processing.c **** *  The snsStatus register for CSD widgets contains status of each widget sensor
1238:Generated_Source\PSoC4/CapSense_1_Processing.c **** *  (active/non-active). Each bit corresponds to one sensor. In case of the
1239:Generated_Source\PSoC4/CapSense_1_Processing.c **** *  Proximity widget two bits are used per sensor: one for proximity status and
1240:Generated_Source\PSoC4/CapSense_1_Processing.c **** *  second for the touch status.
1241:Generated_Source\PSoC4/CapSense_1_Processing.c **** *
1242:Generated_Source\PSoC4/CapSense_1_Processing.c **** * \param widgetId      The widget index number.
1243:Generated_Source\PSoC4/CapSense_1_Processing.c **** * \param ptrFlashWdgt  The pointer to the Flash widget structure.
1244:Generated_Source\PSoC4/CapSense_1_Processing.c **** *
1245:Generated_Source\PSoC4/CapSense_1_Processing.c **** *******************************************************************************/
1246:Generated_Source\PSoC4/CapSense_1_Processing.c **** void CapSense_1_DpProcessCsdWidgetStatus(uint32 widgetId, CapSense_1_FLASH_WD_STRUCT const *ptrFlas
1247:Generated_Source\PSoC4/CapSense_1_Processing.c **** {
1248:Generated_Source\PSoC4/CapSense_1_Processing.c ****     uint32 sensorStatus;
1249:Generated_Source\PSoC4/CapSense_1_Processing.c ****     uint32 wdStatusIndex;
1250:Generated_Source\PSoC4/CapSense_1_Processing.c ****     uint32 wdStatusMask;
1251:Generated_Source\PSoC4/CapSense_1_Processing.c ****     CapSense_1_WD_TYPE_ENUM widgetType;
1252:Generated_Source\PSoC4/CapSense_1_Processing.c **** 
1253:Generated_Source\PSoC4/CapSense_1_Processing.c ****     widgetType = (CapSense_1_WD_TYPE_ENUM)ptrFlashWdgt->wdgtType;
1254:Generated_Source\PSoC4/CapSense_1_Processing.c ****     sensorStatus = CapSense_1_dsRam.snsStatus[widgetId];
1255:Generated_Source\PSoC4/CapSense_1_Processing.c **** 
1256:Generated_Source\PSoC4/CapSense_1_Processing.c ****     switch (widgetType)
1257:Generated_Source\PSoC4/CapSense_1_Processing.c ****     {
1258:Generated_Source\PSoC4/CapSense_1_Processing.c ****     #if (0u != CapSense_1_BUTTON_WIDGET_EN)
1259:Generated_Source\PSoC4/CapSense_1_Processing.c ****         case CapSense_1_WD_BUTTON_E:
1260:Generated_Source\PSoC4/CapSense_1_Processing.c ****             sensorStatus = CapSense_1_DpProcessButton(sensorStatus, ptrFlashWdgt);
ARM GAS  C:\Users\exp32\AppData\Local\Temp\ccki8209.s 			page 27


1261:Generated_Source\PSoC4/CapSense_1_Processing.c ****             break;
1262:Generated_Source\PSoC4/CapSense_1_Processing.c ****     #endif /* #if (0u != CapSense_1_BUTTON_WIDGET_EN) */
1263:Generated_Source\PSoC4/CapSense_1_Processing.c **** 
1264:Generated_Source\PSoC4/CapSense_1_Processing.c ****     #if (0u != CapSense_1_SLIDER_WIDGET_EN)
1265:Generated_Source\PSoC4/CapSense_1_Processing.c ****         case CapSense_1_WD_LINEAR_SLIDER_E:
1266:Generated_Source\PSoC4/CapSense_1_Processing.c ****         case CapSense_1_WD_RADIAL_SLIDER_E:
1267:Generated_Source\PSoC4/CapSense_1_Processing.c ****             sensorStatus = CapSense_1_DpProcessSlider(sensorStatus, ptrFlashWdgt);
1268:Generated_Source\PSoC4/CapSense_1_Processing.c ****             break;
1269:Generated_Source\PSoC4/CapSense_1_Processing.c ****     #endif /* #if (0u != CapSense_1_SLIDER_WIDGET_EN) */
1270:Generated_Source\PSoC4/CapSense_1_Processing.c **** 
1271:Generated_Source\PSoC4/CapSense_1_Processing.c ****     #if (0u != CapSense_1_CSD_MATRIX_WIDGET_EN)
1272:Generated_Source\PSoC4/CapSense_1_Processing.c ****         case CapSense_1_WD_MATRIX_BUTTON_E:
1273:Generated_Source\PSoC4/CapSense_1_Processing.c ****             sensorStatus = CapSense_1_DpProcessCsdMatrix(sensorStatus, ptrFlashWdgt);
1274:Generated_Source\PSoC4/CapSense_1_Processing.c ****             break;
1275:Generated_Source\PSoC4/CapSense_1_Processing.c ****     #endif /* #if (0u != CapSense_1_CSD_MATRIX_WIDGET_EN) */
1276:Generated_Source\PSoC4/CapSense_1_Processing.c **** 
1277:Generated_Source\PSoC4/CapSense_1_Processing.c ****     #if (0u != CapSense_1_CSD_TOUCHPAD_WIDGET_EN)
1278:Generated_Source\PSoC4/CapSense_1_Processing.c ****         case CapSense_1_WD_TOUCHPAD_E:
1279:Generated_Source\PSoC4/CapSense_1_Processing.c ****             sensorStatus = CapSense_1_DpProcessCsdTouchpad(sensorStatus, ptrFlashWdgt);
1280:Generated_Source\PSoC4/CapSense_1_Processing.c ****             #if (0u != CapSense_1_BALLISTIC_MULTIPLIER_EN)
1281:Generated_Source\PSoC4/CapSense_1_Processing.c ****                 CapSense_1_RunBallisticMultiplier(widgetId);
1282:Generated_Source\PSoC4/CapSense_1_Processing.c ****             #endif /* (0u != CapSense_1_BALLISTIC_MULTIPLIER_EN) */
1283:Generated_Source\PSoC4/CapSense_1_Processing.c ****             break;
1284:Generated_Source\PSoC4/CapSense_1_Processing.c ****     #endif /* #if (0u != CapSense_1_CSD_TOUCHPAD_WIDGET_EN) */
1285:Generated_Source\PSoC4/CapSense_1_Processing.c **** 
1286:Generated_Source\PSoC4/CapSense_1_Processing.c ****     #if (0u != CapSense_1_PROXIMITY_WIDGET_EN)
1287:Generated_Source\PSoC4/CapSense_1_Processing.c ****         case CapSense_1_WD_PROXIMITY_E:
1288:Generated_Source\PSoC4/CapSense_1_Processing.c ****             sensorStatus = CapSense_1_DpProcessProximity(sensorStatus, ptrFlashWdgt);
1289:Generated_Source\PSoC4/CapSense_1_Processing.c ****             break;
1290:Generated_Source\PSoC4/CapSense_1_Processing.c ****     #endif /* #if (0u != CapSense_1_PROXIMITY_WIDGET_EN) */
1291:Generated_Source\PSoC4/CapSense_1_Processing.c **** 
1292:Generated_Source\PSoC4/CapSense_1_Processing.c ****     default:
1293:Generated_Source\PSoC4/CapSense_1_Processing.c ****         CYASSERT(0u);
1294:Generated_Source\PSoC4/CapSense_1_Processing.c ****         break;
1295:Generated_Source\PSoC4/CapSense_1_Processing.c ****     }
1296:Generated_Source\PSoC4/CapSense_1_Processing.c **** 
1297:Generated_Source\PSoC4/CapSense_1_Processing.c ****     CapSense_1_dsRam.snsStatus[widgetId] = (CapSense_1_SNS_STS_TYPE)sensorStatus;
1298:Generated_Source\PSoC4/CapSense_1_Processing.c **** 
1299:Generated_Source\PSoC4/CapSense_1_Processing.c ****     /* The next two lines calculate index and bitmask of the widget status bit in the wdgtStatus ar
1300:Generated_Source\PSoC4/CapSense_1_Processing.c ****     wdStatusIndex = CapSense_1_GET_WDGT_STATUS_INDEX(widgetId);
1301:Generated_Source\PSoC4/CapSense_1_Processing.c ****     wdStatusMask = CapSense_1_GET_WDGT_STATUS_MASK(widgetId);
1302:Generated_Source\PSoC4/CapSense_1_Processing.c **** 
1303:Generated_Source\PSoC4/CapSense_1_Processing.c ****     /* Check if there are active sensors and update widget status accordingly */
1304:Generated_Source\PSoC4/CapSense_1_Processing.c ****     if (0u == sensorStatus)
1305:Generated_Source\PSoC4/CapSense_1_Processing.c ****     {
1306:Generated_Source\PSoC4/CapSense_1_Processing.c ****         CapSense_1_dsRam.wdgtStatus[wdStatusIndex] &= ~wdStatusMask;
1307:Generated_Source\PSoC4/CapSense_1_Processing.c ****     }
1308:Generated_Source\PSoC4/CapSense_1_Processing.c ****     else
1309:Generated_Source\PSoC4/CapSense_1_Processing.c ****     {
1310:Generated_Source\PSoC4/CapSense_1_Processing.c ****         CapSense_1_dsRam.wdgtStatus[wdStatusIndex] |= wdStatusMask;
1311:Generated_Source\PSoC4/CapSense_1_Processing.c ****     }
1312:Generated_Source\PSoC4/CapSense_1_Processing.c **** }
1313:Generated_Source\PSoC4/CapSense_1_Processing.c **** #endif /* #if (0u != CapSense_1_TOTAL_CSD_WIDGETS) */
1314:Generated_Source\PSoC4/CapSense_1_Processing.c **** 
1315:Generated_Source\PSoC4/CapSense_1_Processing.c **** 
1316:Generated_Source\PSoC4/CapSense_1_Processing.c **** #if (0 != (CapSense_1_CSD_AUTOTUNE & CapSense_1_CSD_SS_TH_EN))
1317:Generated_Source\PSoC4/CapSense_1_Processing.c **** /*******************************************************************************
ARM GAS  C:\Users\exp32\AppData\Local\Temp\ccki8209.s 			page 28


1318:Generated_Source\PSoC4/CapSense_1_Processing.c **** * Function Name: CapSense_1_DpUpdateThresholds
1319:Generated_Source\PSoC4/CapSense_1_Processing.c **** ****************************************************************************//**
1320:Generated_Source\PSoC4/CapSense_1_Processing.c **** *
1321:Generated_Source\PSoC4/CapSense_1_Processing.c **** * \brief
1322:Generated_Source\PSoC4/CapSense_1_Processing.c **** *   Updates noise and finger thresholds for a specified widget.
1323:Generated_Source\PSoC4/CapSense_1_Processing.c **** *
1324:Generated_Source\PSoC4/CapSense_1_Processing.c **** * \details
1325:Generated_Source\PSoC4/CapSense_1_Processing.c **** *   Updates noise and finger thresholds for a specified widget.
1326:Generated_Source\PSoC4/CapSense_1_Processing.c **** *   This algorithm is a part of Auto-tuning feature.
1327:Generated_Source\PSoC4/CapSense_1_Processing.c **** *
1328:Generated_Source\PSoC4/CapSense_1_Processing.c **** * \param ptrRamWdgt       The pointer to the RAM widget object.
1329:Generated_Source\PSoC4/CapSense_1_Processing.c **** * \param ptrNoiseEnvelope The pointer to the noise-envelope object in RAM.
1330:Generated_Source\PSoC4/CapSense_1_Processing.c **** * \param startFlag        The flag indicates when new widget is processed.
1331:Generated_Source\PSoC4/CapSense_1_Processing.c **** *
1332:Generated_Source\PSoC4/CapSense_1_Processing.c **** *******************************************************************************/
1333:Generated_Source\PSoC4/CapSense_1_Processing.c **** void CapSense_1_DpUpdateThresholds(CapSense_1_RAM_WD_BASE_STRUCT *ptrRamWdgt,
1334:Generated_Source\PSoC4/CapSense_1_Processing.c ****                                          SMARTSENSE_CSD_NOISE_ENVELOPE_STRUCT *ptrNoiseEnvelope,
1335:Generated_Source\PSoC4/CapSense_1_Processing.c ****                                          uint32 startFlag)
1336:Generated_Source\PSoC4/CapSense_1_Processing.c **** {
 210              		.loc 1 1336 0
 211              		.cfi_startproc
 212              		@ args = 0, pretend = 0, frame = 8
 213              		@ frame_needed = 0, uses_anonymous_args = 0
 214              	.LVL25:
 215 0000 10B5     		push	{r4, lr}
 216              		.cfi_def_cfa_offset 8
 217              		.cfi_offset 4, -8
 218              		.cfi_offset 14, -4
 219 0002 82B0     		sub	sp, sp, #8
 220              		.cfi_def_cfa_offset 16
 221 0004 0400     		movs	r4, r0
 222 0006 0800     		movs	r0, r1
 223              	.LVL26:
 224 0008 1300     		movs	r3, r2
 225              	.LVL27:
1337:Generated_Source\PSoC4/CapSense_1_Processing.c ****     SMARTSENSE_UPDATE_THRESHOLDS_STRUCT thresholds;
1338:Generated_Source\PSoC4/CapSense_1_Processing.c ****     SMARTSENSE_UPDATE_THRESHOLDS_STRUCT *ptrThresholds = &thresholds;
1339:Generated_Source\PSoC4/CapSense_1_Processing.c ****     ptrThresholds->fingerTh = ptrRamWdgt->fingerTh;
 226              		.loc 1 1339 0
 227 000a 6288     		ldrh	r2, [r4, #2]
 228              	.LVL28:
 229 000c 6946     		mov	r1, sp
 230              	.LVL29:
 231 000e 0A80     		strh	r2, [r1]
1340:Generated_Source\PSoC4/CapSense_1_Processing.c **** 
1341:Generated_Source\PSoC4/CapSense_1_Processing.c ****     SmartSense_UpdateThresholds(ptrNoiseEnvelope, ptrThresholds, ptrRamWdgt->sigPFC, startFlag);
 232              		.loc 1 1341 0
 233 0010 A28A     		ldrh	r2, [r4, #20]
 234 0012 FFF7FEFF 		bl	SmartSense_UpdateThresholds
 235              	.LVL30:
1342:Generated_Source\PSoC4/CapSense_1_Processing.c **** 
1343:Generated_Source\PSoC4/CapSense_1_Processing.c ****     ptrRamWdgt->fingerTh = ptrThresholds->fingerTh;
 236              		.loc 1 1343 0
 237 0016 6B46     		mov	r3, sp
 238 0018 1B88     		ldrh	r3, [r3]
 239 001a 6380     		strh	r3, [r4, #2]
1344:Generated_Source\PSoC4/CapSense_1_Processing.c ****     ptrRamWdgt->noiseTh = ptrThresholds->noiseTh;
ARM GAS  C:\Users\exp32\AppData\Local\Temp\ccki8209.s 			page 29


 240              		.loc 1 1344 0
 241 001c 6B46     		mov	r3, sp
 242 001e 9B78     		ldrb	r3, [r3, #2]
 243 0020 2371     		strb	r3, [r4, #4]
1345:Generated_Source\PSoC4/CapSense_1_Processing.c ****     ptrRamWdgt->nNoiseTh = ptrThresholds->nNoiseTh;
 244              		.loc 1 1345 0
 245 0022 6B46     		mov	r3, sp
 246 0024 DB78     		ldrb	r3, [r3, #3]
 247 0026 6371     		strb	r3, [r4, #5]
1346:Generated_Source\PSoC4/CapSense_1_Processing.c ****     ptrRamWdgt->hysteresis = ptrThresholds->hysteresis;
 248              		.loc 1 1346 0
 249 0028 6B46     		mov	r3, sp
 250 002a 1B79     		ldrb	r3, [r3, #4]
 251 002c A371     		strb	r3, [r4, #6]
1347:Generated_Source\PSoC4/CapSense_1_Processing.c **** }
 252              		.loc 1 1347 0
 253 002e 02B0     		add	sp, sp, #8
 254              	.LVL31:
 255              		@ sp needed
 256              	.LVL32:
 257 0030 10BD     		pop	{r4, pc}
 258              		.cfi_endproc
 259              	.LFE7:
 260              		.size	CapSense_1_DpUpdateThresholds, .-CapSense_1_DpUpdateThresholds
 261 0032 C046     		.section	.text.CapSense_1_DpUpdateDifferences,"ax",%progbits
 262              		.align	2
 263              		.global	CapSense_1_DpUpdateDifferences
 264              		.code	16
 265              		.thumb_func
 266              		.type	CapSense_1_DpUpdateDifferences, %function
 267              	CapSense_1_DpUpdateDifferences:
 268              	.LFB8:
1348:Generated_Source\PSoC4/CapSense_1_Processing.c **** #endif /* #if (0u != (CapSense_1_CSD_AUTOTUNE & CapSense_1_CSD_SS_TH_EN)) */
1349:Generated_Source\PSoC4/CapSense_1_Processing.c **** 
1350:Generated_Source\PSoC4/CapSense_1_Processing.c **** 
1351:Generated_Source\PSoC4/CapSense_1_Processing.c **** /*******************************************************************************
1352:Generated_Source\PSoC4/CapSense_1_Processing.c **** * Function Name: CapSense_1_DpUpdateDifferences
1353:Generated_Source\PSoC4/CapSense_1_Processing.c **** ****************************************************************************//**
1354:Generated_Source\PSoC4/CapSense_1_Processing.c **** *
1355:Generated_Source\PSoC4/CapSense_1_Processing.c **** * \brief
1356:Generated_Source\PSoC4/CapSense_1_Processing.c **** *   Calculates new difference values.
1357:Generated_Source\PSoC4/CapSense_1_Processing.c **** *   Also, executes the multi-frequency scan algorithm if it is enabled.
1358:Generated_Source\PSoC4/CapSense_1_Processing.c **** *
1359:Generated_Source\PSoC4/CapSense_1_Processing.c **** * \details
1360:Generated_Source\PSoC4/CapSense_1_Processing.c **** *   This API calculates the difference between the baseline and raw counts.
1361:Generated_Source\PSoC4/CapSense_1_Processing.c **** *   If the difference is positive (raw > baseline), and higher than the widget
1362:Generated_Source\PSoC4/CapSense_1_Processing.c **** *   noise threshold, it is saved into the data structure for further processing.
1363:Generated_Source\PSoC4/CapSense_1_Processing.c **** *   Otherwise the difference is set to zero. The final difference value is saved
1364:Generated_Source\PSoC4/CapSense_1_Processing.c **** *   with the subtracted noise threshold value.
1365:Generated_Source\PSoC4/CapSense_1_Processing.c **** *
1366:Generated_Source\PSoC4/CapSense_1_Processing.c **** *   If the multi-frequency scan algorithm is enabled, the difference is calculated
1367:Generated_Source\PSoC4/CapSense_1_Processing.c **** *   for the three sets of data available for each sensor. Then
1368:Generated_Source\PSoC4/CapSense_1_Processing.c **** *   the median filter selects the final difference value.
1369:Generated_Source\PSoC4/CapSense_1_Processing.c **** *
1370:Generated_Source\PSoC4/CapSense_1_Processing.c **** * \param ptrRamWdgt The pointer to the RAR Widget Object.
1371:Generated_Source\PSoC4/CapSense_1_Processing.c **** * \param curSnsPtr  The pointer to the sensor object in RAM.
1372:Generated_Source\PSoC4/CapSense_1_Processing.c **** *
ARM GAS  C:\Users\exp32\AppData\Local\Temp\ccki8209.s 			page 30


1373:Generated_Source\PSoC4/CapSense_1_Processing.c **** *******************************************************************************/
1374:Generated_Source\PSoC4/CapSense_1_Processing.c **** void CapSense_1_DpUpdateDifferences(
1375:Generated_Source\PSoC4/CapSense_1_Processing.c ****                         CapSense_1_RAM_WD_BASE_STRUCT *ptrRamWdgt,
1376:Generated_Source\PSoC4/CapSense_1_Processing.c ****                         CapSense_1_RAM_SNS_STRUCT *curSnsPtr)
1377:Generated_Source\PSoC4/CapSense_1_Processing.c **** {
 269              		.loc 1 1377 0
 270              		.cfi_startproc
 271              		@ args = 0, pretend = 0, frame = 0
 272              		@ frame_needed = 0, uses_anonymous_args = 0
 273              	.LVL33:
 274 0000 30B5     		push	{r4, r5, lr}
 275              		.cfi_def_cfa_offset 12
 276              		.cfi_offset 4, -12
 277              		.cfi_offset 5, -8
 278              		.cfi_offset 14, -4
 279              	.LVL34:
1378:Generated_Source\PSoC4/CapSense_1_Processing.c ****     register int32 diffValue = 0;
1379:Generated_Source\PSoC4/CapSense_1_Processing.c **** 
1380:Generated_Source\PSoC4/CapSense_1_Processing.c ****     #if (0u != CapSense_1_MULTI_FREQ_SCAN_EN)
1381:Generated_Source\PSoC4/CapSense_1_Processing.c ****         register int32 diffValue_0 = 0;
1382:Generated_Source\PSoC4/CapSense_1_Processing.c ****         register int32 diffValue_2 = 0;
1383:Generated_Source\PSoC4/CapSense_1_Processing.c ****     #endif /* #if (0u != CapSense_1_MULTI_FREQ_SCAN_EN) */
1384:Generated_Source\PSoC4/CapSense_1_Processing.c **** 
1385:Generated_Source\PSoC4/CapSense_1_Processing.c ****     /* Calculate difference */
1386:Generated_Source\PSoC4/CapSense_1_Processing.c ****     diffValue = (int32)curSnsPtr->raw[0u] - (int32)curSnsPtr->bsln[0u];
 280              		.loc 1 1386 0
 281 0002 0B88     		ldrh	r3, [r1]
 282 0004 4A88     		ldrh	r2, [r1, #2]
 283 0006 9C1A     		subs	r4, r3, r2
 284              	.LVL35:
1387:Generated_Source\PSoC4/CapSense_1_Processing.c **** 
1388:Generated_Source\PSoC4/CapSense_1_Processing.c ****     #if (0u != CapSense_1_MULTI_FREQ_SCAN_EN)
1389:Generated_Source\PSoC4/CapSense_1_Processing.c ****         diffValue_0 = (int32)curSnsPtr->raw[1u] - (int32)curSnsPtr->bsln[1u];
1390:Generated_Source\PSoC4/CapSense_1_Processing.c ****         diffValue_2 = (int32)curSnsPtr->raw[2u] - (int32)curSnsPtr->bsln[2u];
1391:Generated_Source\PSoC4/CapSense_1_Processing.c **** 
1392:Generated_Source\PSoC4/CapSense_1_Processing.c ****         /* Find median and put it into [0u] element */
1393:Generated_Source\PSoC4/CapSense_1_Processing.c ****         if (diffValue_0 > diffValue)
1394:Generated_Source\PSoC4/CapSense_1_Processing.c ****         {
1395:Generated_Source\PSoC4/CapSense_1_Processing.c ****             register int32 swapv = diffValue_0;
1396:Generated_Source\PSoC4/CapSense_1_Processing.c ****             diffValue_0 = diffValue;
1397:Generated_Source\PSoC4/CapSense_1_Processing.c ****             diffValue = swapv;
1398:Generated_Source\PSoC4/CapSense_1_Processing.c ****         }
1399:Generated_Source\PSoC4/CapSense_1_Processing.c **** 
1400:Generated_Source\PSoC4/CapSense_1_Processing.c ****         if (diffValue > diffValue_2)
1401:Generated_Source\PSoC4/CapSense_1_Processing.c ****         {
1402:Generated_Source\PSoC4/CapSense_1_Processing.c ****             register int32 swapv = diffValue;
1403:Generated_Source\PSoC4/CapSense_1_Processing.c ****             diffValue = diffValue_2;
1404:Generated_Source\PSoC4/CapSense_1_Processing.c ****             diffValue_2 = swapv;
1405:Generated_Source\PSoC4/CapSense_1_Processing.c ****         }
1406:Generated_Source\PSoC4/CapSense_1_Processing.c **** 
1407:Generated_Source\PSoC4/CapSense_1_Processing.c ****         if (diffValue_0 > diffValue)
1408:Generated_Source\PSoC4/CapSense_1_Processing.c ****         {
1409:Generated_Source\PSoC4/CapSense_1_Processing.c ****             register int32 swapv = diffValue_0;
1410:Generated_Source\PSoC4/CapSense_1_Processing.c ****             diffValue_0 = diffValue;
1411:Generated_Source\PSoC4/CapSense_1_Processing.c ****             diffValue = swapv;
1412:Generated_Source\PSoC4/CapSense_1_Processing.c ****         }
1413:Generated_Source\PSoC4/CapSense_1_Processing.c ****     #endif /* #if (0u != CapSense_1_MULTI_FREQ_SCAN_EN) */
ARM GAS  C:\Users\exp32\AppData\Local\Temp\ccki8209.s 			page 31


1414:Generated_Source\PSoC4/CapSense_1_Processing.c **** 
1415:Generated_Source\PSoC4/CapSense_1_Processing.c ****     curSnsPtr->diff = 0u;
 285              		.loc 1 1415 0
 286 0008 0025     		movs	r5, #0
 287 000a CD80     		strh	r5, [r1, #6]
1416:Generated_Source\PSoC4/CapSense_1_Processing.c **** 
1417:Generated_Source\PSoC4/CapSense_1_Processing.c ****     if (diffValue > (int32)ptrRamWdgt->noiseTh)
 288              		.loc 1 1417 0
 289 000c 0079     		ldrb	r0, [r0, #4]
 290              	.LVL36:
 291 000e 8442     		cmp	r4, r0
 292 0010 00DD     		ble	.L18
1418:Generated_Source\PSoC4/CapSense_1_Processing.c ****     {
1419:Generated_Source\PSoC4/CapSense_1_Processing.c ****         curSnsPtr->diff = (CapSense_1_THRESHOLD_TYPE) diffValue;
 293              		.loc 1 1419 0
 294 0012 CC80     		strh	r4, [r1, #6]
 295              	.L18:
1420:Generated_Source\PSoC4/CapSense_1_Processing.c ****     }
1421:Generated_Source\PSoC4/CapSense_1_Processing.c **** }
 296              		.loc 1 1421 0
 297              		@ sp needed
 298              	.LVL37:
 299 0014 30BD     		pop	{r4, r5, pc}
 300              		.cfi_endproc
 301              	.LFE8:
 302              		.size	CapSense_1_DpUpdateDifferences, .-CapSense_1_DpUpdateDifferences
 303 0016 C046     		.section	.text.CapSense_1_DpProcessCsdWidgetRawCounts,"ax",%progbits
 304              		.align	2
 305              		.global	CapSense_1_DpProcessCsdWidgetRawCounts
 306              		.code	16
 307              		.thumb_func
 308              		.type	CapSense_1_DpProcessCsdWidgetRawCounts, %function
 309              	CapSense_1_DpProcessCsdWidgetRawCounts:
 310              	.LFB4:
1017:Generated_Source\PSoC4/CapSense_1_Processing.c ****     uint32  result = CYRET_SUCCESS;
 311              		.loc 1 1017 0
 312              		.cfi_startproc
 313              		@ args = 0, pretend = 0, frame = 8
 314              		@ frame_needed = 0, uses_anonymous_args = 0
 315              	.LVL38:
 316 0000 F0B5     		push	{r4, r5, r6, r7, lr}
 317              		.cfi_def_cfa_offset 20
 318              		.cfi_offset 4, -20
 319              		.cfi_offset 5, -16
 320              		.cfi_offset 6, -12
 321              		.cfi_offset 7, -8
 322              		.cfi_offset 14, -4
 323 0002 5746     		mov	r7, r10
 324 0004 80B4     		push	{r7}
 325              		.cfi_def_cfa_offset 24
 326              		.cfi_offset 10, -24
 327 0006 82B0     		sub	sp, sp, #8
 328              		.cfi_def_cfa_offset 32
 329 0008 8246     		mov	r10, r0
 330              	.LVL39:
1047:Generated_Source\PSoC4/CapSense_1_Processing.c ****     ptrRamWdgt = (CapSense_1_RAM_WD_BASE_STRUCT *)ptrFlashWdgt->ptr2WdgtRam;
 331              		.loc 1 1047 0
ARM GAS  C:\Users\exp32\AppData\Local\Temp\ccki8209.s 			page 32


 332 000a 8468     		ldr	r4, [r0, #8]
 333              	.LVL40:
1048:Generated_Source\PSoC4/CapSense_1_Processing.c ****     widgetType = ptrFlashWdgt->wdgtType;
 334              		.loc 1 1048 0
 335 000c 4568     		ldr	r5, [r0, #4]
 336              	.LVL41:
1049:Generated_Source\PSoC4/CapSense_1_Processing.c **** 
 337              		.loc 1 1049 0
 338 000e 837E     		ldrb	r3, [r0, #26]
 339 0010 0193     		str	r3, [sp, #4]
 340              	.LVL42:
1052:Generated_Source\PSoC4/CapSense_1_Processing.c ****     #endif /* #if (0u != (CapSense_1_CSD_AUTOTUNE & CapSense_1_CSD_SS_TH_EN)) */
 341              		.loc 1 1052 0
 342 0012 C76A     		ldr	r7, [r0, #44]
 343              	.LVL43:
1056:Generated_Source\PSoC4/CapSense_1_Processing.c ****     {
 344              		.loc 1 1056 0
 345 0014 0026     		movs	r6, #0
1018:Generated_Source\PSoC4/CapSense_1_Processing.c **** 
 346              		.loc 1 1018 0
 347 0016 0023     		movs	r3, #0
 348              	.LVL44:
 349 0018 0093     		str	r3, [sp]
1056:Generated_Source\PSoC4/CapSense_1_Processing.c ****     {
 350              		.loc 1 1056 0
 351 001a 16E0     		b	.L21
 352              	.LVL45:
 353              	.L22:
1068:Generated_Source\PSoC4/CapSense_1_Processing.c ****             CapSense_1_DpUpdateThresholds(ptrRamWdgt, ptrNoiseEnvelope, snsId);
 354              		.loc 1 1068 0 discriminator 3
 355 001c A98A     		ldrh	r1, [r5, #20]
 356 001e 2088     		ldrh	r0, [r4]
 357 0020 3A00     		movs	r2, r7
 358 0022 FFF7FEFF 		bl	SmartSense_RunNoiseEnvelope
 359              	.LVL46:
1069:Generated_Source\PSoC4/CapSense_1_Processing.c **** 
 360              		.loc 1 1069 0 discriminator 3
 361 0026 3200     		movs	r2, r6
 362 0028 3900     		movs	r1, r7
 363 002a 2800     		movs	r0, r5
 364 002c FFF7FEFF 		bl	CapSense_1_DpUpdateThresholds
 365              	.LVL47:
1086:Generated_Source\PSoC4/CapSense_1_Processing.c ****         #endif /* (0u != (CapSense_1_CSD_AUTOTUNE & CapSense_1_CSD_SS_TH_EN)) */
 366              		.loc 1 1086 0 discriminator 3
 367 0030 0C37     		adds	r7, r7, #12
 368              	.LVL48:
1096:Generated_Source\PSoC4/CapSense_1_Processing.c ****         #endif /* (CapSense_1_ENABLE == CapSense_1_TST_BSLN_DUPLICATION_EN) */
 369              		.loc 1 1096 0 discriminator 3
 370 0032 019A     		ldr	r2, [sp, #4]
 371 0034 2100     		movs	r1, r4
 372 0036 2800     		movs	r0, r5
 373 0038 FFF7FEFF 		bl	CapSense_1_FtUpdateBaseline
 374              	.LVL49:
 375 003c 0090     		str	r0, [sp]
 376              	.LVL50:
1099:Generated_Source\PSoC4/CapSense_1_Processing.c **** 
 377              		.loc 1 1099 0 discriminator 3
ARM GAS  C:\Users\exp32\AppData\Local\Temp\ccki8209.s 			page 33


 378 003e 2100     		movs	r1, r4
 379 0040 2800     		movs	r0, r5
 380              	.LVL51:
 381 0042 FFF7FEFF 		bl	CapSense_1_DpUpdateDifferences
 382              	.LVL52:
1102:Generated_Source\PSoC4/CapSense_1_Processing.c **** 
 383              		.loc 1 1102 0 discriminator 3
 384 0046 0A34     		adds	r4, r4, #10
 385              	.LVL53:
1056:Generated_Source\PSoC4/CapSense_1_Processing.c ****     {
 386              		.loc 1 1056 0 discriminator 3
 387 0048 0136     		adds	r6, r6, #1
 388              	.LVL54:
 389              	.L21:
1056:Generated_Source\PSoC4/CapSense_1_Processing.c ****     {
 390              		.loc 1 1056 0 is_stmt 0 discriminator 1
 391 004a 5346     		mov	r3, r10
 392 004c 1B8B     		ldrh	r3, [r3, #24]
 393 004e 9E42     		cmp	r6, r3
 394 0050 E4D3     		bcc	.L22
1110:Generated_Source\PSoC4/CapSense_1_Processing.c **** 
 395              		.loc 1 1110 0 is_stmt 1
 396 0052 0098     		ldr	r0, [sp]
 397 0054 02B0     		add	sp, sp, #8
 398              	.LVL55:
 399              		@ sp needed
 400              	.LVL56:
 401              	.LVL57:
 402              	.LVL58:
 403              	.LVL59:
 404              	.LVL60:
 405 0056 04BC     		pop	{r2}
 406 0058 9246     		mov	r10, r2
 407 005a F0BD     		pop	{r4, r5, r6, r7, pc}
 408              		.cfi_endproc
 409              	.LFE4:
 410              		.size	CapSense_1_DpProcessCsdWidgetRawCounts, .-CapSense_1_DpProcessCsdWidgetRawCounts
 411              		.section	.text.CapSense_1_DpProcessCsdSensorRawCountsExt,"ax",%progbits
 412              		.align	2
 413              		.global	CapSense_1_DpProcessCsdSensorRawCountsExt
 414              		.code	16
 415              		.thumb_func
 416              		.type	CapSense_1_DpProcessCsdSensorRawCountsExt, %function
 417              	CapSense_1_DpProcessCsdSensorRawCountsExt:
 418              	.LFB5:
1151:Generated_Source\PSoC4/CapSense_1_Processing.c ****     uint32 result = CYRET_SUCCESS;
 419              		.loc 1 1151 0
 420              		.cfi_startproc
 421              		@ args = 0, pretend = 0, frame = 8
 422              		@ frame_needed = 0, uses_anonymous_args = 0
 423              	.LVL61:
 424 0000 F0B5     		push	{r4, r5, r6, r7, lr}
 425              		.cfi_def_cfa_offset 20
 426              		.cfi_offset 4, -20
 427              		.cfi_offset 5, -16
 428              		.cfi_offset 6, -12
 429              		.cfi_offset 7, -8
ARM GAS  C:\Users\exp32\AppData\Local\Temp\ccki8209.s 			page 34


 430              		.cfi_offset 14, -4
 431 0002 83B0     		sub	sp, sp, #12
 432              		.cfi_def_cfa_offset 32
 433 0004 0191     		str	r1, [sp, #4]
 434 0006 1C00     		movs	r4, r3
 435              	.LVL62:
1163:Generated_Source\PSoC4/CapSense_1_Processing.c ****     #endif /* (0u != (CapSense_1_CSD_AUTOTUNE & CapSense_1_CSD_SS_TH_EN)) */
 436              		.loc 1 1163 0
 437 0008 C76A     		ldr	r7, [r0, #44]
 438              	.LVL63:
1166:Generated_Source\PSoC4/CapSense_1_Processing.c ****     ptrRamWdgt = (CapSense_1_RAM_WD_BASE_STRUCT *)ptrFlashWdgt->ptr2WdgtRam;
 439              		.loc 1 1166 0
 440 000a 867E     		ldrb	r6, [r0, #26]
 441              	.LVL64:
1167:Generated_Source\PSoC4/CapSense_1_Processing.c **** 
 442              		.loc 1 1167 0
 443 000c 4568     		ldr	r5, [r0, #4]
 444              	.LVL65:
1182:Generated_Source\PSoC4/CapSense_1_Processing.c ****         {
 445              		.loc 1 1182 0
 446 000e 2307     		lsls	r3, r4, #28
 447 0010 05D5     		bpl	.L24
 448              	.LVL66:
1184:Generated_Source\PSoC4/CapSense_1_Processing.c ****         }
 449              		.loc 1 1184 0
 450 0012 A98A     		ldrh	r1, [r5, #20]
 451              	.LVL67:
 452 0014 019B     		ldr	r3, [sp, #4]
 453 0016 1888     		ldrh	r0, [r3]
 454              	.LVL68:
 455 0018 3A00     		movs	r2, r7
 456              	.LVL69:
 457 001a FFF7FEFF 		bl	SmartSense_RunNoiseEnvelope
 458              	.LVL70:
 459              	.L24:
1187:Generated_Source\PSoC4/CapSense_1_Processing.c ****         {
 460              		.loc 1 1187 0
 461 001e E306     		lsls	r3, r4, #27
 462 0020 04D5     		bpl	.L25
1189:Generated_Source\PSoC4/CapSense_1_Processing.c **** 
 463              		.loc 1 1189 0
 464 0022 0022     		movs	r2, #0
 465              	.LVL71:
 466 0024 3900     		movs	r1, r7
 467 0026 2800     		movs	r0, r5
 468 0028 FFF7FEFF 		bl	CapSense_1_DpUpdateThresholds
 469              	.LVL72:
 470              	.L25:
1207:Generated_Source\PSoC4/CapSense_1_Processing.c ****     {
 471              		.loc 1 1207 0
 472 002c A307     		lsls	r3, r4, #30
 473 002e 06D5     		bpl	.L28
1209:Generated_Source\PSoC4/CapSense_1_Processing.c ****     }
 474              		.loc 1 1209 0
 475 0030 3200     		movs	r2, r6
 476              	.LVL73:
 477 0032 0199     		ldr	r1, [sp, #4]
ARM GAS  C:\Users\exp32\AppData\Local\Temp\ccki8209.s 			page 35


 478 0034 2800     		movs	r0, r5
 479 0036 FFF7FEFF 		bl	CapSense_1_FtUpdateBaseline
 480              	.LVL74:
 481 003a 0700     		movs	r7, r0
 482              	.LVL75:
 483 003c 00E0     		b	.L26
 484              	.LVL76:
 485              	.L28:
1152:Generated_Source\PSoC4/CapSense_1_Processing.c ****     uint32  widgetType;
 486              		.loc 1 1152 0
 487 003e 0027     		movs	r7, #0
 488              	.LVL77:
 489              	.L26:
1212:Generated_Source\PSoC4/CapSense_1_Processing.c ****     {
 490              		.loc 1 1212 0
 491 0040 6307     		lsls	r3, r4, #29
 492 0042 03D5     		bpl	.L27
1214:Generated_Source\PSoC4/CapSense_1_Processing.c ****     }
 493              		.loc 1 1214 0
 494 0044 0199     		ldr	r1, [sp, #4]
 495 0046 2800     		movs	r0, r5
 496 0048 FFF7FEFF 		bl	CapSense_1_DpUpdateDifferences
 497              	.LVL78:
 498              	.L27:
1217:Generated_Source\PSoC4/CapSense_1_Processing.c **** 
 499              		.loc 1 1217 0
 500 004c 3800     		movs	r0, r7
 501 004e 03B0     		add	sp, sp, #12
 502              		@ sp needed
 503              	.LVL79:
 504              	.LVL80:
 505              	.LVL81:
 506              	.LVL82:
 507 0050 F0BD     		pop	{r4, r5, r6, r7, pc}
 508              		.cfi_endproc
 509              	.LFE5:
 510              		.size	CapSense_1_DpProcessCsdSensorRawCountsExt, .-CapSense_1_DpProcessCsdSensorRawCountsExt
 511 0052 C046     		.section	.text.CapSense_1_DpProcessButton,"ax",%progbits
 512              		.align	2
 513              		.global	CapSense_1_DpProcessButton
 514              		.code	16
 515              		.thumb_func
 516              		.type	CapSense_1_DpProcessButton, %function
 517              	CapSense_1_DpProcessButton:
 518              	.LFB9:
1422:Generated_Source\PSoC4/CapSense_1_Processing.c **** 
1423:Generated_Source\PSoC4/CapSense_1_Processing.c **** 
1424:Generated_Source\PSoC4/CapSense_1_Processing.c **** #if ((0u != CapSense_1_BUTTON_WIDGET_EN) || (0u != CapSense_1_CSX_MATRIX_WIDGET_EN))
1425:Generated_Source\PSoC4/CapSense_1_Processing.c **** /*******************************************************************************
1426:Generated_Source\PSoC4/CapSense_1_Processing.c **** * Function Name: CapSense_1_DpProcessButton
1427:Generated_Source\PSoC4/CapSense_1_Processing.c **** ****************************************************************************//**
1428:Generated_Source\PSoC4/CapSense_1_Processing.c **** *
1429:Generated_Source\PSoC4/CapSense_1_Processing.c **** * \brief
1430:Generated_Source\PSoC4/CapSense_1_Processing.c **** *   Processes the status of the Button widget.
1431:Generated_Source\PSoC4/CapSense_1_Processing.c **** *
1432:Generated_Source\PSoC4/CapSense_1_Processing.c **** * \details
1433:Generated_Source\PSoC4/CapSense_1_Processing.c **** *   This API processes the status of the CSD/CSX Button widget and
ARM GAS  C:\Users\exp32\AppData\Local\Temp\ccki8209.s 			page 36


1434:Generated_Source\PSoC4/CapSense_1_Processing.c **** *   CSX Matrix Button widget. It applies the hysteresis and de-bounce algorithm
1435:Generated_Source\PSoC4/CapSense_1_Processing.c **** *   to each sensor difference value. This API is expected to be called
1436:Generated_Source\PSoC4/CapSense_1_Processing.c **** *   after each new widget scan. If it is called multiple times for the same
1437:Generated_Source\PSoC4/CapSense_1_Processing.c **** *   scan data, the de-bounce algorithm will not work properly.
1438:Generated_Source\PSoC4/CapSense_1_Processing.c **** *
1439:Generated_Source\PSoC4/CapSense_1_Processing.c **** *   This API does not update any Data Structure registers
1440:Generated_Source\PSoC4/CapSense_1_Processing.c **** *   except the de-bounce counters.
1441:Generated_Source\PSoC4/CapSense_1_Processing.c **** *
1442:Generated_Source\PSoC4/CapSense_1_Processing.c **** * \param currStatus   The current status of the widget sensors.
1443:Generated_Source\PSoC4/CapSense_1_Processing.c **** * \param ptrFlashWdgt The pointer to the Flash Widget Object.
1444:Generated_Source\PSoC4/CapSense_1_Processing.c **** *
1445:Generated_Source\PSoC4/CapSense_1_Processing.c **** * \return Returns the status of the widget's sensors. Bit #0 - corresponds to Sensor #0.
1446:Generated_Source\PSoC4/CapSense_1_Processing.c **** *
1447:Generated_Source\PSoC4/CapSense_1_Processing.c **** *******************************************************************************/
1448:Generated_Source\PSoC4/CapSense_1_Processing.c **** uint32 CapSense_1_DpProcessButton(uint32 currStatus, CapSense_1_FLASH_WD_STRUCT const *ptrFlashWdgt
1449:Generated_Source\PSoC4/CapSense_1_Processing.c **** {
 519              		.loc 1 1449 0
 520              		.cfi_startproc
 521              		@ args = 0, pretend = 0, frame = 0
 522              		@ frame_needed = 0, uses_anonymous_args = 0
 523              	.LVL83:
 524 0000 F0B5     		push	{r4, r5, r6, r7, lr}
 525              		.cfi_def_cfa_offset 20
 526              		.cfi_offset 4, -20
 527              		.cfi_offset 5, -16
 528              		.cfi_offset 6, -12
 529              		.cfi_offset 7, -8
 530              		.cfi_offset 14, -4
1450:Generated_Source\PSoC4/CapSense_1_Processing.c ****     uint32 snsCnt;
1451:Generated_Source\PSoC4/CapSense_1_Processing.c ****     uint32 snsMask;
1452:Generated_Source\PSoC4/CapSense_1_Processing.c ****     uint32 newStatus;
1453:Generated_Source\PSoC4/CapSense_1_Processing.c ****     uint32 touchTh;
1454:Generated_Source\PSoC4/CapSense_1_Processing.c ****     CapSense_1_RAM_SNS_STRUCT *ptrSnsTmp;
1455:Generated_Source\PSoC4/CapSense_1_Processing.c ****     CapSense_1_RAM_WD_BASE_STRUCT *ptrRamWdgt;
1456:Generated_Source\PSoC4/CapSense_1_Processing.c ****     uint8 * ptrDebounceCnt;
1457:Generated_Source\PSoC4/CapSense_1_Processing.c **** 
1458:Generated_Source\PSoC4/CapSense_1_Processing.c ****     snsCnt = ptrFlashWdgt->totalNumSns;
 531              		.loc 1 1458 0
 532 0002 0A8B     		ldrh	r2, [r1, #24]
 533              	.LVL84:
1459:Generated_Source\PSoC4/CapSense_1_Processing.c ****     ptrSnsTmp = ptrFlashWdgt->ptr2SnsRam;
 534              		.loc 1 1459 0
 535 0004 8D68     		ldr	r5, [r1, #8]
 536              	.LVL85:
1460:Generated_Source\PSoC4/CapSense_1_Processing.c ****     ptrRamWdgt = (CapSense_1_RAM_WD_BASE_STRUCT *)ptrFlashWdgt->ptr2WdgtRam;
 537              		.loc 1 1460 0
 538 0006 4F68     		ldr	r7, [r1, #4]
 539              	.LVL86:
1461:Generated_Source\PSoC4/CapSense_1_Processing.c ****     ptrDebounceCnt = ptrFlashWdgt->ptr2DebounceArr;
 540              		.loc 1 1461 0
 541 0008 0B69     		ldr	r3, [r1, #16]
 542              	.LVL87:
1462:Generated_Source\PSoC4/CapSense_1_Processing.c **** 
1463:Generated_Source\PSoC4/CapSense_1_Processing.c ****     /* Go through all widget's sensors */
1464:Generated_Source\PSoC4/CapSense_1_Processing.c ****     snsMask = 1Lu;
 543              		.loc 1 1464 0
 544 000a 0121     		movs	r1, #1
ARM GAS  C:\Users\exp32\AppData\Local\Temp\ccki8209.s 			page 37


 545              	.LVL88:
1465:Generated_Source\PSoC4/CapSense_1_Processing.c ****     for (; snsCnt-- > 0u; )
 546              		.loc 1 1465 0
 547 000c 25E0     		b	.L30
 548              	.LVL89:
 549              	.L38:
1466:Generated_Source\PSoC4/CapSense_1_Processing.c ****     {
1467:Generated_Source\PSoC4/CapSense_1_Processing.c ****         /* Calculate touch threshold taking into account hysteresis
1468:Generated_Source\PSoC4/CapSense_1_Processing.c ****            and current sensor state. */
1469:Generated_Source\PSoC4/CapSense_1_Processing.c ****         touchTh = (0u == (currStatus & snsMask)) ?
 550              		.loc 1 1469 0
 551 000e 0C00     		movs	r4, r1
 552              	.LVL90:
 553 0010 0440     		ands	r4, r0
1470:Generated_Source\PSoC4/CapSense_1_Processing.c ****                   ((uint32)ptrRamWdgt->fingerTh + ptrRamWdgt->hysteresis) :
 554              		.loc 1 1470 0
 555 0012 03D1     		bne	.L31
 556              		.loc 1 1470 0 is_stmt 0 discriminator 1
 557 0014 7E88     		ldrh	r6, [r7, #2]
 558 0016 BA79     		ldrb	r2, [r7, #6]
 559 0018 B218     		adds	r2, r6, r2
 560 001a 02E0     		b	.L32
 561              	.L31:
1471:Generated_Source\PSoC4/CapSense_1_Processing.c ****                   ((uint32)ptrRamWdgt->fingerTh - ptrRamWdgt->hysteresis);
 562              		.loc 1 1471 0 is_stmt 1 discriminator 2
 563 001c 7A88     		ldrh	r2, [r7, #2]
 564 001e BE79     		ldrb	r6, [r7, #6]
1470:Generated_Source\PSoC4/CapSense_1_Processing.c ****                   ((uint32)ptrRamWdgt->fingerTh + ptrRamWdgt->hysteresis) :
 565              		.loc 1 1470 0 discriminator 2
 566 0020 921B     		subs	r2, r2, r6
 567              	.L32:
 568              	.LVL91:
1472:Generated_Source\PSoC4/CapSense_1_Processing.c **** 
1473:Generated_Source\PSoC4/CapSense_1_Processing.c ****         /* Determine new potential sensor state */
1474:Generated_Source\PSoC4/CapSense_1_Processing.c ****         newStatus = (ptrSnsTmp->diff > touchTh) ? snsMask : 0u;
 569              		.loc 1 1474 0
 570 0022 EE88     		ldrh	r6, [r5, #6]
 571 0024 B242     		cmp	r2, r6
 572 0026 01D3     		bcc	.L39
 573 0028 0022     		movs	r2, #0
 574              	.LVL92:
 575 002a 00E0     		b	.L33
 576              	.LVL93:
 577              	.L39:
 578 002c 0A00     		movs	r2, r1
 579              	.LVL94:
 580              	.L33:
1475:Generated_Source\PSoC4/CapSense_1_Processing.c **** 
1476:Generated_Source\PSoC4/CapSense_1_Processing.c ****         /* Sensor state changed ? */
1477:Generated_Source\PSoC4/CapSense_1_Processing.c ****         if (newStatus != (currStatus & snsMask))
 581              		.loc 1 1477 0 discriminator 4
 582 002e A242     		cmp	r2, r4
 583 0030 02D0     		beq	.L34
1478:Generated_Source\PSoC4/CapSense_1_Processing.c ****         {
1479:Generated_Source\PSoC4/CapSense_1_Processing.c ****             /* Decrement de-bounce counter */
1480:Generated_Source\PSoC4/CapSense_1_Processing.c ****             (*ptrDebounceCnt)--;
 584              		.loc 1 1480 0
ARM GAS  C:\Users\exp32\AppData\Local\Temp\ccki8209.s 			page 38


 585 0032 1E78     		ldrb	r6, [r3]
 586 0034 013E     		subs	r6, r6, #1
 587 0036 1E70     		strb	r6, [r3]
 588              	.L34:
1481:Generated_Source\PSoC4/CapSense_1_Processing.c ****         }
1482:Generated_Source\PSoC4/CapSense_1_Processing.c **** 
1483:Generated_Source\PSoC4/CapSense_1_Processing.c ****         /*
1484:Generated_Source\PSoC4/CapSense_1_Processing.c ****         *  This piece of code has two objectives:
1485:Generated_Source\PSoC4/CapSense_1_Processing.c ****         *  1. Reset de-bounce counter if the sensor state did not change.
1486:Generated_Source\PSoC4/CapSense_1_Processing.c ****         *     (It is possible that during previous processing cycles sensor
1487:Generated_Source\PSoC4/CapSense_1_Processing.c ****         *     was active and de-bounce counter was decremented.)
1488:Generated_Source\PSoC4/CapSense_1_Processing.c ****         *  2. Set new sensor state after successful de-bounce.
1489:Generated_Source\PSoC4/CapSense_1_Processing.c ****         */
1490:Generated_Source\PSoC4/CapSense_1_Processing.c ****         if ((newStatus == (currStatus & snsMask)) || (0u == (*ptrDebounceCnt)))
 589              		.loc 1 1490 0
 590 0038 A242     		cmp	r2, r4
 591 003a 02D0     		beq	.L35
 592              		.loc 1 1490 0 is_stmt 0 discriminator 1
 593 003c 1C78     		ldrb	r4, [r3]
 594 003e 002C     		cmp	r4, #0
 595 0040 07D1     		bne	.L36
 596              	.L35:
1491:Generated_Source\PSoC4/CapSense_1_Processing.c ****         {
1492:Generated_Source\PSoC4/CapSense_1_Processing.c ****             /* Set new sensor status */
1493:Generated_Source\PSoC4/CapSense_1_Processing.c ****             currStatus &= ~snsMask;
 597              		.loc 1 1493 0 is_stmt 1
 598 0042 8843     		bics	r0, r1
 599              	.LVL95:
1494:Generated_Source\PSoC4/CapSense_1_Processing.c ****             currStatus |= newStatus;
 600              		.loc 1 1494 0
 601 0044 1043     		orrs	r0, r2
 602              	.LVL96:
1495:Generated_Source\PSoC4/CapSense_1_Processing.c **** 
1496:Generated_Source\PSoC4/CapSense_1_Processing.c ****             /* Reset de-bounce counter */
1497:Generated_Source\PSoC4/CapSense_1_Processing.c ****             #if (0u != CapSense_1_OFF_DEBOUNCE_EN)
1498:Generated_Source\PSoC4/CapSense_1_Processing.c ****                 *ptrDebounceCnt = (0Lu == newStatus) ? ptrRamWdgt->onDebounce : ptrRamWdgt->offDebo
1499:Generated_Source\PSoC4/CapSense_1_Processing.c ****             #else
1500:Generated_Source\PSoC4/CapSense_1_Processing.c ****                 *ptrDebounceCnt = (0Lu == newStatus) ? ptrRamWdgt->onDebounce : DEFAULT_OFF_DEBOUNC
 603              		.loc 1 1500 0
 604 0046 002A     		cmp	r2, #0
 605 0048 01D1     		bne	.L40
 606              		.loc 1 1500 0 is_stmt 0 discriminator 1
 607 004a FA79     		ldrb	r2, [r7, #7]
 608              	.LVL97:
 609 004c 00E0     		b	.L37
 610              	.LVL98:
 611              	.L40:
 612              		.loc 1 1500 0
 613 004e 0122     		movs	r2, #1
 614              	.LVL99:
 615              	.L37:
 616              		.loc 1 1500 0 discriminator 4
 617 0050 1A70     		strb	r2, [r3]
 618              	.L36:
1501:Generated_Source\PSoC4/CapSense_1_Processing.c ****             #endif /* #if (0u != CapSense_1_OFF_DEBOUNCE_EN) */
1502:Generated_Source\PSoC4/CapSense_1_Processing.c ****         }
1503:Generated_Source\PSoC4/CapSense_1_Processing.c **** 
ARM GAS  C:\Users\exp32\AppData\Local\Temp\ccki8209.s 			page 39


1504:Generated_Source\PSoC4/CapSense_1_Processing.c ****         /* Move mask to the next sensor */
1505:Generated_Source\PSoC4/CapSense_1_Processing.c ****         snsMask <<= 1u;
 619              		.loc 1 1505 0 is_stmt 1
 620 0052 4900     		lsls	r1, r1, #1
 621              	.LVL100:
1506:Generated_Source\PSoC4/CapSense_1_Processing.c **** 
1507:Generated_Source\PSoC4/CapSense_1_Processing.c ****         ptrSnsTmp++;
 622              		.loc 1 1507 0
 623 0054 0A35     		adds	r5, r5, #10
 624              	.LVL101:
1508:Generated_Source\PSoC4/CapSense_1_Processing.c ****         ptrDebounceCnt++;
 625              		.loc 1 1508 0
 626 0056 0133     		adds	r3, r3, #1
 627              	.LVL102:
1465:Generated_Source\PSoC4/CapSense_1_Processing.c ****     {
 628              		.loc 1 1465 0
 629 0058 6246     		mov	r2, ip
 630              	.LVL103:
 631              	.L30:
 632 005a 541E     		subs	r4, r2, #1
 633 005c A446     		mov	ip, r4
 634              	.LVL104:
 635 005e 002A     		cmp	r2, #0
 636 0060 D5D1     		bne	.L38
1509:Generated_Source\PSoC4/CapSense_1_Processing.c ****     }
1510:Generated_Source\PSoC4/CapSense_1_Processing.c **** 
1511:Generated_Source\PSoC4/CapSense_1_Processing.c ****     return currStatus;
1512:Generated_Source\PSoC4/CapSense_1_Processing.c **** }
 637              		.loc 1 1512 0
 638              		@ sp needed
 639              	.LVL105:
 640              	.LVL106:
 641              	.LVL107:
 642 0062 F0BD     		pop	{r4, r5, r6, r7, pc}
 643              		.cfi_endproc
 644              	.LFE9:
 645              		.size	CapSense_1_DpProcessButton, .-CapSense_1_DpProcessButton
 646              		.section	.text.CapSense_1_DpProcessSlider,"ax",%progbits
 647              		.align	2
 648              		.global	CapSense_1_DpProcessSlider
 649              		.code	16
 650              		.thumb_func
 651              		.type	CapSense_1_DpProcessSlider, %function
 652              	CapSense_1_DpProcessSlider:
 653              	.LFB10:
1513:Generated_Source\PSoC4/CapSense_1_Processing.c **** #endif /* #if ((0u != CapSense_1_BUTTON_WIDGET_EN) || (0u != CapSense_1_CSX_MATRIX_WIDGET_EN)) */
1514:Generated_Source\PSoC4/CapSense_1_Processing.c **** 
1515:Generated_Source\PSoC4/CapSense_1_Processing.c **** 
1516:Generated_Source\PSoC4/CapSense_1_Processing.c **** #if (0u != CapSense_1_PROXIMITY_WIDGET_EN)
1517:Generated_Source\PSoC4/CapSense_1_Processing.c **** /*******************************************************************************
1518:Generated_Source\PSoC4/CapSense_1_Processing.c **** * Function Name: CapSense_1_DpProcessProximity
1519:Generated_Source\PSoC4/CapSense_1_Processing.c **** ****************************************************************************//**
1520:Generated_Source\PSoC4/CapSense_1_Processing.c **** *
1521:Generated_Source\PSoC4/CapSense_1_Processing.c **** * \brief
1522:Generated_Source\PSoC4/CapSense_1_Processing.c **** *   Processes the status of the Proximity widget.
1523:Generated_Source\PSoC4/CapSense_1_Processing.c **** *
1524:Generated_Source\PSoC4/CapSense_1_Processing.c **** * \details
ARM GAS  C:\Users\exp32\AppData\Local\Temp\ccki8209.s 			page 40


1525:Generated_Source\PSoC4/CapSense_1_Processing.c **** *   This API processes the status of the CSD Proximity widget. It applies the
1526:Generated_Source\PSoC4/CapSense_1_Processing.c **** *   hysteresis and debounce algorithm to each sensor difference value.
1527:Generated_Source\PSoC4/CapSense_1_Processing.c **** *   The proximity and touch events are considered independently so debounce and
1528:Generated_Source\PSoC4/CapSense_1_Processing.c **** *   hysteresis are also applied independently.
1529:Generated_Source\PSoC4/CapSense_1_Processing.c **** *
1530:Generated_Source\PSoC4/CapSense_1_Processing.c **** *   This API is expected to be called after each new widget scan. If it is
1531:Generated_Source\PSoC4/CapSense_1_Processing.c **** *   called multiple times for the same scan data the debounce algorithm
1532:Generated_Source\PSoC4/CapSense_1_Processing.c **** *   will not work properly.
1533:Generated_Source\PSoC4/CapSense_1_Processing.c **** *
1534:Generated_Source\PSoC4/CapSense_1_Processing.c **** *   This API does not update any Data Structure registers
1535:Generated_Source\PSoC4/CapSense_1_Processing.c **** *   except the debounce counters.
1536:Generated_Source\PSoC4/CapSense_1_Processing.c **** *
1537:Generated_Source\PSoC4/CapSense_1_Processing.c **** * \param currStatus   The value with the current widget status.
1538:Generated_Source\PSoC4/CapSense_1_Processing.c **** * \param ptrFlashWdgt The pointer to the Flash Widget Object.
1539:Generated_Source\PSoC4/CapSense_1_Processing.c **** *
1540:Generated_Source\PSoC4/CapSense_1_Processing.c **** * \return
1541:Generated_Source\PSoC4/CapSense_1_Processing.c **** *  Returns the status of the proximity sensors. Each sensor is represented by two bits
1542:Generated_Source\PSoC4/CapSense_1_Processing.c **** *  that can take the following values:
1543:Generated_Source\PSoC4/CapSense_1_Processing.c **** *   - 00b not active
1544:Generated_Source\PSoC4/CapSense_1_Processing.c **** *   - 01b proximity is detected (signal is above finger threshold)
1545:Generated_Source\PSoC4/CapSense_1_Processing.c **** *   - 11b finger touch is detected (signal is above the touch threshold)
1546:Generated_Source\PSoC4/CapSense_1_Processing.c **** *
1547:Generated_Source\PSoC4/CapSense_1_Processing.c **** *******************************************************************************/
1548:Generated_Source\PSoC4/CapSense_1_Processing.c **** uint32 CapSense_1_DpProcessProximity(uint32 currStatus, CapSense_1_FLASH_WD_STRUCT const *ptrFlashW
1549:Generated_Source\PSoC4/CapSense_1_Processing.c **** {
1550:Generated_Source\PSoC4/CapSense_1_Processing.c ****     uint32 currTh;
1551:Generated_Source\PSoC4/CapSense_1_Processing.c ****     uint32 snsCnt;
1552:Generated_Source\PSoC4/CapSense_1_Processing.c ****     uint32 snsMask;
1553:Generated_Source\PSoC4/CapSense_1_Processing.c ****     uint32 newStatus;
1554:Generated_Source\PSoC4/CapSense_1_Processing.c ****     uint32 difference;
1555:Generated_Source\PSoC4/CapSense_1_Processing.c **** 
1556:Generated_Source\PSoC4/CapSense_1_Processing.c ****     uint8 *ptrDebounceCnt;
1557:Generated_Source\PSoC4/CapSense_1_Processing.c ****     CapSense_1_RAM_SNS_STRUCT *ptrSnsTmp;
1558:Generated_Source\PSoC4/CapSense_1_Processing.c ****     CapSense_1_RAM_WD_PROXIMITY_STRUCT *ptrRamWdgt;
1559:Generated_Source\PSoC4/CapSense_1_Processing.c **** 
1560:Generated_Source\PSoC4/CapSense_1_Processing.c ****     /* Mask for proximity status bits. (All odd bits.) */
1561:Generated_Source\PSoC4/CapSense_1_Processing.c ****     const uint32 proxMask = UINT32_ODD_BITS_CONST;
1562:Generated_Source\PSoC4/CapSense_1_Processing.c **** 
1563:Generated_Source\PSoC4/CapSense_1_Processing.c ****     ptrSnsTmp = ptrFlashWdgt->ptr2SnsRam;
1564:Generated_Source\PSoC4/CapSense_1_Processing.c ****     ptrRamWdgt = (CapSense_1_RAM_WD_PROXIMITY_STRUCT *)ptrFlashWdgt->ptr2WdgtRam;
1565:Generated_Source\PSoC4/CapSense_1_Processing.c ****     ptrDebounceCnt = ptrFlashWdgt->ptr2DebounceArr;
1566:Generated_Source\PSoC4/CapSense_1_Processing.c **** 
1567:Generated_Source\PSoC4/CapSense_1_Processing.c ****     /* Get number of sensors and multiply it by 2 - proximity and touch statuses per sensor. */
1568:Generated_Source\PSoC4/CapSense_1_Processing.c ****     snsCnt = (uint32)ptrFlashWdgt->totalNumSns << 1u;
1569:Generated_Source\PSoC4/CapSense_1_Processing.c **** 
1570:Generated_Source\PSoC4/CapSense_1_Processing.c ****     /* Go through all sensor's status bits */
1571:Generated_Source\PSoC4/CapSense_1_Processing.c ****     snsMask = 1Lu;
1572:Generated_Source\PSoC4/CapSense_1_Processing.c ****     for (; snsCnt-- > 0u;)
1573:Generated_Source\PSoC4/CapSense_1_Processing.c ****     {
1574:Generated_Source\PSoC4/CapSense_1_Processing.c ****         difference = ptrSnsTmp->diff;
1575:Generated_Source\PSoC4/CapSense_1_Processing.c **** 
1576:Generated_Source\PSoC4/CapSense_1_Processing.c ****         /* Determine current event (proximity - odd; touch - even) and get appropriate threshold. *
1577:Generated_Source\PSoC4/CapSense_1_Processing.c ****         currTh = ptrRamWdgt->fingerTh;
1578:Generated_Source\PSoC4/CapSense_1_Processing.c **** 
1579:Generated_Source\PSoC4/CapSense_1_Processing.c ****         if (0u == (snsMask & proxMask))
1580:Generated_Source\PSoC4/CapSense_1_Processing.c ****         {
1581:Generated_Source\PSoC4/CapSense_1_Processing.c ****             currTh = ptrRamWdgt->proxTouchTh;
ARM GAS  C:\Users\exp32\AppData\Local\Temp\ccki8209.s 			page 41


1582:Generated_Source\PSoC4/CapSense_1_Processing.c ****             ptrSnsTmp++;
1583:Generated_Source\PSoC4/CapSense_1_Processing.c ****         }
1584:Generated_Source\PSoC4/CapSense_1_Processing.c **** 
1585:Generated_Source\PSoC4/CapSense_1_Processing.c ****         /* Calculate finger threshold applying hysteresis based on current sensor state. */
1586:Generated_Source\PSoC4/CapSense_1_Processing.c ****         currTh = (0u == (currStatus & snsMask)) ? (currTh + ptrRamWdgt->hysteresis) : (currTh - ptr
1587:Generated_Source\PSoC4/CapSense_1_Processing.c **** 
1588:Generated_Source\PSoC4/CapSense_1_Processing.c ****         /* Determine new potential sensor state before de-bounce */
1589:Generated_Source\PSoC4/CapSense_1_Processing.c ****         newStatus = (difference > currTh) ? snsMask : 0Lu;
1590:Generated_Source\PSoC4/CapSense_1_Processing.c **** 
1591:Generated_Source\PSoC4/CapSense_1_Processing.c ****         /* Sensor state changed ? */
1592:Generated_Source\PSoC4/CapSense_1_Processing.c ****         if (newStatus != (currStatus & snsMask))
1593:Generated_Source\PSoC4/CapSense_1_Processing.c ****         {
1594:Generated_Source\PSoC4/CapSense_1_Processing.c ****             /* Decrement de-bounce counter */
1595:Generated_Source\PSoC4/CapSense_1_Processing.c ****             (*ptrDebounceCnt)--;
1596:Generated_Source\PSoC4/CapSense_1_Processing.c ****         }
1597:Generated_Source\PSoC4/CapSense_1_Processing.c **** 
1598:Generated_Source\PSoC4/CapSense_1_Processing.c ****         /*
1599:Generated_Source\PSoC4/CapSense_1_Processing.c ****         *  This piece of code has two objectives:
1600:Generated_Source\PSoC4/CapSense_1_Processing.c ****         *  1. Reset de-bounce counter if new sensor state has not changed.
1601:Generated_Source\PSoC4/CapSense_1_Processing.c ****         *     (It is possible that during previous processing cycles the sensor
1602:Generated_Source\PSoC4/CapSense_1_Processing.c ****         *     state was different which caused de-bounce counter change.)
1603:Generated_Source\PSoC4/CapSense_1_Processing.c ****         *  2. Set new sensor state after successful de-bounce.
1604:Generated_Source\PSoC4/CapSense_1_Processing.c ****         */
1605:Generated_Source\PSoC4/CapSense_1_Processing.c ****         if ((newStatus == (currStatus & snsMask)) || (0u == (*ptrDebounceCnt)))
1606:Generated_Source\PSoC4/CapSense_1_Processing.c ****         {
1607:Generated_Source\PSoC4/CapSense_1_Processing.c ****             /* Set new sensor status */
1608:Generated_Source\PSoC4/CapSense_1_Processing.c ****             currStatus &= ~snsMask;
1609:Generated_Source\PSoC4/CapSense_1_Processing.c ****             currStatus |= newStatus;
1610:Generated_Source\PSoC4/CapSense_1_Processing.c **** 
1611:Generated_Source\PSoC4/CapSense_1_Processing.c ****             /* Reset de-bounce counter */
1612:Generated_Source\PSoC4/CapSense_1_Processing.c ****             #if (0u != CapSense_1_OFF_DEBOUNCE_EN)
1613:Generated_Source\PSoC4/CapSense_1_Processing.c ****                 *ptrDebounceCnt = (0Lu == newStatus) ? ptrRamWdgt->onDebounce : ptrRamWdgt->offDebo
1614:Generated_Source\PSoC4/CapSense_1_Processing.c ****             #else
1615:Generated_Source\PSoC4/CapSense_1_Processing.c ****                 *ptrDebounceCnt = (0Lu == newStatus) ? ptrRamWdgt->onDebounce : DEFAULT_OFF_DEBOUNC
1616:Generated_Source\PSoC4/CapSense_1_Processing.c ****             #endif /* #if (0u != CapSense_1_OFF_DEBOUNCE_EN) */
1617:Generated_Source\PSoC4/CapSense_1_Processing.c ****         }
1618:Generated_Source\PSoC4/CapSense_1_Processing.c **** 
1619:Generated_Source\PSoC4/CapSense_1_Processing.c ****         ptrDebounceCnt++;
1620:Generated_Source\PSoC4/CapSense_1_Processing.c **** 
1621:Generated_Source\PSoC4/CapSense_1_Processing.c ****         /* Move sensor mask to the next sensor */
1622:Generated_Source\PSoC4/CapSense_1_Processing.c ****         snsMask <<= 1u;
1623:Generated_Source\PSoC4/CapSense_1_Processing.c ****     }
1624:Generated_Source\PSoC4/CapSense_1_Processing.c **** 
1625:Generated_Source\PSoC4/CapSense_1_Processing.c ****     return currStatus;
1626:Generated_Source\PSoC4/CapSense_1_Processing.c **** }
1627:Generated_Source\PSoC4/CapSense_1_Processing.c **** #endif /* (0u != CapSense_1_PROXIMITY_WIDGET_EN) */
1628:Generated_Source\PSoC4/CapSense_1_Processing.c **** 
1629:Generated_Source\PSoC4/CapSense_1_Processing.c **** 
1630:Generated_Source\PSoC4/CapSense_1_Processing.c **** #if (0u != CapSense_1_ENCODERDIAL_WIDGET_EN)
1631:Generated_Source\PSoC4/CapSense_1_Processing.c **** /*******************************************************************************
1632:Generated_Source\PSoC4/CapSense_1_Processing.c **** * Function Name: CapSense_1_DpProcessEncoderDial
1633:Generated_Source\PSoC4/CapSense_1_Processing.c **** ****************************************************************************//**
1634:Generated_Source\PSoC4/CapSense_1_Processing.c **** *
1635:Generated_Source\PSoC4/CapSense_1_Processing.c **** * \brief
1636:Generated_Source\PSoC4/CapSense_1_Processing.c **** *   Processes the status of the Encoder Dial widget.
1637:Generated_Source\PSoC4/CapSense_1_Processing.c **** *
1638:Generated_Source\PSoC4/CapSense_1_Processing.c **** * \details
ARM GAS  C:\Users\exp32\AppData\Local\Temp\ccki8209.s 			page 42


1639:Generated_Source\PSoC4/CapSense_1_Processing.c **** *   This API processes the status of the Encoder Dial Widget. It applies the
1640:Generated_Source\PSoC4/CapSense_1_Processing.c **** *   hysteresis and debounce algorithm to each sensor difference value.
1641:Generated_Source\PSoC4/CapSense_1_Processing.c **** *
1642:Generated_Source\PSoC4/CapSense_1_Processing.c **** *   This API is expected to be called after each new widget scan. If it is
1643:Generated_Source\PSoC4/CapSense_1_Processing.c **** *   called multiple times for the same scan data the debounce algorithm
1644:Generated_Source\PSoC4/CapSense_1_Processing.c **** *   will not work properly.
1645:Generated_Source\PSoC4/CapSense_1_Processing.c **** *
1646:Generated_Source\PSoC4/CapSense_1_Processing.c **** *   This function updates the position and numTurns data structure members.
1647:Generated_Source\PSoC4/CapSense_1_Processing.c **** *
1648:Generated_Source\PSoC4/CapSense_1_Processing.c **** * \param currStatus   The value with the current widget status.
1649:Generated_Source\PSoC4/CapSense_1_Processing.c **** * \param ptrFlashWdgt The pointer to the Flash Widget Object.
1650:Generated_Source\PSoC4/CapSense_1_Processing.c **** *
1651:Generated_Source\PSoC4/CapSense_1_Processing.c **** * \return Returns the 4-bit status of the widget.
1652:Generated_Source\PSoC4/CapSense_1_Processing.c **** *
1653:Generated_Source\PSoC4/CapSense_1_Processing.c **** *******************************************************************************/
1654:Generated_Source\PSoC4/CapSense_1_Processing.c **** uint32 CapSense_1_DpProcessEncoderDial(uint32 currStatus, CapSense_1_FLASH_WD_STRUCT const *ptrFlas
1655:Generated_Source\PSoC4/CapSense_1_Processing.c **** {
1656:Generated_Source\PSoC4/CapSense_1_Processing.c ****     uint32 currTh;
1657:Generated_Source\PSoC4/CapSense_1_Processing.c ****     uint32 snsCnt;
1658:Generated_Source\PSoC4/CapSense_1_Processing.c ****     uint32 snsMask;
1659:Generated_Source\PSoC4/CapSense_1_Processing.c ****     uint32 newStatus;
1660:Generated_Source\PSoC4/CapSense_1_Processing.c ****     uint32 difference;
1661:Generated_Source\PSoC4/CapSense_1_Processing.c ****     uint32 historicStatus;
1662:Generated_Source\PSoC4/CapSense_1_Processing.c **** 
1663:Generated_Source\PSoC4/CapSense_1_Processing.c ****     uint8 *ptrDebounceCnt;
1664:Generated_Source\PSoC4/CapSense_1_Processing.c ****     CapSense_1_RAM_SNS_STRUCT *ptrSnsTmp;
1665:Generated_Source\PSoC4/CapSense_1_Processing.c ****     CapSense_1_RAM_WD_ENCODERDIAL_STRUCT *ptrRamWdgt;
1666:Generated_Source\PSoC4/CapSense_1_Processing.c **** 
1667:Generated_Source\PSoC4/CapSense_1_Processing.c ****     ptrSnsTmp = ptrFlashWdgt->ptr2SnsRam;
1668:Generated_Source\PSoC4/CapSense_1_Processing.c ****     ptrRamWdgt = (CapSense_1_RAM_WD_ENCODERDIAL_STRUCT *)ptrFlashWdgt->ptr2WdgtRam;
1669:Generated_Source\PSoC4/CapSense_1_Processing.c ****     ptrDebounceCnt = ptrFlashWdgt->ptr2DebounceArr;
1670:Generated_Source\PSoC4/CapSense_1_Processing.c **** 
1671:Generated_Source\PSoC4/CapSense_1_Processing.c ****     /* Get number of sensors. */
1672:Generated_Source\PSoC4/CapSense_1_Processing.c ****     snsCnt = (uint32)ptrFlashWdgt->totalNumSns;
1673:Generated_Source\PSoC4/CapSense_1_Processing.c **** 
1674:Generated_Source\PSoC4/CapSense_1_Processing.c ****     /* Put current status in encoder history position */
1675:Generated_Source\PSoC4/CapSense_1_Processing.c ****     currStatus = currStatus & 0x3u;
1676:Generated_Source\PSoC4/CapSense_1_Processing.c ****     historicStatus = currStatus << 2u;
1677:Generated_Source\PSoC4/CapSense_1_Processing.c ****     /* Go through all sensors' status bits */
1678:Generated_Source\PSoC4/CapSense_1_Processing.c ****     snsMask = 1Lu;
1679:Generated_Source\PSoC4/CapSense_1_Processing.c ****     for (; snsCnt-- > 0u;)
1680:Generated_Source\PSoC4/CapSense_1_Processing.c ****     {
1681:Generated_Source\PSoC4/CapSense_1_Processing.c ****         difference = ptrSnsTmp->diff;
1682:Generated_Source\PSoC4/CapSense_1_Processing.c **** 
1683:Generated_Source\PSoC4/CapSense_1_Processing.c ****         /* Determine current threshold. */
1684:Generated_Source\PSoC4/CapSense_1_Processing.c ****         currTh = ptrRamWdgt->fingerTh;
1685:Generated_Source\PSoC4/CapSense_1_Processing.c **** 
1686:Generated_Source\PSoC4/CapSense_1_Processing.c ****         /* Calculate finger threshold applying hysteresis based on current sensor state. */
1687:Generated_Source\PSoC4/CapSense_1_Processing.c ****         currTh = (0u == (currStatus & snsMask)) ? (currTh + ptrRamWdgt->hysteresis) : (currTh - ptr
1688:Generated_Source\PSoC4/CapSense_1_Processing.c **** 
1689:Generated_Source\PSoC4/CapSense_1_Processing.c ****         /* Determine new potential sensor state before de-bounce */
1690:Generated_Source\PSoC4/CapSense_1_Processing.c ****         newStatus = (difference > currTh) ? snsMask : 0Lu;
1691:Generated_Source\PSoC4/CapSense_1_Processing.c **** 
1692:Generated_Source\PSoC4/CapSense_1_Processing.c ****         /* Sensor state changed ? */
1693:Generated_Source\PSoC4/CapSense_1_Processing.c ****         if (newStatus != (currStatus & snsMask))
1694:Generated_Source\PSoC4/CapSense_1_Processing.c ****         {
1695:Generated_Source\PSoC4/CapSense_1_Processing.c ****             /* Decrement de-bounce counter */
ARM GAS  C:\Users\exp32\AppData\Local\Temp\ccki8209.s 			page 43


1696:Generated_Source\PSoC4/CapSense_1_Processing.c ****             (*ptrDebounceCnt)--;
1697:Generated_Source\PSoC4/CapSense_1_Processing.c ****         }
1698:Generated_Source\PSoC4/CapSense_1_Processing.c **** 
1699:Generated_Source\PSoC4/CapSense_1_Processing.c ****         /*
1700:Generated_Source\PSoC4/CapSense_1_Processing.c ****         *  This piece of code has two objectives:
1701:Generated_Source\PSoC4/CapSense_1_Processing.c ****         *  1. Reset de-bounce counter if new sensor state has not changed.
1702:Generated_Source\PSoC4/CapSense_1_Processing.c ****         *     (It is possible that during previous processing cycles the sensor
1703:Generated_Source\PSoC4/CapSense_1_Processing.c ****         *     state was different which caused de-bounce counter change.)
1704:Generated_Source\PSoC4/CapSense_1_Processing.c ****         *  2. Set new sensor state after successful de-bounce.
1705:Generated_Source\PSoC4/CapSense_1_Processing.c ****         */
1706:Generated_Source\PSoC4/CapSense_1_Processing.c ****         if ((newStatus == (currStatus & snsMask)) || (0u == (*ptrDebounceCnt)))
1707:Generated_Source\PSoC4/CapSense_1_Processing.c ****         {
1708:Generated_Source\PSoC4/CapSense_1_Processing.c ****             /* Set new sensor status */
1709:Generated_Source\PSoC4/CapSense_1_Processing.c ****             currStatus &= ~snsMask;
1710:Generated_Source\PSoC4/CapSense_1_Processing.c ****             currStatus |= newStatus;
1711:Generated_Source\PSoC4/CapSense_1_Processing.c **** 
1712:Generated_Source\PSoC4/CapSense_1_Processing.c ****             /* Reset de-bounce counter */
1713:Generated_Source\PSoC4/CapSense_1_Processing.c ****             #if (0u != CapSense_1_OFF_DEBOUNCE_EN)
1714:Generated_Source\PSoC4/CapSense_1_Processing.c ****                 *ptrDebounceCnt = (0Lu == newStatus) ? ptrRamWdgt->onDebounce : ptrRamWdgt->offDebo
1715:Generated_Source\PSoC4/CapSense_1_Processing.c ****             #else
1716:Generated_Source\PSoC4/CapSense_1_Processing.c ****                 *ptrDebounceCnt = ptrRamWdgt->onDebounce;
1717:Generated_Source\PSoC4/CapSense_1_Processing.c ****             #endif /* #if (0u != CapSense_1_OFF_DEBOUNCE_EN) */
1718:Generated_Source\PSoC4/CapSense_1_Processing.c ****         }
1719:Generated_Source\PSoC4/CapSense_1_Processing.c **** 
1720:Generated_Source\PSoC4/CapSense_1_Processing.c ****         ptrDebounceCnt++;
1721:Generated_Source\PSoC4/CapSense_1_Processing.c **** 
1722:Generated_Source\PSoC4/CapSense_1_Processing.c ****         /* Move sensor mask to the next sensor */
1723:Generated_Source\PSoC4/CapSense_1_Processing.c ****         snsMask <<= 1u;
1724:Generated_Source\PSoC4/CapSense_1_Processing.c ****         ptrSnsTmp++;
1725:Generated_Source\PSoC4/CapSense_1_Processing.c ****     }
1726:Generated_Source\PSoC4/CapSense_1_Processing.c **** 
1727:Generated_Source\PSoC4/CapSense_1_Processing.c ****     currStatus |= historicStatus;
1728:Generated_Source\PSoC4/CapSense_1_Processing.c **** 
1729:Generated_Source\PSoC4/CapSense_1_Processing.c ****     /* Update dial position based on status */
1730:Generated_Source\PSoC4/CapSense_1_Processing.c ****     switch (currStatus)
1731:Generated_Source\PSoC4/CapSense_1_Processing.c ****     {
1732:Generated_Source\PSoC4/CapSense_1_Processing.c ****     /* Clockwise rotations */
1733:Generated_Source\PSoC4/CapSense_1_Processing.c ****     case CapSense_1_DIALTRANSITION_CW0:
1734:Generated_Source\PSoC4/CapSense_1_Processing.c ****     case CapSense_1_DIALTRANSITION_CW1:
1735:Generated_Source\PSoC4/CapSense_1_Processing.c ****     case CapSense_1_DIALTRANSITION_CW2:
1736:Generated_Source\PSoC4/CapSense_1_Processing.c ****     case CapSense_1_DIALTRANSITION_CW3:
1737:Generated_Source\PSoC4/CapSense_1_Processing.c **** 
1738:Generated_Source\PSoC4/CapSense_1_Processing.c ****         /* Decrement angle by 90/numTargs */
1739:Generated_Source\PSoC4/CapSense_1_Processing.c ****         if(ptrRamWdgt->position[0] == 0u)
1740:Generated_Source\PSoC4/CapSense_1_Processing.c ****         {
1741:Generated_Source\PSoC4/CapSense_1_Processing.c ****             ptrRamWdgt->position[0] = 0xffffu; /* Underflow without setting flag */
1742:Generated_Source\PSoC4/CapSense_1_Processing.c ****         }
1743:Generated_Source\PSoC4/CapSense_1_Processing.c ****         else
1744:Generated_Source\PSoC4/CapSense_1_Processing.c ****         {
1745:Generated_Source\PSoC4/CapSense_1_Processing.c ****             ptrRamWdgt->position[0] -= 1u;
1746:Generated_Source\PSoC4/CapSense_1_Processing.c ****         }
1747:Generated_Source\PSoC4/CapSense_1_Processing.c ****         break;
1748:Generated_Source\PSoC4/CapSense_1_Processing.c ****     /* Counterclockwise rotations */
1749:Generated_Source\PSoC4/CapSense_1_Processing.c ****     case CapSense_1_DIALTRANSITION_CCW0:
1750:Generated_Source\PSoC4/CapSense_1_Processing.c ****     case CapSense_1_DIALTRANSITION_CCW1:
1751:Generated_Source\PSoC4/CapSense_1_Processing.c ****     case CapSense_1_DIALTRANSITION_CCW2:
1752:Generated_Source\PSoC4/CapSense_1_Processing.c ****     case CapSense_1_DIALTRANSITION_CCW3:
ARM GAS  C:\Users\exp32\AppData\Local\Temp\ccki8209.s 			page 44


1753:Generated_Source\PSoC4/CapSense_1_Processing.c **** 
1754:Generated_Source\PSoC4/CapSense_1_Processing.c ****         /* Increment angle by 90/numTargs */
1755:Generated_Source\PSoC4/CapSense_1_Processing.c ****         if(ptrRamWdgt->position[0] == 0xffffu)
1756:Generated_Source\PSoC4/CapSense_1_Processing.c ****         {
1757:Generated_Source\PSoC4/CapSense_1_Processing.c ****             ptrRamWdgt->position[0] = 0u; /* Overflow without setting flag */
1758:Generated_Source\PSoC4/CapSense_1_Processing.c ****         }
1759:Generated_Source\PSoC4/CapSense_1_Processing.c ****         else
1760:Generated_Source\PSoC4/CapSense_1_Processing.c ****         {
1761:Generated_Source\PSoC4/CapSense_1_Processing.c ****             ptrRamWdgt->position[0] += 1u;
1762:Generated_Source\PSoC4/CapSense_1_Processing.c ****         }
1763:Generated_Source\PSoC4/CapSense_1_Processing.c ****         break;
1764:Generated_Source\PSoC4/CapSense_1_Processing.c ****     /* No rotation */
1765:Generated_Source\PSoC4/CapSense_1_Processing.c ****     default:
1766:Generated_Source\PSoC4/CapSense_1_Processing.c ****         break;
1767:Generated_Source\PSoC4/CapSense_1_Processing.c ****     }
1768:Generated_Source\PSoC4/CapSense_1_Processing.c ****     return currStatus;
1769:Generated_Source\PSoC4/CapSense_1_Processing.c **** }
1770:Generated_Source\PSoC4/CapSense_1_Processing.c **** #endif /* #if (0u != CapSense_1_ENCODERDIAL_WIDGET_EN) */
1771:Generated_Source\PSoC4/CapSense_1_Processing.c **** 
1772:Generated_Source\PSoC4/CapSense_1_Processing.c **** #if (0u != CapSense_1_SLIDER_WIDGET_EN)
1773:Generated_Source\PSoC4/CapSense_1_Processing.c **** /*******************************************************************************
1774:Generated_Source\PSoC4/CapSense_1_Processing.c **** * Function Name: CapSense_1_DpProcessSlider
1775:Generated_Source\PSoC4/CapSense_1_Processing.c **** ****************************************************************************//**
1776:Generated_Source\PSoC4/CapSense_1_Processing.c **** *
1777:Generated_Source\PSoC4/CapSense_1_Processing.c **** * \brief
1778:Generated_Source\PSoC4/CapSense_1_Processing.c **** *   Processes the status of the Linear/Radial Slider widget.
1779:Generated_Source\PSoC4/CapSense_1_Processing.c **** *   The process involves running the Linear/Radial Centroid algorithm.
1780:Generated_Source\PSoC4/CapSense_1_Processing.c **** *
1781:Generated_Source\PSoC4/CapSense_1_Processing.c **** * \details
1782:Generated_Source\PSoC4/CapSense_1_Processing.c **** *   This API processes the status of the CSD Slider widget (Linear and Radial).
1783:Generated_Source\PSoC4/CapSense_1_Processing.c **** *   It applies the hysteresis and de-bounce algorithm to the widget ignoring
1784:Generated_Source\PSoC4/CapSense_1_Processing.c **** *   the individual states of the sensors.
1785:Generated_Source\PSoC4/CapSense_1_Processing.c **** *
1786:Generated_Source\PSoC4/CapSense_1_Processing.c **** *   This API is expected to be called after each new widget scan. If it is
1787:Generated_Source\PSoC4/CapSense_1_Processing.c **** *   called multiple times for the same scan data, the debounce algorithm
1788:Generated_Source\PSoC4/CapSense_1_Processing.c **** *   will not work properly.
1789:Generated_Source\PSoC4/CapSense_1_Processing.c **** *
1790:Generated_Source\PSoC4/CapSense_1_Processing.c **** *   Slider widgets do not support the ON to OFF debounce.
1791:Generated_Source\PSoC4/CapSense_1_Processing.c **** *
1792:Generated_Source\PSoC4/CapSense_1_Processing.c **** *   This API does not update any Data Structure registers
1793:Generated_Source\PSoC4/CapSense_1_Processing.c **** *   except the debounce counters.
1794:Generated_Source\PSoC4/CapSense_1_Processing.c **** *
1795:Generated_Source\PSoC4/CapSense_1_Processing.c **** * \param currStatus   The current sensor status of the Slider widget.
1796:Generated_Source\PSoC4/CapSense_1_Processing.c **** * \param ptrFlashWdgt The pointer to the Flash Widget Object.
1797:Generated_Source\PSoC4/CapSense_1_Processing.c **** *
1798:Generated_Source\PSoC4/CapSense_1_Processing.c **** * \return Returns the status of the widget's sensors. Bit #0 - corresponds to Sensor #0.
1799:Generated_Source\PSoC4/CapSense_1_Processing.c **** *
1800:Generated_Source\PSoC4/CapSense_1_Processing.c **** *******************************************************************************/
1801:Generated_Source\PSoC4/CapSense_1_Processing.c **** uint32 CapSense_1_DpProcessSlider(uint32 currStatus, CapSense_1_FLASH_WD_STRUCT const *ptrFlashWdgt
1802:Generated_Source\PSoC4/CapSense_1_Processing.c **** {
 654              		.loc 1 1802 0
 655              		.cfi_startproc
 656              		@ args = 0, pretend = 0, frame = 8
 657              		@ frame_needed = 0, uses_anonymous_args = 0
 658              	.LVL108:
 659 0000 F0B5     		push	{r4, r5, r6, r7, lr}
 660              		.cfi_def_cfa_offset 20
ARM GAS  C:\Users\exp32\AppData\Local\Temp\ccki8209.s 			page 45


 661              		.cfi_offset 4, -20
 662              		.cfi_offset 5, -16
 663              		.cfi_offset 6, -12
 664              		.cfi_offset 7, -8
 665              		.cfi_offset 14, -4
 666 0002 4746     		mov	r7, r8
 667 0004 80B4     		push	{r7}
 668              		.cfi_def_cfa_offset 24
 669              		.cfi_offset 8, -24
 670 0006 82B0     		sub	sp, sp, #8
 671              		.cfi_def_cfa_offset 32
 672 0008 8446     		mov	ip, r0
 673 000a 0F00     		movs	r7, r1
 674              	.LVL109:
1803:Generated_Source\PSoC4/CapSense_1_Processing.c ****     uint32 snsCnt;
1804:Generated_Source\PSoC4/CapSense_1_Processing.c ****     uint32 snsMask;
1805:Generated_Source\PSoC4/CapSense_1_Processing.c ****     uint32 touchTh;
1806:Generated_Source\PSoC4/CapSense_1_Processing.c ****     uint32 newStatus = 0Lu;
1807:Generated_Source\PSoC4/CapSense_1_Processing.c ****     uint8 * ptrDebounceCnt;
1808:Generated_Source\PSoC4/CapSense_1_Processing.c ****     CapSense_1_RAM_SNS_STRUCT *ptrSnsTmp;
1809:Generated_Source\PSoC4/CapSense_1_Processing.c ****     CapSense_1_RAM_WD_SLIDER_STRUCT *ptrRamWdgt;
1810:Generated_Source\PSoC4/CapSense_1_Processing.c **** 
1811:Generated_Source\PSoC4/CapSense_1_Processing.c ****     #if (0u != CapSense_1_POSITION_FILTER_EN)
1812:Generated_Source\PSoC4/CapSense_1_Processing.c ****         CapSense_1_SLIDER_POS_HISTORY_STRUCT *ptrHistory;
1813:Generated_Source\PSoC4/CapSense_1_Processing.c ****     #endif /* #if (0u != CapSense_1_POSITION_FILTER_EN) */
1814:Generated_Source\PSoC4/CapSense_1_Processing.c **** 
1815:Generated_Source\PSoC4/CapSense_1_Processing.c ****     uint32 touchIdx;
1816:Generated_Source\PSoC4/CapSense_1_Processing.c ****     uint32 touchCnt = 0Lu;
1817:Generated_Source\PSoC4/CapSense_1_Processing.c ****     uint16 newPos[CapSense_1_NUM_CENTROIDS];
1818:Generated_Source\PSoC4/CapSense_1_Processing.c **** 
1819:Generated_Source\PSoC4/CapSense_1_Processing.c ****     snsCnt = ptrFlashWdgt->totalNumSns;
 675              		.loc 1 1819 0
 676 000c 0B8B     		ldrh	r3, [r1, #24]
 677              	.LVL110:
1820:Generated_Source\PSoC4/CapSense_1_Processing.c ****     ptrSnsTmp = ptrFlashWdgt->ptr2SnsRam;
 678              		.loc 1 1820 0
 679 000e 8A68     		ldr	r2, [r1, #8]
 680              	.LVL111:
1821:Generated_Source\PSoC4/CapSense_1_Processing.c ****     ptrRamWdgt = (CapSense_1_RAM_WD_SLIDER_STRUCT *)ptrFlashWdgt->ptr2WdgtRam;
 681              		.loc 1 1821 0
 682 0010 4D68     		ldr	r5, [r1, #4]
 683              	.LVL112:
1822:Generated_Source\PSoC4/CapSense_1_Processing.c ****     ptrDebounceCnt = ptrFlashWdgt->ptr2DebounceArr;
 684              		.loc 1 1822 0
 685 0012 0969     		ldr	r1, [r1, #16]
 686              	.LVL113:
 687 0014 8846     		mov	r8, r1
 688              	.LVL114:
1823:Generated_Source\PSoC4/CapSense_1_Processing.c **** 
1824:Generated_Source\PSoC4/CapSense_1_Processing.c ****     #if (0u != CapSense_1_POSITION_FILTER_EN)
1825:Generated_Source\PSoC4/CapSense_1_Processing.c ****         ptrHistory = ptrFlashWdgt->ptr2PosHistory;
1826:Generated_Source\PSoC4/CapSense_1_Processing.c ****     #endif /* #if (0u != CapSense_1_POSITION_FILTER_EN) */
1827:Generated_Source\PSoC4/CapSense_1_Processing.c **** 
1828:Generated_Source\PSoC4/CapSense_1_Processing.c ****     /* Calculate touch threshold based on current slider state */
1829:Generated_Source\PSoC4/CapSense_1_Processing.c ****     touchTh = (0Lu == currStatus ) ?
1830:Generated_Source\PSoC4/CapSense_1_Processing.c ****               ((uint32)ptrRamWdgt->fingerTh + ptrRamWdgt->hysteresis) :
 689              		.loc 1 1830 0
ARM GAS  C:\Users\exp32\AppData\Local\Temp\ccki8209.s 			page 46


 690 0016 0028     		cmp	r0, #0
 691 0018 03D1     		bne	.L42
 692              		.loc 1 1830 0 is_stmt 0 discriminator 1
 693 001a 6888     		ldrh	r0, [r5, #2]
 694              	.LVL115:
 695 001c A979     		ldrb	r1, [r5, #6]
 696              	.LVL116:
 697 001e 4018     		adds	r0, r0, r1
 698 0020 02E0     		b	.L43
 699              	.LVL117:
 700              	.L42:
1831:Generated_Source\PSoC4/CapSense_1_Processing.c ****               ((uint32)ptrRamWdgt->fingerTh - ptrRamWdgt->hysteresis);
 701              		.loc 1 1831 0 is_stmt 1 discriminator 2
 702 0022 6988     		ldrh	r1, [r5, #2]
 703              	.LVL118:
 704 0024 A879     		ldrb	r0, [r5, #6]
 705              	.LVL119:
1830:Generated_Source\PSoC4/CapSense_1_Processing.c ****               ((uint32)ptrRamWdgt->fingerTh - ptrRamWdgt->hysteresis);
 706              		.loc 1 1830 0 discriminator 2
 707 0026 081A     		subs	r0, r1, r0
 708              	.L43:
 709              	.LVL120:
1806:Generated_Source\PSoC4/CapSense_1_Processing.c ****     uint8 * ptrDebounceCnt;
 710              		.loc 1 1806 0
 711 0028 0024     		movs	r4, #0
1832:Generated_Source\PSoC4/CapSense_1_Processing.c **** 
1833:Generated_Source\PSoC4/CapSense_1_Processing.c ****     /* Go through all widget's sensors */
1834:Generated_Source\PSoC4/CapSense_1_Processing.c ****     snsMask = 1Lu;
 712              		.loc 1 1834 0
 713 002a 0121     		movs	r1, #1
1835:Generated_Source\PSoC4/CapSense_1_Processing.c ****     for (; snsCnt-- > 0Lu; )
 714              		.loc 1 1835 0
 715 002c 09E0     		b	.L44
 716              	.LVL121:
 717              	.L46:
1836:Generated_Source\PSoC4/CapSense_1_Processing.c ****     {
1837:Generated_Source\PSoC4/CapSense_1_Processing.c ****         /* Determine new potential sensor state */
1838:Generated_Source\PSoC4/CapSense_1_Processing.c ****         newStatus |= (ptrSnsTmp->diff > touchTh) ? snsMask : 0Lu;
 718              		.loc 1 1838 0
 719 002e D388     		ldrh	r3, [r2, #6]
 720 0030 9842     		cmp	r0, r3
 721 0032 01D3     		bcc	.L56
 722 0034 0023     		movs	r3, #0
 723 0036 00E0     		b	.L45
 724              	.L56:
 725 0038 0B00     		movs	r3, r1
 726              	.L45:
 727              		.loc 1 1838 0 is_stmt 0 discriminator 4
 728 003a 1C43     		orrs	r4, r3
 729              	.LVL122:
1839:Generated_Source\PSoC4/CapSense_1_Processing.c ****         ptrSnsTmp++;
 730              		.loc 1 1839 0 is_stmt 1 discriminator 4
 731 003c 0A32     		adds	r2, r2, #10
 732              	.LVL123:
1840:Generated_Source\PSoC4/CapSense_1_Processing.c **** 
1841:Generated_Source\PSoC4/CapSense_1_Processing.c ****         snsMask <<= 1u;
 733              		.loc 1 1841 0 discriminator 4
ARM GAS  C:\Users\exp32\AppData\Local\Temp\ccki8209.s 			page 47


 734 003e 4900     		lsls	r1, r1, #1
 735              	.LVL124:
1835:Generated_Source\PSoC4/CapSense_1_Processing.c ****     {
 736              		.loc 1 1835 0 discriminator 4
 737 0040 3300     		movs	r3, r6
 738              	.LVL125:
 739              	.L44:
1835:Generated_Source\PSoC4/CapSense_1_Processing.c ****     {
 740              		.loc 1 1835 0 is_stmt 0
 741 0042 5E1E     		subs	r6, r3, #1
 742              	.LVL126:
 743 0044 002B     		cmp	r3, #0
 744 0046 F2D1     		bne	.L46
1842:Generated_Source\PSoC4/CapSense_1_Processing.c ****     }
1843:Generated_Source\PSoC4/CapSense_1_Processing.c **** 
1844:Generated_Source\PSoC4/CapSense_1_Processing.c ****     /* If widget is active, check whether debounce is needed */
1845:Generated_Source\PSoC4/CapSense_1_Processing.c ****     if (0Lu != newStatus)
 745              		.loc 1 1845 0 is_stmt 1
 746 0048 002C     		cmp	r4, #0
 747 004a 0CD0     		beq	.L47
1846:Generated_Source\PSoC4/CapSense_1_Processing.c ****     {
1847:Generated_Source\PSoC4/CapSense_1_Processing.c ****         if (0u < (*ptrDebounceCnt))
 748              		.loc 1 1847 0
 749 004c 4346     		mov	r3, r8
 750 004e 1B78     		ldrb	r3, [r3]
 751 0050 002B     		cmp	r3, #0
 752 0052 02D0     		beq	.L48
1848:Generated_Source\PSoC4/CapSense_1_Processing.c ****         {
1849:Generated_Source\PSoC4/CapSense_1_Processing.c ****             /* Decrement debounce counter */
1850:Generated_Source\PSoC4/CapSense_1_Processing.c ****             (*ptrDebounceCnt)--;
 753              		.loc 1 1850 0
 754 0054 013B     		subs	r3, r3, #1
 755 0056 4246     		mov	r2, r8
 756              	.LVL127:
 757 0058 1370     		strb	r3, [r2]
 758              	.L48:
1851:Generated_Source\PSoC4/CapSense_1_Processing.c ****         }
1852:Generated_Source\PSoC4/CapSense_1_Processing.c **** 
1853:Generated_Source\PSoC4/CapSense_1_Processing.c ****         if (0u == (*ptrDebounceCnt))
 759              		.loc 1 1853 0
 760 005a 4346     		mov	r3, r8
 761 005c 1B78     		ldrb	r3, [r3]
 762 005e 002B     		cmp	r3, #0
 763 0060 04D0     		beq	.L49
 764 0062 6446     		mov	r4, ip
 765              	.LVL128:
 766 0064 02E0     		b	.L49
 767              	.LVL129:
 768              	.L47:
1854:Generated_Source\PSoC4/CapSense_1_Processing.c ****         {
1855:Generated_Source\PSoC4/CapSense_1_Processing.c ****             /* Update slider sensor state when debounce completes */
1856:Generated_Source\PSoC4/CapSense_1_Processing.c ****             currStatus = newStatus;
1857:Generated_Source\PSoC4/CapSense_1_Processing.c ****         }
1858:Generated_Source\PSoC4/CapSense_1_Processing.c ****     }
1859:Generated_Source\PSoC4/CapSense_1_Processing.c ****     else
1860:Generated_Source\PSoC4/CapSense_1_Processing.c ****     {
1861:Generated_Source\PSoC4/CapSense_1_Processing.c ****         /* Reset debounce counter */
ARM GAS  C:\Users\exp32\AppData\Local\Temp\ccki8209.s 			page 48


1862:Generated_Source\PSoC4/CapSense_1_Processing.c ****         *ptrDebounceCnt = ptrRamWdgt->onDebounce;
 769              		.loc 1 1862 0
 770 0066 EB79     		ldrb	r3, [r5, #7]
 771 0068 4246     		mov	r2, r8
 772              	.LVL130:
 773 006a 1370     		strb	r3, [r2]
 774              	.LVL131:
 775              	.L49:
1863:Generated_Source\PSoC4/CapSense_1_Processing.c **** 
1864:Generated_Source\PSoC4/CapSense_1_Processing.c ****         /* Clear slider sensor state */
1865:Generated_Source\PSoC4/CapSense_1_Processing.c ****         currStatus = 0Lu;
1866:Generated_Source\PSoC4/CapSense_1_Processing.c ****     }
1867:Generated_Source\PSoC4/CapSense_1_Processing.c **** 
1868:Generated_Source\PSoC4/CapSense_1_Processing.c ****     /* Centroid processing */
1869:Generated_Source\PSoC4/CapSense_1_Processing.c ****     /* If there are active sensors after debounce run the centroid algorithm */
1870:Generated_Source\PSoC4/CapSense_1_Processing.c ****     if (0u != currStatus)
 776              		.loc 1 1870 0
 777 006c 002C     		cmp	r4, #0
 778 006e 0AD0     		beq	.L57
1871:Generated_Source\PSoC4/CapSense_1_Processing.c ****     {
1872:Generated_Source\PSoC4/CapSense_1_Processing.c ****         /* Centroid always uses the lowest finger threshold (minus hysteresis)
1873:Generated_Source\PSoC4/CapSense_1_Processing.c ****          * to produce same results for first and all consecutive invocations */
1874:Generated_Source\PSoC4/CapSense_1_Processing.c ****         touchTh = (uint32)ptrRamWdgt->fingerTh - ptrRamWdgt->hysteresis;
 779              		.loc 1 1874 0
 780 0070 6B88     		ldrh	r3, [r5, #2]
 781 0072 AA79     		ldrb	r2, [r5, #6]
 782 0074 9A1A     		subs	r2, r3, r2
 783              	.LVL132:
1875:Generated_Source\PSoC4/CapSense_1_Processing.c ****         snsCnt = ptrFlashWdgt->totalNumSns;
 784              		.loc 1 1875 0
 785 0076 3E8B     		ldrh	r6, [r7, #24]
 786              	.LVL133:
1876:Generated_Source\PSoC4/CapSense_1_Processing.c **** 
1877:Generated_Source\PSoC4/CapSense_1_Processing.c ****         #if (0u != CapSense_1_TOTAL_DIPLEXED_SLIDERS)
1878:Generated_Source\PSoC4/CapSense_1_Processing.c ****             if ((0u != (ptrFlashWdgt->staticConfig & CapSense_1_DIPLEXING_MASK)))
1879:Generated_Source\PSoC4/CapSense_1_Processing.c ****             {
1880:Generated_Source\PSoC4/CapSense_1_Processing.c ****                 /* Run local maximum search for duplexed slider */
1881:Generated_Source\PSoC4/CapSense_1_Processing.c ****                 touchCnt = CapSense_1_DpFindLocalMaxDiplex(
1882:Generated_Source\PSoC4/CapSense_1_Processing.c ****                                 ptrFlashWdgt->ptr2SnsRam, snsCnt, ptrFlashWdgt->ptr2DiplexTable, to
1883:Generated_Source\PSoC4/CapSense_1_Processing.c **** 
1884:Generated_Source\PSoC4/CapSense_1_Processing.c ****                 /* Centroid calculation API requires double sensor count for the diplexed sliders. 
1885:Generated_Source\PSoC4/CapSense_1_Processing.c ****                 snsCnt *= 2u;
1886:Generated_Source\PSoC4/CapSense_1_Processing.c ****             }
1887:Generated_Source\PSoC4/CapSense_1_Processing.c ****             else
1888:Generated_Source\PSoC4/CapSense_1_Processing.c ****             {
1889:Generated_Source\PSoC4/CapSense_1_Processing.c ****                 /* Run local maximum search for NON-duplexed slider */
1890:Generated_Source\PSoC4/CapSense_1_Processing.c ****                 #if (CapSense_1_ENABLE == CapSense_1_4PTS_LOCAL_MAX_EN)
1891:Generated_Source\PSoC4/CapSense_1_Processing.c ****                     touchCnt = CapSense_1_DpFindLocalMaxSd4pts(ptrFlashWdgt, ptrFlashWdgt->ptr2SnsR
1892:Generated_Source\PSoC4/CapSense_1_Processing.c ****                 #else
1893:Generated_Source\PSoC4/CapSense_1_Processing.c ****                     touchCnt = CapSense_1_DpFindLocalMaxSd(ptrFlashWdgt->ptr2SnsRam, snsCnt, touchT
1894:Generated_Source\PSoC4/CapSense_1_Processing.c ****                 #endif
1895:Generated_Source\PSoC4/CapSense_1_Processing.c ****             }
1896:Generated_Source\PSoC4/CapSense_1_Processing.c ****         #else
1897:Generated_Source\PSoC4/CapSense_1_Processing.c ****             /* Run local maximum search for NON-duplexed slider */
1898:Generated_Source\PSoC4/CapSense_1_Processing.c ****             #if (CapSense_1_ENABLE == CapSense_1_4PTS_LOCAL_MAX_EN)
1899:Generated_Source\PSoC4/CapSense_1_Processing.c ****                 touchCnt = CapSense_1_DpFindLocalMaxSd4pts(ptrFlashWdgt, ptrFlashWdgt->ptr2SnsRam, 
1900:Generated_Source\PSoC4/CapSense_1_Processing.c ****             #else
ARM GAS  C:\Users\exp32\AppData\Local\Temp\ccki8209.s 			page 49


1901:Generated_Source\PSoC4/CapSense_1_Processing.c ****                 touchCnt = CapSense_1_DpFindLocalMaxSd(ptrFlashWdgt->ptr2SnsRam, snsCnt, touchTh);
 787              		.loc 1 1901 0
 788 0078 3100     		movs	r1, r6
 789              	.LVL134:
 790 007a B868     		ldr	r0, [r7, #8]
 791 007c FFF7FEFF 		bl	CapSense_1_DpFindLocalMaxSd
 792              	.LVL135:
1902:Generated_Source\PSoC4/CapSense_1_Processing.c ****             #endif
1903:Generated_Source\PSoC4/CapSense_1_Processing.c ****         #endif /* #if (0u != CapSense_1_TOTAL_DIPLEXED_SLIDERS) */
1904:Generated_Source\PSoC4/CapSense_1_Processing.c **** 
1905:Generated_Source\PSoC4/CapSense_1_Processing.c ****         /* If at least one touch is detected */
1906:Generated_Source\PSoC4/CapSense_1_Processing.c ****         if (0u != touchCnt)
 793              		.loc 1 1906 0
 794 0080 0028     		cmp	r0, #0
 795 0082 02D1     		bne	.L51
 796 0084 23E0     		b	.L52
 797              	.LVL136:
 798              	.L57:
1816:Generated_Source\PSoC4/CapSense_1_Processing.c ****     uint16 newPos[CapSense_1_NUM_CENTROIDS];
 799              		.loc 1 1816 0
 800 0086 0020     		movs	r0, #0
 801              	.LVL137:
 802 0088 21E0     		b	.L52
 803              	.LVL138:
 804              	.L51:
1907:Generated_Source\PSoC4/CapSense_1_Processing.c ****         {
1908:Generated_Source\PSoC4/CapSense_1_Processing.c ****             /* Determine slider type and calculate new position(s) */
1909:Generated_Source\PSoC4/CapSense_1_Processing.c ****             #if (0u != CapSense_1_TOTAL_LINEAR_SLIDERS)
1910:Generated_Source\PSoC4/CapSense_1_Processing.c ****                 if ((CapSense_1_WD_TYPE_ENUM)ptrFlashWdgt->wdgtType == CapSense_1_WD_LINEAR_SLIDER_
 805              		.loc 1 1910 0
 806 008a BB7E     		ldrb	r3, [r7, #26]
 807 008c 022B     		cmp	r3, #2
 808 008e 1ED1     		bne	.L52
1911:Generated_Source\PSoC4/CapSense_1_Processing.c ****                 {
1912:Generated_Source\PSoC4/CapSense_1_Processing.c ****                     #if (CapSense_1_ENABLE == CapSense_1_SLIDER_MULT_METHOD)
1913:Generated_Source\PSoC4/CapSense_1_Processing.c ****                         touchCnt = CapSense_1_DpCalcLinearCentroid(newPos, (uint32)ptrFlashWdgt->xC
1914:Generated_Source\PSoC4/CapSense_1_Processing.c ****                                     snsCnt, (uint32)(ptrFlashWdgt->xCentroidMultiplier >> 1));
1915:Generated_Source\PSoC4/CapSense_1_Processing.c ****                     #else
1916:Generated_Source\PSoC4/CapSense_1_Processing.c ****                         touchCnt = CapSense_1_DpCalcLinearCentroid(
1917:Generated_Source\PSoC4/CapSense_1_Processing.c ****                                         newPos, (uint32)ptrFlashWdgt->xCentroidMultiplier, snsCnt, 
 809              		.loc 1 1917 0
 810 0090 796A     		ldr	r1, [r7, #36]
1916:Generated_Source\PSoC4/CapSense_1_Processing.c ****                                         newPos, (uint32)ptrFlashWdgt->xCentroidMultiplier, snsCnt, 
 811              		.loc 1 1916 0
 812 0092 0023     		movs	r3, #0
 813 0094 3200     		movs	r2, r6
 814 0096 01A8     		add	r0, sp, #4
 815              	.LVL139:
 816 0098 FFF7FEFF 		bl	CapSense_1_DpCalcLinearCentroid
 817              	.LVL140:
 818              	.LBB12:
 819              	.LBB13:
1918:Generated_Source\PSoC4/CapSense_1_Processing.c ****                     #endif
1919:Generated_Source\PSoC4/CapSense_1_Processing.c ****                     DpUpdateLinSlider(newPos, touchCnt, ptrFlashWdgt, ptrRamWdgt);
1920:Generated_Source\PSoC4/CapSense_1_Processing.c ****                 }
1921:Generated_Source\PSoC4/CapSense_1_Processing.c ****             #endif /* #if (0u != CapSense_1_TOTAL_LINEAR_SLIDERS) */
1922:Generated_Source\PSoC4/CapSense_1_Processing.c **** 
ARM GAS  C:\Users\exp32\AppData\Local\Temp\ccki8209.s 			page 50


1923:Generated_Source\PSoC4/CapSense_1_Processing.c ****             #if (0u != CapSense_1_TOTAL_RADIAL_SLIDERS)
1924:Generated_Source\PSoC4/CapSense_1_Processing.c ****                 if ((CapSense_1_WD_TYPE_ENUM)ptrFlashWdgt->wdgtType == CapSense_1_WD_RADIAL_SLIDER_
1925:Generated_Source\PSoC4/CapSense_1_Processing.c ****                 {
1926:Generated_Source\PSoC4/CapSense_1_Processing.c ****                     touchCnt = CapSense_1_DpCalcRadialCentroid(
1927:Generated_Source\PSoC4/CapSense_1_Processing.c ****                                     newPos, (uint32)ptrFlashWdgt->xCentroidMultiplier, snsCnt);
1928:Generated_Source\PSoC4/CapSense_1_Processing.c ****                     DpUpdateRadSlider(newPos, touchCnt, ptrFlashWdgt, ptrRamWdgt);
1929:Generated_Source\PSoC4/CapSense_1_Processing.c ****                 }
1930:Generated_Source\PSoC4/CapSense_1_Processing.c ****             #endif /* #if (0u != CapSense_1_TOTAL_RADIAL_SLIDERS) */
1931:Generated_Source\PSoC4/CapSense_1_Processing.c ****         }
1932:Generated_Source\PSoC4/CapSense_1_Processing.c ****     }
1933:Generated_Source\PSoC4/CapSense_1_Processing.c **** 
1934:Generated_Source\PSoC4/CapSense_1_Processing.c ****     /* Clear not active position data slots */
1935:Generated_Source\PSoC4/CapSense_1_Processing.c ****     for (touchIdx = touchCnt; touchIdx < CapSense_1_NUM_CENTROIDS; touchIdx++)
1936:Generated_Source\PSoC4/CapSense_1_Processing.c ****     {
1937:Generated_Source\PSoC4/CapSense_1_Processing.c ****         ptrRamWdgt->position[touchIdx] = CapSense_1_SLIDER_POS_NONE;
1938:Generated_Source\PSoC4/CapSense_1_Processing.c **** 
1939:Generated_Source\PSoC4/CapSense_1_Processing.c ****         #if (0u != CapSense_1_POSITION_FILTER_EN)
1940:Generated_Source\PSoC4/CapSense_1_Processing.c ****             if (NULL != ptrHistory)
1941:Generated_Source\PSoC4/CapSense_1_Processing.c ****             {
1942:Generated_Source\PSoC4/CapSense_1_Processing.c ****                 CapSense_1_InitPosFiltersSd(&ptrHistory[touchIdx], CapSense_1_SLIDER_POS_NONE);
1943:Generated_Source\PSoC4/CapSense_1_Processing.c ****             }
1944:Generated_Source\PSoC4/CapSense_1_Processing.c ****         #endif /* #if (0u != CapSense_1_POSITION_FILTER_EN) */
1945:Generated_Source\PSoC4/CapSense_1_Processing.c ****     }
1946:Generated_Source\PSoC4/CapSense_1_Processing.c **** 
1947:Generated_Source\PSoC4/CapSense_1_Processing.c ****     return currStatus;
1948:Generated_Source\PSoC4/CapSense_1_Processing.c **** }
1949:Generated_Source\PSoC4/CapSense_1_Processing.c **** #endif /* #if (0u != CapSense_1_SLIDER_WIDGET_EN) */
1950:Generated_Source\PSoC4/CapSense_1_Processing.c **** 
1951:Generated_Source\PSoC4/CapSense_1_Processing.c **** #if (0u != CapSense_1_TOTAL_LINEAR_SLIDERS)
1952:Generated_Source\PSoC4/CapSense_1_Processing.c **** /*******************************************************************************
1953:Generated_Source\PSoC4/CapSense_1_Processing.c **** * Function Name: DpUpdateLinSlider
1954:Generated_Source\PSoC4/CapSense_1_Processing.c **** ****************************************************************************//**
1955:Generated_Source\PSoC4/CapSense_1_Processing.c **** *
1956:Generated_Source\PSoC4/CapSense_1_Processing.c **** * \brief
1957:Generated_Source\PSoC4/CapSense_1_Processing.c **** *   Updates the touch status of the Linear Slider widget.
1958:Generated_Source\PSoC4/CapSense_1_Processing.c **** *
1959:Generated_Source\PSoC4/CapSense_1_Processing.c **** * \details
1960:Generated_Source\PSoC4/CapSense_1_Processing.c **** *   This function updates the position data of the Linear Slider
1961:Generated_Source\PSoC4/CapSense_1_Processing.c **** *   in the Data Structure. Also, this function runs position filters for the
1962:Generated_Source\PSoC4/CapSense_1_Processing.c **** *   position data if any enabled.
1963:Generated_Source\PSoC4/CapSense_1_Processing.c **** *
1964:Generated_Source\PSoC4/CapSense_1_Processing.c **** * \param newPos       The pointer to the array with the new finger position coordinates.
1965:Generated_Source\PSoC4/CapSense_1_Processing.c **** * \param numTouches   The number of the coordinates in the newPos array.
1966:Generated_Source\PSoC4/CapSense_1_Processing.c **** * \param ptrFlashWdgt The pointer to the Flash Widget Object.
1967:Generated_Source\PSoC4/CapSense_1_Processing.c **** * \param ptrRamWdgt   The pointer to the RAM Widget Object.
1968:Generated_Source\PSoC4/CapSense_1_Processing.c **** *
1969:Generated_Source\PSoC4/CapSense_1_Processing.c **** *******************************************************************************/
1970:Generated_Source\PSoC4/CapSense_1_Processing.c **** static CY_INLINE void DpUpdateLinSlider(
1971:Generated_Source\PSoC4/CapSense_1_Processing.c ****                         const uint16 newPos[],
1972:Generated_Source\PSoC4/CapSense_1_Processing.c ****                         uint32 numTouches,
1973:Generated_Source\PSoC4/CapSense_1_Processing.c ****                         CapSense_1_FLASH_WD_STRUCT const *ptrFlashWdgt,
1974:Generated_Source\PSoC4/CapSense_1_Processing.c ****                         CapSense_1_RAM_WD_SLIDER_STRUCT *ptrRamWdgt)
1975:Generated_Source\PSoC4/CapSense_1_Processing.c **** {
1976:Generated_Source\PSoC4/CapSense_1_Processing.c ****     uint32 touchIdx;
1977:Generated_Source\PSoC4/CapSense_1_Processing.c **** 
1978:Generated_Source\PSoC4/CapSense_1_Processing.c ****     #if (0u != CapSense_1_POS_AVERAGE_FILTER_EN)
1979:Generated_Source\PSoC4/CapSense_1_Processing.c ****         uint16 tempPosition;
ARM GAS  C:\Users\exp32\AppData\Local\Temp\ccki8209.s 			page 51


1980:Generated_Source\PSoC4/CapSense_1_Processing.c ****     #endif /* (0u != CapSense_1_POS_AVERAGE_FILTER_EN) */
1981:Generated_Source\PSoC4/CapSense_1_Processing.c **** 
1982:Generated_Source\PSoC4/CapSense_1_Processing.c ****     #if (0u == CapSense_1_POSITION_FILTER_EN)
1983:Generated_Source\PSoC4/CapSense_1_Processing.c ****         /* This parameter is unused in such configurations */
1984:Generated_Source\PSoC4/CapSense_1_Processing.c ****         (void)ptrFlashWdgt;
1985:Generated_Source\PSoC4/CapSense_1_Processing.c ****     #else
1986:Generated_Source\PSoC4/CapSense_1_Processing.c ****         uint16 filteredPosition;
1987:Generated_Source\PSoC4/CapSense_1_Processing.c ****         /* Get bitmask with the enabled filters */
1988:Generated_Source\PSoC4/CapSense_1_Processing.c ****         uint32 filterConfig = (uint32)ptrFlashWdgt->staticConfig;
1989:Generated_Source\PSoC4/CapSense_1_Processing.c ****         /* Get pointer to the position filter history */
1990:Generated_Source\PSoC4/CapSense_1_Processing.c ****         CapSense_1_SLIDER_POS_HISTORY_STRUCT *ptrHistory = ptrFlashWdgt->ptr2PosHistory;
1991:Generated_Source\PSoC4/CapSense_1_Processing.c ****     #endif /* #if (0u == CapSense_1_POSITION_FILTER_EN) */
1992:Generated_Source\PSoC4/CapSense_1_Processing.c **** 
1993:Generated_Source\PSoC4/CapSense_1_Processing.c ****     #if (0u != CapSense_1_POS_ADAPTIVE_IIR_FILTER_EN)
1994:Generated_Source\PSoC4/CapSense_1_Processing.c ****         ADAPTIVE_FILTER_CONTEXT_STRUCT contextAIIR;
1995:Generated_Source\PSoC4/CapSense_1_Processing.c ****         uint16 emptyPosition = 0;
1996:Generated_Source\PSoC4/CapSense_1_Processing.c ****     #endif /* (0u != CapSense_1_POS_ADAPTIVE_IIR_FILTER_EN) */
1997:Generated_Source\PSoC4/CapSense_1_Processing.c **** 
1998:Generated_Source\PSoC4/CapSense_1_Processing.c ****     /* Run Filter and update the position registers with the filtered data */
1999:Generated_Source\PSoC4/CapSense_1_Processing.c ****     for (touchIdx = 0u; touchIdx < numTouches; touchIdx++)
 820              		.loc 1 1999 0
 821 009c 0022     		movs	r2, #0
 822 009e 0BE0     		b	.L53
 823              	.LVL141:
 824              	.L54:
2000:Generated_Source\PSoC4/CapSense_1_Processing.c ****     {
2001:Generated_Source\PSoC4/CapSense_1_Processing.c ****         #if (0u == CapSense_1_POSITION_FILTER_EN)
2002:Generated_Source\PSoC4/CapSense_1_Processing.c ****             /* If filters are not enabled just copy the position data */
2003:Generated_Source\PSoC4/CapSense_1_Processing.c ****             ptrRamWdgt->position[touchIdx] = newPos[touchIdx];
 825              		.loc 1 2003 0
 826 00a0 5300     		lsls	r3, r2, #1
 827 00a2 02A9     		add	r1, sp, #8
 828 00a4 8C46     		mov	ip, r1
 829 00a6 6344     		add	r3, r3, ip
 830 00a8 043B     		subs	r3, r3, #4
 831 00aa 1988     		ldrh	r1, [r3]
 832 00ac 1300     		movs	r3, r2
 833 00ae 0833     		adds	r3, r3, #8
 834 00b0 5B00     		lsls	r3, r3, #1
 835 00b2 EB18     		adds	r3, r5, r3
 836 00b4 D980     		strh	r1, [r3, #6]
1999:Generated_Source\PSoC4/CapSense_1_Processing.c ****     {
 837              		.loc 1 1999 0
 838 00b6 0132     		adds	r2, r2, #1
 839              	.LVL142:
 840              	.L53:
 841 00b8 9042     		cmp	r0, r2
 842 00ba F1D8     		bhi	.L54
 843 00bc 07E0     		b	.L52
 844              	.LVL143:
 845              	.L55:
 846              	.LBE13:
 847              	.LBE12:
1937:Generated_Source\PSoC4/CapSense_1_Processing.c **** 
 848              		.loc 1 1937 0 discriminator 3
 849 00be 0300     		movs	r3, r0
 850 00c0 0833     		adds	r3, r3, #8
ARM GAS  C:\Users\exp32\AppData\Local\Temp\ccki8209.s 			page 52


 851 00c2 5B00     		lsls	r3, r3, #1
 852 00c4 EB18     		adds	r3, r5, r3
 853 00c6 0122     		movs	r2, #1
 854 00c8 5242     		rsbs	r2, r2, #0
 855 00ca DA80     		strh	r2, [r3, #6]
1935:Generated_Source\PSoC4/CapSense_1_Processing.c ****     {
 856              		.loc 1 1935 0 discriminator 3
 857 00cc 0130     		adds	r0, r0, #1
 858              	.LVL144:
 859              	.L52:
1935:Generated_Source\PSoC4/CapSense_1_Processing.c ****     {
 860              		.loc 1 1935 0 is_stmt 0 discriminator 1
 861 00ce 0028     		cmp	r0, #0
 862 00d0 F5D0     		beq	.L55
1948:Generated_Source\PSoC4/CapSense_1_Processing.c **** #endif /* #if (0u != CapSense_1_SLIDER_WIDGET_EN) */
 863              		.loc 1 1948 0 is_stmt 1
 864 00d2 2000     		movs	r0, r4
 865              	.LVL145:
 866 00d4 02B0     		add	sp, sp, #8
 867              		@ sp needed
 868              	.LVL146:
 869              	.LVL147:
 870              	.LVL148:
 871              	.LVL149:
 872              	.LVL150:
 873 00d6 04BC     		pop	{r2}
 874 00d8 9046     		mov	r8, r2
 875 00da F0BD     		pop	{r4, r5, r6, r7, pc}
 876              		.cfi_endproc
 877              	.LFE10:
 878              		.size	CapSense_1_DpProcessSlider, .-CapSense_1_DpProcessSlider
 879              		.section	.text.CapSense_1_DpProcessCsdTouchpad,"ax",%progbits
 880              		.align	2
 881              		.global	CapSense_1_DpProcessCsdTouchpad
 882              		.code	16
 883              		.thumb_func
 884              		.type	CapSense_1_DpProcessCsdTouchpad, %function
 885              	CapSense_1_DpProcessCsdTouchpad:
 886              	.LFB12:
2004:Generated_Source\PSoC4/CapSense_1_Processing.c ****         #else
2005:Generated_Source\PSoC4/CapSense_1_Processing.c ****             filteredPosition = newPos[touchIdx];
2006:Generated_Source\PSoC4/CapSense_1_Processing.c **** 
2007:Generated_Source\PSoC4/CapSense_1_Processing.c ****             /* If there were no touch initialize the current position with new position data */
2008:Generated_Source\PSoC4/CapSense_1_Processing.c ****             if (ptrRamWdgt->position[touchIdx] == CapSense_1_SLIDER_POS_NONE)
2009:Generated_Source\PSoC4/CapSense_1_Processing.c ****             {
2010:Generated_Source\PSoC4/CapSense_1_Processing.c ****                 CapSense_1_InitPosFiltersSd(ptrHistory, filteredPosition);
2011:Generated_Source\PSoC4/CapSense_1_Processing.c ****             }
2012:Generated_Source\PSoC4/CapSense_1_Processing.c ****             else
2013:Generated_Source\PSoC4/CapSense_1_Processing.c ****             {
2014:Generated_Source\PSoC4/CapSense_1_Processing.c ****                 #if (0u != CapSense_1_POS_MEDIAN_FILTER_EN)
2015:Generated_Source\PSoC4/CapSense_1_Processing.c ****                     if (0u != (filterConfig & CapSense_1_POS_MEDIAN_FILTER_MASK))
2016:Generated_Source\PSoC4/CapSense_1_Processing.c ****                     {
2017:Generated_Source\PSoC4/CapSense_1_Processing.c ****                         filteredPosition = (uint16)CapSense_1_FtMedian((uint32)ptrHistory->posMedia
2018:Generated_Source\PSoC4/CapSense_1_Processing.c ****                                             (uint32)ptrHistory->posMedianZ1, (uint32)newPos[touchId
2019:Generated_Source\PSoC4/CapSense_1_Processing.c ****                         ptrHistory->posMedianZ2 = ptrHistory->posMedianZ1;
2020:Generated_Source\PSoC4/CapSense_1_Processing.c ****                         ptrHistory->posMedianZ1 = newPos[touchIdx];
2021:Generated_Source\PSoC4/CapSense_1_Processing.c ****                     }
ARM GAS  C:\Users\exp32\AppData\Local\Temp\ccki8209.s 			page 53


2022:Generated_Source\PSoC4/CapSense_1_Processing.c ****                 #endif /* #if (0u != CapSense_1_POS_MEDIAN_FILTER_EN) */
2023:Generated_Source\PSoC4/CapSense_1_Processing.c **** 
2024:Generated_Source\PSoC4/CapSense_1_Processing.c ****                 #if (0u != CapSense_1_POS_IIR_FILTER_EN)
2025:Generated_Source\PSoC4/CapSense_1_Processing.c ****                     if (0u != (filterConfig & CapSense_1_POS_IIR_FILTER_MASK))
2026:Generated_Source\PSoC4/CapSense_1_Processing.c ****                     {
2027:Generated_Source\PSoC4/CapSense_1_Processing.c ****                         filteredPosition = (uint16)CapSense_1_FtIIR1stOrder((uint32)filteredPositio
2028:Generated_Source\PSoC4/CapSense_1_Processing.c ****                                             (uint32)ptrFlashWdgt->iirFilterCoeff, 0uL);
2029:Generated_Source\PSoC4/CapSense_1_Processing.c ****                         ptrHistory->posIIR = filteredPosition;
2030:Generated_Source\PSoC4/CapSense_1_Processing.c ****                     }
2031:Generated_Source\PSoC4/CapSense_1_Processing.c ****                 #endif /* #if (0u != CapSense_1_POS_IIR_FILTER_EN) */
2032:Generated_Source\PSoC4/CapSense_1_Processing.c **** 
2033:Generated_Source\PSoC4/CapSense_1_Processing.c ****                 #if (0u != CapSense_1_POS_ADAPTIVE_IIR_FILTER_EN)
2034:Generated_Source\PSoC4/CapSense_1_Processing.c ****                     if (0u != (filterConfig & CapSense_1_AIIR_FILTER_MASK))
2035:Generated_Source\PSoC4/CapSense_1_Processing.c ****                     {
2036:Generated_Source\PSoC4/CapSense_1_Processing.c ****                         contextAIIR.previousX = ptrHistory->posAIIR;
2037:Generated_Source\PSoC4/CapSense_1_Processing.c ****                         contextAIIR.previousY = emptyPosition;
2038:Generated_Source\PSoC4/CapSense_1_Processing.c ****                         contextAIIR.coefficient = ptrHistory->posAIIRCoeff;
2039:Generated_Source\PSoC4/CapSense_1_Processing.c ****                         AdaptiveFilter_Run(&ptrRamWdgt->aiirConfig, &contextAIIR, &filteredPosition
2040:Generated_Source\PSoC4/CapSense_1_Processing.c ****                         ptrHistory->posAIIR = contextAIIR.previousX;
2041:Generated_Source\PSoC4/CapSense_1_Processing.c ****                         ptrHistory->posAIIRCoeff = contextAIIR.coefficient;
2042:Generated_Source\PSoC4/CapSense_1_Processing.c ****                     }
2043:Generated_Source\PSoC4/CapSense_1_Processing.c ****                 #endif /* (0u != CapSense_1_POS_ADAPTIVE_IIR_FILTER_EN) */
2044:Generated_Source\PSoC4/CapSense_1_Processing.c **** 
2045:Generated_Source\PSoC4/CapSense_1_Processing.c ****                 #if (0u != CapSense_1_POS_AVERAGE_FILTER_EN)
2046:Generated_Source\PSoC4/CapSense_1_Processing.c ****                     if (0u != (filterConfig & CapSense_1_POS_AVERAGE_FILTER_MASK))
2047:Generated_Source\PSoC4/CapSense_1_Processing.c ****                     {
2048:Generated_Source\PSoC4/CapSense_1_Processing.c ****                         tempPosition = filteredPosition;
2049:Generated_Source\PSoC4/CapSense_1_Processing.c ****                         filteredPosition = (uint16)(filteredPosition + ptrHistory->posAverage) >> 1
2050:Generated_Source\PSoC4/CapSense_1_Processing.c ****                         ptrHistory->posAverage = tempPosition;
2051:Generated_Source\PSoC4/CapSense_1_Processing.c ****                     }
2052:Generated_Source\PSoC4/CapSense_1_Processing.c ****                 #endif /* #if (0u != CapSense_1_POS_AVERAGE_FILTER_EN) */
2053:Generated_Source\PSoC4/CapSense_1_Processing.c **** 
2054:Generated_Source\PSoC4/CapSense_1_Processing.c ****                 #if (0u != CapSense_1_POS_JITTER_FILTER_EN)
2055:Generated_Source\PSoC4/CapSense_1_Processing.c ****                     if (0u != (filterConfig & CapSense_1_POS_JITTER_FILTER_MASK))
2056:Generated_Source\PSoC4/CapSense_1_Processing.c ****                     {
2057:Generated_Source\PSoC4/CapSense_1_Processing.c ****                         filteredPosition = (uint16)CapSense_1_FtJitter((uint32)filteredPosition, (u
2058:Generated_Source\PSoC4/CapSense_1_Processing.c ****                         ptrHistory->posJitter = filteredPosition;
2059:Generated_Source\PSoC4/CapSense_1_Processing.c ****                     }
2060:Generated_Source\PSoC4/CapSense_1_Processing.c ****                 #endif /* #if (0u != CapSense_1_POS_JITTER_FILTER_EN) */
2061:Generated_Source\PSoC4/CapSense_1_Processing.c ****             }
2062:Generated_Source\PSoC4/CapSense_1_Processing.c **** 
2063:Generated_Source\PSoC4/CapSense_1_Processing.c ****             /* Update position data */
2064:Generated_Source\PSoC4/CapSense_1_Processing.c ****             ptrRamWdgt->position[touchIdx] = filteredPosition;
2065:Generated_Source\PSoC4/CapSense_1_Processing.c **** 
2066:Generated_Source\PSoC4/CapSense_1_Processing.c ****             ptrHistory = (NULL != ptrHistory) ? (ptrHistory + 1) : NULL;
2067:Generated_Source\PSoC4/CapSense_1_Processing.c ****         #endif /* (0u == CapSense_1_POSITION_FILTER_EN) */
2068:Generated_Source\PSoC4/CapSense_1_Processing.c ****     }
2069:Generated_Source\PSoC4/CapSense_1_Processing.c **** }
2070:Generated_Source\PSoC4/CapSense_1_Processing.c **** #endif /* #if (0u != CapSense_1_TOTAL_LINEAR_SLIDERS) */
2071:Generated_Source\PSoC4/CapSense_1_Processing.c **** 
2072:Generated_Source\PSoC4/CapSense_1_Processing.c **** 
2073:Generated_Source\PSoC4/CapSense_1_Processing.c **** #if (0u != CapSense_1_TOTAL_RADIAL_SLIDERS)
2074:Generated_Source\PSoC4/CapSense_1_Processing.c **** /*******************************************************************************
2075:Generated_Source\PSoC4/CapSense_1_Processing.c **** * Function Name: DpUpdateRadSlider
2076:Generated_Source\PSoC4/CapSense_1_Processing.c **** ****************************************************************************//**
2077:Generated_Source\PSoC4/CapSense_1_Processing.c **** *
2078:Generated_Source\PSoC4/CapSense_1_Processing.c **** * \brief
ARM GAS  C:\Users\exp32\AppData\Local\Temp\ccki8209.s 			page 54


2079:Generated_Source\PSoC4/CapSense_1_Processing.c **** *   Filters the Radial Slider widget position.
2080:Generated_Source\PSoC4/CapSense_1_Processing.c **** *
2081:Generated_Source\PSoC4/CapSense_1_Processing.c **** * \details
2082:Generated_Source\PSoC4/CapSense_1_Processing.c **** *   This function updates the position data of the radial slider
2083:Generated_Source\PSoC4/CapSense_1_Processing.c **** *   in the Data Structure. Also, this function runs position filters for the
2084:Generated_Source\PSoC4/CapSense_1_Processing.c **** *   position data if any enabled.
2085:Generated_Source\PSoC4/CapSense_1_Processing.c **** *
2086:Generated_Source\PSoC4/CapSense_1_Processing.c **** *   The filtering algorithm takes into account that it is possible that new value
2087:Generated_Source\PSoC4/CapSense_1_Processing.c **** *   will cross the zero position so it adjusts the position data appropriately to
2088:Generated_Source\PSoC4/CapSense_1_Processing.c **** *   get the correct filtered value.
2089:Generated_Source\PSoC4/CapSense_1_Processing.c **** *
2090:Generated_Source\PSoC4/CapSense_1_Processing.c **** * \param newPos[]     The pointer to the array with new centroid position data.
2091:Generated_Source\PSoC4/CapSense_1_Processing.c **** * \param numTouches   The number of elements in the newPos array.
2092:Generated_Source\PSoC4/CapSense_1_Processing.c **** * \param ptrFlashWdgt The pointer to the Flash Widget Object.
2093:Generated_Source\PSoC4/CapSense_1_Processing.c **** * \param ptrRamWdgt   The pointer to the RAM Widget Object .
2094:Generated_Source\PSoC4/CapSense_1_Processing.c **** *
2095:Generated_Source\PSoC4/CapSense_1_Processing.c **** *******************************************************************************/
2096:Generated_Source\PSoC4/CapSense_1_Processing.c **** static CY_INLINE void DpUpdateRadSlider(
2097:Generated_Source\PSoC4/CapSense_1_Processing.c ****                         const uint16 newPos[], uint32 numTouches,
2098:Generated_Source\PSoC4/CapSense_1_Processing.c ****                         CapSense_1_FLASH_WD_STRUCT const *ptrFlashWdgt,
2099:Generated_Source\PSoC4/CapSense_1_Processing.c ****                         CapSense_1_RAM_WD_SLIDER_STRUCT *ptrRamWdgt)
2100:Generated_Source\PSoC4/CapSense_1_Processing.c **** {
2101:Generated_Source\PSoC4/CapSense_1_Processing.c ****     uint32 touchIdx;
2102:Generated_Source\PSoC4/CapSense_1_Processing.c **** 
2103:Generated_Source\PSoC4/CapSense_1_Processing.c ****     #if (0u != CapSense_1_POS_MEDIAN_FILTER_EN)
2104:Generated_Source\PSoC4/CapSense_1_Processing.c ****         uint16 z1;
2105:Generated_Source\PSoC4/CapSense_1_Processing.c ****         uint16 z2;
2106:Generated_Source\PSoC4/CapSense_1_Processing.c ****     #endif
2107:Generated_Source\PSoC4/CapSense_1_Processing.c **** 
2108:Generated_Source\PSoC4/CapSense_1_Processing.c ****     #if ((0u != CapSense_1_POS_IIR_FILTER_EN) || \
2109:Generated_Source\PSoC4/CapSense_1_Processing.c ****          (0u != CapSense_1_POS_ADAPTIVE_IIR_FILTER_EN))
2110:Generated_Source\PSoC4/CapSense_1_Processing.c ****         uint16 delta;
2111:Generated_Source\PSoC4/CapSense_1_Processing.c ****     #endif
2112:Generated_Source\PSoC4/CapSense_1_Processing.c **** 
2113:Generated_Source\PSoC4/CapSense_1_Processing.c ****     #if (0u != CapSense_1_POS_AVERAGE_FILTER_EN)
2114:Generated_Source\PSoC4/CapSense_1_Processing.c ****         uint16 tempPosition;
2115:Generated_Source\PSoC4/CapSense_1_Processing.c ****     #endif
2116:Generated_Source\PSoC4/CapSense_1_Processing.c **** 
2117:Generated_Source\PSoC4/CapSense_1_Processing.c ****     #if (0u != CapSense_1_POSITION_FILTER_EN)
2118:Generated_Source\PSoC4/CapSense_1_Processing.c ****         uint16 filteredPosition;
2119:Generated_Source\PSoC4/CapSense_1_Processing.c ****         /* Get resolution. The register contains max position value, so therefore it is increased b
2120:Generated_Source\PSoC4/CapSense_1_Processing.c ****         uint16 tempResolution = (ptrFlashWdgt->xResolution + 1u);
2121:Generated_Source\PSoC4/CapSense_1_Processing.c ****         uint16 resolutionHafl = (ptrFlashWdgt->xResolution + 1u) >> 1u;
2122:Generated_Source\PSoC4/CapSense_1_Processing.c ****         /* Get bitmask with the enabled filters */
2123:Generated_Source\PSoC4/CapSense_1_Processing.c ****         uint32 filterConfig = (uint32)ptrFlashWdgt->staticConfig;
2124:Generated_Source\PSoC4/CapSense_1_Processing.c ****         /* Get pointer to the position filter history */
2125:Generated_Source\PSoC4/CapSense_1_Processing.c ****         CapSense_1_SLIDER_POS_HISTORY_STRUCT *ptrHistory = ptrFlashWdgt->ptr2PosHistory;
2126:Generated_Source\PSoC4/CapSense_1_Processing.c ****     #endif
2127:Generated_Source\PSoC4/CapSense_1_Processing.c **** 
2128:Generated_Source\PSoC4/CapSense_1_Processing.c ****     #if (0u != CapSense_1_POS_ADAPTIVE_IIR_FILTER_EN)
2129:Generated_Source\PSoC4/CapSense_1_Processing.c ****         ADAPTIVE_FILTER_CONTEXT_STRUCT contextAIIR;
2130:Generated_Source\PSoC4/CapSense_1_Processing.c ****         uint16 emptyPosition = 0;
2131:Generated_Source\PSoC4/CapSense_1_Processing.c ****     #endif /* (0u != CapSense_1_POS_ADAPTIVE_IIR_FILTER_EN) */
2132:Generated_Source\PSoC4/CapSense_1_Processing.c **** 
2133:Generated_Source\PSoC4/CapSense_1_Processing.c ****     /* Run Filter and update the position registers with the filtered data */
2134:Generated_Source\PSoC4/CapSense_1_Processing.c ****     for (touchIdx = 0u; touchIdx < numTouches; touchIdx++)
2135:Generated_Source\PSoC4/CapSense_1_Processing.c ****     {
ARM GAS  C:\Users\exp32\AppData\Local\Temp\ccki8209.s 			page 55


2136:Generated_Source\PSoC4/CapSense_1_Processing.c ****         #if (0u == CapSense_1_POSITION_FILTER_EN)
2137:Generated_Source\PSoC4/CapSense_1_Processing.c ****             /* If filters are not enabled just copy the position data */
2138:Generated_Source\PSoC4/CapSense_1_Processing.c ****             ptrRamWdgt->position[touchIdx] = newPos[touchIdx];
2139:Generated_Source\PSoC4/CapSense_1_Processing.c ****         #else
