ARM GAS  C:\Users\exp32\AppData\Local\Temp\ccki8209.s 			page 1


   1              		.syntax unified
   2              		.cpu cortex-m0plus
   3              		.fpu softvfp
   4              		.eabi_attribute 20, 1
   5              		.eabi_attribute 21, 1
   6              		.eabi_attribute 23, 3
   7              		.eabi_attribute 24, 1
   8              		.eabi_attribute 25, 1
   9              		.eabi_attribute 26, 1
  10              		.eabi_attribute 30, 1
  11              		.eabi_attribute 34, 0
  12              		.eabi_attribute 18, 4
  13              		.thumb
  14              		.syntax unified
  15              		.file	"CapSense_1_Processing.c"
  16              		.text
  17              	.Ltext0:
  18              		.cfi_sections	.debug_frame
  19              		.section	.text.CapSense_1_DpInitialize,"ax",%progbits
  20              		.align	2
  21              		.global	CapSense_1_DpInitialize
  22              		.code	16
  23              		.thumb_func
  24              		.type	CapSense_1_DpInitialize, %function
  25              	CapSense_1_DpInitialize:
  26              	.LFB3:
  27              		.file 1 "Generated_Source\\PSoC4\\CapSense_1_Processing.c"
   1:Generated_Source\PSoC4/CapSense_1_Processing.c **** /***************************************************************************//**
   2:Generated_Source\PSoC4/CapSense_1_Processing.c **** * \file CapSense_1_Processing.c
   3:Generated_Source\PSoC4/CapSense_1_Processing.c **** * \version 7.0
   4:Generated_Source\PSoC4/CapSense_1_Processing.c **** *
   5:Generated_Source\PSoC4/CapSense_1_Processing.c **** * \brief
   6:Generated_Source\PSoC4/CapSense_1_Processing.c **** *   This file provides the source code for the Data Processing module APIs
   7:Generated_Source\PSoC4/CapSense_1_Processing.c **** *   of the Component. The Data Processing module is responsible for the
   8:Generated_Source\PSoC4/CapSense_1_Processing.c **** *   low level raw counts processing provided by the sensing module, maintaining
   9:Generated_Source\PSoC4/CapSense_1_Processing.c **** *   baseline and difference values and performing high-level widget processing
  10:Generated_Source\PSoC4/CapSense_1_Processing.c **** *   like updating button status or calculating slider position.
  11:Generated_Source\PSoC4/CapSense_1_Processing.c **** *
  12:Generated_Source\PSoC4/CapSense_1_Processing.c **** * \see CapSense_1 v7.0 Datasheet
  13:Generated_Source\PSoC4/CapSense_1_Processing.c **** *
  14:Generated_Source\PSoC4/CapSense_1_Processing.c **** *//*****************************************************************************
  15:Generated_Source\PSoC4/CapSense_1_Processing.c **** * Copyright (2016-2019), Cypress Semiconductor Corporation.
  16:Generated_Source\PSoC4/CapSense_1_Processing.c **** ********************************************************************************
  17:Generated_Source\PSoC4/CapSense_1_Processing.c **** * This software is owned by Cypress Semiconductor Corporation (Cypress) and is
  18:Generated_Source\PSoC4/CapSense_1_Processing.c **** * protected by and subject to worldwide patent protection (United States and
  19:Generated_Source\PSoC4/CapSense_1_Processing.c **** * foreign), United States copyright laws and international treaty provisions.
  20:Generated_Source\PSoC4/CapSense_1_Processing.c **** * Cypress hereby grants to licensee a personal, non-exclusive, non-transferable
  21:Generated_Source\PSoC4/CapSense_1_Processing.c **** * license to copy, use, modify, create derivative works of, and compile the
  22:Generated_Source\PSoC4/CapSense_1_Processing.c **** * Cypress Source Code and derivative works for the sole purpose of creating
  23:Generated_Source\PSoC4/CapSense_1_Processing.c **** * custom software in support of licensee product to be used only in conjunction
  24:Generated_Source\PSoC4/CapSense_1_Processing.c **** * with a Cypress integrated circuit as specified in the applicable agreement.
  25:Generated_Source\PSoC4/CapSense_1_Processing.c **** * Any reproduction, modification, translation, compilation, or representation of
  26:Generated_Source\PSoC4/CapSense_1_Processing.c **** * this software except as specified above is prohibited without the express
  27:Generated_Source\PSoC4/CapSense_1_Processing.c **** * written permission of Cypress.
  28:Generated_Source\PSoC4/CapSense_1_Processing.c **** *
  29:Generated_Source\PSoC4/CapSense_1_Processing.c **** * Disclaimer: CYPRESS MAKES NO WARRANTY OF ANY KIND, EXPRESS OR IMPLIED, WITH
  30:Generated_Source\PSoC4/CapSense_1_Processing.c **** * REGARD TO THIS MATERIAL, INCLUDING, BUT NOT LIMITED TO, THE IMPLIED
ARM GAS  C:\Users\exp32\AppData\Local\Temp\ccki8209.s 			page 2


  31:Generated_Source\PSoC4/CapSense_1_Processing.c **** * WARRANTIES OF MERCHANTABILITY AND FITNESS FOR A PARTICULAR PURPOSE.
  32:Generated_Source\PSoC4/CapSense_1_Processing.c **** * Cypress reserves the right to make changes without further notice to the
  33:Generated_Source\PSoC4/CapSense_1_Processing.c **** * materials described herein. Cypress does not assume any liability arising out
  34:Generated_Source\PSoC4/CapSense_1_Processing.c **** * of the application or use of any product or circuit described herein. Cypress
  35:Generated_Source\PSoC4/CapSense_1_Processing.c **** * does not authorize its products for use as critical components in life-support
  36:Generated_Source\PSoC4/CapSense_1_Processing.c **** * systems where a malfunction or failure may reasonably be expected to result in
  37:Generated_Source\PSoC4/CapSense_1_Processing.c **** * significant injury to the user. The inclusion of Cypress' product in a life-
  38:Generated_Source\PSoC4/CapSense_1_Processing.c **** * support systems application implies that the manufacturer assumes all risk of
  39:Generated_Source\PSoC4/CapSense_1_Processing.c **** * such use and in doing so indemnifies Cypress against all charges. Use may be
  40:Generated_Source\PSoC4/CapSense_1_Processing.c **** * limited by and subject to the applicable Cypress software license agreement.
  41:Generated_Source\PSoC4/CapSense_1_Processing.c **** *******************************************************************************/
  42:Generated_Source\PSoC4/CapSense_1_Processing.c **** 
  43:Generated_Source\PSoC4/CapSense_1_Processing.c **** #include "CyLib.h"
  44:Generated_Source\PSoC4/CapSense_1_Processing.c **** #include "cytypes.h"
  45:Generated_Source\PSoC4/CapSense_1_Processing.c **** #include "CapSense_1_Configuration.h"
  46:Generated_Source\PSoC4/CapSense_1_Processing.c **** #include "CapSense_1_Processing.h"
  47:Generated_Source\PSoC4/CapSense_1_Processing.c **** #include "CapSense_1_Filter.h"
  48:Generated_Source\PSoC4/CapSense_1_Processing.c **** 
  49:Generated_Source\PSoC4/CapSense_1_Processing.c **** #if (0u != CapSense_1_CENTROID_EN)
  50:Generated_Source\PSoC4/CapSense_1_Processing.c ****     #include "CapSense_1_Centroid_LL.h"
  51:Generated_Source\PSoC4/CapSense_1_Processing.c **** #endif /* (0 != CapSense_1_CENTROID_EN) */
  52:Generated_Source\PSoC4/CapSense_1_Processing.c **** 
  53:Generated_Source\PSoC4/CapSense_1_Processing.c **** #if (0 != (CapSense_1_CSD_AUTOTUNE & CapSense_1_CSD_SS_TH_EN))
  54:Generated_Source\PSoC4/CapSense_1_Processing.c ****     #include "CapSense_1_SmartSense_LL.h"
  55:Generated_Source\PSoC4/CapSense_1_Processing.c **** #endif /* (0 != (CapSense_1_CSD_AUTOTUNE & CapSense_1_CSD_SS_TH_EN)) */
  56:Generated_Source\PSoC4/CapSense_1_Processing.c **** 
  57:Generated_Source\PSoC4/CapSense_1_Processing.c **** #if (CapSense_1_ENABLE == CapSense_1_SELF_TEST_EN)
  58:Generated_Source\PSoC4/CapSense_1_Processing.c ****     #include "CapSense_1_SelfTest.h"
  59:Generated_Source\PSoC4/CapSense_1_Processing.c **** #endif
  60:Generated_Source\PSoC4/CapSense_1_Processing.c **** 
  61:Generated_Source\PSoC4/CapSense_1_Processing.c **** #if (CapSense_1_ENABLE == CapSense_1_CENTROID_5X5_CSD_EN)
  62:Generated_Source\PSoC4/CapSense_1_Processing.c ****     #include "CapSense_1_AdvancedCentroid_LL.h"
  63:Generated_Source\PSoC4/CapSense_1_Processing.c **** #endif
  64:Generated_Source\PSoC4/CapSense_1_Processing.c **** 
  65:Generated_Source\PSoC4/CapSense_1_Processing.c **** #if (CapSense_1_ENABLE == CapSense_1_POS_ADAPTIVE_IIR_FILTER_EN)
  66:Generated_Source\PSoC4/CapSense_1_Processing.c ****     #include "CapSense_1_AdaptiveFilter_LL.h"
  67:Generated_Source\PSoC4/CapSense_1_Processing.c **** #endif
  68:Generated_Source\PSoC4/CapSense_1_Processing.c **** 
  69:Generated_Source\PSoC4/CapSense_1_Processing.c **** #if(CapSense_1_ENABLE == CapSense_1_BALLISTIC_MULTIPLIER_EN)
  70:Generated_Source\PSoC4/CapSense_1_Processing.c ****     #include "CapSense_1_Gesture.h"
  71:Generated_Source\PSoC4/CapSense_1_Processing.c **** #endif
  72:Generated_Source\PSoC4/CapSense_1_Processing.c **** 
  73:Generated_Source\PSoC4/CapSense_1_Processing.c **** /**************************************************************************************************
  74:Generated_Source\PSoC4/CapSense_1_Processing.c **** * Local definition
  75:Generated_Source\PSoC4/CapSense_1_Processing.c **** ***************************************************************************************************
  76:Generated_Source\PSoC4/CapSense_1_Processing.c **** 
  77:Generated_Source\PSoC4/CapSense_1_Processing.c **** /* UINT32 constant with all odd bits set. It is used by the processing function of the Proximity wi
  78:Generated_Source\PSoC4/CapSense_1_Processing.c **** *  determine type of the status bit: odd bits report proximity status; even bits report touch statu
  79:Generated_Source\PSoC4/CapSense_1_Processing.c **** */
  80:Generated_Source\PSoC4/CapSense_1_Processing.c **** #define UINT32_ODD_BITS_CONST       (0x55555555u)
  81:Generated_Source\PSoC4/CapSense_1_Processing.c **** 
  82:Generated_Source\PSoC4/CapSense_1_Processing.c **** /* Default value for the Off Debounce counter when the Off Debounce is disabled */
  83:Generated_Source\PSoC4/CapSense_1_Processing.c **** #define DEFAULT_OFF_DEBOUNCE_VALUE  (1u)
  84:Generated_Source\PSoC4/CapSense_1_Processing.c **** #define PERCENTAGE_100              (100u)
  85:Generated_Source\PSoC4/CapSense_1_Processing.c **** #define TEMP_BUFFER_MSB_SHIFT       (16)
  86:Generated_Source\PSoC4/CapSense_1_Processing.c **** 
  87:Generated_Source\PSoC4/CapSense_1_Processing.c **** /**************************************************************************************************
ARM GAS  C:\Users\exp32\AppData\Local\Temp\ccki8209.s 			page 3


  88:Generated_Source\PSoC4/CapSense_1_Processing.c **** * Local variables
  89:Generated_Source\PSoC4/CapSense_1_Processing.c **** ***************************************************************************************************
  90:Generated_Source\PSoC4/CapSense_1_Processing.c **** #if (0u != CapSense_1_CSX_MULTIPHASE_TX_EN)
  91:Generated_Source\PSoC4/CapSense_1_Processing.c ****     static uint16 deconvRowData[CapSense_1_CSX_MAX_TX_PHASE_LENGTH];
  92:Generated_Source\PSoC4/CapSense_1_Processing.c **** #endif
  93:Generated_Source\PSoC4/CapSense_1_Processing.c **** 
  94:Generated_Source\PSoC4/CapSense_1_Processing.c **** 
  95:Generated_Source\PSoC4/CapSense_1_Processing.c **** /**************************************************************************************************
  96:Generated_Source\PSoC4/CapSense_1_Processing.c **** * Static Function Prototypes
  97:Generated_Source\PSoC4/CapSense_1_Processing.c **** ***************************************************************************************************
  98:Generated_Source\PSoC4/CapSense_1_Processing.c **** /**
  99:Generated_Source\PSoC4/CapSense_1_Processing.c **** * \cond SECTION_C_INTERNAL
 100:Generated_Source\PSoC4/CapSense_1_Processing.c **** * \addtogroup group_c_internal
 101:Generated_Source\PSoC4/CapSense_1_Processing.c **** * \{
 102:Generated_Source\PSoC4/CapSense_1_Processing.c **** */
 103:Generated_Source\PSoC4/CapSense_1_Processing.c **** #if (0u != CapSense_1_TOTAL_LINEAR_SLIDERS)
 104:Generated_Source\PSoC4/CapSense_1_Processing.c ****     static CY_INLINE void DpUpdateLinSlider(
 105:Generated_Source\PSoC4/CapSense_1_Processing.c ****                         const uint16 newPos[], uint32 numTouches,
 106:Generated_Source\PSoC4/CapSense_1_Processing.c ****                         CapSense_1_FLASH_WD_STRUCT const *ptrFlashWdgt,
 107:Generated_Source\PSoC4/CapSense_1_Processing.c ****                         CapSense_1_RAM_WD_SLIDER_STRUCT *ptrRamWdgt);
 108:Generated_Source\PSoC4/CapSense_1_Processing.c **** #endif /* #if (0u != CapSense_1_TOTAL_LINEAR_SLIDERS) */
 109:Generated_Source\PSoC4/CapSense_1_Processing.c **** 
 110:Generated_Source\PSoC4/CapSense_1_Processing.c **** #if (0u != CapSense_1_TOTAL_RADIAL_SLIDERS)
 111:Generated_Source\PSoC4/CapSense_1_Processing.c ****     static CY_INLINE void DpUpdateRadSlider(
 112:Generated_Source\PSoC4/CapSense_1_Processing.c ****                         const uint16 newPos[], uint32 numTouches,
 113:Generated_Source\PSoC4/CapSense_1_Processing.c ****                         CapSense_1_FLASH_WD_STRUCT const * ptrFlashWdgt,
 114:Generated_Source\PSoC4/CapSense_1_Processing.c ****                         CapSense_1_RAM_WD_SLIDER_STRUCT *ptrRamWdgt);
 115:Generated_Source\PSoC4/CapSense_1_Processing.c **** #endif /* #if (0u != CapSense_1_TOTAL_RADIAL_SLIDERS) */
 116:Generated_Source\PSoC4/CapSense_1_Processing.c **** 
 117:Generated_Source\PSoC4/CapSense_1_Processing.c **** #if (0u != CapSense_1_CSD_TOUCHPAD_WIDGET_EN)
 118:Generated_Source\PSoC4/CapSense_1_Processing.c ****     static CY_INLINE void CapSense_1_DpInitCsdTouchpad(CapSense_1_FLASH_WD_STRUCT const * ptrFlashW
 119:Generated_Source\PSoC4/CapSense_1_Processing.c **** #endif /* #if (0u != CapSense_1_CSD_TOUCHPAD_WIDGET_EN) */
 120:Generated_Source\PSoC4/CapSense_1_Processing.c **** 
 121:Generated_Source\PSoC4/CapSense_1_Processing.c **** #if (0u != CapSense_1_CSX_TOUCHPAD_WIDGET_EN)
 122:Generated_Source\PSoC4/CapSense_1_Processing.c ****     static CY_INLINE void CapSense_1_DpInitCsxTouchpad(CapSense_1_FLASH_WD_STRUCT const * ptrFlashW
 123:Generated_Source\PSoC4/CapSense_1_Processing.c **** #endif /* #if (0u != CapSense_1_CSX_TOUCHPAD_WIDGET_EN) */
 124:Generated_Source\PSoC4/CapSense_1_Processing.c **** 
 125:Generated_Source\PSoC4/CapSense_1_Processing.c **** #if (0u != CapSense_1_SLIDER_WIDGET_EN)
 126:Generated_Source\PSoC4/CapSense_1_Processing.c ****     static CY_INLINE void CapSense_1_DpInitSlider(CapSense_1_FLASH_WD_STRUCT const * ptrFlashWdgt);
 127:Generated_Source\PSoC4/CapSense_1_Processing.c **** #endif /* #if (0u != CapSense_1_SLIDER_WIDGET_EN) */
 128:Generated_Source\PSoC4/CapSense_1_Processing.c **** 
 129:Generated_Source\PSoC4/CapSense_1_Processing.c **** #if (0u != CapSense_1_CSD_MATRIX_WIDGET_EN)
 130:Generated_Source\PSoC4/CapSense_1_Processing.c ****     static CY_INLINE void CapSense_1_DpInitCsdMatrix(CapSense_1_FLASH_WD_STRUCT const * ptrFlashWdg
 131:Generated_Source\PSoC4/CapSense_1_Processing.c **** #endif /* #if (0u != CapSense_1_CSD_MATRIX_WIDGET_EN) */
 132:Generated_Source\PSoC4/CapSense_1_Processing.c **** 
 133:Generated_Source\PSoC4/CapSense_1_Processing.c **** /** \}
 134:Generated_Source\PSoC4/CapSense_1_Processing.c **** * \endcond */
 135:Generated_Source\PSoC4/CapSense_1_Processing.c **** 
 136:Generated_Source\PSoC4/CapSense_1_Processing.c **** #if (0u != CapSense_1_CSD_TOUCHPAD_WIDGET_EN)
 137:Generated_Source\PSoC4/CapSense_1_Processing.c **** /*******************************************************************************
 138:Generated_Source\PSoC4/CapSense_1_Processing.c **** * Function Name: CapSense_1_DpInitCsdTouchpad
 139:Generated_Source\PSoC4/CapSense_1_Processing.c **** ****************************************************************************//**
 140:Generated_Source\PSoC4/CapSense_1_Processing.c **** *
 141:Generated_Source\PSoC4/CapSense_1_Processing.c **** * \brief
 142:Generated_Source\PSoC4/CapSense_1_Processing.c **** *  Performs initialization of the CSD touchpad widget.
 143:Generated_Source\PSoC4/CapSense_1_Processing.c **** *   - Resets the position data to NONE
 144:Generated_Source\PSoC4/CapSense_1_Processing.c **** *   - Initializes the position filter history if enabled.
ARM GAS  C:\Users\exp32\AppData\Local\Temp\ccki8209.s 			page 4


 145:Generated_Source\PSoC4/CapSense_1_Processing.c **** *
 146:Generated_Source\PSoC4/CapSense_1_Processing.c **** * \details
 147:Generated_Source\PSoC4/CapSense_1_Processing.c **** *  The position data is always reset to the CapSense_1_TOUCHPAD_POS_NONE value.
 148:Generated_Source\PSoC4/CapSense_1_Processing.c **** *  The same happens to the position filter history data if enabled.
 149:Generated_Source\PSoC4/CapSense_1_Processing.c **** *
 150:Generated_Source\PSoC4/CapSense_1_Processing.c **** *******************************************************************************/
 151:Generated_Source\PSoC4/CapSense_1_Processing.c **** static CY_INLINE void CapSense_1_DpInitCsdTouchpad(CapSense_1_FLASH_WD_STRUCT const * ptrFlashWdgt)
 152:Generated_Source\PSoC4/CapSense_1_Processing.c **** {
 153:Generated_Source\PSoC4/CapSense_1_Processing.c ****     #if (CapSense_1_ENABLE == CapSense_1_CENTROID_5X5_CSD_EN)
 154:Generated_Source\PSoC4/CapSense_1_Processing.c ****         uint32 touchIndex;
 155:Generated_Source\PSoC4/CapSense_1_Processing.c ****     #endif
 156:Generated_Source\PSoC4/CapSense_1_Processing.c **** 
 157:Generated_Source\PSoC4/CapSense_1_Processing.c ****     CapSense_1_RAM_WD_CSD_TOUCHPAD_STRUCT *ptrWdTouchpad;
 158:Generated_Source\PSoC4/CapSense_1_Processing.c **** 
 159:Generated_Source\PSoC4/CapSense_1_Processing.c ****     #if (0u != CapSense_1_POSITION_FILTER_EN)
 160:Generated_Source\PSoC4/CapSense_1_Processing.c ****         CapSense_1_TOUCHPAD_POS_HISTORY_STRUCT *ptrHistory;
 161:Generated_Source\PSoC4/CapSense_1_Processing.c ****     #endif  /* #if (0u != CapSense_1_POSITION_FILTER_EN) */
 162:Generated_Source\PSoC4/CapSense_1_Processing.c **** 
 163:Generated_Source\PSoC4/CapSense_1_Processing.c ****     #if (0u != CapSense_1_POS_ADAPTIVE_IIR_FILTER_EN)
 164:Generated_Source\PSoC4/CapSense_1_Processing.c ****         ADAPTIVE_FILTER_CONTEXT_STRUCT adpContext;
 165:Generated_Source\PSoC4/CapSense_1_Processing.c ****     #endif /* (0u != CapSense_1_POS_ADAPTIVE_IIR_FILTER_EN) */
 166:Generated_Source\PSoC4/CapSense_1_Processing.c **** 
 167:Generated_Source\PSoC4/CapSense_1_Processing.c ****     ptrWdTouchpad = ptrFlashWdgt->ptr2WdgtRam;
 168:Generated_Source\PSoC4/CapSense_1_Processing.c **** 
 169:Generated_Source\PSoC4/CapSense_1_Processing.c ****     /* Reset position data */
 170:Generated_Source\PSoC4/CapSense_1_Processing.c ****     #if (CapSense_1_ENABLE == CapSense_1_CENTROID_5X5_CSD_EN)
 171:Generated_Source\PSoC4/CapSense_1_Processing.c ****         #if (CapSense_1_ENABLE == CapSense_1_CENTROID_3X3_CSD_EN)
 172:Generated_Source\PSoC4/CapSense_1_Processing.c ****             if (0u != (ptrFlashWdgt->staticConfig & CapSense_1_CENTROID_5X5_MASK))
 173:Generated_Source\PSoC4/CapSense_1_Processing.c ****             {
 174:Generated_Source\PSoC4/CapSense_1_Processing.c ****         #endif
 175:Generated_Source\PSoC4/CapSense_1_Processing.c **** 
 176:Generated_Source\PSoC4/CapSense_1_Processing.c ****         ptrWdTouchpad->position.touchNum = 0u;
 177:Generated_Source\PSoC4/CapSense_1_Processing.c **** 
 178:Generated_Source\PSoC4/CapSense_1_Processing.c ****         #if (0u != CapSense_1_POSITION_FILTER_EN)
 179:Generated_Source\PSoC4/CapSense_1_Processing.c ****             ptrHistory = ptrFlashWdgt->ptr2PosHistory;
 180:Generated_Source\PSoC4/CapSense_1_Processing.c ****         #endif /* (0u != CapSense_1_POSITION_FILTER_EN) */
 181:Generated_Source\PSoC4/CapSense_1_Processing.c **** 
 182:Generated_Source\PSoC4/CapSense_1_Processing.c ****         for (touchIndex = 0u; touchIndex < ADVANCED_CENTROID_MAX_TOUCHES; touchIndex++)
 183:Generated_Source\PSoC4/CapSense_1_Processing.c ****         {
 184:Generated_Source\PSoC4/CapSense_1_Processing.c ****             ptrWdTouchpad->position.pos[touchIndex].x = ADVANCED_CENTROID_POSITION_NONE;
 185:Generated_Source\PSoC4/CapSense_1_Processing.c ****             ptrWdTouchpad->position.pos[touchIndex].y = ADVANCED_CENTROID_POSITION_NONE;
 186:Generated_Source\PSoC4/CapSense_1_Processing.c ****             ptrWdTouchpad->position.pos[touchIndex].zX = ADVANCED_CENTROID_POSITION_NONE;
 187:Generated_Source\PSoC4/CapSense_1_Processing.c ****             ptrWdTouchpad->position.pos[touchIndex].zY = ADVANCED_CENTROID_POSITION_NONE;
 188:Generated_Source\PSoC4/CapSense_1_Processing.c **** 
 189:Generated_Source\PSoC4/CapSense_1_Processing.c ****             /* Clear position filter history data if available */
 190:Generated_Source\PSoC4/CapSense_1_Processing.c ****             #if (0u != CapSense_1_POSITION_FILTER_EN)
 191:Generated_Source\PSoC4/CapSense_1_Processing.c ****                 if (NULL != ptrHistory)
 192:Generated_Source\PSoC4/CapSense_1_Processing.c ****                 {
 193:Generated_Source\PSoC4/CapSense_1_Processing.c ****                     CapSense_1_InitPosFiltersDd(&ptrHistory[touchIndex], CapSense_1_TOUCHPAD_POS_NO
 194:Generated_Source\PSoC4/CapSense_1_Processing.c ****                     #if (0u != CapSense_1_POS_ADAPTIVE_IIR_FILTER_EN)
 195:Generated_Source\PSoC4/CapSense_1_Processing.c ****                         AdaptiveFilter_Initialize(&ptrWdTouchpad->aiirConfig, &adpContext);
 196:Generated_Source\PSoC4/CapSense_1_Processing.c ****                         ptrHistory[touchIndex].xPos.posAIIRCoeff = adpContext.coefficient;
 197:Generated_Source\PSoC4/CapSense_1_Processing.c ****                         ptrHistory[touchIndex].yPos.posAIIRCoeff = adpContext.coefficient;
 198:Generated_Source\PSoC4/CapSense_1_Processing.c ****                     #endif /* (0u != CapSense_1_POS_ADAPTIVE_IIR_FILTER_EN) */
 199:Generated_Source\PSoC4/CapSense_1_Processing.c ****                 }
 200:Generated_Source\PSoC4/CapSense_1_Processing.c ****             #endif /* (0u != CapSense_1_POSITION_FILTER_EN) */
 201:Generated_Source\PSoC4/CapSense_1_Processing.c ****         }
ARM GAS  C:\Users\exp32\AppData\Local\Temp\ccki8209.s 			page 5


 202:Generated_Source\PSoC4/CapSense_1_Processing.c **** 
 203:Generated_Source\PSoC4/CapSense_1_Processing.c ****         #if (CapSense_1_ENABLE == CapSense_1_CENTROID_3X3_CSD_EN)
 204:Generated_Source\PSoC4/CapSense_1_Processing.c ****             }
 205:Generated_Source\PSoC4/CapSense_1_Processing.c ****         #endif
 206:Generated_Source\PSoC4/CapSense_1_Processing.c ****     #endif
 207:Generated_Source\PSoC4/CapSense_1_Processing.c **** 
 208:Generated_Source\PSoC4/CapSense_1_Processing.c ****     #if (CapSense_1_ENABLE == CapSense_1_CENTROID_3X3_CSD_EN)
 209:Generated_Source\PSoC4/CapSense_1_Processing.c ****         if (0u != (ptrFlashWdgt->staticConfig & CapSense_1_CENTROID_3X3_MASK))
 210:Generated_Source\PSoC4/CapSense_1_Processing.c ****         {
 211:Generated_Source\PSoC4/CapSense_1_Processing.c ****             ptrWdTouchpad->posX = CapSense_1_TOUCHPAD_POS_NONE;
 212:Generated_Source\PSoC4/CapSense_1_Processing.c ****             ptrWdTouchpad->posY = CapSense_1_TOUCHPAD_POS_NONE;
 213:Generated_Source\PSoC4/CapSense_1_Processing.c **** 
 214:Generated_Source\PSoC4/CapSense_1_Processing.c ****             /* Clear position filter history data if available */
 215:Generated_Source\PSoC4/CapSense_1_Processing.c ****             #if (0u != CapSense_1_POSITION_FILTER_EN)
 216:Generated_Source\PSoC4/CapSense_1_Processing.c ****                 ptrHistory = ptrFlashWdgt->ptr2PosHistory;
 217:Generated_Source\PSoC4/CapSense_1_Processing.c ****                 CapSense_1_InitPosFiltersDd(ptrHistory, CapSense_1_TOUCHPAD_POS_NONE, CapSense_1_TO
 218:Generated_Source\PSoC4/CapSense_1_Processing.c **** 
 219:Generated_Source\PSoC4/CapSense_1_Processing.c ****                 #if (0u != CapSense_1_POS_ADAPTIVE_IIR_FILTER_EN)
 220:Generated_Source\PSoC4/CapSense_1_Processing.c ****                     if (NULL != ptrHistory)
 221:Generated_Source\PSoC4/CapSense_1_Processing.c ****                     {
 222:Generated_Source\PSoC4/CapSense_1_Processing.c ****                         AdaptiveFilter_Initialize(&ptrWdTouchpad->aiirConfig, &adpContext);
 223:Generated_Source\PSoC4/CapSense_1_Processing.c ****                         ptrHistory->xPos.posAIIRCoeff = adpContext.coefficient;
 224:Generated_Source\PSoC4/CapSense_1_Processing.c ****                         ptrHistory->yPos.posAIIRCoeff = adpContext.coefficient;
 225:Generated_Source\PSoC4/CapSense_1_Processing.c ****                     }
 226:Generated_Source\PSoC4/CapSense_1_Processing.c ****                 #endif /* (0u != CapSense_1_POS_ADAPTIVE_IIR_FILTER_EN) */
 227:Generated_Source\PSoC4/CapSense_1_Processing.c ****             #endif /* (0u != CapSense_1_POSITION_FILTER_EN) */
 228:Generated_Source\PSoC4/CapSense_1_Processing.c ****         }
 229:Generated_Source\PSoC4/CapSense_1_Processing.c ****     #endif
 230:Generated_Source\PSoC4/CapSense_1_Processing.c **** }
 231:Generated_Source\PSoC4/CapSense_1_Processing.c **** #endif /* #if (0u != CapSense_1_CSD_TOUCHPAD_WIDGET_EN) */
 232:Generated_Source\PSoC4/CapSense_1_Processing.c **** 
 233:Generated_Source\PSoC4/CapSense_1_Processing.c **** #if (0u != CapSense_1_CSX_TOUCHPAD_WIDGET_EN)
 234:Generated_Source\PSoC4/CapSense_1_Processing.c **** /*******************************************************************************
 235:Generated_Source\PSoC4/CapSense_1_Processing.c **** * Function Name: CapSense_1_DpInitCsxTouchpad
 236:Generated_Source\PSoC4/CapSense_1_Processing.c **** ****************************************************************************//**
 237:Generated_Source\PSoC4/CapSense_1_Processing.c **** *
 238:Generated_Source\PSoC4/CapSense_1_Processing.c **** * \brief
 239:Generated_Source\PSoC4/CapSense_1_Processing.c **** *  Performs initialization of the CSX touchpad widget i.e. Resets the position data to NONE.
 240:Generated_Source\PSoC4/CapSense_1_Processing.c **** *
 241:Generated_Source\PSoC4/CapSense_1_Processing.c **** * \details
 242:Generated_Source\PSoC4/CapSense_1_Processing.c **** *  The position data is always reset to the CapSense_1_TOUCHPAD_POS_NONE value.
 243:Generated_Source\PSoC4/CapSense_1_Processing.c **** *
 244:Generated_Source\PSoC4/CapSense_1_Processing.c **** *******************************************************************************/
 245:Generated_Source\PSoC4/CapSense_1_Processing.c **** static CY_INLINE void CapSense_1_DpInitCsxTouchpad(CapSense_1_FLASH_WD_STRUCT const * ptrFlashWdgt)
 246:Generated_Source\PSoC4/CapSense_1_Processing.c **** {
 247:Generated_Source\PSoC4/CapSense_1_Processing.c ****     CapSense_1_RAM_WD_CSX_TOUCHPAD_STRUCT *ptrWdTouchpad;
 248:Generated_Source\PSoC4/CapSense_1_Processing.c **** 
 249:Generated_Source\PSoC4/CapSense_1_Processing.c ****     #if (0u != CapSense_1_POSITION_FILTER_EN)
 250:Generated_Source\PSoC4/CapSense_1_Processing.c ****         uint32 touchIndex;
 251:Generated_Source\PSoC4/CapSense_1_Processing.c ****         CapSense_1_TOUCHPAD_POS_HISTORY_STRUCT *ptrHistory;
 252:Generated_Source\PSoC4/CapSense_1_Processing.c ****     #endif  /* #if (0u != CapSense_1_POSITION_FILTER_EN) */
 253:Generated_Source\PSoC4/CapSense_1_Processing.c **** 
 254:Generated_Source\PSoC4/CapSense_1_Processing.c ****     #if (0u != CapSense_1_POS_ADAPTIVE_IIR_FILTER_EN)
 255:Generated_Source\PSoC4/CapSense_1_Processing.c ****         ADAPTIVE_FILTER_CONTEXT_STRUCT adpContext;
 256:Generated_Source\PSoC4/CapSense_1_Processing.c ****     #endif /* (0u != CapSense_1_POS_ADAPTIVE_IIR_FILTER_EN) */
 257:Generated_Source\PSoC4/CapSense_1_Processing.c **** 
 258:Generated_Source\PSoC4/CapSense_1_Processing.c ****     ptrWdTouchpad = ptrFlashWdgt->ptr2WdgtRam;
ARM GAS  C:\Users\exp32\AppData\Local\Temp\ccki8209.s 			page 6


 259:Generated_Source\PSoC4/CapSense_1_Processing.c **** 
 260:Generated_Source\PSoC4/CapSense_1_Processing.c ****     #if (0u != CapSense_1_POSITION_FILTER_EN)
 261:Generated_Source\PSoC4/CapSense_1_Processing.c ****         ptrHistory = ptrFlashWdgt->ptr2PosHistory;
 262:Generated_Source\PSoC4/CapSense_1_Processing.c ****     #endif /* (0u != CapSense_1_POSITION_FILTER_EN) */
 263:Generated_Source\PSoC4/CapSense_1_Processing.c **** 
 264:Generated_Source\PSoC4/CapSense_1_Processing.c ****     /* Reset position data for finger */
 265:Generated_Source\PSoC4/CapSense_1_Processing.c ****     ptrWdTouchpad->touch[0u].x = CapSense_1_TOUCHPAD_POS_NONE;
 266:Generated_Source\PSoC4/CapSense_1_Processing.c ****     ptrWdTouchpad->touch[0u].y = CapSense_1_TOUCHPAD_POS_NONE;
 267:Generated_Source\PSoC4/CapSense_1_Processing.c ****     ptrWdTouchpad->touch[0u].z = LO8(CapSense_1_TOUCHPAD_POS_NONE);
 268:Generated_Source\PSoC4/CapSense_1_Processing.c **** 
 269:Generated_Source\PSoC4/CapSense_1_Processing.c ****     #if (CapSense_1_CSX_MAX_FINGERS > 1u)
 270:Generated_Source\PSoC4/CapSense_1_Processing.c ****         ptrWdTouchpad->touch[1u].x = CapSense_1_TOUCHPAD_POS_NONE;
 271:Generated_Source\PSoC4/CapSense_1_Processing.c ****         ptrWdTouchpad->touch[1u].y = CapSense_1_TOUCHPAD_POS_NONE;
 272:Generated_Source\PSoC4/CapSense_1_Processing.c ****         ptrWdTouchpad->touch[1u].z = LO8(CapSense_1_TOUCHPAD_POS_NONE);
 273:Generated_Source\PSoC4/CapSense_1_Processing.c ****     #endif /* #if (CapSense_1_CSX_MAX_FINGERS > 1u) */
 274:Generated_Source\PSoC4/CapSense_1_Processing.c **** 
 275:Generated_Source\PSoC4/CapSense_1_Processing.c ****     #if (CapSense_1_CSX_MAX_FINGERS > 2u)
 276:Generated_Source\PSoC4/CapSense_1_Processing.c ****         ptrWdTouchpad->touch[2u].x = CapSense_1_TOUCHPAD_POS_NONE;
 277:Generated_Source\PSoC4/CapSense_1_Processing.c ****         ptrWdTouchpad->touch[2u].y = CapSense_1_TOUCHPAD_POS_NONE;
 278:Generated_Source\PSoC4/CapSense_1_Processing.c ****         ptrWdTouchpad->touch[2u].z = LO8(CapSense_1_TOUCHPAD_POS_NONE);
 279:Generated_Source\PSoC4/CapSense_1_Processing.c ****     #endif /* #if (CapSense_1_CSX_MAX_FINGERS > 2u) */
 280:Generated_Source\PSoC4/CapSense_1_Processing.c **** 
 281:Generated_Source\PSoC4/CapSense_1_Processing.c ****     #if (0u != CapSense_1_POSITION_FILTER_EN)
 282:Generated_Source\PSoC4/CapSense_1_Processing.c ****         for (touchIndex = 0u; touchIndex < CapSense_1_CSX_MAX_FINGERS; touchIndex++)
 283:Generated_Source\PSoC4/CapSense_1_Processing.c ****         {
 284:Generated_Source\PSoC4/CapSense_1_Processing.c ****             if (NULL != ptrHistory)
 285:Generated_Source\PSoC4/CapSense_1_Processing.c ****             {
 286:Generated_Source\PSoC4/CapSense_1_Processing.c ****                 /* Clear position filter history data if available */
 287:Generated_Source\PSoC4/CapSense_1_Processing.c ****                 CapSense_1_InitPosFiltersDd(&ptrHistory[touchIndex], CapSense_1_TOUCHPAD_POS_NONE, 
 288:Generated_Source\PSoC4/CapSense_1_Processing.c ****                 #if (0u != CapSense_1_POS_ADAPTIVE_IIR_FILTER_EN)
 289:Generated_Source\PSoC4/CapSense_1_Processing.c ****                     AdaptiveFilter_Initialize(&ptrWdTouchpad->aiirConfig, &adpContext);
 290:Generated_Source\PSoC4/CapSense_1_Processing.c ****                     ptrHistory[touchIndex].xPos.posAIIRCoeff = adpContext.coefficient;
 291:Generated_Source\PSoC4/CapSense_1_Processing.c ****                     ptrHistory[touchIndex].yPos.posAIIRCoeff = adpContext.coefficient;
 292:Generated_Source\PSoC4/CapSense_1_Processing.c ****                 #endif /* (0u != CapSense_1_POS_ADAPTIVE_IIR_FILTER_EN) */
 293:Generated_Source\PSoC4/CapSense_1_Processing.c ****             }
 294:Generated_Source\PSoC4/CapSense_1_Processing.c ****         }
 295:Generated_Source\PSoC4/CapSense_1_Processing.c ****     #endif /* (0u != CapSense_1_POSITION_FILTER_EN) */
 296:Generated_Source\PSoC4/CapSense_1_Processing.c **** }
 297:Generated_Source\PSoC4/CapSense_1_Processing.c **** #endif /* #if (0u != CapSense_1_CSX_TOUCHPAD_WIDGET_EN) */
 298:Generated_Source\PSoC4/CapSense_1_Processing.c **** 
 299:Generated_Source\PSoC4/CapSense_1_Processing.c **** #if (0u != CapSense_1_SLIDER_WIDGET_EN)
 300:Generated_Source\PSoC4/CapSense_1_Processing.c **** /*******************************************************************************
 301:Generated_Source\PSoC4/CapSense_1_Processing.c **** * Function Name: CapSense_1_DpInitSlider
 302:Generated_Source\PSoC4/CapSense_1_Processing.c **** ****************************************************************************//**
 303:Generated_Source\PSoC4/CapSense_1_Processing.c **** *
 304:Generated_Source\PSoC4/CapSense_1_Processing.c **** * \brief
 305:Generated_Source\PSoC4/CapSense_1_Processing.c **** *  Performs initialization of the Radial and Linear Slider widget.
 306:Generated_Source\PSoC4/CapSense_1_Processing.c **** *   - Resets the position data to NONE
 307:Generated_Source\PSoC4/CapSense_1_Processing.c **** *   - Initializes the position filter history to NONE if enabled.
 308:Generated_Source\PSoC4/CapSense_1_Processing.c **** *
 309:Generated_Source\PSoC4/CapSense_1_Processing.c **** * \details
 310:Generated_Source\PSoC4/CapSense_1_Processing.c **** *  Position data is always reset to the CapSense_1_SLIDER_POS_NONE value.
 311:Generated_Source\PSoC4/CapSense_1_Processing.c **** *  The same happens to the position filter history data if enabled.
 312:Generated_Source\PSoC4/CapSense_1_Processing.c **** *
 313:Generated_Source\PSoC4/CapSense_1_Processing.c **** *******************************************************************************/
 314:Generated_Source\PSoC4/CapSense_1_Processing.c **** static CY_INLINE void CapSense_1_DpInitSlider(CapSense_1_FLASH_WD_STRUCT const * ptrFlashWdgt)
 315:Generated_Source\PSoC4/CapSense_1_Processing.c **** {
ARM GAS  C:\Users\exp32\AppData\Local\Temp\ccki8209.s 			page 7


 316:Generated_Source\PSoC4/CapSense_1_Processing.c ****     uint32 idx;
 317:Generated_Source\PSoC4/CapSense_1_Processing.c ****     CapSense_1_RAM_WD_SLIDER_STRUCT *ptrWdSlider;
 318:Generated_Source\PSoC4/CapSense_1_Processing.c **** 
 319:Generated_Source\PSoC4/CapSense_1_Processing.c ****     #if (0u != CapSense_1_POSITION_FILTER_EN)
 320:Generated_Source\PSoC4/CapSense_1_Processing.c ****         CapSense_1_SLIDER_POS_HISTORY_STRUCT *ptrHistory;
 321:Generated_Source\PSoC4/CapSense_1_Processing.c ****     #endif /* #if (0u != CapSense_1_POSITION_FILTER_EN) */
 322:Generated_Source\PSoC4/CapSense_1_Processing.c **** 
 323:Generated_Source\PSoC4/CapSense_1_Processing.c ****     #if (0u != CapSense_1_POS_ADAPTIVE_IIR_FILTER_EN)
 324:Generated_Source\PSoC4/CapSense_1_Processing.c ****         ADAPTIVE_FILTER_CONTEXT_STRUCT context;
 325:Generated_Source\PSoC4/CapSense_1_Processing.c ****     #endif /* (0u != CapSense_1_POS_ADAPTIVE_IIR_FILTER_EN) */
 326:Generated_Source\PSoC4/CapSense_1_Processing.c **** 
 327:Generated_Source\PSoC4/CapSense_1_Processing.c ****     ptrWdSlider = ptrFlashWdgt->ptr2WdgtRam;
 328:Generated_Source\PSoC4/CapSense_1_Processing.c **** 
 329:Generated_Source\PSoC4/CapSense_1_Processing.c ****     /* Reset slider position data to NONE */
 330:Generated_Source\PSoC4/CapSense_1_Processing.c ****     for (idx = 0u; idx < CapSense_1_NUM_CENTROIDS; idx++)
 331:Generated_Source\PSoC4/CapSense_1_Processing.c ****     {
 332:Generated_Source\PSoC4/CapSense_1_Processing.c ****         ptrWdSlider->position[idx] = CapSense_1_SLIDER_POS_NONE;
 333:Generated_Source\PSoC4/CapSense_1_Processing.c **** 
 334:Generated_Source\PSoC4/CapSense_1_Processing.c ****         #if (0u != CapSense_1_POSITION_FILTER_EN)
 335:Generated_Source\PSoC4/CapSense_1_Processing.c ****             ptrHistory = ptrFlashWdgt->ptr2PosHistory;
 336:Generated_Source\PSoC4/CapSense_1_Processing.c ****             if (NULL != ptrHistory)
 337:Generated_Source\PSoC4/CapSense_1_Processing.c ****             {
 338:Generated_Source\PSoC4/CapSense_1_Processing.c ****                 CapSense_1_InitPosFiltersSd(&ptrHistory[idx], CapSense_1_SLIDER_POS_NONE);
 339:Generated_Source\PSoC4/CapSense_1_Processing.c ****                 #if (0u != CapSense_1_POS_ADAPTIVE_IIR_FILTER_EN)
 340:Generated_Source\PSoC4/CapSense_1_Processing.c ****                     AdaptiveFilter_Initialize(&ptrWdSlider->aiirConfig, &context);
 341:Generated_Source\PSoC4/CapSense_1_Processing.c ****                     ptrHistory->posAIIRCoeff = context.coefficient;
 342:Generated_Source\PSoC4/CapSense_1_Processing.c ****                 #endif /* (0u != CapSense_1_POS_ADAPTIVE_IIR_FILTER_EN) */
 343:Generated_Source\PSoC4/CapSense_1_Processing.c ****             }
 344:Generated_Source\PSoC4/CapSense_1_Processing.c **** 
 345:Generated_Source\PSoC4/CapSense_1_Processing.c ****         #endif /* #if (0u != CapSense_1_POSITION_FILTER_EN) */
 346:Generated_Source\PSoC4/CapSense_1_Processing.c ****     }
 347:Generated_Source\PSoC4/CapSense_1_Processing.c **** }
 348:Generated_Source\PSoC4/CapSense_1_Processing.c **** #endif /* #if (0u != CapSense_1_SLIDER_WIDGET_EN) */
 349:Generated_Source\PSoC4/CapSense_1_Processing.c **** 
 350:Generated_Source\PSoC4/CapSense_1_Processing.c **** #if (0u != CapSense_1_CSD_MATRIX_WIDGET_EN)
 351:Generated_Source\PSoC4/CapSense_1_Processing.c **** /*******************************************************************************
 352:Generated_Source\PSoC4/CapSense_1_Processing.c **** * Function Name: CapSense_1_DpInitCsdMatrix
 353:Generated_Source\PSoC4/CapSense_1_Processing.c **** ****************************************************************************//**
 354:Generated_Source\PSoC4/CapSense_1_Processing.c **** *
 355:Generated_Source\PSoC4/CapSense_1_Processing.c **** * \brief
 356:Generated_Source\PSoC4/CapSense_1_Processing.c **** *  Performs initialization of the CSD Matrix Buttons widget.
 357:Generated_Source\PSoC4/CapSense_1_Processing.c **** *   - Resets the active button position data to NONE.
 358:Generated_Source\PSoC4/CapSense_1_Processing.c **** *
 359:Generated_Source\PSoC4/CapSense_1_Processing.c **** * \details
 360:Generated_Source\PSoC4/CapSense_1_Processing.c **** *  Position data is always reset to the CapSense_1_MATRIX_POS_NONE value.
 361:Generated_Source\PSoC4/CapSense_1_Processing.c **** *
 362:Generated_Source\PSoC4/CapSense_1_Processing.c **** *******************************************************************************/
 363:Generated_Source\PSoC4/CapSense_1_Processing.c **** static CY_INLINE void CapSense_1_DpInitCsdMatrix(CapSense_1_FLASH_WD_STRUCT const * ptrFlashWdgt)
 364:Generated_Source\PSoC4/CapSense_1_Processing.c **** {
 365:Generated_Source\PSoC4/CapSense_1_Processing.c ****     CapSense_1_RAM_WD_CSD_MATRIX_STRUCT *ptrRamWdgt;
 366:Generated_Source\PSoC4/CapSense_1_Processing.c **** 
 367:Generated_Source\PSoC4/CapSense_1_Processing.c ****     ptrRamWdgt = (CapSense_1_RAM_WD_CSD_MATRIX_STRUCT *)ptrFlashWdgt->ptr2WdgtRam;
 368:Generated_Source\PSoC4/CapSense_1_Processing.c **** 
 369:Generated_Source\PSoC4/CapSense_1_Processing.c ****     /* Reset sensor id, row and col registers in data structure */
 370:Generated_Source\PSoC4/CapSense_1_Processing.c ****     ptrRamWdgt->posRow   = CapSense_1_MATRIX_POS_NONE;
 371:Generated_Source\PSoC4/CapSense_1_Processing.c ****     ptrRamWdgt->posCol   = CapSense_1_MATRIX_POS_NONE;
 372:Generated_Source\PSoC4/CapSense_1_Processing.c ****     ptrRamWdgt->posSnsId = CapSense_1_MATRIX_POS_NONE;
ARM GAS  C:\Users\exp32\AppData\Local\Temp\ccki8209.s 			page 8


 373:Generated_Source\PSoC4/CapSense_1_Processing.c **** }
 374:Generated_Source\PSoC4/CapSense_1_Processing.c **** #endif /* #if (0u != CapSense_1_CSD_MATRIX_WIDGET_EN) */
 375:Generated_Source\PSoC4/CapSense_1_Processing.c **** 
 376:Generated_Source\PSoC4/CapSense_1_Processing.c **** /*******************************************************************************
 377:Generated_Source\PSoC4/CapSense_1_Processing.c **** * Function Name: CapSense_1_DpInitialize
 378:Generated_Source\PSoC4/CapSense_1_Processing.c **** ****************************************************************************//**
 379:Generated_Source\PSoC4/CapSense_1_Processing.c **** *
 380:Generated_Source\PSoC4/CapSense_1_Processing.c **** * \brief
 381:Generated_Source\PSoC4/CapSense_1_Processing.c **** *  Performs initialization of the data processing FW module:
 382:Generated_Source\PSoC4/CapSense_1_Processing.c **** *   - Resets the de-bounce counters of all the widgets
 383:Generated_Source\PSoC4/CapSense_1_Processing.c **** *   - Resets the position filter history for slider and touchpad widgets
 384:Generated_Source\PSoC4/CapSense_1_Processing.c **** *   - Clears widget and sensor statuses
 385:Generated_Source\PSoC4/CapSense_1_Processing.c **** *   - Enables all the widgets.
 386:Generated_Source\PSoC4/CapSense_1_Processing.c **** *
 387:Generated_Source\PSoC4/CapSense_1_Processing.c **** * \details
 388:Generated_Source\PSoC4/CapSense_1_Processing.c **** *  The Button and Matrix Button widgets have individual de-bounce counter per
 389:Generated_Source\PSoC4/CapSense_1_Processing.c **** *  sensor for the CSD widgets and per node for the CSX widgets.
 390:Generated_Source\PSoC4/CapSense_1_Processing.c **** *
 391:Generated_Source\PSoC4/CapSense_1_Processing.c **** *  The Slider and Touchpad widgets have a single de-bounce counter per widget.
 392:Generated_Source\PSoC4/CapSense_1_Processing.c **** *
 393:Generated_Source\PSoC4/CapSense_1_Processing.c **** *  The Proximity widget has two de-bounce counters per sensor. One for the
 394:Generated_Source\PSoC4/CapSense_1_Processing.c **** *  proximity event and second for the touch event.
 395:Generated_Source\PSoC4/CapSense_1_Processing.c **** *
 396:Generated_Source\PSoC4/CapSense_1_Processing.c **** *  All debounce counters during initialization are set to the value of the
 397:Generated_Source\PSoC4/CapSense_1_Processing.c **** *  onDebounce widget parameter.
 398:Generated_Source\PSoC4/CapSense_1_Processing.c **** *
 399:Generated_Source\PSoC4/CapSense_1_Processing.c **** *******************************************************************************/
 400:Generated_Source\PSoC4/CapSense_1_Processing.c **** void CapSense_1_DpInitialize(void)
 401:Generated_Source\PSoC4/CapSense_1_Processing.c **** {
  28              		.loc 1 401 0
  29              		.cfi_startproc
  30              		@ args = 0, pretend = 0, frame = 0
  31              		@ frame_needed = 0, uses_anonymous_args = 0
  32 0000 70B5     		push	{r4, r5, r6, lr}
  33              		.cfi_def_cfa_offset 16
  34              		.cfi_offset 4, -16
  35              		.cfi_offset 5, -12
  36              		.cfi_offset 6, -8
  37              		.cfi_offset 14, -4
  38              	.LVL0:
 402:Generated_Source\PSoC4/CapSense_1_Processing.c ****     uint32 wdgtId;
 403:Generated_Source\PSoC4/CapSense_1_Processing.c ****     CapSense_1_WD_TYPE_ENUM widgetType;
 404:Generated_Source\PSoC4/CapSense_1_Processing.c ****     CapSense_1_RAM_WD_BASE_STRUCT * ptrRamWdgt;
 405:Generated_Source\PSoC4/CapSense_1_Processing.c ****     CapSense_1_FLASH_WD_STRUCT const * ptrFlashWdgt;
 406:Generated_Source\PSoC4/CapSense_1_Processing.c **** 
 407:Generated_Source\PSoC4/CapSense_1_Processing.c ****     for (wdgtId = 0u; wdgtId < CapSense_1_WDGT_STATUS_WORDS; wdgtId++)
  39              		.loc 1 407 0
  40 0002 0023     		movs	r3, #0
  41 0004 09E0     		b	.L2
  42              	.LVL1:
  43              	.L3:
 408:Generated_Source\PSoC4/CapSense_1_Processing.c ****     {
 409:Generated_Source\PSoC4/CapSense_1_Processing.c ****         /* Clear widget status */
 410:Generated_Source\PSoC4/CapSense_1_Processing.c ****         CapSense_1_dsRam.wdgtStatus[wdgtId] = 0u;
  44              		.loc 1 410 0 discriminator 3
  45 0006 2749     		ldr	r1, .L15
  46 0008 1A1D     		adds	r2, r3, #4
ARM GAS  C:\Users\exp32\AppData\Local\Temp\ccki8209.s 			page 9


  47 000a 9200     		lsls	r2, r2, #2
  48 000c 8818     		adds	r0, r1, r2
  49 000e 0024     		movs	r4, #0
  50 0010 4460     		str	r4, [r0, #4]
 411:Generated_Source\PSoC4/CapSense_1_Processing.c **** 
 412:Generated_Source\PSoC4/CapSense_1_Processing.c ****         /* Enable all the widgets */
 413:Generated_Source\PSoC4/CapSense_1_Processing.c ****         CapSense_1_dsRam.wdgtEnable[wdgtId] = 0xFFFFFFFFLu;
  51              		.loc 1 413 0 discriminator 3
  52 0012 0120     		movs	r0, #1
  53 0014 4042     		rsbs	r0, r0, #0
  54 0016 5050     		str	r0, [r2, r1]
 407:Generated_Source\PSoC4/CapSense_1_Processing.c ****     {
  55              		.loc 1 407 0 discriminator 3
  56 0018 0133     		adds	r3, r3, #1
  57              	.LVL2:
  58              	.L2:
 407:Generated_Source\PSoC4/CapSense_1_Processing.c ****     {
  59              		.loc 1 407 0 is_stmt 0 discriminator 1
  60 001a 002B     		cmp	r3, #0
  61 001c F3D0     		beq	.L3
  62 001e 224C     		ldr	r4, .L15+4
  63 0020 0423     		movs	r3, #4
  64              	.LVL3:
  65 0022 3BE0     		b	.L4
  66              	.LVL4:
  67              	.L14:
 414:Generated_Source\PSoC4/CapSense_1_Processing.c **** 
 415:Generated_Source\PSoC4/CapSense_1_Processing.c ****         /* Set all the widgets to working state if the Self-Test is not enabled */
 416:Generated_Source\PSoC4/CapSense_1_Processing.c ****         #if (0u != CapSense_1_SELF_TEST_EN)
 417:Generated_Source\PSoC4/CapSense_1_Processing.c ****             CapSense_1_dsRam.wdgtWorking[wdgtId] = 0xFFFFFFFFLu;
 418:Generated_Source\PSoC4/CapSense_1_Processing.c ****         #endif /* #if (0u == CapSense_1_SELF_TEST_EN) */
 419:Generated_Source\PSoC4/CapSense_1_Processing.c ****     }
 420:Generated_Source\PSoC4/CapSense_1_Processing.c **** 
 421:Generated_Source\PSoC4/CapSense_1_Processing.c ****     ptrFlashWdgt = CapSense_1_dsFlash.wdgtArray;
 422:Generated_Source\PSoC4/CapSense_1_Processing.c **** 
 423:Generated_Source\PSoC4/CapSense_1_Processing.c ****     for (wdgtId = CapSense_1_TOTAL_WIDGETS; wdgtId-- > 0u; )
 424:Generated_Source\PSoC4/CapSense_1_Processing.c ****     {
 425:Generated_Source\PSoC4/CapSense_1_Processing.c ****         ptrRamWdgt = (CapSense_1_RAM_WD_BASE_STRUCT *)ptrFlashWdgt->ptr2WdgtRam;
  68              		.loc 1 425 0 is_stmt 1
  69 0024 6668     		ldr	r6, [r4, #4]
  70              	.LVL5:
 426:Generated_Source\PSoC4/CapSense_1_Processing.c ****         widgetType = (CapSense_1_WD_TYPE_ENUM)ptrFlashWdgt->wdgtType;
  71              		.loc 1 426 0
  72 0026 A27E     		ldrb	r2, [r4, #26]
  73              	.LVL6:
 427:Generated_Source\PSoC4/CapSense_1_Processing.c **** 
 428:Generated_Source\PSoC4/CapSense_1_Processing.c ****         /* Clear all sensor statuses */
 429:Generated_Source\PSoC4/CapSense_1_Processing.c ****         CapSense_1_dsRam.snsStatus[wdgtId] = 0u;
  74              		.loc 1 429 0
  75 0028 2B00     		movs	r3, r5
  76 002a 0C33     		adds	r3, r3, #12
  77 002c 5B00     		lsls	r3, r3, #1
  78 002e 0020     		movs	r0, #0
  79 0030 1C49     		ldr	r1, .L15
  80 0032 5852     		strh	r0, [r3, r1]
 430:Generated_Source\PSoC4/CapSense_1_Processing.c **** 
 431:Generated_Source\PSoC4/CapSense_1_Processing.c ****         /* Reset de-bounce counters */
ARM GAS  C:\Users\exp32\AppData\Local\Temp\ccki8209.s 			page 10


 432:Generated_Source\PSoC4/CapSense_1_Processing.c ****         switch (widgetType)
  81              		.loc 1 432 0
  82 0034 032A     		cmp	r2, #3
  83 0036 04D8     		bhi	.L6
  84 0038 022A     		cmp	r2, #2
  85 003a 0DD2     		bcs	.L7
  86 003c 012A     		cmp	r2, #1
  87 003e 03D0     		beq	.L8
  88 0040 2AE0     		b	.L5
  89              	.L6:
  90 0042 052A     		cmp	r2, #5
  91 0044 1BD0     		beq	.L9
  92 0046 27E0     		b	.L5
  93              	.L8:
 433:Generated_Source\PSoC4/CapSense_1_Processing.c ****         {
 434:Generated_Source\PSoC4/CapSense_1_Processing.c ****         #if (0u != CapSense_1_MATRIX_WIDGET_EN)
 435:Generated_Source\PSoC4/CapSense_1_Processing.c ****             case CapSense_1_WD_MATRIX_BUTTON_E:
 436:Generated_Source\PSoC4/CapSense_1_Processing.c ****                 #if (0u != CapSense_1_CSD_MATRIX_WIDGET_EN)
 437:Generated_Source\PSoC4/CapSense_1_Processing.c ****                     if (CapSense_1_SENSE_METHOD_CSD_E == CapSense_1_GET_SENSE_METHOD(ptrFlashWdgt))
 438:Generated_Source\PSoC4/CapSense_1_Processing.c ****                     {
 439:Generated_Source\PSoC4/CapSense_1_Processing.c ****                         CapSense_1_DpInitCsdMatrix(ptrFlashWdgt);
 440:Generated_Source\PSoC4/CapSense_1_Processing.c ****                     }
 441:Generated_Source\PSoC4/CapSense_1_Processing.c ****                 #endif /* #if (0u != CapSense_1_CSD_MATRIX_WIDGET_EN) */
 442:Generated_Source\PSoC4/CapSense_1_Processing.c **** 
 443:Generated_Source\PSoC4/CapSense_1_Processing.c ****                 if (NULL != ptrFlashWdgt->ptr2DebounceArr)
 444:Generated_Source\PSoC4/CapSense_1_Processing.c ****                 {
 445:Generated_Source\PSoC4/CapSense_1_Processing.c ****                     /* Initialize array of debounce counters */
 446:Generated_Source\PSoC4/CapSense_1_Processing.c ****                     (void)memset(ptrFlashWdgt->ptr2DebounceArr,
 447:Generated_Source\PSoC4/CapSense_1_Processing.c ****                                  (int32)ptrRamWdgt->onDebounce,
 448:Generated_Source\PSoC4/CapSense_1_Processing.c ****                                  (size_t)ptrFlashWdgt->totalNumSns);
 449:Generated_Source\PSoC4/CapSense_1_Processing.c ****                 }
 450:Generated_Source\PSoC4/CapSense_1_Processing.c ****                 break;
 451:Generated_Source\PSoC4/CapSense_1_Processing.c ****         #endif /* #if (0u != CapSense_1_MATRIX_WIDGET_EN) */
 452:Generated_Source\PSoC4/CapSense_1_Processing.c **** 
 453:Generated_Source\PSoC4/CapSense_1_Processing.c ****         #if (0u != CapSense_1_BUTTON_WIDGET_EN)
 454:Generated_Source\PSoC4/CapSense_1_Processing.c ****             case CapSense_1_WD_BUTTON_E:
 455:Generated_Source\PSoC4/CapSense_1_Processing.c ****                 if (NULL != ptrFlashWdgt->ptr2DebounceArr)
  94              		.loc 1 455 0
  95 0048 2069     		ldr	r0, [r4, #16]
  96 004a 0028     		cmp	r0, #0
  97 004c 24D0     		beq	.L5
 456:Generated_Source\PSoC4/CapSense_1_Processing.c ****                 {
 457:Generated_Source\PSoC4/CapSense_1_Processing.c ****                     /* Initialize array of debounce counters */
 458:Generated_Source\PSoC4/CapSense_1_Processing.c ****                     (void)memset(ptrFlashWdgt->ptr2DebounceArr,
 459:Generated_Source\PSoC4/CapSense_1_Processing.c ****                                  (int32)ptrRamWdgt->onDebounce,
  98              		.loc 1 459 0
  99 004e F179     		ldrb	r1, [r6, #7]
 460:Generated_Source\PSoC4/CapSense_1_Processing.c ****                                  (size_t)ptrFlashWdgt->totalNumSns);
 100              		.loc 1 460 0
 101 0050 228B     		ldrh	r2, [r4, #24]
 102              	.LVL7:
 458:Generated_Source\PSoC4/CapSense_1_Processing.c ****                                  (int32)ptrRamWdgt->onDebounce,
 103              		.loc 1 458 0
 104 0052 FFF7FEFF 		bl	memset
 105              	.LVL8:
 106 0056 1FE0     		b	.L5
 107              	.LVL9:
ARM GAS  C:\Users\exp32\AppData\Local\Temp\ccki8209.s 			page 11


 108              	.L7:
 461:Generated_Source\PSoC4/CapSense_1_Processing.c ****                 }
 462:Generated_Source\PSoC4/CapSense_1_Processing.c ****                 break;
 463:Generated_Source\PSoC4/CapSense_1_Processing.c ****         #endif /* #if (0u != CapSense_1_BUTTON_WIDGET_EN) */
 464:Generated_Source\PSoC4/CapSense_1_Processing.c **** 
 465:Generated_Source\PSoC4/CapSense_1_Processing.c ****         #if (0u != CapSense_1_SLIDER_WIDGET_EN)
 466:Generated_Source\PSoC4/CapSense_1_Processing.c ****             case CapSense_1_WD_LINEAR_SLIDER_E:
 467:Generated_Source\PSoC4/CapSense_1_Processing.c ****             case CapSense_1_WD_RADIAL_SLIDER_E:
 468:Generated_Source\PSoC4/CapSense_1_Processing.c ****                 if (NULL != ptrFlashWdgt->ptr2DebounceArr)
 109              		.loc 1 468 0
 110 0058 2369     		ldr	r3, [r4, #16]
 111 005a 002B     		cmp	r3, #0
 112 005c 01D0     		beq	.L10
 469:Generated_Source\PSoC4/CapSense_1_Processing.c ****                 {
 470:Generated_Source\PSoC4/CapSense_1_Processing.c ****                     /* Initialize single debounce counter of slider */
 471:Generated_Source\PSoC4/CapSense_1_Processing.c ****                     *(uint8 *)(ptrFlashWdgt->ptr2DebounceArr) = ptrRamWdgt->onDebounce;
 113              		.loc 1 471 0
 114 005e F279     		ldrb	r2, [r6, #7]
 115              	.LVL10:
 116 0060 1A70     		strb	r2, [r3]
 117              	.L10:
 118              	.LVL11:
 119              	.LBB8:
 120              	.LBB9:
 327:Generated_Source\PSoC4/CapSense_1_Processing.c **** 
 121              		.loc 1 327 0
 122 0062 6168     		ldr	r1, [r4, #4]
 123              	.LVL12:
 330:Generated_Source\PSoC4/CapSense_1_Processing.c ****     {
 124              		.loc 1 330 0
 125 0064 0023     		movs	r3, #0
 126 0066 07E0     		b	.L11
 127              	.LVL13:
 128              	.L12:
 332:Generated_Source\PSoC4/CapSense_1_Processing.c **** 
 129              		.loc 1 332 0
 130 0068 1A00     		movs	r2, r3
 131 006a 0832     		adds	r2, r2, #8
 132 006c 5200     		lsls	r2, r2, #1
 133 006e 8A18     		adds	r2, r1, r2
 134 0070 0120     		movs	r0, #1
 135 0072 4042     		rsbs	r0, r0, #0
 136 0074 D080     		strh	r0, [r2, #6]
 330:Generated_Source\PSoC4/CapSense_1_Processing.c ****     {
 137              		.loc 1 330 0
 138 0076 0133     		adds	r3, r3, #1
 139              	.LVL14:
 140              	.L11:
 141 0078 002B     		cmp	r3, #0
 142 007a F5D0     		beq	.L12
 143 007c 0CE0     		b	.L5
 144              	.LVL15:
 145              	.L9:
 146              	.LBE9:
 147              	.LBE8:
 472:Generated_Source\PSoC4/CapSense_1_Processing.c ****                 }
 473:Generated_Source\PSoC4/CapSense_1_Processing.c **** 
ARM GAS  C:\Users\exp32\AppData\Local\Temp\ccki8209.s 			page 12


 474:Generated_Source\PSoC4/CapSense_1_Processing.c ****                 CapSense_1_DpInitSlider(ptrFlashWdgt);
 475:Generated_Source\PSoC4/CapSense_1_Processing.c **** 
 476:Generated_Source\PSoC4/CapSense_1_Processing.c ****                 break;
 477:Generated_Source\PSoC4/CapSense_1_Processing.c ****         #endif /* #if (0u != CapSense_1_SLIDER_WIDGET_EN) */
 478:Generated_Source\PSoC4/CapSense_1_Processing.c **** 
 479:Generated_Source\PSoC4/CapSense_1_Processing.c ****         #if (0u != CapSense_1_TOUCHPAD_WIDGET_EN)
 480:Generated_Source\PSoC4/CapSense_1_Processing.c ****             case CapSense_1_WD_TOUCHPAD_E:
 481:Generated_Source\PSoC4/CapSense_1_Processing.c ****                 if (NULL != ptrFlashWdgt->ptr2DebounceArr)
 148              		.loc 1 481 0
 149 007e 2369     		ldr	r3, [r4, #16]
 150 0080 002B     		cmp	r3, #0
 151 0082 01D0     		beq	.L13
 482:Generated_Source\PSoC4/CapSense_1_Processing.c ****                 {
 483:Generated_Source\PSoC4/CapSense_1_Processing.c ****                     /* Initialize single debounce counter of touchpad */
 484:Generated_Source\PSoC4/CapSense_1_Processing.c ****                     *(uint8 *)(ptrFlashWdgt->ptr2DebounceArr) = ptrRamWdgt->onDebounce;
 152              		.loc 1 484 0
 153 0084 F279     		ldrb	r2, [r6, #7]
 154              	.LVL16:
 155 0086 1A70     		strb	r2, [r3]
 156              	.L13:
 157              	.LVL17:
 158              	.LBB10:
 159              	.LBB11:
 167:Generated_Source\PSoC4/CapSense_1_Processing.c **** 
 160              		.loc 1 167 0
 161 0088 6368     		ldr	r3, [r4, #4]
 162              	.LVL18:
 209:Generated_Source\PSoC4/CapSense_1_Processing.c ****         {
 163              		.loc 1 209 0
 164 008a 6269     		ldr	r2, [r4, #20]
 165 008c 1205     		lsls	r2, r2, #20
 166 008e 03D5     		bpl	.L5
 211:Generated_Source\PSoC4/CapSense_1_Processing.c ****             ptrWdTouchpad->posY = CapSense_1_TOUCHPAD_POS_NONE;
 167              		.loc 1 211 0
 168 0090 0122     		movs	r2, #1
 169 0092 5242     		rsbs	r2, r2, #0
 170 0094 DA82     		strh	r2, [r3, #22]
 212:Generated_Source\PSoC4/CapSense_1_Processing.c **** 
 171              		.loc 1 212 0
 172 0096 1A83     		strh	r2, [r3, #24]
 173              	.LVL19:
 174              	.L5:
 175              	.LBE11:
 176              	.LBE10:
 485:Generated_Source\PSoC4/CapSense_1_Processing.c ****                 }
 486:Generated_Source\PSoC4/CapSense_1_Processing.c **** 
 487:Generated_Source\PSoC4/CapSense_1_Processing.c ****                 #if (0u != CapSense_1_CSD_TOUCHPAD_WIDGET_EN)
 488:Generated_Source\PSoC4/CapSense_1_Processing.c ****                     if (CapSense_1_SENSE_METHOD_CSD_E == CapSense_1_GET_SENSE_METHOD(ptrFlashWdgt))
 489:Generated_Source\PSoC4/CapSense_1_Processing.c ****                     {
 490:Generated_Source\PSoC4/CapSense_1_Processing.c ****                         CapSense_1_DpInitCsdTouchpad(ptrFlashWdgt);
 491:Generated_Source\PSoC4/CapSense_1_Processing.c ****                     }
 492:Generated_Source\PSoC4/CapSense_1_Processing.c ****                 #endif /* #if (0u != CapSense_1_CSD_TOUCHPAD_WIDGET_EN) */
 493:Generated_Source\PSoC4/CapSense_1_Processing.c **** 
 494:Generated_Source\PSoC4/CapSense_1_Processing.c ****                 #if (0u != CapSense_1_CSX_TOUCHPAD_WIDGET_EN)
 495:Generated_Source\PSoC4/CapSense_1_Processing.c ****                     if (CapSense_1_SENSE_METHOD_CSX_E == CapSense_1_GET_SENSE_METHOD(ptrFlashWdgt))
 496:Generated_Source\PSoC4/CapSense_1_Processing.c ****                     {
 497:Generated_Source\PSoC4/CapSense_1_Processing.c ****                         CapSense_1_DpInitCsxTouchpad(ptrFlashWdgt);
ARM GAS  C:\Users\exp32\AppData\Local\Temp\ccki8209.s 			page 13


 498:Generated_Source\PSoC4/CapSense_1_Processing.c ****                     }
 499:Generated_Source\PSoC4/CapSense_1_Processing.c ****                 #endif /* #if (0u != CapSense_1_CSX_TOUCHPAD_WIDGET_EN) */
 500:Generated_Source\PSoC4/CapSense_1_Processing.c **** 
 501:Generated_Source\PSoC4/CapSense_1_Processing.c ****                 break;
 502:Generated_Source\PSoC4/CapSense_1_Processing.c ****         #endif /* #if (0u != CapSense_1_TOUCHPAD_WIDGET_EN) */
 503:Generated_Source\PSoC4/CapSense_1_Processing.c **** 
 504:Generated_Source\PSoC4/CapSense_1_Processing.c ****         #if (0u != CapSense_1_PROXIMITY_WIDGET_EN)
 505:Generated_Source\PSoC4/CapSense_1_Processing.c ****             case CapSense_1_WD_PROXIMITY_E:
 506:Generated_Source\PSoC4/CapSense_1_Processing.c ****                 if (NULL != ptrFlashWdgt->ptr2DebounceArr)
 507:Generated_Source\PSoC4/CapSense_1_Processing.c ****                 {
 508:Generated_Source\PSoC4/CapSense_1_Processing.c ****                     /* Proximity widgets have 2 de-bounce counters per sensor.
 509:Generated_Source\PSoC4/CapSense_1_Processing.c ****                      * Therefore the number of sensors is multiplied by 2.
 510:Generated_Source\PSoC4/CapSense_1_Processing.c ****                      */
 511:Generated_Source\PSoC4/CapSense_1_Processing.c ****                    (void)memset(ptrFlashWdgt->ptr2DebounceArr,
 512:Generated_Source\PSoC4/CapSense_1_Processing.c ****                                 (int32)ptrRamWdgt->onDebounce,
 513:Generated_Source\PSoC4/CapSense_1_Processing.c ****                                 (size_t)ptrFlashWdgt->totalNumSns * 2u);
 514:Generated_Source\PSoC4/CapSense_1_Processing.c ****                 }
 515:Generated_Source\PSoC4/CapSense_1_Processing.c ****                 break;
 516:Generated_Source\PSoC4/CapSense_1_Processing.c ****         #endif /* #if (0u != CapSense_1_PROXIMITY_WIDGET_EN) */
 517:Generated_Source\PSoC4/CapSense_1_Processing.c **** 
 518:Generated_Source\PSoC4/CapSense_1_Processing.c ****         #if (0u != CapSense_1_ENCODERDIAL_WIDGET_EN)
 519:Generated_Source\PSoC4/CapSense_1_Processing.c ****             case CapSense_1_WD_ENCODERDIAL_E:
 520:Generated_Source\PSoC4/CapSense_1_Processing.c ****                 if (NULL != ptrFlashWdgt->ptr2DebounceArr)
 521:Generated_Source\PSoC4/CapSense_1_Processing.c ****                 {
 522:Generated_Source\PSoC4/CapSense_1_Processing.c ****                     /* Proximity widgets have 2 de-bounce counters per sensor.
 523:Generated_Source\PSoC4/CapSense_1_Processing.c ****                      * Therefore the number of sensors is multiplied by 2.
 524:Generated_Source\PSoC4/CapSense_1_Processing.c ****                      */
 525:Generated_Source\PSoC4/CapSense_1_Processing.c ****                    (void)memset(ptrFlashWdgt->ptr2DebounceArr,
 526:Generated_Source\PSoC4/CapSense_1_Processing.c ****                                 (int32)ptrRamWdgt->onDebounce,
 527:Generated_Source\PSoC4/CapSense_1_Processing.c ****                                 (size_t)ptrFlashWdgt->totalNumSns);
 528:Generated_Source\PSoC4/CapSense_1_Processing.c ****                 }
 529:Generated_Source\PSoC4/CapSense_1_Processing.c ****                 break;
 530:Generated_Source\PSoC4/CapSense_1_Processing.c ****         #endif /* (0u != CapSense_1_ENCODERDIAL_WIDGET_EN) */
 531:Generated_Source\PSoC4/CapSense_1_Processing.c ****             default:
 532:Generated_Source\PSoC4/CapSense_1_Processing.c ****                 break;
 533:Generated_Source\PSoC4/CapSense_1_Processing.c ****         }
 534:Generated_Source\PSoC4/CapSense_1_Processing.c **** 
 535:Generated_Source\PSoC4/CapSense_1_Processing.c ****         /* Move to next widget */
 536:Generated_Source\PSoC4/CapSense_1_Processing.c ****         ptrFlashWdgt++;
 177              		.loc 1 536 0
 178 0098 3434     		adds	r4, r4, #52
 179              	.LVL20:
 423:Generated_Source\PSoC4/CapSense_1_Processing.c ****     {
 180              		.loc 1 423 0
 181 009a 2B00     		movs	r3, r5
 182              	.LVL21:
 183              	.L4:
 423:Generated_Source\PSoC4/CapSense_1_Processing.c ****     {
 184              		.loc 1 423 0 is_stmt 0 discriminator 1
 185 009c 5D1E     		subs	r5, r3, #1
 186              	.LVL22:
 187 009e 002B     		cmp	r3, #0
 188 00a0 C0D1     		bne	.L14
 537:Generated_Source\PSoC4/CapSense_1_Processing.c ****     }
 538:Generated_Source\PSoC4/CapSense_1_Processing.c **** }
 189              		.loc 1 538 0 is_stmt 1
 190              		@ sp needed
ARM GAS  C:\Users\exp32\AppData\Local\Temp\ccki8209.s 			page 14


 191              	.LVL23:
 192              	.LVL24:
 193 00a2 70BD     		pop	{r4, r5, r6, pc}
 194              	.L16:
 195              		.align	2
 196              	.L15:
 197 00a4 00000000 		.word	CapSense_1_dsRam
 198 00a8 00000000 		.word	CapSense_1_dsFlash
 199              		.cfi_endproc
 200              	.LFE3:
 201              		.size	CapSense_1_DpInitialize, .-CapSense_1_DpInitialize
 202              		.section	.text.CapSense_1_DpUpdateThresholds,"ax",%progbits
 203              		.align	2
 204              		.global	CapSense_1_DpUpdateThresholds
 205              		.code	16
 206              		.thumb_func
 207              		.type	CapSense_1_DpUpdateThresholds, %function
 208              	CapSense_1_DpUpdateThresholds:
 209              	.LFB7:
 539:Generated_Source\PSoC4/CapSense_1_Processing.c **** 
 540:Generated_Source\PSoC4/CapSense_1_Processing.c **** #if (0u != CapSense_1_TOTAL_CSX_WIDGETS)
 541:Generated_Source\PSoC4/CapSense_1_Processing.c **** /*******************************************************************************
 542:Generated_Source\PSoC4/CapSense_1_Processing.c **** * Function Name: CapSense_1_DpProcessCsxWidgetRawCounts
 543:Generated_Source\PSoC4/CapSense_1_Processing.c **** ****************************************************************************//**
 544:Generated_Source\PSoC4/CapSense_1_Processing.c **** *
 545:Generated_Source\PSoC4/CapSense_1_Processing.c **** * \brief
 546:Generated_Source\PSoC4/CapSense_1_Processing.c **** *  Performs default processing of the CSX raw counts.
 547:Generated_Source\PSoC4/CapSense_1_Processing.c **** *
 548:Generated_Source\PSoC4/CapSense_1_Processing.c **** * \details
 549:Generated_Source\PSoC4/CapSense_1_Processing.c **** *  Performs default processing of the CSX raw counts:
 550:Generated_Source\PSoC4/CapSense_1_Processing.c **** *   - Run Filters
 551:Generated_Source\PSoC4/CapSense_1_Processing.c **** *   - Update Baselines
 552:Generated_Source\PSoC4/CapSense_1_Processing.c **** *   - Update Differences
 553:Generated_Source\PSoC4/CapSense_1_Processing.c **** *   - Update Status.
 554:Generated_Source\PSoC4/CapSense_1_Processing.c **** *  The same process is applied to all the sensors of the specified widget.
 555:Generated_Source\PSoC4/CapSense_1_Processing.c **** *
 556:Generated_Source\PSoC4/CapSense_1_Processing.c **** * \param ptrFlashWdgt The pointer to the Flash widget structure.
 557:Generated_Source\PSoC4/CapSense_1_Processing.c **** *
 558:Generated_Source\PSoC4/CapSense_1_Processing.c **** * \return
 559:Generated_Source\PSoC4/CapSense_1_Processing.c **** *  Returns the status of the specified widget processing operation:
 560:Generated_Source\PSoC4/CapSense_1_Processing.c **** *  - CYRET_SUCCESS if operation was successfully completed;
 561:Generated_Source\PSoC4/CapSense_1_Processing.c **** *  - CapSense_1_PROCESS_BASELINE_FAILED if baseline processing of any
 562:Generated_Source\PSoC4/CapSense_1_Processing.c **** *    sensor of the specified widget failed. The result is concatenated with the index
 563:Generated_Source\PSoC4/CapSense_1_Processing.c **** *    of failed sensor.
 564:Generated_Source\PSoC4/CapSense_1_Processing.c **** *
 565:Generated_Source\PSoC4/CapSense_1_Processing.c **** *******************************************************************************/
 566:Generated_Source\PSoC4/CapSense_1_Processing.c **** uint32 CapSense_1_DpProcessCsxWidgetRawCounts(CapSense_1_FLASH_WD_STRUCT const *ptrFlashWdgt)
 567:Generated_Source\PSoC4/CapSense_1_Processing.c **** {
 568:Generated_Source\PSoC4/CapSense_1_Processing.c ****     uint32 result = CYRET_SUCCESS;
 569:Generated_Source\PSoC4/CapSense_1_Processing.c ****     uint32 widgetType;
 570:Generated_Source\PSoC4/CapSense_1_Processing.c ****     uint32 snsCount;
 571:Generated_Source\PSoC4/CapSense_1_Processing.c ****     CapSense_1_RAM_SNS_STRUCT *ptrSnsTmp;
 572:Generated_Source\PSoC4/CapSense_1_Processing.c ****     CapSense_1_RAM_WD_BASE_STRUCT *ptrRamWdgt;
 573:Generated_Source\PSoC4/CapSense_1_Processing.c **** 
 574:Generated_Source\PSoC4/CapSense_1_Processing.c ****     #if (CapSense_1_ENABLE == CapSense_1_RC_FILTER_EN)
 575:Generated_Source\PSoC4/CapSense_1_Processing.c ****         CapSense_1_PTR_FILTER_VARIANT fltrHistV;
 576:Generated_Source\PSoC4/CapSense_1_Processing.c **** 
ARM GAS  C:\Users\exp32\AppData\Local\Temp\ccki8209.s 			page 15


 577:Generated_Source\PSoC4/CapSense_1_Processing.c ****         fltrHistV.ptr = ptrFlashWdgt->ptr2FltrHistory;
 578:Generated_Source\PSoC4/CapSense_1_Processing.c ****     #endif /* #if (CapSense_1_ENABLE == CapSense_1_RC_FILTER_EN) */
 579:Generated_Source\PSoC4/CapSense_1_Processing.c **** 
 580:Generated_Source\PSoC4/CapSense_1_Processing.c ****     ptrSnsTmp = ptrFlashWdgt->ptr2SnsRam;
 581:Generated_Source\PSoC4/CapSense_1_Processing.c ****     snsCount = ptrFlashWdgt->totalNumSns;
 582:Generated_Source\PSoC4/CapSense_1_Processing.c ****     ptrRamWdgt = (CapSense_1_RAM_WD_BASE_STRUCT *)ptrFlashWdgt->ptr2WdgtRam;
 583:Generated_Source\PSoC4/CapSense_1_Processing.c ****     widgetType = ptrFlashWdgt->wdgtType;
 584:Generated_Source\PSoC4/CapSense_1_Processing.c **** 
 585:Generated_Source\PSoC4/CapSense_1_Processing.c ****     /* Run deconvolution algorithm for the widgets with multiphase TX support */
 586:Generated_Source\PSoC4/CapSense_1_Processing.c ****     #if (0u != CapSense_1_CSX_MULTIPHASE_TX_EN)
 587:Generated_Source\PSoC4/CapSense_1_Processing.c ****         if (0u != (ptrFlashWdgt->staticConfig & CapSense_1_MULTIPHASE_TX_MASK))
 588:Generated_Source\PSoC4/CapSense_1_Processing.c ****         {
 589:Generated_Source\PSoC4/CapSense_1_Processing.c ****             CapSense_1_DpDeconvolution(ptrFlashWdgt);
 590:Generated_Source\PSoC4/CapSense_1_Processing.c ****         }
 591:Generated_Source\PSoC4/CapSense_1_Processing.c ****     #endif  /* #if (0u != CapSense_1_CSX_MULTIPHASE_TX_EN) */
 592:Generated_Source\PSoC4/CapSense_1_Processing.c **** 
 593:Generated_Source\PSoC4/CapSense_1_Processing.c ****     for (;snsCount-- > 0u;)
 594:Generated_Source\PSoC4/CapSense_1_Processing.c ****     {
 595:Generated_Source\PSoC4/CapSense_1_Processing.c ****         #if (CapSense_1_ENABLE == CapSense_1_RC_FILTER_EN)
 596:Generated_Source\PSoC4/CapSense_1_Processing.c ****             CapSense_1_FtRunEnabledFiltersInternal(fltrHistV, ptrSnsTmp, widgetType);
 597:Generated_Source\PSoC4/CapSense_1_Processing.c ****             #if (CapSense_1_ALP_FILTER_EN)
 598:Generated_Source\PSoC4/CapSense_1_Processing.c ****                 CapSense_1_ConfigRunALPInternal(fltrHistV, ptrRamWdgt, ptrSnsTmp, widgetType);
 599:Generated_Source\PSoC4/CapSense_1_Processing.c ****             #endif
 600:Generated_Source\PSoC4/CapSense_1_Processing.c ****         #endif /* #if (CapSense_1_ENABLE == CapSense_1_RC_FILTER_EN) */
 601:Generated_Source\PSoC4/CapSense_1_Processing.c **** 
 602:Generated_Source\PSoC4/CapSense_1_Processing.c ****         result = CapSense_1_FtUpdateBaseline(ptrRamWdgt, ptrSnsTmp, widgetType);
 603:Generated_Source\PSoC4/CapSense_1_Processing.c **** 
 604:Generated_Source\PSoC4/CapSense_1_Processing.c ****         #if (CapSense_1_ENABLE == CapSense_1_TST_BSLN_DUPLICATION_EN)
 605:Generated_Source\PSoC4/CapSense_1_Processing.c ****             if (CYRET_SUCCESS != result)
 606:Generated_Source\PSoC4/CapSense_1_Processing.c ****             {
 607:Generated_Source\PSoC4/CapSense_1_Processing.c ****                 result = snsCount | CapSense_1_PROCESS_BASELINE_FAILED;
 608:Generated_Source\PSoC4/CapSense_1_Processing.c ****             }
 609:Generated_Source\PSoC4/CapSense_1_Processing.c ****         #endif /* (CapSense_1_ENABLE == CapSense_1_TST_BSLN_DUPLICATION_EN) */
 610:Generated_Source\PSoC4/CapSense_1_Processing.c **** 
 611:Generated_Source\PSoC4/CapSense_1_Processing.c ****         CapSense_1_DpUpdateDifferences(ptrRamWdgt, ptrSnsTmp);
 612:Generated_Source\PSoC4/CapSense_1_Processing.c **** 
 613:Generated_Source\PSoC4/CapSense_1_Processing.c ****         /* Move pointers to the next sensor and filter history objects */
 614:Generated_Source\PSoC4/CapSense_1_Processing.c ****         ptrSnsTmp++;
 615:Generated_Source\PSoC4/CapSense_1_Processing.c **** 
 616:Generated_Source\PSoC4/CapSense_1_Processing.c ****         #if (CapSense_1_ENABLE == CapSense_1_RC_FILTER_EN)
 617:Generated_Source\PSoC4/CapSense_1_Processing.c ****             CapSense_1_INC_REG_FLTR_OBJ(fltrHistV);
 618:Generated_Source\PSoC4/CapSense_1_Processing.c ****         #endif /* #if (CapSense_1_ENABLE == CapSense_1_RC_FILTER_EN) */
 619:Generated_Source\PSoC4/CapSense_1_Processing.c ****     }
 620:Generated_Source\PSoC4/CapSense_1_Processing.c ****     return result;
 621:Generated_Source\PSoC4/CapSense_1_Processing.c **** }
 622:Generated_Source\PSoC4/CapSense_1_Processing.c **** 
 623:Generated_Source\PSoC4/CapSense_1_Processing.c **** /*******************************************************************************
 624:Generated_Source\PSoC4/CapSense_1_Processing.c **** * Function Name: CapSense_1_DpProcessCsxSensorRawCountsExt
 625:Generated_Source\PSoC4/CapSense_1_Processing.c **** ****************************************************************************//**
 626:Generated_Source\PSoC4/CapSense_1_Processing.c **** *
 627:Generated_Source\PSoC4/CapSense_1_Processing.c **** * \brief
 628:Generated_Source\PSoC4/CapSense_1_Processing.c **** *   Performs customized processing of the CSX sensor raw counts.
 629:Generated_Source\PSoC4/CapSense_1_Processing.c **** *
 630:Generated_Source\PSoC4/CapSense_1_Processing.c **** * \details
 631:Generated_Source\PSoC4/CapSense_1_Processing.c **** *   Performs customized processing of the CSX sensor raw counts.
 632:Generated_Source\PSoC4/CapSense_1_Processing.c **** *
 633:Generated_Source\PSoC4/CapSense_1_Processing.c **** *   If all bits are set at once the default processing order will take place.
ARM GAS  C:\Users\exp32\AppData\Local\Temp\ccki8209.s 			page 16


 634:Generated_Source\PSoC4/CapSense_1_Processing.c **** *   For the custom order this API can be called multiple times and execute one task at a time.
 635:Generated_Source\PSoC4/CapSense_1_Processing.c **** *
 636:Generated_Source\PSoC4/CapSense_1_Processing.c **** * \param ptrFlashWdgt The pointer to the Flash Widget Object.
 637:Generated_Source\PSoC4/CapSense_1_Processing.c **** * \param curSnsPtr    The pointer to the specific RAM Sensor Object.
 638:Generated_Source\PSoC4/CapSense_1_Processing.c **** * \param fltrHistV    The pointer to the Filter History Object in RAM associated with specific sens
 639:Generated_Source\PSoC4/CapSense_1_Processing.c **** * \param mode         The bit-mask with the data processing tasks to be executed.
 640:Generated_Source\PSoC4/CapSense_1_Processing.c **** *   The mode parameters can take the following values:
 641:Generated_Source\PSoC4/CapSense_1_Processing.c **** *    - CapSense_1_PROCESS_FILTER     (0x01) Run Firmware Filter
 642:Generated_Source\PSoC4/CapSense_1_Processing.c **** *    - CapSense_1_PROCESS_BASELINE   (0x02) Update Baselines
 643:Generated_Source\PSoC4/CapSense_1_Processing.c **** *    - CapSense_1_PROCESS_DIFFCOUNTS (0x04) Update Difference Counts
 644:Generated_Source\PSoC4/CapSense_1_Processing.c **** *    - CapSense_1_PROCESS_ALL               Execute all tasks
 645:Generated_Source\PSoC4/CapSense_1_Processing.c **** *
 646:Generated_Source\PSoC4/CapSense_1_Processing.c **** * \return
 647:Generated_Source\PSoC4/CapSense_1_Processing.c **** *  Returns the status of the specified sensor processing operation:
 648:Generated_Source\PSoC4/CapSense_1_Processing.c **** *  - CYRET_SUCCESS if operation was successfully completed;
 649:Generated_Source\PSoC4/CapSense_1_Processing.c **** *  - CapSense_1_PROCESS_BASELINE_FAILED if baseline processing of any
 650:Generated_Source\PSoC4/CapSense_1_Processing.c **** *    sensor of the specified widget failed. The result is concatenated with the index
 651:Generated_Source\PSoC4/CapSense_1_Processing.c **** *    of failed sensor.
 652:Generated_Source\PSoC4/CapSense_1_Processing.c **** *
 653:Generated_Source\PSoC4/CapSense_1_Processing.c **** *******************************************************************************/
 654:Generated_Source\PSoC4/CapSense_1_Processing.c **** uint32 CapSense_1_DpProcessCsxSensorRawCountsExt(
 655:Generated_Source\PSoC4/CapSense_1_Processing.c ****                 CapSense_1_FLASH_WD_STRUCT const *ptrFlashWdgt,
 656:Generated_Source\PSoC4/CapSense_1_Processing.c ****                 CapSense_1_RAM_SNS_STRUCT *curSnsPtr,
 657:Generated_Source\PSoC4/CapSense_1_Processing.c ****                 CapSense_1_PTR_FILTER_VARIANT fltrHistV,
 658:Generated_Source\PSoC4/CapSense_1_Processing.c ****                 uint32 mode)
 659:Generated_Source\PSoC4/CapSense_1_Processing.c **** {
 660:Generated_Source\PSoC4/CapSense_1_Processing.c ****     uint32  result = CYRET_SUCCESS;
 661:Generated_Source\PSoC4/CapSense_1_Processing.c ****     uint32  widgetType;
 662:Generated_Source\PSoC4/CapSense_1_Processing.c ****     CapSense_1_RAM_WD_BASE_STRUCT *ptrRamWdgt;
 663:Generated_Source\PSoC4/CapSense_1_Processing.c **** 
 664:Generated_Source\PSoC4/CapSense_1_Processing.c ****     widgetType = ptrFlashWdgt->wdgtType;
 665:Generated_Source\PSoC4/CapSense_1_Processing.c ****     ptrRamWdgt = (CapSense_1_RAM_WD_BASE_STRUCT *)ptrFlashWdgt->ptr2WdgtRam;
 666:Generated_Source\PSoC4/CapSense_1_Processing.c **** 
 667:Generated_Source\PSoC4/CapSense_1_Processing.c ****     #if (CapSense_1_ENABLE == CapSense_1_RC_FILTER_EN)
 668:Generated_Source\PSoC4/CapSense_1_Processing.c ****         if (0u != (mode & CapSense_1_PROCESS_FILTER))
 669:Generated_Source\PSoC4/CapSense_1_Processing.c ****         {
 670:Generated_Source\PSoC4/CapSense_1_Processing.c ****             CapSense_1_FtRunEnabledFiltersInternal(fltrHistV, curSnsPtr, widgetType);
 671:Generated_Source\PSoC4/CapSense_1_Processing.c ****             #if (CapSense_1_ALP_FILTER_EN)
 672:Generated_Source\PSoC4/CapSense_1_Processing.c ****                 CapSense_1_ConfigRunALPInternal(fltrHistV, ptrRamWdgt, curSnsPtr, widgetType);
 673:Generated_Source\PSoC4/CapSense_1_Processing.c ****             #endif
 674:Generated_Source\PSoC4/CapSense_1_Processing.c ****         }
 675:Generated_Source\PSoC4/CapSense_1_Processing.c ****     #else
 676:Generated_Source\PSoC4/CapSense_1_Processing.c ****         (void)fltrHistV; /* This parameter is unused in such configurations */
 677:Generated_Source\PSoC4/CapSense_1_Processing.c ****     #endif /* #if (CapSense_1_ENABLE == CapSense_1_RC_FILTER_EN) */
 678:Generated_Source\PSoC4/CapSense_1_Processing.c **** 
 679:Generated_Source\PSoC4/CapSense_1_Processing.c ****     if (0u != (mode & CapSense_1_PROCESS_BASELINE))
 680:Generated_Source\PSoC4/CapSense_1_Processing.c ****     {
 681:Generated_Source\PSoC4/CapSense_1_Processing.c ****         result = CapSense_1_FtUpdateBaseline(ptrRamWdgt, curSnsPtr, widgetType);
 682:Generated_Source\PSoC4/CapSense_1_Processing.c ****     }
 683:Generated_Source\PSoC4/CapSense_1_Processing.c **** 
 684:Generated_Source\PSoC4/CapSense_1_Processing.c ****     if (0u != (mode & CapSense_1_PROCESS_DIFFCOUNTS))
 685:Generated_Source\PSoC4/CapSense_1_Processing.c ****     {
 686:Generated_Source\PSoC4/CapSense_1_Processing.c ****         CapSense_1_DpUpdateDifferences(ptrRamWdgt, curSnsPtr);
 687:Generated_Source\PSoC4/CapSense_1_Processing.c ****     }
 688:Generated_Source\PSoC4/CapSense_1_Processing.c ****     return result;
 689:Generated_Source\PSoC4/CapSense_1_Processing.c **** }
 690:Generated_Source\PSoC4/CapSense_1_Processing.c **** 
ARM GAS  C:\Users\exp32\AppData\Local\Temp\ccki8209.s 			page 17


 691:Generated_Source\PSoC4/CapSense_1_Processing.c **** 
 692:Generated_Source\PSoC4/CapSense_1_Processing.c **** /*******************************************************************************
 693:Generated_Source\PSoC4/CapSense_1_Processing.c **** * Function Name: CapSense_1_DpProcessCsxWidgetStatus
 694:Generated_Source\PSoC4/CapSense_1_Processing.c **** ****************************************************************************//**
 695:Generated_Source\PSoC4/CapSense_1_Processing.c **** *
 696:Generated_Source\PSoC4/CapSense_1_Processing.c **** * \brief
 697:Generated_Source\PSoC4/CapSense_1_Processing.c **** *   Updates the status of the CSX widget in the Data Structure.
 698:Generated_Source\PSoC4/CapSense_1_Processing.c **** *
 699:Generated_Source\PSoC4/CapSense_1_Processing.c **** * \details
 700:Generated_Source\PSoC4/CapSense_1_Processing.c **** *  This API determines the type of widget and runs the appropriate function
 701:Generated_Source\PSoC4/CapSense_1_Processing.c **** *  that implements the status update algorithm for this type of widget.
 702:Generated_Source\PSoC4/CapSense_1_Processing.c **** *
 703:Generated_Source\PSoC4/CapSense_1_Processing.c **** *  When the widget-specific processing completes this API updates the snsStatus
 704:Generated_Source\PSoC4/CapSense_1_Processing.c **** *  and wdgtStatus registers in the data structure. The wdgtStatus register
 705:Generated_Source\PSoC4/CapSense_1_Processing.c **** *  is a bitmask were each bit corresponds to the specific widget identified by
 706:Generated_Source\PSoC4/CapSense_1_Processing.c **** *  the widget index. When the bit is set the widget is active (touched);
 707:Generated_Source\PSoC4/CapSense_1_Processing.c **** *
 708:Generated_Source\PSoC4/CapSense_1_Processing.c **** *  Depending on the type of widget the snsStatus register may contain either
 709:Generated_Source\PSoC4/CapSense_1_Processing.c **** *  status of each widget node (active/non-active) or in case of the CSX Touchpad
 710:Generated_Source\PSoC4/CapSense_1_Processing.c **** *  is contains the number of touches. In both cases 0 means that widget is not
 711:Generated_Source\PSoC4/CapSense_1_Processing.c **** *  active.
 712:Generated_Source\PSoC4/CapSense_1_Processing.c **** *
 713:Generated_Source\PSoC4/CapSense_1_Processing.c **** * \param widgetId     The widget ID number.
 714:Generated_Source\PSoC4/CapSense_1_Processing.c **** * \param ptrFlashWdgt The pointer to the Flash Widget Object.
 715:Generated_Source\PSoC4/CapSense_1_Processing.c **** *
 716:Generated_Source\PSoC4/CapSense_1_Processing.c **** *******************************************************************************/
 717:Generated_Source\PSoC4/CapSense_1_Processing.c **** void CapSense_1_DpProcessCsxWidgetStatus(uint32 widgetId, CapSense_1_FLASH_WD_STRUCT const *ptrFlas
 718:Generated_Source\PSoC4/CapSense_1_Processing.c **** {
 719:Generated_Source\PSoC4/CapSense_1_Processing.c ****     uint32 sensorStatus;
 720:Generated_Source\PSoC4/CapSense_1_Processing.c ****     uint32 wdStatusIndex;
 721:Generated_Source\PSoC4/CapSense_1_Processing.c ****     uint32 wdStatusMask;
 722:Generated_Source\PSoC4/CapSense_1_Processing.c ****     CapSense_1_WD_TYPE_ENUM widgetType;
 723:Generated_Source\PSoC4/CapSense_1_Processing.c **** 
 724:Generated_Source\PSoC4/CapSense_1_Processing.c ****     widgetType = (CapSense_1_WD_TYPE_ENUM)ptrFlashWdgt->wdgtType;
 725:Generated_Source\PSoC4/CapSense_1_Processing.c ****     sensorStatus = CapSense_1_dsRam.snsStatus[widgetId];
 726:Generated_Source\PSoC4/CapSense_1_Processing.c **** 
 727:Generated_Source\PSoC4/CapSense_1_Processing.c ****     switch (widgetType)
 728:Generated_Source\PSoC4/CapSense_1_Processing.c ****     {
 729:Generated_Source\PSoC4/CapSense_1_Processing.c ****     #if (0u != CapSense_1_BUTTON_WIDGET_EN)
 730:Generated_Source\PSoC4/CapSense_1_Processing.c ****         case CapSense_1_WD_BUTTON_E:
 731:Generated_Source\PSoC4/CapSense_1_Processing.c ****             sensorStatus = CapSense_1_DpProcessButton(sensorStatus, ptrFlashWdgt);
 732:Generated_Source\PSoC4/CapSense_1_Processing.c ****             break;
 733:Generated_Source\PSoC4/CapSense_1_Processing.c ****     #endif /* #if (0u != CapSense_1_BUTTON_WIDGET_EN) */
 734:Generated_Source\PSoC4/CapSense_1_Processing.c **** 
 735:Generated_Source\PSoC4/CapSense_1_Processing.c ****     #if (0u != CapSense_1_CSX_MATRIX_WIDGET_EN)
 736:Generated_Source\PSoC4/CapSense_1_Processing.c ****         case CapSense_1_WD_MATRIX_BUTTON_E:
 737:Generated_Source\PSoC4/CapSense_1_Processing.c ****             sensorStatus = CapSense_1_DpProcessButton(sensorStatus, ptrFlashWdgt);
 738:Generated_Source\PSoC4/CapSense_1_Processing.c ****             break;
 739:Generated_Source\PSoC4/CapSense_1_Processing.c ****     #endif /* #if (0u != CapSense_1_CSX_MATRIX_WIDGET_EN) */
 740:Generated_Source\PSoC4/CapSense_1_Processing.c **** 
 741:Generated_Source\PSoC4/CapSense_1_Processing.c ****     #if (0u != CapSense_1_CSX_TOUCHPAD_WIDGET_EN)
 742:Generated_Source\PSoC4/CapSense_1_Processing.c ****         case CapSense_1_WD_TOUCHPAD_E:
 743:Generated_Source\PSoC4/CapSense_1_Processing.c ****             sensorStatus = CapSense_1_DpProcessCsxTouchpad(sensorStatus, ptrFlashWdgt);
 744:Generated_Source\PSoC4/CapSense_1_Processing.c ****             break;
 745:Generated_Source\PSoC4/CapSense_1_Processing.c ****     #endif /* #if (0u != CapSense_1_CSX_TOUCHPAD_WIDGET_EN) */
 746:Generated_Source\PSoC4/CapSense_1_Processing.c **** 
 747:Generated_Source\PSoC4/CapSense_1_Processing.c ****     default:
ARM GAS  C:\Users\exp32\AppData\Local\Temp\ccki8209.s 			page 18


 748:Generated_Source\PSoC4/CapSense_1_Processing.c ****         CYASSERT(0u);
 749:Generated_Source\PSoC4/CapSense_1_Processing.c ****         break;
 750:Generated_Source\PSoC4/CapSense_1_Processing.c ****     }
 751:Generated_Source\PSoC4/CapSense_1_Processing.c **** 
 752:Generated_Source\PSoC4/CapSense_1_Processing.c ****     /* Update sensor status in the data structure */
 753:Generated_Source\PSoC4/CapSense_1_Processing.c ****     CapSense_1_dsRam.snsStatus[widgetId] = (CapSense_1_SNS_STS_TYPE)sensorStatus;
 754:Generated_Source\PSoC4/CapSense_1_Processing.c **** 
 755:Generated_Source\PSoC4/CapSense_1_Processing.c ****     /* The next two lines calculate index and bitmask of the widget status bit in the wdgtStatus ar
 756:Generated_Source\PSoC4/CapSense_1_Processing.c ****     wdStatusIndex = CapSense_1_GET_WDGT_STATUS_INDEX(widgetId);
 757:Generated_Source\PSoC4/CapSense_1_Processing.c ****     wdStatusMask = CapSense_1_GET_WDGT_STATUS_MASK(widgetId);
 758:Generated_Source\PSoC4/CapSense_1_Processing.c **** 
 759:Generated_Source\PSoC4/CapSense_1_Processing.c ****     /* Check if there are active sensors and update widget status accordingly */
 760:Generated_Source\PSoC4/CapSense_1_Processing.c ****     if (0u == sensorStatus)
 761:Generated_Source\PSoC4/CapSense_1_Processing.c ****     {
 762:Generated_Source\PSoC4/CapSense_1_Processing.c ****         CapSense_1_dsRam.wdgtStatus[wdStatusIndex] &= ~wdStatusMask;
 763:Generated_Source\PSoC4/CapSense_1_Processing.c ****     }
 764:Generated_Source\PSoC4/CapSense_1_Processing.c ****     else
 765:Generated_Source\PSoC4/CapSense_1_Processing.c ****     {
 766:Generated_Source\PSoC4/CapSense_1_Processing.c ****         CapSense_1_dsRam.wdgtStatus[wdStatusIndex] |= wdStatusMask;
 767:Generated_Source\PSoC4/CapSense_1_Processing.c ****     }
 768:Generated_Source\PSoC4/CapSense_1_Processing.c **** }
 769:Generated_Source\PSoC4/CapSense_1_Processing.c **** #endif /* #if CapSense_1_TOTAL_CSX_WIDGETS */
 770:Generated_Source\PSoC4/CapSense_1_Processing.c **** 
 771:Generated_Source\PSoC4/CapSense_1_Processing.c **** #if (0u != CapSense_1_TOTAL_ISX_WIDGETS)
 772:Generated_Source\PSoC4/CapSense_1_Processing.c **** /*******************************************************************************
 773:Generated_Source\PSoC4/CapSense_1_Processing.c **** * Function Name: CapSense_1_DpProcessIsxWidgetRawCounts
 774:Generated_Source\PSoC4/CapSense_1_Processing.c **** ****************************************************************************//**
 775:Generated_Source\PSoC4/CapSense_1_Processing.c **** *
 776:Generated_Source\PSoC4/CapSense_1_Processing.c **** * \brief
 777:Generated_Source\PSoC4/CapSense_1_Processing.c **** *  Performs default processing of the ISX raw counts.
 778:Generated_Source\PSoC4/CapSense_1_Processing.c **** *
 779:Generated_Source\PSoC4/CapSense_1_Processing.c **** * \details
 780:Generated_Source\PSoC4/CapSense_1_Processing.c **** *  Performs default processing of the ISX raw counts:
 781:Generated_Source\PSoC4/CapSense_1_Processing.c **** *   - Run Filters
 782:Generated_Source\PSoC4/CapSense_1_Processing.c **** *   - Update Baselines
 783:Generated_Source\PSoC4/CapSense_1_Processing.c **** *   - Update Differences
 784:Generated_Source\PSoC4/CapSense_1_Processing.c **** *   - Update Status.
 785:Generated_Source\PSoC4/CapSense_1_Processing.c **** *  The same process is applied to all the sensors of the specified widget.
 786:Generated_Source\PSoC4/CapSense_1_Processing.c **** *
 787:Generated_Source\PSoC4/CapSense_1_Processing.c **** * \param ptrFlashWdgt The pointer to the Flash widget structure.
 788:Generated_Source\PSoC4/CapSense_1_Processing.c **** *
 789:Generated_Source\PSoC4/CapSense_1_Processing.c **** * \return
 790:Generated_Source\PSoC4/CapSense_1_Processing.c **** *  Returns the status of the specified widget processing operation:
 791:Generated_Source\PSoC4/CapSense_1_Processing.c **** *  - CYRET_SUCCESS if operation was successfully completed;
 792:Generated_Source\PSoC4/CapSense_1_Processing.c **** *  - CapSense_1_PROCESS_BASELINE_FAILED if baseline processing of any
 793:Generated_Source\PSoC4/CapSense_1_Processing.c **** *    sensor of the specified widget failed. The result is concatenated with the index
 794:Generated_Source\PSoC4/CapSense_1_Processing.c **** *    of failed sensor.
 795:Generated_Source\PSoC4/CapSense_1_Processing.c **** *
 796:Generated_Source\PSoC4/CapSense_1_Processing.c **** *******************************************************************************/
 797:Generated_Source\PSoC4/CapSense_1_Processing.c **** uint32 CapSense_1_DpProcessIsxWidgetRawCounts(CapSense_1_FLASH_WD_STRUCT const *ptrFlashWdgt)
 798:Generated_Source\PSoC4/CapSense_1_Processing.c **** {
 799:Generated_Source\PSoC4/CapSense_1_Processing.c ****     uint32 result = CYRET_SUCCESS;
 800:Generated_Source\PSoC4/CapSense_1_Processing.c ****     uint32 widgetType;
 801:Generated_Source\PSoC4/CapSense_1_Processing.c ****     uint32 snsCount;
 802:Generated_Source\PSoC4/CapSense_1_Processing.c ****     CapSense_1_RAM_SNS_STRUCT *ptrSns;
 803:Generated_Source\PSoC4/CapSense_1_Processing.c ****     CapSense_1_RAM_WD_BASE_STRUCT *ptrRamWdgt;
 804:Generated_Source\PSoC4/CapSense_1_Processing.c **** 
ARM GAS  C:\Users\exp32\AppData\Local\Temp\ccki8209.s 			page 19


 805:Generated_Source\PSoC4/CapSense_1_Processing.c ****     #if (CapSense_1_ENABLE == CapSense_1_RC_FILTER_EN)
 806:Generated_Source\PSoC4/CapSense_1_Processing.c ****         CapSense_1_PTR_FILTER_VARIANT fltrHistV;
 807:Generated_Source\PSoC4/CapSense_1_Processing.c **** 
 808:Generated_Source\PSoC4/CapSense_1_Processing.c ****         fltrHistV.ptr = ptrFlashWdgt->ptr2FltrHistory;
 809:Generated_Source\PSoC4/CapSense_1_Processing.c ****     #endif /* #if (CapSense_1_ENABLE == CapSense_1_RC_FILTER_EN) */
 810:Generated_Source\PSoC4/CapSense_1_Processing.c **** 
 811:Generated_Source\PSoC4/CapSense_1_Processing.c ****     ptrSns = ptrFlashWdgt->ptr2SnsRam;
 812:Generated_Source\PSoC4/CapSense_1_Processing.c ****     snsCount = ptrFlashWdgt->totalNumSns;
 813:Generated_Source\PSoC4/CapSense_1_Processing.c ****     ptrRamWdgt = ptrFlashWdgt->ptr2WdgtRam;
 814:Generated_Source\PSoC4/CapSense_1_Processing.c ****     widgetType = ptrFlashWdgt->wdgtType;
 815:Generated_Source\PSoC4/CapSense_1_Processing.c **** 
 816:Generated_Source\PSoC4/CapSense_1_Processing.c ****     #if (0u != CapSense_1_ISX_SKIP_OVSMPL_SPECIFIC_NODES)
 817:Generated_Source\PSoC4/CapSense_1_Processing.c ****         if (0u != ptrSns->resolution)
 818:Generated_Source\PSoC4/CapSense_1_Processing.c ****     #endif
 819:Generated_Source\PSoC4/CapSense_1_Processing.c ****     {
 820:Generated_Source\PSoC4/CapSense_1_Processing.c ****         for(;snsCount-- > 0u;)
 821:Generated_Source\PSoC4/CapSense_1_Processing.c ****         {
 822:Generated_Source\PSoC4/CapSense_1_Processing.c ****             #if (CapSense_1_ENABLE == CapSense_1_RC_FILTER_EN)
 823:Generated_Source\PSoC4/CapSense_1_Processing.c ****                 CapSense_1_FtRunEnabledFiltersInternal(fltrHistV, ptrSns, widgetType);
 824:Generated_Source\PSoC4/CapSense_1_Processing.c ****             #endif /* #if (CapSense_1_ENABLE == CapSense_1_RC_FILTER_EN) */
 825:Generated_Source\PSoC4/CapSense_1_Processing.c **** 
 826:Generated_Source\PSoC4/CapSense_1_Processing.c ****             result = CapSense_1_FtUpdateBaseline(ptrRamWdgt, ptrSns, widgetType);
 827:Generated_Source\PSoC4/CapSense_1_Processing.c **** 
 828:Generated_Source\PSoC4/CapSense_1_Processing.c ****             #if (CapSense_1_ENABLE == CapSense_1_TST_BSLN_DUPLICATION_EN)
 829:Generated_Source\PSoC4/CapSense_1_Processing.c ****                 if (CYRET_SUCCESS != result)
 830:Generated_Source\PSoC4/CapSense_1_Processing.c ****                 {
 831:Generated_Source\PSoC4/CapSense_1_Processing.c ****                     result = CapSense_1_PROCESS_BASELINE_FAILED;
 832:Generated_Source\PSoC4/CapSense_1_Processing.c ****                 }
 833:Generated_Source\PSoC4/CapSense_1_Processing.c ****             #endif /* (CapSense_1_ENABLE == CapSense_1_TST_BSLN_DUPLICATION_EN) */
 834:Generated_Source\PSoC4/CapSense_1_Processing.c **** 
 835:Generated_Source\PSoC4/CapSense_1_Processing.c ****             CapSense_1_DpUpdateDifferences(ptrRamWdgt, ptrSns);
 836:Generated_Source\PSoC4/CapSense_1_Processing.c ****             ptrSns++;
 837:Generated_Source\PSoC4/CapSense_1_Processing.c **** 
 838:Generated_Source\PSoC4/CapSense_1_Processing.c ****             #if (CapSense_1_ENABLE == CapSense_1_RC_FILTER_EN)
 839:Generated_Source\PSoC4/CapSense_1_Processing.c ****                 CapSense_1_INC_FLTR_OBJ_VARIANT(0u, fltrHistV);
 840:Generated_Source\PSoC4/CapSense_1_Processing.c ****             #endif /* #if (CapSense_1_ENABLE == CapSense_1_RC_FILTER_EN) */
 841:Generated_Source\PSoC4/CapSense_1_Processing.c ****         }
 842:Generated_Source\PSoC4/CapSense_1_Processing.c ****     }
 843:Generated_Source\PSoC4/CapSense_1_Processing.c **** 
 844:Generated_Source\PSoC4/CapSense_1_Processing.c ****     return result;
 845:Generated_Source\PSoC4/CapSense_1_Processing.c **** }
 846:Generated_Source\PSoC4/CapSense_1_Processing.c **** 
 847:Generated_Source\PSoC4/CapSense_1_Processing.c **** /*******************************************************************************
 848:Generated_Source\PSoC4/CapSense_1_Processing.c **** * Function Name: CapSense_1_DpProcessIsxSensorRawCountsExt
 849:Generated_Source\PSoC4/CapSense_1_Processing.c **** ****************************************************************************//**
 850:Generated_Source\PSoC4/CapSense_1_Processing.c **** *
 851:Generated_Source\PSoC4/CapSense_1_Processing.c **** * \brief
 852:Generated_Source\PSoC4/CapSense_1_Processing.c **** *   Performs customized processing of the ISX sensor raw counts.
 853:Generated_Source\PSoC4/CapSense_1_Processing.c **** *
 854:Generated_Source\PSoC4/CapSense_1_Processing.c **** * \details
 855:Generated_Source\PSoC4/CapSense_1_Processing.c **** *   Performs customized processing of the ISX sensor raw counts.
 856:Generated_Source\PSoC4/CapSense_1_Processing.c **** *
 857:Generated_Source\PSoC4/CapSense_1_Processing.c **** *   If all bits are set at once the default processing order will take place.
 858:Generated_Source\PSoC4/CapSense_1_Processing.c **** *   For the custom order this API can be called multiple times and execute one task at a time.
 859:Generated_Source\PSoC4/CapSense_1_Processing.c **** *
 860:Generated_Source\PSoC4/CapSense_1_Processing.c **** * \param ptrFlashWdgt The pointer to the Flash Widget Object.
 861:Generated_Source\PSoC4/CapSense_1_Processing.c **** * \param ptrSns       The pointer to the specific RAM Sensor Object.
ARM GAS  C:\Users\exp32\AppData\Local\Temp\ccki8209.s 			page 20


 862:Generated_Source\PSoC4/CapSense_1_Processing.c **** * \param fltrHistV    The pointer to the Filter History Object in RAM associated with specific sens
 863:Generated_Source\PSoC4/CapSense_1_Processing.c **** * \param mode         The bit-mask with the data processing tasks to be executed.
 864:Generated_Source\PSoC4/CapSense_1_Processing.c **** *   The mode parameters can take the following values:
 865:Generated_Source\PSoC4/CapSense_1_Processing.c **** *    - CapSense_1_PROCESS_FILTER     (0x01) Run Firmware Filter
 866:Generated_Source\PSoC4/CapSense_1_Processing.c **** *    - CapSense_1_PROCESS_BASELINE   (0x02) Update Baselines
 867:Generated_Source\PSoC4/CapSense_1_Processing.c **** *    - CapSense_1_PROCESS_DIFFCOUNTS (0x04) Update Difference Counts
 868:Generated_Source\PSoC4/CapSense_1_Processing.c **** *    - CapSense_1_PROCESS_ALL               Execute all tasks
 869:Generated_Source\PSoC4/CapSense_1_Processing.c **** *
 870:Generated_Source\PSoC4/CapSense_1_Processing.c **** * \return
 871:Generated_Source\PSoC4/CapSense_1_Processing.c **** *  Returns the status of the specified sensor processing operation:
 872:Generated_Source\PSoC4/CapSense_1_Processing.c **** *  - CYRET_SUCCESS if operation was successfully completed;
 873:Generated_Source\PSoC4/CapSense_1_Processing.c **** *  - CapSense_1_PROCESS_BASELINE_FAILED if baseline processing of any
 874:Generated_Source\PSoC4/CapSense_1_Processing.c **** *    sensor of the specified widget failed. The result is concatenated with the index
 875:Generated_Source\PSoC4/CapSense_1_Processing.c **** *    of failed sensor.
 876:Generated_Source\PSoC4/CapSense_1_Processing.c **** *
 877:Generated_Source\PSoC4/CapSense_1_Processing.c **** *******************************************************************************/
 878:Generated_Source\PSoC4/CapSense_1_Processing.c **** uint32 CapSense_1_DpProcessIsxSensorRawCountsExt(
 879:Generated_Source\PSoC4/CapSense_1_Processing.c ****                 CapSense_1_FLASH_WD_STRUCT const *ptrFlashWdgt,
 880:Generated_Source\PSoC4/CapSense_1_Processing.c ****                 CapSense_1_RAM_SNS_STRUCT *ptrSns,
 881:Generated_Source\PSoC4/CapSense_1_Processing.c ****                 CapSense_1_PTR_FILTER_VARIANT fltrHistV,
 882:Generated_Source\PSoC4/CapSense_1_Processing.c ****                 uint32 mode)
 883:Generated_Source\PSoC4/CapSense_1_Processing.c **** {
 884:Generated_Source\PSoC4/CapSense_1_Processing.c ****     uint32  result = CYRET_SUCCESS;
 885:Generated_Source\PSoC4/CapSense_1_Processing.c ****     uint32  widgetType;
 886:Generated_Source\PSoC4/CapSense_1_Processing.c ****     CapSense_1_RAM_WD_BASE_STRUCT *ptrRamWdgt;
 887:Generated_Source\PSoC4/CapSense_1_Processing.c **** 
 888:Generated_Source\PSoC4/CapSense_1_Processing.c ****     widgetType = ptrFlashWdgt->wdgtType;
 889:Generated_Source\PSoC4/CapSense_1_Processing.c ****     ptrRamWdgt = ptrFlashWdgt->ptr2WdgtRam;
 890:Generated_Source\PSoC4/CapSense_1_Processing.c **** 
 891:Generated_Source\PSoC4/CapSense_1_Processing.c ****     #if (CapSense_1_ENABLE == CapSense_1_RC_FILTER_EN)
 892:Generated_Source\PSoC4/CapSense_1_Processing.c ****         if (0u != (mode & CapSense_1_PROCESS_FILTER))
 893:Generated_Source\PSoC4/CapSense_1_Processing.c ****         {
 894:Generated_Source\PSoC4/CapSense_1_Processing.c ****             CapSense_1_FtRunEnabledFiltersInternal(fltrHistV, ptrSns, widgetType);
 895:Generated_Source\PSoC4/CapSense_1_Processing.c ****         }
 896:Generated_Source\PSoC4/CapSense_1_Processing.c ****     #else
 897:Generated_Source\PSoC4/CapSense_1_Processing.c ****         (void)fltrHistV; /* This parameter is unused in such configurations */
 898:Generated_Source\PSoC4/CapSense_1_Processing.c ****     #endif /* #if (CapSense_1_ENABLE == CapSense_1_RC_FILTER_EN) */
 899:Generated_Source\PSoC4/CapSense_1_Processing.c **** 
 900:Generated_Source\PSoC4/CapSense_1_Processing.c ****     if (0u != (mode & CapSense_1_PROCESS_BASELINE))
 901:Generated_Source\PSoC4/CapSense_1_Processing.c ****     {
 902:Generated_Source\PSoC4/CapSense_1_Processing.c ****         result = CapSense_1_FtUpdateBaseline(ptrRamWdgt, ptrSns, widgetType);
 903:Generated_Source\PSoC4/CapSense_1_Processing.c ****     }
 904:Generated_Source\PSoC4/CapSense_1_Processing.c **** 
 905:Generated_Source\PSoC4/CapSense_1_Processing.c ****     if (0u != (mode & CapSense_1_PROCESS_DIFFCOUNTS))
 906:Generated_Source\PSoC4/CapSense_1_Processing.c ****     {
 907:Generated_Source\PSoC4/CapSense_1_Processing.c ****         CapSense_1_DpUpdateDifferences(ptrRamWdgt, ptrSns);
 908:Generated_Source\PSoC4/CapSense_1_Processing.c ****     }
 909:Generated_Source\PSoC4/CapSense_1_Processing.c ****     return result;
 910:Generated_Source\PSoC4/CapSense_1_Processing.c **** }
 911:Generated_Source\PSoC4/CapSense_1_Processing.c **** 
 912:Generated_Source\PSoC4/CapSense_1_Processing.c **** 
 913:Generated_Source\PSoC4/CapSense_1_Processing.c **** /*******************************************************************************
 914:Generated_Source\PSoC4/CapSense_1_Processing.c **** * Function Name: CapSense_1_DpProcessIsxWidgetStatus
 915:Generated_Source\PSoC4/CapSense_1_Processing.c **** ****************************************************************************//**
 916:Generated_Source\PSoC4/CapSense_1_Processing.c **** *
 917:Generated_Source\PSoC4/CapSense_1_Processing.c **** * \brief
 918:Generated_Source\PSoC4/CapSense_1_Processing.c **** *   Updates the status of the ISX widget in the Data Structure.
ARM GAS  C:\Users\exp32\AppData\Local\Temp\ccki8209.s 			page 21


 919:Generated_Source\PSoC4/CapSense_1_Processing.c **** *
 920:Generated_Source\PSoC4/CapSense_1_Processing.c **** * \details
 921:Generated_Source\PSoC4/CapSense_1_Processing.c **** *  This API determines the type of widget and runs the appropriate function
 922:Generated_Source\PSoC4/CapSense_1_Processing.c **** *  that implements the status update algorithm for this type of widget.
 923:Generated_Source\PSoC4/CapSense_1_Processing.c **** *
 924:Generated_Source\PSoC4/CapSense_1_Processing.c **** *  When the widget-specific processing completes this API updates the snsStatus
 925:Generated_Source\PSoC4/CapSense_1_Processing.c **** *  and wdgtStatus registers in the data structure. The wdgtStatus register
 926:Generated_Source\PSoC4/CapSense_1_Processing.c **** *  is a bitmask were each bit corresponds to the specific widget identified by
 927:Generated_Source\PSoC4/CapSense_1_Processing.c **** *  the widget index. When the bit is set the widget is active (touched);
 928:Generated_Source\PSoC4/CapSense_1_Processing.c **** *
 929:Generated_Source\PSoC4/CapSense_1_Processing.c **** *  Depending on the type of widget the snsStatus register may contain either
 930:Generated_Source\PSoC4/CapSense_1_Processing.c **** *  status of each widget node (active/non-active) or in case of the ISX Touchpad
 931:Generated_Source\PSoC4/CapSense_1_Processing.c **** *  is contains the number of touches. In both cases 0 means that widget is not
 932:Generated_Source\PSoC4/CapSense_1_Processing.c **** *  active.
 933:Generated_Source\PSoC4/CapSense_1_Processing.c **** *
 934:Generated_Source\PSoC4/CapSense_1_Processing.c **** * \param wdgtId       The widget index number.
 935:Generated_Source\PSoC4/CapSense_1_Processing.c **** * \param ptrFlashWdgt The pointer to the Flash Widget Object.
 936:Generated_Source\PSoC4/CapSense_1_Processing.c **** *
 937:Generated_Source\PSoC4/CapSense_1_Processing.c **** *******************************************************************************/
 938:Generated_Source\PSoC4/CapSense_1_Processing.c **** void CapSense_1_DpProcessIsxWidgetStatus(uint32 wdgtId, CapSense_1_FLASH_WD_STRUCT const *ptrFlashW
 939:Generated_Source\PSoC4/CapSense_1_Processing.c **** {
 940:Generated_Source\PSoC4/CapSense_1_Processing.c ****     uint32 sensorStatus;
 941:Generated_Source\PSoC4/CapSense_1_Processing.c ****     uint32 wdStatusIndex;
 942:Generated_Source\PSoC4/CapSense_1_Processing.c ****     uint32 wdStatusMask;
 943:Generated_Source\PSoC4/CapSense_1_Processing.c ****     CapSense_1_WD_TYPE_ENUM widgetType;
 944:Generated_Source\PSoC4/CapSense_1_Processing.c **** 
 945:Generated_Source\PSoC4/CapSense_1_Processing.c ****     widgetType = (CapSense_1_WD_TYPE_ENUM)ptrFlashWdgt->wdgtType;
 946:Generated_Source\PSoC4/CapSense_1_Processing.c ****     sensorStatus = CapSense_1_dsRam.snsStatus[wdgtId];
 947:Generated_Source\PSoC4/CapSense_1_Processing.c **** 
 948:Generated_Source\PSoC4/CapSense_1_Processing.c ****     switch (widgetType)
 949:Generated_Source\PSoC4/CapSense_1_Processing.c ****     {
 950:Generated_Source\PSoC4/CapSense_1_Processing.c ****     #if (0u != CapSense_1_PROXIMITY_WIDGET_EN)
 951:Generated_Source\PSoC4/CapSense_1_Processing.c ****         case CapSense_1_WD_PROXIMITY_E:
 952:Generated_Source\PSoC4/CapSense_1_Processing.c ****             sensorStatus = CapSense_1_DpProcessProximity(sensorStatus, ptrFlashWdgt);
 953:Generated_Source\PSoC4/CapSense_1_Processing.c ****             break;
 954:Generated_Source\PSoC4/CapSense_1_Processing.c ****     #endif /* #if (0u != CapSense_1_Proximity_WIDGET_EN) */
 955:Generated_Source\PSoC4/CapSense_1_Processing.c ****     #if (0u != CapSense_1_ENCODERDIAL_WIDGET_EN)
 956:Generated_Source\PSoC4/CapSense_1_Processing.c ****         case CapSense_1_WD_ENCODERDIAL_E:
 957:Generated_Source\PSoC4/CapSense_1_Processing.c ****             sensorStatus = CapSense_1_DpProcessEncoderDial(sensorStatus, ptrFlashWdgt);
 958:Generated_Source\PSoC4/CapSense_1_Processing.c ****             break;
 959:Generated_Source\PSoC4/CapSense_1_Processing.c ****     #endif /* #if (0u != CapSense_1_Proximity_WIDGET_EN) */
 960:Generated_Source\PSoC4/CapSense_1_Processing.c ****     #if (0u != CapSense_1_BUTTON_WIDGET_EN)
 961:Generated_Source\PSoC4/CapSense_1_Processing.c ****         case CapSense_1_WD_BUTTON_E:
 962:Generated_Source\PSoC4/CapSense_1_Processing.c ****             sensorStatus = CapSense_1_DpProcessButton(sensorStatus, ptrFlashWdgt);
 963:Generated_Source\PSoC4/CapSense_1_Processing.c ****             break;
 964:Generated_Source\PSoC4/CapSense_1_Processing.c ****     #endif /* #if (0u != CapSense_1_Proximity_WIDGET_EN) */
 965:Generated_Source\PSoC4/CapSense_1_Processing.c **** 
 966:Generated_Source\PSoC4/CapSense_1_Processing.c ****     default:
 967:Generated_Source\PSoC4/CapSense_1_Processing.c ****         CYASSERT(0u);
 968:Generated_Source\PSoC4/CapSense_1_Processing.c ****         break;
 969:Generated_Source\PSoC4/CapSense_1_Processing.c ****     }
 970:Generated_Source\PSoC4/CapSense_1_Processing.c **** 
 971:Generated_Source\PSoC4/CapSense_1_Processing.c ****     /* Update sensor status in the data structure */
 972:Generated_Source\PSoC4/CapSense_1_Processing.c ****     CapSense_1_dsRam.snsStatus[wdgtId] = (CapSense_1_SNS_STS_TYPE)sensorStatus;
 973:Generated_Source\PSoC4/CapSense_1_Processing.c **** 
 974:Generated_Source\PSoC4/CapSense_1_Processing.c ****     /* The next two lines calculate index and bitmask of the widget status bit in the wdgtStatus ar
 975:Generated_Source\PSoC4/CapSense_1_Processing.c ****     wdStatusIndex = CapSense_1_GET_WDGT_STATUS_INDEX(wdgtId);
ARM GAS  C:\Users\exp32\AppData\Local\Temp\ccki8209.s 			page 22


 976:Generated_Source\PSoC4/CapSense_1_Processing.c ****     wdStatusMask = CapSense_1_GET_WDGT_STATUS_MASK(wdgtId);
 977:Generated_Source\PSoC4/CapSense_1_Processing.c **** 
 978:Generated_Source\PSoC4/CapSense_1_Processing.c ****     /* Check if there are active sensors and update widget status accordingly */
 979:Generated_Source\PSoC4/CapSense_1_Processing.c ****     if (0u == sensorStatus)
 980:Generated_Source\PSoC4/CapSense_1_Processing.c ****     {
 981:Generated_Source\PSoC4/CapSense_1_Processing.c ****         CapSense_1_dsRam.wdgtStatus[wdStatusIndex] &= ~wdStatusMask;
 982:Generated_Source\PSoC4/CapSense_1_Processing.c ****     }
 983:Generated_Source\PSoC4/CapSense_1_Processing.c ****     else
 984:Generated_Source\PSoC4/CapSense_1_Processing.c ****     {
 985:Generated_Source\PSoC4/CapSense_1_Processing.c ****         CapSense_1_dsRam.wdgtStatus[wdStatusIndex] |= wdStatusMask;
 986:Generated_Source\PSoC4/CapSense_1_Processing.c ****     }
 987:Generated_Source\PSoC4/CapSense_1_Processing.c **** }
 988:Generated_Source\PSoC4/CapSense_1_Processing.c **** #endif /* #if CapSense_1_TOTAL_ISX_WIDGETS */
 989:Generated_Source\PSoC4/CapSense_1_Processing.c **** 
 990:Generated_Source\PSoC4/CapSense_1_Processing.c **** #if (0u != CapSense_1_TOTAL_CSD_WIDGETS)
 991:Generated_Source\PSoC4/CapSense_1_Processing.c **** /*******************************************************************************
 992:Generated_Source\PSoC4/CapSense_1_Processing.c **** * Function Name: CapSense_1_DpProcessCsdWidgetRawCounts
 993:Generated_Source\PSoC4/CapSense_1_Processing.c **** ****************************************************************************//**
 994:Generated_Source\PSoC4/CapSense_1_Processing.c **** *
 995:Generated_Source\PSoC4/CapSense_1_Processing.c **** * \brief
 996:Generated_Source\PSoC4/CapSense_1_Processing.c **** *   Performs default processing for the CSD widget raw counts.
 997:Generated_Source\PSoC4/CapSense_1_Processing.c **** *
 998:Generated_Source\PSoC4/CapSense_1_Processing.c **** * \details
 999:Generated_Source\PSoC4/CapSense_1_Processing.c **** *   Performs default processing for the CSD widget raw counts:
1000:Generated_Source\PSoC4/CapSense_1_Processing.c **** *    - Run Filters
1001:Generated_Source\PSoC4/CapSense_1_Processing.c **** *    - Update Thresholds (FW Auto-tuning)
1002:Generated_Source\PSoC4/CapSense_1_Processing.c **** *    - Update Baselines
1003:Generated_Source\PSoC4/CapSense_1_Processing.c **** *    - Update Differences.
1004:Generated_Source\PSoC4/CapSense_1_Processing.c **** *   The process is applied to all widget's sensors.
1005:Generated_Source\PSoC4/CapSense_1_Processing.c **** *
1006:Generated_Source\PSoC4/CapSense_1_Processing.c **** * \param ptrFlashWdgt The pointer to the Flash Widget Object.
1007:Generated_Source\PSoC4/CapSense_1_Processing.c **** *
1008:Generated_Source\PSoC4/CapSense_1_Processing.c **** * \return
1009:Generated_Source\PSoC4/CapSense_1_Processing.c **** *  Returns the status of the specified widget processing operation:
1010:Generated_Source\PSoC4/CapSense_1_Processing.c **** *  - CYRET_SUCCESS if operation was successfully completed;
1011:Generated_Source\PSoC4/CapSense_1_Processing.c **** *  - CapSense_1_PROCESS_BASELINE_FAILED if baseline processing of any
1012:Generated_Source\PSoC4/CapSense_1_Processing.c **** *    sensor of the specified widget failed. The result is concatenated with the index
1013:Generated_Source\PSoC4/CapSense_1_Processing.c **** *    of failed sensor.
1014:Generated_Source\PSoC4/CapSense_1_Processing.c **** *
1015:Generated_Source\PSoC4/CapSense_1_Processing.c **** *******************************************************************************/
1016:Generated_Source\PSoC4/CapSense_1_Processing.c **** uint32 CapSense_1_DpProcessCsdWidgetRawCounts(CapSense_1_FLASH_WD_STRUCT const *ptrFlashWdgt)
1017:Generated_Source\PSoC4/CapSense_1_Processing.c **** {
1018:Generated_Source\PSoC4/CapSense_1_Processing.c ****     uint32  result = CYRET_SUCCESS;
1019:Generated_Source\PSoC4/CapSense_1_Processing.c **** 
1020:Generated_Source\PSoC4/CapSense_1_Processing.c ****     #if (CapSense_1_ENABLE == CapSense_1_TST_BSLN_DUPLICATION_EN)
1021:Generated_Source\PSoC4/CapSense_1_Processing.c ****         uint32 bslnTstResult = CYRET_SUCCESS;
1022:Generated_Source\PSoC4/CapSense_1_Processing.c ****     #endif /* (CapSense_1_ENABLE == CapSense_1_TST_BSLN_DUPLICATION_EN) */
1023:Generated_Source\PSoC4/CapSense_1_Processing.c **** 
1024:Generated_Source\PSoC4/CapSense_1_Processing.c ****     uint32  widgetType;
1025:Generated_Source\PSoC4/CapSense_1_Processing.c ****     uint32  snsId;
1026:Generated_Source\PSoC4/CapSense_1_Processing.c ****     CapSense_1_RAM_SNS_STRUCT *ptrSnsTmp;
1027:Generated_Source\PSoC4/CapSense_1_Processing.c ****     CapSense_1_RAM_WD_BASE_STRUCT *ptrRamWdgt;
1028:Generated_Source\PSoC4/CapSense_1_Processing.c **** 
1029:Generated_Source\PSoC4/CapSense_1_Processing.c ****     #if (0u != (CapSense_1_CSD_AUTOTUNE & CapSense_1_CSD_SS_TH_EN))
1030:Generated_Source\PSoC4/CapSense_1_Processing.c ****         /* The noise envelope data is available only when Full CSD Auto-Tuning is enabled */
1031:Generated_Source\PSoC4/CapSense_1_Processing.c ****         SMARTSENSE_CSD_NOISE_ENVELOPE_STRUCT *ptrNoiseEnvelope;
1032:Generated_Source\PSoC4/CapSense_1_Processing.c ****         #if (CapSense_1_ENABLE == CapSense_1_PROXIMITY_WIDGET_EN)
ARM GAS  C:\Users\exp32\AppData\Local\Temp\ccki8209.s 			page 23


1033:Generated_Source\PSoC4/CapSense_1_Processing.c ****             uint32  proximityThreshold;
1034:Generated_Source\PSoC4/CapSense_1_Processing.c ****         #endif /* (0 != CapSense_1_PROXIMITY_WIDGET_EN) */
1035:Generated_Source\PSoC4/CapSense_1_Processing.c ****     #endif /* #if (0u != (CapSense_1_CSD_AUTOTUNE & CapSense_1_CSD_SS_TH_EN)) */
1036:Generated_Source\PSoC4/CapSense_1_Processing.c **** 
1037:Generated_Source\PSoC4/CapSense_1_Processing.c ****     #if (CapSense_1_ENABLE == CapSense_1_RC_FILTER_EN)
1038:Generated_Source\PSoC4/CapSense_1_Processing.c ****         CapSense_1_PTR_FILTER_VARIANT fltrHistV;
1039:Generated_Source\PSoC4/CapSense_1_Processing.c **** 
1040:Generated_Source\PSoC4/CapSense_1_Processing.c ****         /* Determine if widget type is proximity */
1041:Generated_Source\PSoC4/CapSense_1_Processing.c ****         uint32 isProxWdgt = (CapSense_1_GET_WIDGET_TYPE(ptrFlashWdgt) == CapSense_1_WD_PROXIMITY_E)
1042:Generated_Source\PSoC4/CapSense_1_Processing.c **** 
1043:Generated_Source\PSoC4/CapSense_1_Processing.c ****         /* Get pointer to the filter history object */
1044:Generated_Source\PSoC4/CapSense_1_Processing.c ****         fltrHistV.ptr = ptrFlashWdgt->ptr2FltrHistory;
1045:Generated_Source\PSoC4/CapSense_1_Processing.c ****     #endif /* #if (CapSense_1_ENABLE == CapSense_1_RC_FILTER_EN) */
1046:Generated_Source\PSoC4/CapSense_1_Processing.c **** 
1047:Generated_Source\PSoC4/CapSense_1_Processing.c ****     ptrSnsTmp = ptrFlashWdgt->ptr2SnsRam;
1048:Generated_Source\PSoC4/CapSense_1_Processing.c ****     ptrRamWdgt = (CapSense_1_RAM_WD_BASE_STRUCT *)ptrFlashWdgt->ptr2WdgtRam;
1049:Generated_Source\PSoC4/CapSense_1_Processing.c ****     widgetType = ptrFlashWdgt->wdgtType;
1050:Generated_Source\PSoC4/CapSense_1_Processing.c **** 
1051:Generated_Source\PSoC4/CapSense_1_Processing.c ****     #if (0u != (CapSense_1_CSD_AUTOTUNE & CapSense_1_CSD_SS_TH_EN))
1052:Generated_Source\PSoC4/CapSense_1_Processing.c ****         ptrNoiseEnvelope = ptrFlashWdgt->ptr2NoiseEnvlp;
1053:Generated_Source\PSoC4/CapSense_1_Processing.c ****     #endif /* #if (0u != (CapSense_1_CSD_AUTOTUNE & CapSense_1_CSD_SS_TH_EN)) */
1054:Generated_Source\PSoC4/CapSense_1_Processing.c **** 
1055:Generated_Source\PSoC4/CapSense_1_Processing.c ****     /* Iterate through all widget's sensors */
1056:Generated_Source\PSoC4/CapSense_1_Processing.c ****     for(snsId = 0u; snsId < ptrFlashWdgt->totalNumSns; snsId++)
1057:Generated_Source\PSoC4/CapSense_1_Processing.c ****     {
1058:Generated_Source\PSoC4/CapSense_1_Processing.c ****         /* Run all enabled filter on specified widget's sensor */
1059:Generated_Source\PSoC4/CapSense_1_Processing.c ****         #if (CapSense_1_ENABLE == CapSense_1_RC_FILTER_EN)
1060:Generated_Source\PSoC4/CapSense_1_Processing.c ****             CapSense_1_FtRunEnabledFiltersInternal(fltrHistV, ptrSnsTmp, widgetType);
1061:Generated_Source\PSoC4/CapSense_1_Processing.c ****             #if (CapSense_1_ALP_FILTER_EN)
1062:Generated_Source\PSoC4/CapSense_1_Processing.c ****                 CapSense_1_ConfigRunALPInternal(fltrHistV, ptrRamWdgt, ptrSnsTmp, widgetType);
1063:Generated_Source\PSoC4/CapSense_1_Processing.c ****             #endif
1064:Generated_Source\PSoC4/CapSense_1_Processing.c ****         #endif /* #if (CapSense_1_ENABLE == CapSense_1_RC_FILTER_EN) */
1065:Generated_Source\PSoC4/CapSense_1_Processing.c **** 
1066:Generated_Source\PSoC4/CapSense_1_Processing.c ****         /* Run auto-tuning activities */
1067:Generated_Source\PSoC4/CapSense_1_Processing.c ****         #if (0u != (CapSense_1_CSD_AUTOTUNE & CapSense_1_CSD_SS_TH_EN))
1068:Generated_Source\PSoC4/CapSense_1_Processing.c ****             SmartSense_RunNoiseEnvelope(ptrSnsTmp->raw[0u], ptrRamWdgt->sigPFC, ptrNoiseEnvelope);
1069:Generated_Source\PSoC4/CapSense_1_Processing.c ****             CapSense_1_DpUpdateThresholds(ptrRamWdgt, ptrNoiseEnvelope, snsId);
1070:Generated_Source\PSoC4/CapSense_1_Processing.c **** 
1071:Generated_Source\PSoC4/CapSense_1_Processing.c ****             /* Calculate Proximity Touch Threshold in SmartSense mode based on Finger Threshold and
1072:Generated_Source\PSoC4/CapSense_1_Processing.c ****             #if (CapSense_1_ENABLE == CapSense_1_PROXIMITY_WIDGET_EN)
1073:Generated_Source\PSoC4/CapSense_1_Processing.c ****                 if (CapSense_1_WD_PROXIMITY_E == CapSense_1_GET_WIDGET_TYPE(ptrFlashWdgt))
1074:Generated_Source\PSoC4/CapSense_1_Processing.c ****                 {
1075:Generated_Source\PSoC4/CapSense_1_Processing.c ****                     proximityThreshold = ((uint32)ptrRamWdgt->fingerTh * CapSense_1_PROX_TOUCH_COEF
1076:Generated_Source\PSoC4/CapSense_1_Processing.c ****                     if ((((1Lu) << CapSense_1_THRESHOLD_SIZE) - 1u) < proximityThreshold)
1077:Generated_Source\PSoC4/CapSense_1_Processing.c ****                     {
1078:Generated_Source\PSoC4/CapSense_1_Processing.c ****                         proximityThreshold = ((1Lu) << CapSense_1_THRESHOLD_SIZE) - 1u;
1079:Generated_Source\PSoC4/CapSense_1_Processing.c ****                     }
1080:Generated_Source\PSoC4/CapSense_1_Processing.c ****                     ((CapSense_1_RAM_WD_PROXIMITY_STRUCT *)ptrFlashWdgt->ptr2WdgtRam)->proxTouchTh 
1081:Generated_Source\PSoC4/CapSense_1_Processing.c ****                         (CapSense_1_THRESHOLD_TYPE)proximityThreshold;
1082:Generated_Source\PSoC4/CapSense_1_Processing.c ****                 }
1083:Generated_Source\PSoC4/CapSense_1_Processing.c ****             #endif /* (0 != CapSense_1_PROXIMITY_WIDGET_EN) */
1084:Generated_Source\PSoC4/CapSense_1_Processing.c **** 
1085:Generated_Source\PSoC4/CapSense_1_Processing.c ****             /* Move to next noise-envelope object */
1086:Generated_Source\PSoC4/CapSense_1_Processing.c ****             ptrNoiseEnvelope++;
1087:Generated_Source\PSoC4/CapSense_1_Processing.c ****         #endif /* (0u != (CapSense_1_CSD_AUTOTUNE & CapSense_1_CSD_SS_TH_EN)) */
1088:Generated_Source\PSoC4/CapSense_1_Processing.c **** 
1089:Generated_Source\PSoC4/CapSense_1_Processing.c ****         #if (CapSense_1_ENABLE == CapSense_1_TST_BSLN_DUPLICATION_EN)
ARM GAS  C:\Users\exp32\AppData\Local\Temp\ccki8209.s 			page 24


1090:Generated_Source\PSoC4/CapSense_1_Processing.c ****             bslnTstResult = CapSense_1_FtUpdateBaseline(ptrRamWdgt, ptrSnsTmp, widgetType);
1091:Generated_Source\PSoC4/CapSense_1_Processing.c ****             if ((CYRET_SUCCESS != bslnTstResult) && (CYRET_SUCCESS == result))
1092:Generated_Source\PSoC4/CapSense_1_Processing.c ****             {
1093:Generated_Source\PSoC4/CapSense_1_Processing.c ****                 result = snsId | CapSense_1_PROCESS_BASELINE_FAILED;
1094:Generated_Source\PSoC4/CapSense_1_Processing.c ****             }
1095:Generated_Source\PSoC4/CapSense_1_Processing.c ****         #else /* (CapSense_1_ENABLE == CapSense_1_TST_BSLN_DUPLICATION_EN) */
1096:Generated_Source\PSoC4/CapSense_1_Processing.c ****             result = CapSense_1_FtUpdateBaseline(ptrRamWdgt, ptrSnsTmp, widgetType);
1097:Generated_Source\PSoC4/CapSense_1_Processing.c ****         #endif /* (CapSense_1_ENABLE == CapSense_1_TST_BSLN_DUPLICATION_EN) */
1098:Generated_Source\PSoC4/CapSense_1_Processing.c **** 
1099:Generated_Source\PSoC4/CapSense_1_Processing.c ****         CapSense_1_DpUpdateDifferences(ptrRamWdgt, ptrSnsTmp);
1100:Generated_Source\PSoC4/CapSense_1_Processing.c **** 
1101:Generated_Source\PSoC4/CapSense_1_Processing.c ****         /* Move to next sensor object */
1102:Generated_Source\PSoC4/CapSense_1_Processing.c ****         ptrSnsTmp++;
1103:Generated_Source\PSoC4/CapSense_1_Processing.c **** 
1104:Generated_Source\PSoC4/CapSense_1_Processing.c ****         #if (CapSense_1_ENABLE == CapSense_1_RC_FILTER_EN)
1105:Generated_Source\PSoC4/CapSense_1_Processing.c ****             /* Move to the next filter history object */
1106:Generated_Source\PSoC4/CapSense_1_Processing.c ****             CapSense_1_INC_FLTR_OBJ_VARIANT(isProxWdgt, fltrHistV);
1107:Generated_Source\PSoC4/CapSense_1_Processing.c ****         #endif /* #if (CapSense_1_ENABLE == CapSense_1_RC_FILTER_EN) */
1108:Generated_Source\PSoC4/CapSense_1_Processing.c ****     }
1109:Generated_Source\PSoC4/CapSense_1_Processing.c ****     return result;
1110:Generated_Source\PSoC4/CapSense_1_Processing.c **** }
1111:Generated_Source\PSoC4/CapSense_1_Processing.c **** 
1112:Generated_Source\PSoC4/CapSense_1_Processing.c **** 
1113:Generated_Source\PSoC4/CapSense_1_Processing.c **** /*******************************************************************************
1114:Generated_Source\PSoC4/CapSense_1_Processing.c **** * Function Name: CapSense_1_DpProcessCsdSensorRawCountsExt
1115:Generated_Source\PSoC4/CapSense_1_Processing.c **** ****************************************************************************//**
1116:Generated_Source\PSoC4/CapSense_1_Processing.c **** *
1117:Generated_Source\PSoC4/CapSense_1_Processing.c **** * \brief
1118:Generated_Source\PSoC4/CapSense_1_Processing.c **** *   Performs customized processing of the CSD sensor raw counts.
1119:Generated_Source\PSoC4/CapSense_1_Processing.c **** *
1120:Generated_Source\PSoC4/CapSense_1_Processing.c **** * \details
1121:Generated_Source\PSoC4/CapSense_1_Processing.c **** *   Performs customized processing of the CSD sensor raw counts.
1122:Generated_Source\PSoC4/CapSense_1_Processing.c **** *
1123:Generated_Source\PSoC4/CapSense_1_Processing.c **** *   Note that this API updates data associated only with the sensor. It cannot be used to update
1124:Generated_Source\PSoC4/CapSense_1_Processing.c **** *   widget status.
1125:Generated_Source\PSoC4/CapSense_1_Processing.c **** *
1126:Generated_Source\PSoC4/CapSense_1_Processing.c **** * \param ptrFlashWdgt The pointer to the Flash widget structure.
1127:Generated_Source\PSoC4/CapSense_1_Processing.c **** * \param curSnsPtr    The pointer to the sensor object in RAM.
1128:Generated_Source\PSoC4/CapSense_1_Processing.c **** * \param fltrHistV    The pointer to the Filter History Object in RAM.
1129:Generated_Source\PSoC4/CapSense_1_Processing.c **** * \param mode         The bit-mask with the data processing tasks to be executed.
1130:Generated_Source\PSoC4/CapSense_1_Processing.c **** *   The mode parameters can take the following values:
1131:Generated_Source\PSoC4/CapSense_1_Processing.c **** *    - CapSense_1_PROCESS_FILTER     (0x01) Run Firmware Filter
1132:Generated_Source\PSoC4/CapSense_1_Processing.c **** *    - CapSense_1_PROCESS_BASELINE   (0x02) Update Baselines
1133:Generated_Source\PSoC4/CapSense_1_Processing.c **** *    - CapSense_1_PROCESS_DIFFCOUNTS (0x04) Update Difference Counts
1134:Generated_Source\PSoC4/CapSense_1_Processing.c **** *    - CapSense_1_PROCESS_CALC_NOISE (0x08) Calculate Noise (only if FW Tuning is enabled)
1135:Generated_Source\PSoC4/CapSense_1_Processing.c **** *    - CapSense_1_PROCESS_THRESHOLDS (0x10) Update Thresholds (only if FW Tuning is enabled)
1136:Generated_Source\PSoC4/CapSense_1_Processing.c **** *    - CapSense_1_PROCESS_ALL               Execute all tasks
1137:Generated_Source\PSoC4/CapSense_1_Processing.c **** *
1138:Generated_Source\PSoC4/CapSense_1_Processing.c **** * \return
1139:Generated_Source\PSoC4/CapSense_1_Processing.c **** *  Returns the status of the specified sensor processing operation:
1140:Generated_Source\PSoC4/CapSense_1_Processing.c **** *  - CYRET_SUCCESS if operation was successfully completed.
1141:Generated_Source\PSoC4/CapSense_1_Processing.c **** *  - CapSense_1_PROCESS_BASELINE_FAILED if baseline processing of any
1142:Generated_Source\PSoC4/CapSense_1_Processing.c **** *    sensor of the specified widget failed. The result is concatenated with the index
1143:Generated_Source\PSoC4/CapSense_1_Processing.c **** *    of failed sensor.
1144:Generated_Source\PSoC4/CapSense_1_Processing.c **** *
1145:Generated_Source\PSoC4/CapSense_1_Processing.c **** *******************************************************************************/
1146:Generated_Source\PSoC4/CapSense_1_Processing.c **** uint32 CapSense_1_DpProcessCsdSensorRawCountsExt(
ARM GAS  C:\Users\exp32\AppData\Local\Temp\ccki8209.s 			page 25


1147:Generated_Source\PSoC4/CapSense_1_Processing.c ****                 CapSense_1_FLASH_WD_STRUCT const *ptrFlashWdgt,
1148:Generated_Source\PSoC4/CapSense_1_Processing.c ****                 CapSense_1_RAM_SNS_STRUCT *curSnsPtr,
1149:Generated_Source\PSoC4/CapSense_1_Processing.c ****                 CapSense_1_PTR_FILTER_VARIANT fltrHistV,
1150:Generated_Source\PSoC4/CapSense_1_Processing.c ****                  uint32 mode)
1151:Generated_Source\PSoC4/CapSense_1_Processing.c **** {
1152:Generated_Source\PSoC4/CapSense_1_Processing.c ****     uint32 result = CYRET_SUCCESS;
1153:Generated_Source\PSoC4/CapSense_1_Processing.c ****     uint32  widgetType;
1154:Generated_Source\PSoC4/CapSense_1_Processing.c ****     CapSense_1_RAM_WD_BASE_STRUCT *ptrRamWdgt;
1155:Generated_Source\PSoC4/CapSense_1_Processing.c **** 
1156:Generated_Source\PSoC4/CapSense_1_Processing.c ****     #if (0u != (CapSense_1_CSD_AUTOTUNE & CapSense_1_CSD_SS_TH_EN))
1157:Generated_Source\PSoC4/CapSense_1_Processing.c ****         SMARTSENSE_CSD_NOISE_ENVELOPE_STRUCT *ptrNoiseEnvelope;
1158:Generated_Source\PSoC4/CapSense_1_Processing.c ****         #if (CapSense_1_ENABLE == CapSense_1_PROXIMITY_WIDGET_EN)
1159:Generated_Source\PSoC4/CapSense_1_Processing.c ****             uint32  proximityThreshold;
1160:Generated_Source\PSoC4/CapSense_1_Processing.c ****         #endif /* (0 != CapSense_1_PROXIMITY_WIDGET_EN) */
1161:Generated_Source\PSoC4/CapSense_1_Processing.c **** 
1162:Generated_Source\PSoC4/CapSense_1_Processing.c ****         /* Need to specify pointer to corresponding sensor's noise-envelope object.*/
1163:Generated_Source\PSoC4/CapSense_1_Processing.c ****         ptrNoiseEnvelope = ptrFlashWdgt->ptr2NoiseEnvlp;
1164:Generated_Source\PSoC4/CapSense_1_Processing.c ****     #endif /* (0u != (CapSense_1_CSD_AUTOTUNE & CapSense_1_CSD_SS_TH_EN)) */
1165:Generated_Source\PSoC4/CapSense_1_Processing.c **** 
1166:Generated_Source\PSoC4/CapSense_1_Processing.c ****     widgetType = ptrFlashWdgt->wdgtType;
1167:Generated_Source\PSoC4/CapSense_1_Processing.c ****     ptrRamWdgt = (CapSense_1_RAM_WD_BASE_STRUCT *)ptrFlashWdgt->ptr2WdgtRam;
1168:Generated_Source\PSoC4/CapSense_1_Processing.c **** 
1169:Generated_Source\PSoC4/CapSense_1_Processing.c ****     #if (CapSense_1_ENABLE == CapSense_1_RC_FILTER_EN)
1170:Generated_Source\PSoC4/CapSense_1_Processing.c ****         if (0u != (mode & CapSense_1_PROCESS_FILTER))
1171:Generated_Source\PSoC4/CapSense_1_Processing.c ****         {
1172:Generated_Source\PSoC4/CapSense_1_Processing.c ****             CapSense_1_FtRunEnabledFiltersInternal(fltrHistV, curSnsPtr, widgetType);
1173:Generated_Source\PSoC4/CapSense_1_Processing.c ****             #if (CapSense_1_ALP_FILTER_EN)
1174:Generated_Source\PSoC4/CapSense_1_Processing.c ****                 CapSense_1_ConfigRunALPInternal(fltrHistV, ptrRamWdgt, curSnsPtr, widgetType);
1175:Generated_Source\PSoC4/CapSense_1_Processing.c ****             #endif
1176:Generated_Source\PSoC4/CapSense_1_Processing.c ****         }
1177:Generated_Source\PSoC4/CapSense_1_Processing.c ****     #else
1178:Generated_Source\PSoC4/CapSense_1_Processing.c ****         (void)fltrHistV; /* This parameter is unused in such configurations */
1179:Generated_Source\PSoC4/CapSense_1_Processing.c ****     #endif /* #if (CapSense_1_ENABLE == CapSense_1_RC_FILTER_EN) */
1180:Generated_Source\PSoC4/CapSense_1_Processing.c **** 
1181:Generated_Source\PSoC4/CapSense_1_Processing.c ****     #if (0u != (CapSense_1_CSD_AUTOTUNE & CapSense_1_CSD_SS_TH_EN))
1182:Generated_Source\PSoC4/CapSense_1_Processing.c ****         if (0u != (mode & CapSense_1_PROCESS_CALC_NOISE))
1183:Generated_Source\PSoC4/CapSense_1_Processing.c ****         {
1184:Generated_Source\PSoC4/CapSense_1_Processing.c ****             SmartSense_RunNoiseEnvelope(curSnsPtr->raw[0u], ptrRamWdgt->sigPFC, ptrNoiseEnvelope);
1185:Generated_Source\PSoC4/CapSense_1_Processing.c ****         }
1186:Generated_Source\PSoC4/CapSense_1_Processing.c **** 
1187:Generated_Source\PSoC4/CapSense_1_Processing.c ****         if (0u != (mode & CapSense_1_PROCESS_THRESHOLDS))
1188:Generated_Source\PSoC4/CapSense_1_Processing.c ****         {
1189:Generated_Source\PSoC4/CapSense_1_Processing.c ****             CapSense_1_DpUpdateThresholds(ptrRamWdgt, ptrNoiseEnvelope, 0u);
1190:Generated_Source\PSoC4/CapSense_1_Processing.c **** 
1191:Generated_Source\PSoC4/CapSense_1_Processing.c ****             /* Calculate Proximity Touch Threshold in SmartSense mode based on Finger Threshold and
1192:Generated_Source\PSoC4/CapSense_1_Processing.c ****             #if (CapSense_1_ENABLE == CapSense_1_PROXIMITY_WIDGET_EN)
1193:Generated_Source\PSoC4/CapSense_1_Processing.c ****                 if (CapSense_1_WD_PROXIMITY_E == CapSense_1_GET_WIDGET_TYPE(ptrFlashWdgt))
1194:Generated_Source\PSoC4/CapSense_1_Processing.c ****                 {
1195:Generated_Source\PSoC4/CapSense_1_Processing.c ****                     proximityThreshold = ((uint32)ptrRamWdgt->fingerTh * CapSense_1_PROX_TOUCH_COEF
1196:Generated_Source\PSoC4/CapSense_1_Processing.c ****                     if ((((1Lu) << CapSense_1_THRESHOLD_SIZE) - 1u) < proximityThreshold)
1197:Generated_Source\PSoC4/CapSense_1_Processing.c ****                     {
1198:Generated_Source\PSoC4/CapSense_1_Processing.c ****                         proximityThreshold = ((1Lu) << CapSense_1_THRESHOLD_SIZE) - 1u;
1199:Generated_Source\PSoC4/CapSense_1_Processing.c ****                     }
1200:Generated_Source\PSoC4/CapSense_1_Processing.c ****                     ((CapSense_1_RAM_WD_PROXIMITY_STRUCT *)ptrFlashWdgt->ptr2WdgtRam)->proxTouchTh 
1201:Generated_Source\PSoC4/CapSense_1_Processing.c ****                         (CapSense_1_THRESHOLD_TYPE)proximityThreshold;
1202:Generated_Source\PSoC4/CapSense_1_Processing.c ****                 }
1203:Generated_Source\PSoC4/CapSense_1_Processing.c ****             #endif /* (0 != CapSense_1_PROXIMITY_WIDGET_EN) */
ARM GAS  C:\Users\exp32\AppData\Local\Temp\ccki8209.s 			page 26


1204:Generated_Source\PSoC4/CapSense_1_Processing.c ****         }
1205:Generated_Source\PSoC4/CapSense_1_Processing.c ****     #endif /* #if (0u != (CapSense_1_CSD_AUTOTUNE & CapSense_1_CSD_SS_TH_EN)) */
1206:Generated_Source\PSoC4/CapSense_1_Processing.c **** 
1207:Generated_Source\PSoC4/CapSense_1_Processing.c ****     if (0u != (mode & CapSense_1_PROCESS_BASELINE))
1208:Generated_Source\PSoC4/CapSense_1_Processing.c ****     {
1209:Generated_Source\PSoC4/CapSense_1_Processing.c ****         result = CapSense_1_FtUpdateBaseline(ptrRamWdgt, curSnsPtr, widgetType);
1210:Generated_Source\PSoC4/CapSense_1_Processing.c ****     }
1211:Generated_Source\PSoC4/CapSense_1_Processing.c **** 
1212:Generated_Source\PSoC4/CapSense_1_Processing.c ****     if (0u != (mode & CapSense_1_PROCESS_DIFFCOUNTS))
1213:Generated_Source\PSoC4/CapSense_1_Processing.c ****     {
1214:Generated_Source\PSoC4/CapSense_1_Processing.c ****         CapSense_1_DpUpdateDifferences(ptrRamWdgt, curSnsPtr);
1215:Generated_Source\PSoC4/CapSense_1_Processing.c ****     }
1216:Generated_Source\PSoC4/CapSense_1_Processing.c ****     return result;
1217:Generated_Source\PSoC4/CapSense_1_Processing.c **** }
1218:Generated_Source\PSoC4/CapSense_1_Processing.c **** 
1219:Generated_Source\PSoC4/CapSense_1_Processing.c **** /*******************************************************************************
1220:Generated_Source\PSoC4/CapSense_1_Processing.c **** * Function Name: CapSense_1_DpProcessCsdWidgetStatus
1221:Generated_Source\PSoC4/CapSense_1_Processing.c **** ****************************************************************************//**
1222:Generated_Source\PSoC4/CapSense_1_Processing.c **** *
1223:Generated_Source\PSoC4/CapSense_1_Processing.c **** * \brief
1224:Generated_Source\PSoC4/CapSense_1_Processing.c **** *  Runs the status processing of the CSD widget and updates it in the Data Structure.
1225:Generated_Source\PSoC4/CapSense_1_Processing.c **** *
1226:Generated_Source\PSoC4/CapSense_1_Processing.c **** * \details
1227:Generated_Source\PSoC4/CapSense_1_Processing.c **** *  This API determines the widget type and calls the appropriate low-level processing
1228:Generated_Source\PSoC4/CapSense_1_Processing.c **** *  function. Based on the returned results it updates the widget and sensor
1229:Generated_Source\PSoC4/CapSense_1_Processing.c **** *  status in the data structure. Any widget specific registers like the centroid
1230:Generated_Source\PSoC4/CapSense_1_Processing.c **** *  position are updated directly in the low-level processing function.
1231:Generated_Source\PSoC4/CapSense_1_Processing.c **** *
1232:Generated_Source\PSoC4/CapSense_1_Processing.c **** *  When the widget-specific processing completes this API updates the snsStatus
1233:Generated_Source\PSoC4/CapSense_1_Processing.c **** *  and wdgtStatus registers in the data structure. The wdgtStatus register
1234:Generated_Source\PSoC4/CapSense_1_Processing.c **** *  is a bitmask were each bit corresponds to the specific widget identified by
1235:Generated_Source\PSoC4/CapSense_1_Processing.c **** *  the widget index. When the bit is set the widget is active (touched);
1236:Generated_Source\PSoC4/CapSense_1_Processing.c **** *
1237:Generated_Source\PSoC4/CapSense_1_Processing.c **** *  The snsStatus register for CSD widgets contains status of each widget sensor
1238:Generated_Source\PSoC4/CapSense_1_Processing.c **** *  (active/non-active). Each bit corresponds to one sensor. In case of the
1239:Generated_Source\PSoC4/CapSense_1_Processing.c **** *  Proximity widget two bits are used per sensor: one for proximity status and
1240:Generated_Source\PSoC4/CapSense_1_Processing.c **** *  second for the touch status.
1241:Generated_Source\PSoC4/CapSense_1_Processing.c **** *
1242:Generated_Source\PSoC4/CapSense_1_Processing.c **** * \param widgetId      The widget index number.
1243:Generated_Source\PSoC4/CapSense_1_Processing.c **** * \param ptrFlashWdgt  The pointer to the Flash widget structure.
1244:Generated_Source\PSoC4/CapSense_1_Processing.c **** *
1245:Generated_Source\PSoC4/CapSense_1_Processing.c **** *******************************************************************************/
1246:Generated_Source\PSoC4/CapSense_1_Processing.c **** void CapSense_1_DpProcessCsdWidgetStatus(uint32 widgetId, CapSense_1_FLASH_WD_STRUCT const *ptrFlas
1247:Generated_Source\PSoC4/CapSense_1_Processing.c **** {
1248:Generated_Source\PSoC4/CapSense_1_Processing.c ****     uint32 sensorStatus;
1249:Generated_Source\PSoC4/CapSense_1_Processing.c ****     uint32 wdStatusIndex;
1250:Generated_Source\PSoC4/CapSense_1_Processing.c ****     uint32 wdStatusMask;
1251:Generated_Source\PSoC4/CapSense_1_Processing.c ****     CapSense_1_WD_TYPE_ENUM widgetType;
1252:Generated_Source\PSoC4/CapSense_1_Processing.c **** 
1253:Generated_Source\PSoC4/CapSense_1_Processing.c ****     widgetType = (CapSense_1_WD_TYPE_ENUM)ptrFlashWdgt->wdgtType;
1254:Generated_Source\PSoC4/CapSense_1_Processing.c ****     sensorStatus = CapSense_1_dsRam.snsStatus[widgetId];
1255:Generated_Source\PSoC4/CapSense_1_Processing.c **** 
1256:Generated_Source\PSoC4/CapSense_1_Processing.c ****     switch (widgetType)
1257:Generated_Source\PSoC4/CapSense_1_Processing.c ****     {
1258:Generated_Source\PSoC4/CapSense_1_Processing.c ****     #if (0u != CapSense_1_BUTTON_WIDGET_EN)
1259:Generated_Source\PSoC4/CapSense_1_Processing.c ****         case CapSense_1_WD_BUTTON_E:
1260:Generated_Source\PSoC4/CapSense_1_Processing.c ****             sensorStatus = CapSense_1_DpProcessButton(sensorStatus, ptrFlashWdgt);
ARM GAS  C:\Users\exp32\AppData\Local\Temp\ccki8209.s 			page 27


1261:Generated_Source\PSoC4/CapSense_1_Processing.c ****             break;
1262:Generated_Source\PSoC4/CapSense_1_Processing.c ****     #endif /* #if (0u != CapSense_1_BUTTON_WIDGET_EN) */
1263:Generated_Source\PSoC4/CapSense_1_Processing.c **** 
1264:Generated_Source\PSoC4/CapSense_1_Processing.c ****     #if (0u != CapSense_1_SLIDER_WIDGET_EN)
1265:Generated_Source\PSoC4/CapSense_1_Processing.c ****         case CapSense_1_WD_LINEAR_SLIDER_E:
1266:Generated_Source\PSoC4/CapSense_1_Processing.c ****         case CapSense_1_WD_RADIAL_SLIDER_E:
1267:Generated_Source\PSoC4/CapSense_1_Processing.c ****             sensorStatus = CapSense_1_DpProcessSlider(sensorStatus, ptrFlashWdgt);
1268:Generated_Source\PSoC4/CapSense_1_Processing.c ****             break;
1269:Generated_Source\PSoC4/CapSense_1_Processing.c ****     #endif /* #if (0u != CapSense_1_SLIDER_WIDGET_EN) */
1270:Generated_Source\PSoC4/CapSense_1_Processing.c **** 
1271:Generated_Source\PSoC4/CapSense_1_Processing.c ****     #if (0u != CapSense_1_CSD_MATRIX_WIDGET_EN)
1272:Generated_Source\PSoC4/CapSense_1_Processing.c ****         case CapSense_1_WD_MATRIX_BUTTON_E:
1273:Generated_Source\PSoC4/CapSense_1_Processing.c ****             sensorStatus = CapSense_1_DpProcessCsdMatrix(sensorStatus, ptrFlashWdgt);
1274:Generated_Source\PSoC4/CapSense_1_Processing.c ****             break;
1275:Generated_Source\PSoC4/CapSense_1_Processing.c ****     #endif /* #if (0u != CapSense_1_CSD_MATRIX_WIDGET_EN) */
1276:Generated_Source\PSoC4/CapSense_1_Processing.c **** 
1277:Generated_Source\PSoC4/CapSense_1_Processing.c ****     #if (0u != CapSense_1_CSD_TOUCHPAD_WIDGET_EN)
1278:Generated_Source\PSoC4/CapSense_1_Processing.c ****         case CapSense_1_WD_TOUCHPAD_E:
1279:Generated_Source\PSoC4/CapSense_1_Processing.c ****             sensorStatus = CapSense_1_DpProcessCsdTouchpad(sensorStatus, ptrFlashWdgt);
1280:Generated_Source\PSoC4/CapSense_1_Processing.c ****             #if (0u != CapSense_1_BALLISTIC_MULTIPLIER_EN)
1281:Generated_Source\PSoC4/CapSense_1_Processing.c ****                 CapSense_1_RunBallisticMultiplier(widgetId);
1282:Generated_Source\PSoC4/CapSense_1_Processing.c ****             #endif /* (0u != CapSense_1_BALLISTIC_MULTIPLIER_EN) */
1283:Generated_Source\PSoC4/CapSense_1_Processing.c ****             break;
1284:Generated_Source\PSoC4/CapSense_1_Processing.c ****     #endif /* #if (0u != CapSense_1_CSD_TOUCHPAD_WIDGET_EN) */
1285:Generated_Source\PSoC4/CapSense_1_Processing.c **** 
1286:Generated_Source\PSoC4/CapSense_1_Processing.c ****     #if (0u != CapSense_1_PROXIMITY_WIDGET_EN)
1287:Generated_Source\PSoC4/CapSense_1_Processing.c ****         case CapSense_1_WD_PROXIMITY_E:
1288:Generated_Source\PSoC4/CapSense_1_Processing.c ****             sensorStatus = CapSense_1_DpProcessProximity(sensorStatus, ptrFlashWdgt);
1289:Generated_Source\PSoC4/CapSense_1_Processing.c ****             break;
1290:Generated_Source\PSoC4/CapSense_1_Processing.c ****     #endif /* #if (0u != CapSense_1_PROXIMITY_WIDGET_EN) */
1291:Generated_Source\PSoC4/CapSense_1_Processing.c **** 
1292:Generated_Source\PSoC4/CapSense_1_Processing.c ****     default:
1293:Generated_Source\PSoC4/CapSense_1_Processing.c ****         CYASSERT(0u);
1294:Generated_Source\PSoC4/CapSense_1_Processing.c ****         break;
1295:Generated_Source\PSoC4/CapSense_1_Processing.c ****     }
1296:Generated_Source\PSoC4/CapSense_1_Processing.c **** 
1297:Generated_Source\PSoC4/CapSense_1_Processing.c ****     CapSense_1_dsRam.snsStatus[widgetId] = (CapSense_1_SNS_STS_TYPE)sensorStatus;
1298:Generated_Source\PSoC4/CapSense_1_Processing.c **** 
1299:Generated_Source\PSoC4/CapSense_1_Processing.c ****     /* The next two lines calculate index and bitmask of the widget status bit in the wdgtStatus ar
1300:Generated_Source\PSoC4/CapSense_1_Processing.c ****     wdStatusIndex = CapSense_1_GET_WDGT_STATUS_INDEX(widgetId);
1301:Generated_Source\PSoC4/CapSense_1_Processing.c ****     wdStatusMask = CapSense_1_GET_WDGT_STATUS_MASK(widgetId);
1302:Generated_Source\PSoC4/CapSense_1_Processing.c **** 
1303:Generated_Source\PSoC4/CapSense_1_Processing.c ****     /* Check if there are active sensors and update widget status accordingly */
1304:Generated_Source\PSoC4/CapSense_1_Processing.c ****     if (0u == sensorStatus)
1305:Generated_Source\PSoC4/CapSense_1_Processing.c ****     {
1306:Generated_Source\PSoC4/CapSense_1_Processing.c ****         CapSense_1_dsRam.wdgtStatus[wdStatusIndex] &= ~wdStatusMask;
1307:Generated_Source\PSoC4/CapSense_1_Processing.c ****     }
1308:Generated_Source\PSoC4/CapSense_1_Processing.c ****     else
1309:Generated_Source\PSoC4/CapSense_1_Processing.c ****     {
1310:Generated_Source\PSoC4/CapSense_1_Processing.c ****         CapSense_1_dsRam.wdgtStatus[wdStatusIndex] |= wdStatusMask;
1311:Generated_Source\PSoC4/CapSense_1_Processing.c ****     }
1312:Generated_Source\PSoC4/CapSense_1_Processing.c **** }
1313:Generated_Source\PSoC4/CapSense_1_Processing.c **** #endif /* #if (0u != CapSense_1_TOTAL_CSD_WIDGETS) */
1314:Generated_Source\PSoC4/CapSense_1_Processing.c **** 
1315:Generated_Source\PSoC4/CapSense_1_Processing.c **** 
1316:Generated_Source\PSoC4/CapSense_1_Processing.c **** #if (0 != (CapSense_1_CSD_AUTOTUNE & CapSense_1_CSD_SS_TH_EN))
1317:Generated_Source\PSoC4/CapSense_1_Processing.c **** /*******************************************************************************
ARM GAS  C:\Users\exp32\AppData\Local\Temp\ccki8209.s 			page 28


1318:Generated_Source\PSoC4/CapSense_1_Processing.c **** * Function Name: CapSense_1_DpUpdateThresholds
1319:Generated_Source\PSoC4/CapSense_1_Processing.c **** ****************************************************************************//**
1320:Generated_Source\PSoC4/CapSense_1_Processing.c **** *
1321:Generated_Source\PSoC4/CapSense_1_Processing.c **** * \brief
1322:Generated_Source\PSoC4/CapSense_1_Processing.c **** *   Updates noise and finger thresholds for a specified widget.
1323:Generated_Source\PSoC4/CapSense_1_Processing.c **** *
1324:Generated_Source\PSoC4/CapSense_1_Processing.c **** * \details
1325:Generated_Source\PSoC4/CapSense_1_Processing.c **** *   Updates noise and finger thresholds for a specified widget.
1326:Generated_Source\PSoC4/CapSense_1_Processing.c **** *   This algorithm is a part of Auto-tuning feature.
1327:Generated_Source\PSoC4/CapSense_1_Processing.c **** *
1328:Generated_Source\PSoC4/CapSense_1_Processing.c **** * \param ptrRamWdgt       The pointer to the RAM widget object.
1329:Generated_Source\PSoC4/CapSense_1_Processing.c **** * \param ptrNoiseEnvelope The pointer to the noise-envelope object in RAM.
1330:Generated_Source\PSoC4/CapSense_1_Processing.c **** * \param startFlag        The flag indicates when new widget is processed.
1331:Generated_Source\PSoC4/CapSense_1_Processing.c **** *
1332:Generated_Source\PSoC4/CapSense_1_Processing.c **** *******************************************************************************/
1333:Generated_Source\PSoC4/CapSense_1_Processing.c **** void CapSense_1_DpUpdateThresholds(CapSense_1_RAM_WD_BASE_STRUCT *ptrRamWdgt,
1334:Generated_Source\PSoC4/CapSense_1_Processing.c ****                                          SMARTSENSE_CSD_NOISE_ENVELOPE_STRUCT *ptrNoiseEnvelope,
1335:Generated_Source\PSoC4/CapSense_1_Processing.c ****                                          uint32 startFlag)
1336:Generated_Source\PSoC4/CapSense_1_Processing.c **** {
 210              		.loc 1 1336 0
 211              		.cfi_startproc
 212              		@ args = 0, pretend = 0, frame = 8
 213              		@ frame_needed = 0, uses_anonymous_args = 0
 214              	.LVL25:
 215 0000 10B5     		push	{r4, lr}
 216              		.cfi_def_cfa_offset 8
 217              		.cfi_offset 4, -8
 218              		.cfi_offset 14, -4
 219 0002 82B0     		sub	sp, sp, #8
 220              		.cfi_def_cfa_offset 16
 221 0004 0400     		movs	r4, r0
 222 0006 0800     		movs	r0, r1
 223              	.LVL26:
 224 0008 1300     		movs	r3, r2
 225              	.LVL27:
1337:Generated_Source\PSoC4/CapSense_1_Processing.c ****     SMARTSENSE_UPDATE_THRESHOLDS_STRUCT thresholds;
1338:Generated_Source\PSoC4/CapSense_1_Processing.c ****     SMARTSENSE_UPDATE_THRESHOLDS_STRUCT *ptrThresholds = &thresholds;
1339:Generated_Source\PSoC4/CapSense_1_Processing.c ****     ptrThresholds->fingerTh = ptrRamWdgt->fingerTh;
 226              		.loc 1 1339 0
 227 000a 6288     		ldrh	r2, [r4, #2]
 228              	.LVL28:
 229 000c 6946     		mov	r1, sp
 230              	.LVL29:
 231 000e 0A80     		strh	r2, [r1]
1340:Generated_Source\PSoC4/CapSense_1_Processing.c **** 
1341:Generated_Source\PSoC4/CapSense_1_Processing.c ****     SmartSense_UpdateThresholds(ptrNoiseEnvelope, ptrThresholds, ptrRamWdgt->sigPFC, startFlag);
 232              		.loc 1 1341 0
 233 0010 A28A     		ldrh	r2, [r4, #20]
 234 0012 FFF7FEFF 		bl	SmartSense_UpdateThresholds
 235              	.LVL30:
1342:Generated_Source\PSoC4/CapSense_1_Processing.c **** 
1343:Generated_Source\PSoC4/CapSense_1_Processing.c ****     ptrRamWdgt->fingerTh = ptrThresholds->fingerTh;
 236              		.loc 1 1343 0
 237 0016 6B46     		mov	r3, sp
 238 0018 1B88     		ldrh	r3, [r3]
 239 001a 6380     		strh	r3, [r4, #2]
1344:Generated_Source\PSoC4/CapSense_1_Processing.c ****     ptrRamWdgt->noiseTh = ptrThresholds->noiseTh;
ARM GAS  C:\Users\exp32\AppData\Local\Temp\ccki8209.s 			page 29


 240              		.loc 1 1344 0
 241 001c 6B46     		mov	r3, sp
 242 001e 9B78     		ldrb	r3, [r3, #2]
 243 0020 2371     		strb	r3, [r4, #4]
1345:Generated_Source\PSoC4/CapSense_1_Processing.c ****     ptrRamWdgt->nNoiseTh = ptrThresholds->nNoiseTh;
 244              		.loc 1 1345 0
 245 0022 6B46     		mov	r3, sp
 246 0024 DB78     		ldrb	r3, [r3, #3]
 247 0026 6371     		strb	r3, [r4, #5]
1346:Generated_Source\PSoC4/CapSense_1_Processing.c ****     ptrRamWdgt->hysteresis = ptrThresholds->hysteresis;
 248              		.loc 1 1346 0
 249 0028 6B46     		mov	r3, sp
 250 002a 1B79     		ldrb	r3, [r3, #4]
 251 002c A371     		strb	r3, [r4, #6]
1347:Generated_Source\PSoC4/CapSense_1_Processing.c **** }
 252              		.loc 1 1347 0
 253 002e 02B0     		add	sp, sp, #8
 254              	.LVL31:
 255              		@ sp needed
 256              	.LVL32:
 257 0030 10BD     		pop	{r4, pc}
 258              		.cfi_endproc
 259              	.LFE7:
 260              		.size	CapSense_1_DpUpdateThresholds, .-CapSense_1_DpUpdateThresholds
 261 0032 C046     		.section	.text.CapSense_1_DpUpdateDifferences,"ax",%progbits
 262              		.align	2
 263              		.global	CapSense_1_DpUpdateDifferences
 264              		.code	16
 265              		.thumb_func
 266              		.type	CapSense_1_DpUpdateDifferences, %function
 267              	CapSense_1_DpUpdateDifferences:
 268              	.LFB8:
1348:Generated_Source\PSoC4/CapSense_1_Processing.c **** #endif /* #if (0u != (CapSense_1_CSD_AUTOTUNE & CapSense_1_CSD_SS_TH_EN)) */
1349:Generated_Source\PSoC4/CapSense_1_Processing.c **** 
1350:Generated_Source\PSoC4/CapSense_1_Processing.c **** 
1351:Generated_Source\PSoC4/CapSense_1_Processing.c **** /*******************************************************************************
1352:Generated_Source\PSoC4/CapSense_1_Processing.c **** * Function Name: CapSense_1_DpUpdateDifferences
1353:Generated_Source\PSoC4/CapSense_1_Processing.c **** ****************************************************************************//**
1354:Generated_Source\PSoC4/CapSense_1_Processing.c **** *
1355:Generated_Source\PSoC4/CapSense_1_Processing.c **** * \brief
1356:Generated_Source\PSoC4/CapSense_1_Processing.c **** *   Calculates new difference values.
1357:Generated_Source\PSoC4/CapSense_1_Processing.c **** *   Also, executes the multi-frequency scan algorithm if it is enabled.
1358:Generated_Source\PSoC4/CapSense_1_Processing.c **** *
1359:Generated_Source\PSoC4/CapSense_1_Processing.c **** * \details
1360:Generated_Source\PSoC4/CapSense_1_Processing.c **** *   This API calculates the difference between the baseline and raw counts.
1361:Generated_Source\PSoC4/CapSense_1_Processing.c **** *   If the difference is positive (raw > baseline), and higher than the widget
1362:Generated_Source\PSoC4/CapSense_1_Processing.c **** *   noise threshold, it is saved into the data structure for further processing.
1363:Generated_Source\PSoC4/CapSense_1_Processing.c **** *   Otherwise the difference is set to zero. The final difference value is saved
1364:Generated_Source\PSoC4/CapSense_1_Processing.c **** *   with the subtracted noise threshold value.
1365:Generated_Source\PSoC4/CapSense_1_Processing.c **** *
1366:Generated_Source\PSoC4/CapSense_1_Processing.c **** *   If the multi-frequency scan algorithm is enabled, the difference is calculated
1367:Generated_Source\PSoC4/CapSense_1_Processing.c **** *   for the three sets of data available for each sensor. Then
1368:Generated_Source\PSoC4/CapSense_1_Processing.c **** *   the median filter selects the final difference value.
1369:Generated_Source\PSoC4/CapSense_1_Processing.c **** *
1370:Generated_Source\PSoC4/CapSense_1_Processing.c **** * \param ptrRamWdgt The pointer to the RAR Widget Object.
1371:Generated_Source\PSoC4/CapSense_1_Processing.c **** * \param curSnsPtr  The pointer to the sensor object in RAM.
1372:Generated_Source\PSoC4/CapSense_1_Processing.c **** *
ARM GAS  C:\Users\exp32\AppData\Local\Temp\ccki8209.s 			page 30


1373:Generated_Source\PSoC4/CapSense_1_Processing.c **** *******************************************************************************/
1374:Generated_Source\PSoC4/CapSense_1_Processing.c **** void CapSense_1_DpUpdateDifferences(
1375:Generated_Source\PSoC4/CapSense_1_Processing.c ****                         CapSense_1_RAM_WD_BASE_STRUCT *ptrRamWdgt,
1376:Generated_Source\PSoC4/CapSense_1_Processing.c ****                         CapSense_1_RAM_SNS_STRUCT *curSnsPtr)
1377:Generated_Source\PSoC4/CapSense_1_Processing.c **** {
 269              		.loc 1 1377 0
 270              		.cfi_startproc
 271              		@ args = 0, pretend = 0, frame = 0
 272              		@ frame_needed = 0, uses_anonymous_args = 0
 273              	.LVL33:
 274 0000 30B5     		push	{r4, r5, lr}
 275              		.cfi_def_cfa_offset 12
 276              		.cfi_offset 4, -12
 277              		.cfi_offset 5, -8
 278              		.cfi_offset 14, -4
 279              	.LVL34:
1378:Generated_Source\PSoC4/CapSense_1_Processing.c ****     register int32 diffValue = 0;
1379:Generated_Source\PSoC4/CapSense_1_Processing.c **** 
1380:Generated_Source\PSoC4/CapSense_1_Processing.c ****     #if (0u != CapSense_1_MULTI_FREQ_SCAN_EN)
1381:Generated_Source\PSoC4/CapSense_1_Processing.c ****         register int32 diffValue_0 = 0;
1382:Generated_Source\PSoC4/CapSense_1_Processing.c ****         register int32 diffValue_2 = 0;
1383:Generated_Source\PSoC4/CapSense_1_Processing.c ****     #endif /* #if (0u != CapSense_1_MULTI_FREQ_SCAN_EN) */
1384:Generated_Source\PSoC4/CapSense_1_Processing.c **** 
1385:Generated_Source\PSoC4/CapSense_1_Processing.c ****     /* Calculate difference */
1386:Generated_Source\PSoC4/CapSense_1_Processing.c ****     diffValue = (int32)curSnsPtr->raw[0u] - (int32)curSnsPtr->bsln[0u];
 280              		.loc 1 1386 0
 281 0002 0B88     		ldrh	r3, [r1]
 282 0004 4A88     		ldrh	r2, [r1, #2]
 283 0006 9C1A     		subs	r4, r3, r2
 284              	.LVL35:
1387:Generated_Source\PSoC4/CapSense_1_Processing.c **** 
1388:Generated_Source\PSoC4/CapSense_1_Processing.c ****     #if (0u != CapSense_1_MULTI_FREQ_SCAN_EN)
1389:Generated_Source\PSoC4/CapSense_1_Processing.c ****         diffValue_0 = (int32)curSnsPtr->raw[1u] - (int32)curSnsPtr->bsln[1u];
1390:Generated_Source\PSoC4/CapSense_1_Processing.c ****         diffValue_2 = (int32)curSnsPtr->raw[2u] - (int32)curSnsPtr->bsln[2u];
1391:Generated_Source\PSoC4/CapSense_1_Processing.c **** 
1392:Generated_Source\PSoC4/CapSense_1_Processing.c ****         /* Find median and put it into [0u] element */
1393:Generated_Source\PSoC4/CapSense_1_Processing.c ****         if (diffValue_0 > diffValue)
1394:Generated_Source\PSoC4/CapSense_1_Processing.c ****         {
1395:Generated_Source\PSoC4/CapSense_1_Processing.c ****             register int32 swapv = diffValue_0;
1396:Generated_Source\PSoC4/CapSense_1_Processing.c ****             diffValue_0 = diffValue;
1397:Generated_Source\PSoC4/CapSense_1_Processing.c ****             diffValue = swapv;
1398:Generated_Source\PSoC4/CapSense_1_Processing.c ****         }
1399:Generated_Source\PSoC4/CapSense_1_Processing.c **** 
1400:Generated_Source\PSoC4/CapSense_1_Processing.c ****         if (diffValue > diffValue_2)
1401:Generated_Source\PSoC4/CapSense_1_Processing.c ****         {
1402:Generated_Source\PSoC4/CapSense_1_Processing.c ****             register int32 swapv = diffValue;
1403:Generated_Source\PSoC4/CapSense_1_Processing.c ****             diffValue = diffValue_2;
1404:Generated_Source\PSoC4/CapSense_1_Processing.c ****             diffValue_2 = swapv;
1405:Generated_Source\PSoC4/CapSense_1_Processing.c ****         }
1406:Generated_Source\PSoC4/CapSense_1_Processing.c **** 
1407:Generated_Source\PSoC4/CapSense_1_Processing.c ****         if (diffValue_0 > diffValue)
1408:Generated_Source\PSoC4/CapSense_1_Processing.c ****         {
1409:Generated_Source\PSoC4/CapSense_1_Processing.c ****             register int32 swapv = diffValue_0;
1410:Generated_Source\PSoC4/CapSense_1_Processing.c ****             diffValue_0 = diffValue;
1411:Generated_Source\PSoC4/CapSense_1_Processing.c ****             diffValue = swapv;
1412:Generated_Source\PSoC4/CapSense_1_Processing.c ****         }
1413:Generated_Source\PSoC4/CapSense_1_Processing.c ****     #endif /* #if (0u != CapSense_1_MULTI_FREQ_SCAN_EN) */
ARM GAS  C:\Users\exp32\AppData\Local\Temp\ccki8209.s 			page 31


1414:Generated_Source\PSoC4/CapSense_1_Processing.c **** 
1415:Generated_Source\PSoC4/CapSense_1_Processing.c ****     curSnsPtr->diff = 0u;
 285              		.loc 1 1415 0
 286 0008 0025     		movs	r5, #0
 287 000a CD80     		strh	r5, [r1, #6]
1416:Generated_Source\PSoC4/CapSense_1_Processing.c **** 
1417:Generated_Source\PSoC4/CapSense_1_Processing.c ****     if (diffValue > (int32)ptrRamWdgt->noiseTh)
 288              		.loc 1 1417 0
 289 000c 0079     		ldrb	r0, [r0, #4]
 290              	.LVL36:
 291 000e 8442     		cmp	r4, r0
 292 0010 00DD     		ble	.L18
1418:Generated_Source\PSoC4/CapSense_1_Processing.c ****     {
1419:Generated_Source\PSoC4/CapSense_1_Processing.c ****         curSnsPtr->diff = (CapSense_1_THRESHOLD_TYPE) diffValue;
 293              		.loc 1 1419 0
 294 0012 CC80     		strh	r4, [r1, #6]
 295              	.L18:
1420:Generated_Source\PSoC4/CapSense_1_Processing.c ****     }
1421:Generated_Source\PSoC4/CapSense_1_Processing.c **** }
 296              		.loc 1 1421 0
 297              		@ sp needed
 298              	.LVL37:
 299 0014 30BD     		pop	{r4, r5, pc}
 300              		.cfi_endproc
 301              	.LFE8:
 302              		.size	CapSense_1_DpUpdateDifferences, .-CapSense_1_DpUpdateDifferences
 303 0016 C046     		.section	.text.CapSense_1_DpProcessCsdWidgetRawCounts,"ax",%progbits
 304              		.align	2
 305              		.global	CapSense_1_DpProcessCsdWidgetRawCounts
 306              		.code	16
 307              		.thumb_func
 308              		.type	CapSense_1_DpProcessCsdWidgetRawCounts, %function
 309              	CapSense_1_DpProcessCsdWidgetRawCounts:
 310              	.LFB4:
1017:Generated_Source\PSoC4/CapSense_1_Processing.c ****     uint32  result = CYRET_SUCCESS;
 311              		.loc 1 1017 0
 312              		.cfi_startproc
 313              		@ args = 0, pretend = 0, frame = 8
 314              		@ frame_needed = 0, uses_anonymous_args = 0
 315              	.LVL38:
 316 0000 F0B5     		push	{r4, r5, r6, r7, lr}
 317              		.cfi_def_cfa_offset 20
 318              		.cfi_offset 4, -20
 319              		.cfi_offset 5, -16
 320              		.cfi_offset 6, -12
 321              		.cfi_offset 7, -8
 322              		.cfi_offset 14, -4
 323 0002 5746     		mov	r7, r10
 324 0004 80B4     		push	{r7}
 325              		.cfi_def_cfa_offset 24
 326              		.cfi_offset 10, -24
 327 0006 82B0     		sub	sp, sp, #8
 328              		.cfi_def_cfa_offset 32
 329 0008 8246     		mov	r10, r0
 330              	.LVL39:
1047:Generated_Source\PSoC4/CapSense_1_Processing.c ****     ptrRamWdgt = (CapSense_1_RAM_WD_BASE_STRUCT *)ptrFlashWdgt->ptr2WdgtRam;
 331              		.loc 1 1047 0
ARM GAS  C:\Users\exp32\AppData\Local\Temp\ccki8209.s 			page 32


 332 000a 8468     		ldr	r4, [r0, #8]
 333              	.LVL40:
1048:Generated_Source\PSoC4/CapSense_1_Processing.c ****     widgetType = ptrFlashWdgt->wdgtType;
 334              		.loc 1 1048 0
 335 000c 4568     		ldr	r5, [r0, #4]
 336              	.LVL41:
1049:Generated_Source\PSoC4/CapSense_1_Processing.c **** 
 337              		.loc 1 1049 0
 338 000e 837E     		ldrb	r3, [r0, #26]
 339 0010 0193     		str	r3, [sp, #4]
 340              	.LVL42:
1052:Generated_Source\PSoC4/CapSense_1_Processing.c ****     #endif /* #if (0u != (CapSense_1_CSD_AUTOTUNE & CapSense_1_CSD_SS_TH_EN)) */
 341              		.loc 1 1052 0
 342 0012 C76A     		ldr	r7, [r0, #44]
 343              	.LVL43:
1056:Generated_Source\PSoC4/CapSense_1_Processing.c ****     {
 344              		.loc 1 1056 0
 345 0014 0026     		movs	r6, #0
1018:Generated_Source\PSoC4/CapSense_1_Processing.c **** 
 346              		.loc 1 1018 0
 347 0016 0023     		movs	r3, #0
 348              	.LVL44:
 349 0018 0093     		str	r3, [sp]
1056:Generated_Source\PSoC4/CapSense_1_Processing.c ****     {
 350              		.loc 1 1056 0
 351 001a 16E0     		b	.L21
 352              	.LVL45:
 353              	.L22:
1068:Generated_Source\PSoC4/CapSense_1_Processing.c ****             CapSense_1_DpUpdateThresholds(ptrRamWdgt, ptrNoiseEnvelope, snsId);
 354              		.loc 1 1068 0 discriminator 3
 355 001c A98A     		ldrh	r1, [r5, #20]
 356 001e 2088     		ldrh	r0, [r4]
 357 0020 3A00     		movs	r2, r7
 358 0022 FFF7FEFF 		bl	SmartSense_RunNoiseEnvelope
 359              	.LVL46:
1069:Generated_Source\PSoC4/CapSense_1_Processing.c **** 
 360              		.loc 1 1069 0 discriminator 3
 361 0026 3200     		movs	r2, r6
 362 0028 3900     		movs	r1, r7
 363 002a 2800     		movs	r0, r5
 364 002c FFF7FEFF 		bl	CapSense_1_DpUpdateThresholds
 365              	.LVL47:
1086:Generated_Source\PSoC4/CapSense_1_Processing.c ****         #endif /* (0u != (CapSense_1_CSD_AUTOTUNE & CapSense_1_CSD_SS_TH_EN)) */
 366              		.loc 1 1086 0 discriminator 3
 367 0030 0C37     		adds	r7, r7, #12
 368              	.LVL48:
1096:Generated_Source\PSoC4/CapSense_1_Processing.c ****         #endif /* (CapSense_1_ENABLE == CapSense_1_TST_BSLN_DUPLICATION_EN) */
 369              		.loc 1 1096 0 discriminator 3
 370 0032 019A     		ldr	r2, [sp, #4]
 371 0034 2100     		movs	r1, r4
 372 0036 2800     		movs	r0, r5
 373 0038 FFF7FEFF 		bl	CapSense_1_FtUpdateBaseline
 374              	.LVL49:
 375 003c 0090     		str	r0, [sp]
 376              	.LVL50:
1099:Generated_Source\PSoC4/CapSense_1_Processing.c **** 
 377              		.loc 1 1099 0 discriminator 3
ARM GAS  C:\Users\exp32\AppData\Local\Temp\ccki8209.s 			page 33


 378 003e 2100     		movs	r1, r4
 379 0040 2800     		movs	r0, r5
 380              	.LVL51:
 381 0042 FFF7FEFF 		bl	CapSense_1_DpUpdateDifferences
 382              	.LVL52:
1102:Generated_Source\PSoC4/CapSense_1_Processing.c **** 
 383              		.loc 1 1102 0 discriminator 3
 384 0046 0A34     		adds	r4, r4, #10
 385              	.LVL53:
1056:Generated_Source\PSoC4/CapSense_1_Processing.c ****     {
 386              		.loc 1 1056 0 discriminator 3
 387 0048 0136     		adds	r6, r6, #1
 388              	.LVL54:
 389              	.L21:
1056:Generated_Source\PSoC4/CapSense_1_Processing.c ****     {
 390              		.loc 1 1056 0 is_stmt 0 discriminator 1
 391 004a 5346     		mov	r3, r10
 392 004c 1B8B     		ldrh	r3, [r3, #24]
 393 004e 9E42     		cmp	r6, r3
 394 0050 E4D3     		bcc	.L22
1110:Generated_Source\PSoC4/CapSense_1_Processing.c **** 
 395              		.loc 1 1110 0 is_stmt 1
 396 0052 0098     		ldr	r0, [sp]
 397 0054 02B0     		add	sp, sp, #8
 398              	.LVL55:
 399              		@ sp needed
 400              	.LVL56:
 401              	.LVL57:
 402              	.LVL58:
 403              	.LVL59:
 404              	.LVL60:
 405 0056 04BC     		pop	{r2}
 406 0058 9246     		mov	r10, r2
 407 005a F0BD     		pop	{r4, r5, r6, r7, pc}
 408              		.cfi_endproc
 409              	.LFE4:
 410              		.size	CapSense_1_DpProcessCsdWidgetRawCounts, .-CapSense_1_DpProcessCsdWidgetRawCounts
 411              		.section	.text.CapSense_1_DpProcessCsdSensorRawCountsExt,"ax",%progbits
 412              		.align	2
 413              		.global	CapSense_1_DpProcessCsdSensorRawCountsExt
 414              		.code	16
 415              		.thumb_func
 416              		.type	CapSense_1_DpProcessCsdSensorRawCountsExt, %function
 417              	CapSense_1_DpProcessCsdSensorRawCountsExt:
 418              	.LFB5:
1151:Generated_Source\PSoC4/CapSense_1_Processing.c ****     uint32 result = CYRET_SUCCESS;
 419              		.loc 1 1151 0
 420              		.cfi_startproc
 421              		@ args = 0, pretend = 0, frame = 8
 422              		@ frame_needed = 0, uses_anonymous_args = 0
 423              	.LVL61:
 424 0000 F0B5     		push	{r4, r5, r6, r7, lr}
 425              		.cfi_def_cfa_offset 20
 426              		.cfi_offset 4, -20
 427              		.cfi_offset 5, -16
 428              		.cfi_offset 6, -12
 429              		.cfi_offset 7, -8
ARM GAS  C:\Users\exp32\AppData\Local\Temp\ccki8209.s 			page 34


 430              		.cfi_offset 14, -4
 431 0002 83B0     		sub	sp, sp, #12
 432              		.cfi_def_cfa_offset 32
 433 0004 0191     		str	r1, [sp, #4]
 434 0006 1C00     		movs	r4, r3
 435              	.LVL62:
1163:Generated_Source\PSoC4/CapSense_1_Processing.c ****     #endif /* (0u != (CapSense_1_CSD_AUTOTUNE & CapSense_1_CSD_SS_TH_EN)) */
 436              		.loc 1 1163 0
 437 0008 C76A     		ldr	r7, [r0, #44]
 438              	.LVL63:
1166:Generated_Source\PSoC4/CapSense_1_Processing.c ****     ptrRamWdgt = (CapSense_1_RAM_WD_BASE_STRUCT *)ptrFlashWdgt->ptr2WdgtRam;
 439              		.loc 1 1166 0
 440 000a 867E     		ldrb	r6, [r0, #26]
 441              	.LVL64:
1167:Generated_Source\PSoC4/CapSense_1_Processing.c **** 
 442              		.loc 1 1167 0
 443 000c 4568     		ldr	r5, [r0, #4]
 444              	.LVL65:
1182:Generated_Source\PSoC4/CapSense_1_Processing.c ****         {
 445              		.loc 1 1182 0
 446 000e 2307     		lsls	r3, r4, #28
 447 0010 05D5     		bpl	.L24
 448              	.LVL66:
1184:Generated_Source\PSoC4/CapSense_1_Processing.c ****         }
 449              		.loc 1 1184 0
 450 0012 A98A     		ldrh	r1, [r5, #20]
 451              	.LVL67:
 452 0014 019B     		ldr	r3, [sp, #4]
 453 0016 1888     		ldrh	r0, [r3]
 454              	.LVL68:
 455 0018 3A00     		movs	r2, r7
 456              	.LVL69:
 457 001a FFF7FEFF 		bl	SmartSense_RunNoiseEnvelope
 458              	.LVL70:
 459              	.L24:
1187:Generated_Source\PSoC4/CapSense_1_Processing.c ****         {
 460              		.loc 1 1187 0
 461 001e E306     		lsls	r3, r4, #27
 462 0020 04D5     		bpl	.L25
1189:Generated_Source\PSoC4/CapSense_1_Processing.c **** 
 463              		.loc 1 1189 0
 464 0022 0022     		movs	r2, #0
 465              	.LVL71:
 466 0024 3900     		movs	r1, r7
 467 0026 2800     		movs	r0, r5
 468 0028 FFF7FEFF 		bl	CapSense_1_DpUpdateThresholds
 469              	.LVL72:
 470              	.L25:
1207:Generated_Source\PSoC4/CapSense_1_Processing.c ****     {
 471              		.loc 1 1207 0
 472 002c A307     		lsls	r3, r4, #30
 473 002e 06D5     		bpl	.L28
1209:Generated_Source\PSoC4/CapSense_1_Processing.c ****     }
 474              		.loc 1 1209 0
 475 0030 3200     		movs	r2, r6
 476              	.LVL73:
 477 0032 0199     		ldr	r1, [sp, #4]
ARM GAS  C:\Users\exp32\AppData\Local\Temp\ccki8209.s 			page 35


 478 0034 2800     		movs	r0, r5
 479 0036 FFF7FEFF 		bl	CapSense_1_FtUpdateBaseline
 480              	.LVL74:
 481 003a 0700     		movs	r7, r0
 482              	.LVL75:
 483 003c 00E0     		b	.L26
 484              	.LVL76:
 485              	.L28:
1152:Generated_Source\PSoC4/CapSense_1_Processing.c ****     uint32  widgetType;
 486              		.loc 1 1152 0
 487 003e 0027     		movs	r7, #0
 488              	.LVL77:
 489              	.L26:
1212:Generated_Source\PSoC4/CapSense_1_Processing.c ****     {
 490              		.loc 1 1212 0
 491 0040 6307     		lsls	r3, r4, #29
 492 0042 03D5     		bpl	.L27
1214:Generated_Source\PSoC4/CapSense_1_Processing.c ****     }
 493              		.loc 1 1214 0
 494 0044 0199     		ldr	r1, [sp, #4]
 495 0046 2800     		movs	r0, r5
 496 0048 FFF7FEFF 		bl	CapSense_1_DpUpdateDifferences
 497              	.LVL78:
 498              	.L27:
1217:Generated_Source\PSoC4/CapSense_1_Processing.c **** 
 499              		.loc 1 1217 0
 500 004c 3800     		movs	r0, r7
 501 004e 03B0     		add	sp, sp, #12
 502              		@ sp needed
 503              	.LVL79:
 504              	.LVL80:
 505              	.LVL81:
 506              	.LVL82:
 507 0050 F0BD     		pop	{r4, r5, r6, r7, pc}
 508              		.cfi_endproc
 509              	.LFE5:
 510              		.size	CapSense_1_DpProcessCsdSensorRawCountsExt, .-CapSense_1_DpProcessCsdSensorRawCountsExt
 511 0052 C046     		.section	.text.CapSense_1_DpProcessButton,"ax",%progbits
 512              		.align	2
 513              		.global	CapSense_1_DpProcessButton
 514              		.code	16
 515              		.thumb_func
 516              		.type	CapSense_1_DpProcessButton, %function
 517              	CapSense_1_DpProcessButton:
 518              	.LFB9:
1422:Generated_Source\PSoC4/CapSense_1_Processing.c **** 
1423:Generated_Source\PSoC4/CapSense_1_Processing.c **** 
1424:Generated_Source\PSoC4/CapSense_1_Processing.c **** #if ((0u != CapSense_1_BUTTON_WIDGET_EN) || (0u != CapSense_1_CSX_MATRIX_WIDGET_EN))
1425:Generated_Source\PSoC4/CapSense_1_Processing.c **** /*******************************************************************************
1426:Generated_Source\PSoC4/CapSense_1_Processing.c **** * Function Name: CapSense_1_DpProcessButton
1427:Generated_Source\PSoC4/CapSense_1_Processing.c **** ****************************************************************************//**
1428:Generated_Source\PSoC4/CapSense_1_Processing.c **** *
1429:Generated_Source\PSoC4/CapSense_1_Processing.c **** * \brief
1430:Generated_Source\PSoC4/CapSense_1_Processing.c **** *   Processes the status of the Button widget.
1431:Generated_Source\PSoC4/CapSense_1_Processing.c **** *
1432:Generated_Source\PSoC4/CapSense_1_Processing.c **** * \details
1433:Generated_Source\PSoC4/CapSense_1_Processing.c **** *   This API processes the status of the CSD/CSX Button widget and
ARM GAS  C:\Users\exp32\AppData\Local\Temp\ccki8209.s 			page 36


1434:Generated_Source\PSoC4/CapSense_1_Processing.c **** *   CSX Matrix Button widget. It applies the hysteresis and de-bounce algorithm
1435:Generated_Source\PSoC4/CapSense_1_Processing.c **** *   to each sensor difference value. This API is expected to be called
1436:Generated_Source\PSoC4/CapSense_1_Processing.c **** *   after each new widget scan. If it is called multiple times for the same
1437:Generated_Source\PSoC4/CapSense_1_Processing.c **** *   scan data, the de-bounce algorithm will not work properly.
1438:Generated_Source\PSoC4/CapSense_1_Processing.c **** *
1439:Generated_Source\PSoC4/CapSense_1_Processing.c **** *   This API does not update any Data Structure registers
1440:Generated_Source\PSoC4/CapSense_1_Processing.c **** *   except the de-bounce counters.
1441:Generated_Source\PSoC4/CapSense_1_Processing.c **** *
1442:Generated_Source\PSoC4/CapSense_1_Processing.c **** * \param currStatus   The current status of the widget sensors.
1443:Generated_Source\PSoC4/CapSense_1_Processing.c **** * \param ptrFlashWdgt The pointer to the Flash Widget Object.
1444:Generated_Source\PSoC4/CapSense_1_Processing.c **** *
1445:Generated_Source\PSoC4/CapSense_1_Processing.c **** * \return Returns the status of the widget's sensors. Bit #0 - corresponds to Sensor #0.
1446:Generated_Source\PSoC4/CapSense_1_Processing.c **** *
1447:Generated_Source\PSoC4/CapSense_1_Processing.c **** *******************************************************************************/
1448:Generated_Source\PSoC4/CapSense_1_Processing.c **** uint32 CapSense_1_DpProcessButton(uint32 currStatus, CapSense_1_FLASH_WD_STRUCT const *ptrFlashWdgt
1449:Generated_Source\PSoC4/CapSense_1_Processing.c **** {
 519              		.loc 1 1449 0
 520              		.cfi_startproc
 521              		@ args = 0, pretend = 0, frame = 0
 522              		@ frame_needed = 0, uses_anonymous_args = 0
 523              	.LVL83:
 524 0000 F0B5     		push	{r4, r5, r6, r7, lr}
 525              		.cfi_def_cfa_offset 20
 526              		.cfi_offset 4, -20
 527              		.cfi_offset 5, -16
 528              		.cfi_offset 6, -12
 529              		.cfi_offset 7, -8
 530              		.cfi_offset 14, -4
1450:Generated_Source\PSoC4/CapSense_1_Processing.c ****     uint32 snsCnt;
1451:Generated_Source\PSoC4/CapSense_1_Processing.c ****     uint32 snsMask;
1452:Generated_Source\PSoC4/CapSense_1_Processing.c ****     uint32 newStatus;
1453:Generated_Source\PSoC4/CapSense_1_Processing.c ****     uint32 touchTh;
1454:Generated_Source\PSoC4/CapSense_1_Processing.c ****     CapSense_1_RAM_SNS_STRUCT *ptrSnsTmp;
1455:Generated_Source\PSoC4/CapSense_1_Processing.c ****     CapSense_1_RAM_WD_BASE_STRUCT *ptrRamWdgt;
1456:Generated_Source\PSoC4/CapSense_1_Processing.c ****     uint8 * ptrDebounceCnt;
1457:Generated_Source\PSoC4/CapSense_1_Processing.c **** 
1458:Generated_Source\PSoC4/CapSense_1_Processing.c ****     snsCnt = ptrFlashWdgt->totalNumSns;
 531              		.loc 1 1458 0
 532 0002 0A8B     		ldrh	r2, [r1, #24]
 533              	.LVL84:
1459:Generated_Source\PSoC4/CapSense_1_Processing.c ****     ptrSnsTmp = ptrFlashWdgt->ptr2SnsRam;
 534              		.loc 1 1459 0
 535 0004 8D68     		ldr	r5, [r1, #8]
 536              	.LVL85:
1460:Generated_Source\PSoC4/CapSense_1_Processing.c ****     ptrRamWdgt = (CapSense_1_RAM_WD_BASE_STRUCT *)ptrFlashWdgt->ptr2WdgtRam;
 537              		.loc 1 1460 0
 538 0006 4F68     		ldr	r7, [r1, #4]
 539              	.LVL86:
1461:Generated_Source\PSoC4/CapSense_1_Processing.c ****     ptrDebounceCnt = ptrFlashWdgt->ptr2DebounceArr;
 540              		.loc 1 1461 0
 541 0008 0B69     		ldr	r3, [r1, #16]
 542              	.LVL87:
1462:Generated_Source\PSoC4/CapSense_1_Processing.c **** 
1463:Generated_Source\PSoC4/CapSense_1_Processing.c ****     /* Go through all widget's sensors */
1464:Generated_Source\PSoC4/CapSense_1_Processing.c ****     snsMask = 1Lu;
 543              		.loc 1 1464 0
 544 000a 0121     		movs	r1, #1
ARM GAS  C:\Users\exp32\AppData\Local\Temp\ccki8209.s 			page 37


 545              	.LVL88:
1465:Generated_Source\PSoC4/CapSense_1_Processing.c ****     for (; snsCnt-- > 0u; )
 546              		.loc 1 1465 0
 547 000c 25E0     		b	.L30
 548              	.LVL89:
 549              	.L38:
1466:Generated_Source\PSoC4/CapSense_1_Processing.c ****     {
1467:Generated_Source\PSoC4/CapSense_1_Processing.c ****         /* Calculate touch threshold taking into account hysteresis
1468:Generated_Source\PSoC4/CapSense_1_Processing.c ****            and current sensor state. */
1469:Generated_Source\PSoC4/CapSense_1_Processing.c ****         touchTh = (0u == (currStatus & snsMask)) ?
 550              		.loc 1 1469 0
 551 000e 0C00     		movs	r4, r1
 552              	.LVL90:
 553 0010 0440     		ands	r4, r0
1470:Generated_Source\PSoC4/CapSense_1_Processing.c ****                   ((uint32)ptrRamWdgt->fingerTh + ptrRamWdgt->hysteresis) :
 554              		.loc 1 1470 0
 555 0012 03D1     		bne	.L31
 556              		.loc 1 1470 0 is_stmt 0 discriminator 1
 557 0014 7E88     		ldrh	r6, [r7, #2]
 558 0016 BA79     		ldrb	r2, [r7, #6]
 559 0018 B218     		adds	r2, r6, r2
 560 001a 02E0     		b	.L32
 561              	.L31:
1471:Generated_Source\PSoC4/CapSense_1_Processing.c ****                   ((uint32)ptrRamWdgt->fingerTh - ptrRamWdgt->hysteresis);
 562              		.loc 1 1471 0 is_stmt 1 discriminator 2
 563 001c 7A88     		ldrh	r2, [r7, #2]
 564 001e BE79     		ldrb	r6, [r7, #6]
1470:Generated_Source\PSoC4/CapSense_1_Processing.c ****                   ((uint32)ptrRamWdgt->fingerTh + ptrRamWdgt->hysteresis) :
 565              		.loc 1 1470 0 discriminator 2
 566 0020 921B     		subs	r2, r2, r6
 567              	.L32:
 568              	.LVL91:
1472:Generated_Source\PSoC4/CapSense_1_Processing.c **** 
1473:Generated_Source\PSoC4/CapSense_1_Processing.c ****         /* Determine new potential sensor state */
1474:Generated_Source\PSoC4/CapSense_1_Processing.c ****         newStatus = (ptrSnsTmp->diff > touchTh) ? snsMask : 0u;
 569              		.loc 1 1474 0
 570 0022 EE88     		ldrh	r6, [r5, #6]
 571 0024 B242     		cmp	r2, r6
 572 0026 01D3     		bcc	.L39
 573 0028 0022     		movs	r2, #0
 574              	.LVL92:
 575 002a 00E0     		b	.L33
 576              	.LVL93:
 577              	.L39:
 578 002c 0A00     		movs	r2, r1
 579              	.LVL94:
 580              	.L33:
1475:Generated_Source\PSoC4/CapSense_1_Processing.c **** 
1476:Generated_Source\PSoC4/CapSense_1_Processing.c ****         /* Sensor state changed ? */
1477:Generated_Source\PSoC4/CapSense_1_Processing.c ****         if (newStatus != (currStatus & snsMask))
 581              		.loc 1 1477 0 discriminator 4
 582 002e A242     		cmp	r2, r4
 583 0030 02D0     		beq	.L34
1478:Generated_Source\PSoC4/CapSense_1_Processing.c ****         {
1479:Generated_Source\PSoC4/CapSense_1_Processing.c ****             /* Decrement de-bounce counter */
1480:Generated_Source\PSoC4/CapSense_1_Processing.c ****             (*ptrDebounceCnt)--;
 584              		.loc 1 1480 0
ARM GAS  C:\Users\exp32\AppData\Local\Temp\ccki8209.s 			page 38


 585 0032 1E78     		ldrb	r6, [r3]
 586 0034 013E     		subs	r6, r6, #1
 587 0036 1E70     		strb	r6, [r3]
 588              	.L34:
1481:Generated_Source\PSoC4/CapSense_1_Processing.c ****         }
1482:Generated_Source\PSoC4/CapSense_1_Processing.c **** 
1483:Generated_Source\PSoC4/CapSense_1_Processing.c ****         /*
1484:Generated_Source\PSoC4/CapSense_1_Processing.c ****         *  This piece of code has two objectives:
1485:Generated_Source\PSoC4/CapSense_1_Processing.c ****         *  1. Reset de-bounce counter if the sensor state did not change.
1486:Generated_Source\PSoC4/CapSense_1_Processing.c ****         *     (It is possible that during previous processing cycles sensor
1487:Generated_Source\PSoC4/CapSense_1_Processing.c ****         *     was active and de-bounce counter was decremented.)
1488:Generated_Source\PSoC4/CapSense_1_Processing.c ****         *  2. Set new sensor state after successful de-bounce.
1489:Generated_Source\PSoC4/CapSense_1_Processing.c ****         */
1490:Generated_Source\PSoC4/CapSense_1_Processing.c ****         if ((newStatus == (currStatus & snsMask)) || (0u == (*ptrDebounceCnt)))
 589              		.loc 1 1490 0
 590 0038 A242     		cmp	r2, r4
 591 003a 02D0     		beq	.L35
 592              		.loc 1 1490 0 is_stmt 0 discriminator 1
 593 003c 1C78     		ldrb	r4, [r3]
 594 003e 002C     		cmp	r4, #0
 595 0040 07D1     		bne	.L36
 596              	.L35:
1491:Generated_Source\PSoC4/CapSense_1_Processing.c ****         {
1492:Generated_Source\PSoC4/CapSense_1_Processing.c ****             /* Set new sensor status */
1493:Generated_Source\PSoC4/CapSense_1_Processing.c ****             currStatus &= ~snsMask;
 597              		.loc 1 1493 0 is_stmt 1
 598 0042 8843     		bics	r0, r1
 599              	.LVL95:
1494:Generated_Source\PSoC4/CapSense_1_Processing.c ****             currStatus |= newStatus;
 600              		.loc 1 1494 0
 601 0044 1043     		orrs	r0, r2
 602              	.LVL96:
1495:Generated_Source\PSoC4/CapSense_1_Processing.c **** 
1496:Generated_Source\PSoC4/CapSense_1_Processing.c ****             /* Reset de-bounce counter */
1497:Generated_Source\PSoC4/CapSense_1_Processing.c ****             #if (0u != CapSense_1_OFF_DEBOUNCE_EN)
1498:Generated_Source\PSoC4/CapSense_1_Processing.c ****                 *ptrDebounceCnt = (0Lu == newStatus) ? ptrRamWdgt->onDebounce : ptrRamWdgt->offDebo
1499:Generated_Source\PSoC4/CapSense_1_Processing.c ****             #else
1500:Generated_Source\PSoC4/CapSense_1_Processing.c ****                 *ptrDebounceCnt = (0Lu == newStatus) ? ptrRamWdgt->onDebounce : DEFAULT_OFF_DEBOUNC
 603              		.loc 1 1500 0
 604 0046 002A     		cmp	r2, #0
 605 0048 01D1     		bne	.L40
 606              		.loc 1 1500 0 is_stmt 0 discriminator 1
 607 004a FA79     		ldrb	r2, [r7, #7]
 608              	.LVL97:
 609 004c 00E0     		b	.L37
 610              	.LVL98:
 611              	.L40:
 612              		.loc 1 1500 0
 613 004e 0122     		movs	r2, #1
 614              	.LVL99:
 615              	.L37:
 616              		.loc 1 1500 0 discriminator 4
 617 0050 1A70     		strb	r2, [r3]
 618              	.L36:
1501:Generated_Source\PSoC4/CapSense_1_Processing.c ****             #endif /* #if (0u != CapSense_1_OFF_DEBOUNCE_EN) */
1502:Generated_Source\PSoC4/CapSense_1_Processing.c ****         }
1503:Generated_Source\PSoC4/CapSense_1_Processing.c **** 
ARM GAS  C:\Users\exp32\AppData\Local\Temp\ccki8209.s 			page 39


1504:Generated_Source\PSoC4/CapSense_1_Processing.c ****         /* Move mask to the next sensor */
1505:Generated_Source\PSoC4/CapSense_1_Processing.c ****         snsMask <<= 1u;
 619              		.loc 1 1505 0 is_stmt 1
 620 0052 4900     		lsls	r1, r1, #1
 621              	.LVL100:
1506:Generated_Source\PSoC4/CapSense_1_Processing.c **** 
1507:Generated_Source\PSoC4/CapSense_1_Processing.c ****         ptrSnsTmp++;
 622              		.loc 1 1507 0
 623 0054 0A35     		adds	r5, r5, #10
 624              	.LVL101:
1508:Generated_Source\PSoC4/CapSense_1_Processing.c ****         ptrDebounceCnt++;
 625              		.loc 1 1508 0
 626 0056 0133     		adds	r3, r3, #1
 627              	.LVL102:
1465:Generated_Source\PSoC4/CapSense_1_Processing.c ****     {
 628              		.loc 1 1465 0
 629 0058 6246     		mov	r2, ip
 630              	.LVL103:
 631              	.L30:
 632 005a 541E     		subs	r4, r2, #1
 633 005c A446     		mov	ip, r4
 634              	.LVL104:
 635 005e 002A     		cmp	r2, #0
 636 0060 D5D1     		bne	.L38
1509:Generated_Source\PSoC4/CapSense_1_Processing.c ****     }
1510:Generated_Source\PSoC4/CapSense_1_Processing.c **** 
1511:Generated_Source\PSoC4/CapSense_1_Processing.c ****     return currStatus;
1512:Generated_Source\PSoC4/CapSense_1_Processing.c **** }
 637              		.loc 1 1512 0
 638              		@ sp needed
 639              	.LVL105:
 640              	.LVL106:
 641              	.LVL107:
 642 0062 F0BD     		pop	{r4, r5, r6, r7, pc}
 643              		.cfi_endproc
 644              	.LFE9:
 645              		.size	CapSense_1_DpProcessButton, .-CapSense_1_DpProcessButton
 646              		.section	.text.CapSense_1_DpProcessSlider,"ax",%progbits
 647              		.align	2
 648              		.global	CapSense_1_DpProcessSlider
 649              		.code	16
 650              		.thumb_func
 651              		.type	CapSense_1_DpProcessSlider, %function
 652              	CapSense_1_DpProcessSlider:
 653              	.LFB10:
1513:Generated_Source\PSoC4/CapSense_1_Processing.c **** #endif /* #if ((0u != CapSense_1_BUTTON_WIDGET_EN) || (0u != CapSense_1_CSX_MATRIX_WIDGET_EN)) */
1514:Generated_Source\PSoC4/CapSense_1_Processing.c **** 
1515:Generated_Source\PSoC4/CapSense_1_Processing.c **** 
1516:Generated_Source\PSoC4/CapSense_1_Processing.c **** #if (0u != CapSense_1_PROXIMITY_WIDGET_EN)
1517:Generated_Source\PSoC4/CapSense_1_Processing.c **** /*******************************************************************************
1518:Generated_Source\PSoC4/CapSense_1_Processing.c **** * Function Name: CapSense_1_DpProcessProximity
1519:Generated_Source\PSoC4/CapSense_1_Processing.c **** ****************************************************************************//**
1520:Generated_Source\PSoC4/CapSense_1_Processing.c **** *
1521:Generated_Source\PSoC4/CapSense_1_Processing.c **** * \brief
1522:Generated_Source\PSoC4/CapSense_1_Processing.c **** *   Processes the status of the Proximity widget.
1523:Generated_Source\PSoC4/CapSense_1_Processing.c **** *
1524:Generated_Source\PSoC4/CapSense_1_Processing.c **** * \details
ARM GAS  C:\Users\exp32\AppData\Local\Temp\ccki8209.s 			page 40


1525:Generated_Source\PSoC4/CapSense_1_Processing.c **** *   This API processes the status of the CSD Proximity widget. It applies the
1526:Generated_Source\PSoC4/CapSense_1_Processing.c **** *   hysteresis and debounce algorithm to each sensor difference value.
1527:Generated_Source\PSoC4/CapSense_1_Processing.c **** *   The proximity and touch events are considered independently so debounce and
1528:Generated_Source\PSoC4/CapSense_1_Processing.c **** *   hysteresis are also applied independently.
1529:Generated_Source\PSoC4/CapSense_1_Processing.c **** *
1530:Generated_Source\PSoC4/CapSense_1_Processing.c **** *   This API is expected to be called after each new widget scan. If it is
1531:Generated_Source\PSoC4/CapSense_1_Processing.c **** *   called multiple times for the same scan data the debounce algorithm
1532:Generated_Source\PSoC4/CapSense_1_Processing.c **** *   will not work properly.
1533:Generated_Source\PSoC4/CapSense_1_Processing.c **** *
1534:Generated_Source\PSoC4/CapSense_1_Processing.c **** *   This API does not update any Data Structure registers
1535:Generated_Source\PSoC4/CapSense_1_Processing.c **** *   except the debounce counters.
1536:Generated_Source\PSoC4/CapSense_1_Processing.c **** *
1537:Generated_Source\PSoC4/CapSense_1_Processing.c **** * \param currStatus   The value with the current widget status.
1538:Generated_Source\PSoC4/CapSense_1_Processing.c **** * \param ptrFlashWdgt The pointer to the Flash Widget Object.
1539:Generated_Source\PSoC4/CapSense_1_Processing.c **** *
1540:Generated_Source\PSoC4/CapSense_1_Processing.c **** * \return
1541:Generated_Source\PSoC4/CapSense_1_Processing.c **** *  Returns the status of the proximity sensors. Each sensor is represented by two bits
1542:Generated_Source\PSoC4/CapSense_1_Processing.c **** *  that can take the following values:
1543:Generated_Source\PSoC4/CapSense_1_Processing.c **** *   - 00b not active
1544:Generated_Source\PSoC4/CapSense_1_Processing.c **** *   - 01b proximity is detected (signal is above finger threshold)
1545:Generated_Source\PSoC4/CapSense_1_Processing.c **** *   - 11b finger touch is detected (signal is above the touch threshold)
1546:Generated_Source\PSoC4/CapSense_1_Processing.c **** *
1547:Generated_Source\PSoC4/CapSense_1_Processing.c **** *******************************************************************************/
1548:Generated_Source\PSoC4/CapSense_1_Processing.c **** uint32 CapSense_1_DpProcessProximity(uint32 currStatus, CapSense_1_FLASH_WD_STRUCT const *ptrFlashW
1549:Generated_Source\PSoC4/CapSense_1_Processing.c **** {
1550:Generated_Source\PSoC4/CapSense_1_Processing.c ****     uint32 currTh;
1551:Generated_Source\PSoC4/CapSense_1_Processing.c ****     uint32 snsCnt;
1552:Generated_Source\PSoC4/CapSense_1_Processing.c ****     uint32 snsMask;
1553:Generated_Source\PSoC4/CapSense_1_Processing.c ****     uint32 newStatus;
1554:Generated_Source\PSoC4/CapSense_1_Processing.c ****     uint32 difference;
1555:Generated_Source\PSoC4/CapSense_1_Processing.c **** 
1556:Generated_Source\PSoC4/CapSense_1_Processing.c ****     uint8 *ptrDebounceCnt;
1557:Generated_Source\PSoC4/CapSense_1_Processing.c ****     CapSense_1_RAM_SNS_STRUCT *ptrSnsTmp;
1558:Generated_Source\PSoC4/CapSense_1_Processing.c ****     CapSense_1_RAM_WD_PROXIMITY_STRUCT *ptrRamWdgt;
1559:Generated_Source\PSoC4/CapSense_1_Processing.c **** 
1560:Generated_Source\PSoC4/CapSense_1_Processing.c ****     /* Mask for proximity status bits. (All odd bits.) */
1561:Generated_Source\PSoC4/CapSense_1_Processing.c ****     const uint32 proxMask = UINT32_ODD_BITS_CONST;
1562:Generated_Source\PSoC4/CapSense_1_Processing.c **** 
1563:Generated_Source\PSoC4/CapSense_1_Processing.c ****     ptrSnsTmp = ptrFlashWdgt->ptr2SnsRam;
1564:Generated_Source\PSoC4/CapSense_1_Processing.c ****     ptrRamWdgt = (CapSense_1_RAM_WD_PROXIMITY_STRUCT *)ptrFlashWdgt->ptr2WdgtRam;
1565:Generated_Source\PSoC4/CapSense_1_Processing.c ****     ptrDebounceCnt = ptrFlashWdgt->ptr2DebounceArr;
1566:Generated_Source\PSoC4/CapSense_1_Processing.c **** 
1567:Generated_Source\PSoC4/CapSense_1_Processing.c ****     /* Get number of sensors and multiply it by 2 - proximity and touch statuses per sensor. */
1568:Generated_Source\PSoC4/CapSense_1_Processing.c ****     snsCnt = (uint32)ptrFlashWdgt->totalNumSns << 1u;
1569:Generated_Source\PSoC4/CapSense_1_Processing.c **** 
1570:Generated_Source\PSoC4/CapSense_1_Processing.c ****     /* Go through all sensor's status bits */
1571:Generated_Source\PSoC4/CapSense_1_Processing.c ****     snsMask = 1Lu;
1572:Generated_Source\PSoC4/CapSense_1_Processing.c ****     for (; snsCnt-- > 0u;)
1573:Generated_Source\PSoC4/CapSense_1_Processing.c ****     {
1574:Generated_Source\PSoC4/CapSense_1_Processing.c ****         difference = ptrSnsTmp->diff;
1575:Generated_Source\PSoC4/CapSense_1_Processing.c **** 
1576:Generated_Source\PSoC4/CapSense_1_Processing.c ****         /* Determine current event (proximity - odd; touch - even) and get appropriate threshold. *
1577:Generated_Source\PSoC4/CapSense_1_Processing.c ****         currTh = ptrRamWdgt->fingerTh;
1578:Generated_Source\PSoC4/CapSense_1_Processing.c **** 
1579:Generated_Source\PSoC4/CapSense_1_Processing.c ****         if (0u == (snsMask & proxMask))
1580:Generated_Source\PSoC4/CapSense_1_Processing.c ****         {
1581:Generated_Source\PSoC4/CapSense_1_Processing.c ****             currTh = ptrRamWdgt->proxTouchTh;
ARM GAS  C:\Users\exp32\AppData\Local\Temp\ccki8209.s 			page 41


1582:Generated_Source\PSoC4/CapSense_1_Processing.c ****             ptrSnsTmp++;
1583:Generated_Source\PSoC4/CapSense_1_Processing.c ****         }
1584:Generated_Source\PSoC4/CapSense_1_Processing.c **** 
1585:Generated_Source\PSoC4/CapSense_1_Processing.c ****         /* Calculate finger threshold applying hysteresis based on current sensor state. */
1586:Generated_Source\PSoC4/CapSense_1_Processing.c ****         currTh = (0u == (currStatus & snsMask)) ? (currTh + ptrRamWdgt->hysteresis) : (currTh - ptr
1587:Generated_Source\PSoC4/CapSense_1_Processing.c **** 
1588:Generated_Source\PSoC4/CapSense_1_Processing.c ****         /* Determine new potential sensor state before de-bounce */
1589:Generated_Source\PSoC4/CapSense_1_Processing.c ****         newStatus = (difference > currTh) ? snsMask : 0Lu;
1590:Generated_Source\PSoC4/CapSense_1_Processing.c **** 
1591:Generated_Source\PSoC4/CapSense_1_Processing.c ****         /* Sensor state changed ? */
1592:Generated_Source\PSoC4/CapSense_1_Processing.c ****         if (newStatus != (currStatus & snsMask))
1593:Generated_Source\PSoC4/CapSense_1_Processing.c ****         {
1594:Generated_Source\PSoC4/CapSense_1_Processing.c ****             /* Decrement de-bounce counter */
1595:Generated_Source\PSoC4/CapSense_1_Processing.c ****             (*ptrDebounceCnt)--;
1596:Generated_Source\PSoC4/CapSense_1_Processing.c ****         }
1597:Generated_Source\PSoC4/CapSense_1_Processing.c **** 
1598:Generated_Source\PSoC4/CapSense_1_Processing.c ****         /*
1599:Generated_Source\PSoC4/CapSense_1_Processing.c ****         *  This piece of code has two objectives:
1600:Generated_Source\PSoC4/CapSense_1_Processing.c ****         *  1. Reset de-bounce counter if new sensor state has not changed.
1601:Generated_Source\PSoC4/CapSense_1_Processing.c ****         *     (It is possible that during previous processing cycles the sensor
1602:Generated_Source\PSoC4/CapSense_1_Processing.c ****         *     state was different which caused de-bounce counter change.)
1603:Generated_Source\PSoC4/CapSense_1_Processing.c ****         *  2. Set new sensor state after successful de-bounce.
1604:Generated_Source\PSoC4/CapSense_1_Processing.c ****         */
1605:Generated_Source\PSoC4/CapSense_1_Processing.c ****         if ((newStatus == (currStatus & snsMask)) || (0u == (*ptrDebounceCnt)))
1606:Generated_Source\PSoC4/CapSense_1_Processing.c ****         {
1607:Generated_Source\PSoC4/CapSense_1_Processing.c ****             /* Set new sensor status */
1608:Generated_Source\PSoC4/CapSense_1_Processing.c ****             currStatus &= ~snsMask;
1609:Generated_Source\PSoC4/CapSense_1_Processing.c ****             currStatus |= newStatus;
1610:Generated_Source\PSoC4/CapSense_1_Processing.c **** 
1611:Generated_Source\PSoC4/CapSense_1_Processing.c ****             /* Reset de-bounce counter */
1612:Generated_Source\PSoC4/CapSense_1_Processing.c ****             #if (0u != CapSense_1_OFF_DEBOUNCE_EN)
1613:Generated_Source\PSoC4/CapSense_1_Processing.c ****                 *ptrDebounceCnt = (0Lu == newStatus) ? ptrRamWdgt->onDebounce : ptrRamWdgt->offDebo
1614:Generated_Source\PSoC4/CapSense_1_Processing.c ****             #else
1615:Generated_Source\PSoC4/CapSense_1_Processing.c ****                 *ptrDebounceCnt = (0Lu == newStatus) ? ptrRamWdgt->onDebounce : DEFAULT_OFF_DEBOUNC
1616:Generated_Source\PSoC4/CapSense_1_Processing.c ****             #endif /* #if (0u != CapSense_1_OFF_DEBOUNCE_EN) */
1617:Generated_Source\PSoC4/CapSense_1_Processing.c ****         }
1618:Generated_Source\PSoC4/CapSense_1_Processing.c **** 
1619:Generated_Source\PSoC4/CapSense_1_Processing.c ****         ptrDebounceCnt++;
1620:Generated_Source\PSoC4/CapSense_1_Processing.c **** 
1621:Generated_Source\PSoC4/CapSense_1_Processing.c ****         /* Move sensor mask to the next sensor */
1622:Generated_Source\PSoC4/CapSense_1_Processing.c ****         snsMask <<= 1u;
1623:Generated_Source\PSoC4/CapSense_1_Processing.c ****     }
1624:Generated_Source\PSoC4/CapSense_1_Processing.c **** 
1625:Generated_Source\PSoC4/CapSense_1_Processing.c ****     return currStatus;
1626:Generated_Source\PSoC4/CapSense_1_Processing.c **** }
1627:Generated_Source\PSoC4/CapSense_1_Processing.c **** #endif /* (0u != CapSense_1_PROXIMITY_WIDGET_EN) */
1628:Generated_Source\PSoC4/CapSense_1_Processing.c **** 
1629:Generated_Source\PSoC4/CapSense_1_Processing.c **** 
1630:Generated_Source\PSoC4/CapSense_1_Processing.c **** #if (0u != CapSense_1_ENCODERDIAL_WIDGET_EN)
1631:Generated_Source\PSoC4/CapSense_1_Processing.c **** /*******************************************************************************
1632:Generated_Source\PSoC4/CapSense_1_Processing.c **** * Function Name: CapSense_1_DpProcessEncoderDial
1633:Generated_Source\PSoC4/CapSense_1_Processing.c **** ****************************************************************************//**
1634:Generated_Source\PSoC4/CapSense_1_Processing.c **** *
1635:Generated_Source\PSoC4/CapSense_1_Processing.c **** * \brief
1636:Generated_Source\PSoC4/CapSense_1_Processing.c **** *   Processes the status of the Encoder Dial widget.
1637:Generated_Source\PSoC4/CapSense_1_Processing.c **** *
1638:Generated_Source\PSoC4/CapSense_1_Processing.c **** * \details
ARM GAS  C:\Users\exp32\AppData\Local\Temp\ccki8209.s 			page 42


1639:Generated_Source\PSoC4/CapSense_1_Processing.c **** *   This API processes the status of the Encoder Dial Widget. It applies the
1640:Generated_Source\PSoC4/CapSense_1_Processing.c **** *   hysteresis and debounce algorithm to each sensor difference value.
1641:Generated_Source\PSoC4/CapSense_1_Processing.c **** *
1642:Generated_Source\PSoC4/CapSense_1_Processing.c **** *   This API is expected to be called after each new widget scan. If it is
1643:Generated_Source\PSoC4/CapSense_1_Processing.c **** *   called multiple times for the same scan data the debounce algorithm
1644:Generated_Source\PSoC4/CapSense_1_Processing.c **** *   will not work properly.
1645:Generated_Source\PSoC4/CapSense_1_Processing.c **** *
1646:Generated_Source\PSoC4/CapSense_1_Processing.c **** *   This function updates the position and numTurns data structure members.
1647:Generated_Source\PSoC4/CapSense_1_Processing.c **** *
1648:Generated_Source\PSoC4/CapSense_1_Processing.c **** * \param currStatus   The value with the current widget status.
1649:Generated_Source\PSoC4/CapSense_1_Processing.c **** * \param ptrFlashWdgt The pointer to the Flash Widget Object.
1650:Generated_Source\PSoC4/CapSense_1_Processing.c **** *
1651:Generated_Source\PSoC4/CapSense_1_Processing.c **** * \return Returns the 4-bit status of the widget.
1652:Generated_Source\PSoC4/CapSense_1_Processing.c **** *
1653:Generated_Source\PSoC4/CapSense_1_Processing.c **** *******************************************************************************/
1654:Generated_Source\PSoC4/CapSense_1_Processing.c **** uint32 CapSense_1_DpProcessEncoderDial(uint32 currStatus, CapSense_1_FLASH_WD_STRUCT const *ptrFlas
1655:Generated_Source\PSoC4/CapSense_1_Processing.c **** {
1656:Generated_Source\PSoC4/CapSense_1_Processing.c ****     uint32 currTh;
1657:Generated_Source\PSoC4/CapSense_1_Processing.c ****     uint32 snsCnt;
1658:Generated_Source\PSoC4/CapSense_1_Processing.c ****     uint32 snsMask;
1659:Generated_Source\PSoC4/CapSense_1_Processing.c ****     uint32 newStatus;
1660:Generated_Source\PSoC4/CapSense_1_Processing.c ****     uint32 difference;
1661:Generated_Source\PSoC4/CapSense_1_Processing.c ****     uint32 historicStatus;
1662:Generated_Source\PSoC4/CapSense_1_Processing.c **** 
1663:Generated_Source\PSoC4/CapSense_1_Processing.c ****     uint8 *ptrDebounceCnt;
1664:Generated_Source\PSoC4/CapSense_1_Processing.c ****     CapSense_1_RAM_SNS_STRUCT *ptrSnsTmp;
1665:Generated_Source\PSoC4/CapSense_1_Processing.c ****     CapSense_1_RAM_WD_ENCODERDIAL_STRUCT *ptrRamWdgt;
1666:Generated_Source\PSoC4/CapSense_1_Processing.c **** 
1667:Generated_Source\PSoC4/CapSense_1_Processing.c ****     ptrSnsTmp = ptrFlashWdgt->ptr2SnsRam;
1668:Generated_Source\PSoC4/CapSense_1_Processing.c ****     ptrRamWdgt = (CapSense_1_RAM_WD_ENCODERDIAL_STRUCT *)ptrFlashWdgt->ptr2WdgtRam;
1669:Generated_Source\PSoC4/CapSense_1_Processing.c ****     ptrDebounceCnt = ptrFlashWdgt->ptr2DebounceArr;
1670:Generated_Source\PSoC4/CapSense_1_Processing.c **** 
1671:Generated_Source\PSoC4/CapSense_1_Processing.c ****     /* Get number of sensors. */
1672:Generated_Source\PSoC4/CapSense_1_Processing.c ****     snsCnt = (uint32)ptrFlashWdgt->totalNumSns;
1673:Generated_Source\PSoC4/CapSense_1_Processing.c **** 
1674:Generated_Source\PSoC4/CapSense_1_Processing.c ****     /* Put current status in encoder history position */
1675:Generated_Source\PSoC4/CapSense_1_Processing.c ****     currStatus = currStatus & 0x3u;
1676:Generated_Source\PSoC4/CapSense_1_Processing.c ****     historicStatus = currStatus << 2u;
1677:Generated_Source\PSoC4/CapSense_1_Processing.c ****     /* Go through all sensors' status bits */
1678:Generated_Source\PSoC4/CapSense_1_Processing.c ****     snsMask = 1Lu;
1679:Generated_Source\PSoC4/CapSense_1_Processing.c ****     for (; snsCnt-- > 0u;)
1680:Generated_Source\PSoC4/CapSense_1_Processing.c ****     {
1681:Generated_Source\PSoC4/CapSense_1_Processing.c ****         difference = ptrSnsTmp->diff;
1682:Generated_Source\PSoC4/CapSense_1_Processing.c **** 
1683:Generated_Source\PSoC4/CapSense_1_Processing.c ****         /* Determine current threshold. */
1684:Generated_Source\PSoC4/CapSense_1_Processing.c ****         currTh = ptrRamWdgt->fingerTh;
1685:Generated_Source\PSoC4/CapSense_1_Processing.c **** 
1686:Generated_Source\PSoC4/CapSense_1_Processing.c ****         /* Calculate finger threshold applying hysteresis based on current sensor state. */
1687:Generated_Source\PSoC4/CapSense_1_Processing.c ****         currTh = (0u == (currStatus & snsMask)) ? (currTh + ptrRamWdgt->hysteresis) : (currTh - ptr
1688:Generated_Source\PSoC4/CapSense_1_Processing.c **** 
1689:Generated_Source\PSoC4/CapSense_1_Processing.c ****         /* Determine new potential sensor state before de-bounce */
1690:Generated_Source\PSoC4/CapSense_1_Processing.c ****         newStatus = (difference > currTh) ? snsMask : 0Lu;
1691:Generated_Source\PSoC4/CapSense_1_Processing.c **** 
1692:Generated_Source\PSoC4/CapSense_1_Processing.c ****         /* Sensor state changed ? */
1693:Generated_Source\PSoC4/CapSense_1_Processing.c ****         if (newStatus != (currStatus & snsMask))
1694:Generated_Source\PSoC4/CapSense_1_Processing.c ****         {
1695:Generated_Source\PSoC4/CapSense_1_Processing.c ****             /* Decrement de-bounce counter */
ARM GAS  C:\Users\exp32\AppData\Local\Temp\ccki8209.s 			page 43


1696:Generated_Source\PSoC4/CapSense_1_Processing.c ****             (*ptrDebounceCnt)--;
1697:Generated_Source\PSoC4/CapSense_1_Processing.c ****         }
1698:Generated_Source\PSoC4/CapSense_1_Processing.c **** 
1699:Generated_Source\PSoC4/CapSense_1_Processing.c ****         /*
1700:Generated_Source\PSoC4/CapSense_1_Processing.c ****         *  This piece of code has two objectives:
1701:Generated_Source\PSoC4/CapSense_1_Processing.c ****         *  1. Reset de-bounce counter if new sensor state has not changed.
1702:Generated_Source\PSoC4/CapSense_1_Processing.c ****         *     (It is possible that during previous processing cycles the sensor
1703:Generated_Source\PSoC4/CapSense_1_Processing.c ****         *     state was different which caused de-bounce counter change.)
1704:Generated_Source\PSoC4/CapSense_1_Processing.c ****         *  2. Set new sensor state after successful de-bounce.
1705:Generated_Source\PSoC4/CapSense_1_Processing.c ****         */
1706:Generated_Source\PSoC4/CapSense_1_Processing.c ****         if ((newStatus == (currStatus & snsMask)) || (0u == (*ptrDebounceCnt)))
1707:Generated_Source\PSoC4/CapSense_1_Processing.c ****         {
1708:Generated_Source\PSoC4/CapSense_1_Processing.c ****             /* Set new sensor status */
1709:Generated_Source\PSoC4/CapSense_1_Processing.c ****             currStatus &= ~snsMask;
1710:Generated_Source\PSoC4/CapSense_1_Processing.c ****             currStatus |= newStatus;
1711:Generated_Source\PSoC4/CapSense_1_Processing.c **** 
1712:Generated_Source\PSoC4/CapSense_1_Processing.c ****             /* Reset de-bounce counter */
1713:Generated_Source\PSoC4/CapSense_1_Processing.c ****             #if (0u != CapSense_1_OFF_DEBOUNCE_EN)
1714:Generated_Source\PSoC4/CapSense_1_Processing.c ****                 *ptrDebounceCnt = (0Lu == newStatus) ? ptrRamWdgt->onDebounce : ptrRamWdgt->offDebo
1715:Generated_Source\PSoC4/CapSense_1_Processing.c ****             #else
1716:Generated_Source\PSoC4/CapSense_1_Processing.c ****                 *ptrDebounceCnt = ptrRamWdgt->onDebounce;
1717:Generated_Source\PSoC4/CapSense_1_Processing.c ****             #endif /* #if (0u != CapSense_1_OFF_DEBOUNCE_EN) */
1718:Generated_Source\PSoC4/CapSense_1_Processing.c ****         }
1719:Generated_Source\PSoC4/CapSense_1_Processing.c **** 
1720:Generated_Source\PSoC4/CapSense_1_Processing.c ****         ptrDebounceCnt++;
1721:Generated_Source\PSoC4/CapSense_1_Processing.c **** 
1722:Generated_Source\PSoC4/CapSense_1_Processing.c ****         /* Move sensor mask to the next sensor */
1723:Generated_Source\PSoC4/CapSense_1_Processing.c ****         snsMask <<= 1u;
1724:Generated_Source\PSoC4/CapSense_1_Processing.c ****         ptrSnsTmp++;
1725:Generated_Source\PSoC4/CapSense_1_Processing.c ****     }
1726:Generated_Source\PSoC4/CapSense_1_Processing.c **** 
1727:Generated_Source\PSoC4/CapSense_1_Processing.c ****     currStatus |= historicStatus;
1728:Generated_Source\PSoC4/CapSense_1_Processing.c **** 
1729:Generated_Source\PSoC4/CapSense_1_Processing.c ****     /* Update dial position based on status */
1730:Generated_Source\PSoC4/CapSense_1_Processing.c ****     switch (currStatus)
1731:Generated_Source\PSoC4/CapSense_1_Processing.c ****     {
1732:Generated_Source\PSoC4/CapSense_1_Processing.c ****     /* Clockwise rotations */
1733:Generated_Source\PSoC4/CapSense_1_Processing.c ****     case CapSense_1_DIALTRANSITION_CW0:
1734:Generated_Source\PSoC4/CapSense_1_Processing.c ****     case CapSense_1_DIALTRANSITION_CW1:
1735:Generated_Source\PSoC4/CapSense_1_Processing.c ****     case CapSense_1_DIALTRANSITION_CW2:
1736:Generated_Source\PSoC4/CapSense_1_Processing.c ****     case CapSense_1_DIALTRANSITION_CW3:
1737:Generated_Source\PSoC4/CapSense_1_Processing.c **** 
1738:Generated_Source\PSoC4/CapSense_1_Processing.c ****         /* Decrement angle by 90/numTargs */
1739:Generated_Source\PSoC4/CapSense_1_Processing.c ****         if(ptrRamWdgt->position[0] == 0u)
1740:Generated_Source\PSoC4/CapSense_1_Processing.c ****         {
1741:Generated_Source\PSoC4/CapSense_1_Processing.c ****             ptrRamWdgt->position[0] = 0xffffu; /* Underflow without setting flag */
1742:Generated_Source\PSoC4/CapSense_1_Processing.c ****         }
1743:Generated_Source\PSoC4/CapSense_1_Processing.c ****         else
1744:Generated_Source\PSoC4/CapSense_1_Processing.c ****         {
1745:Generated_Source\PSoC4/CapSense_1_Processing.c ****             ptrRamWdgt->position[0] -= 1u;
1746:Generated_Source\PSoC4/CapSense_1_Processing.c ****         }
1747:Generated_Source\PSoC4/CapSense_1_Processing.c ****         break;
1748:Generated_Source\PSoC4/CapSense_1_Processing.c ****     /* Counterclockwise rotations */
1749:Generated_Source\PSoC4/CapSense_1_Processing.c ****     case CapSense_1_DIALTRANSITION_CCW0:
1750:Generated_Source\PSoC4/CapSense_1_Processing.c ****     case CapSense_1_DIALTRANSITION_CCW1:
1751:Generated_Source\PSoC4/CapSense_1_Processing.c ****     case CapSense_1_DIALTRANSITION_CCW2:
1752:Generated_Source\PSoC4/CapSense_1_Processing.c ****     case CapSense_1_DIALTRANSITION_CCW3:
ARM GAS  C:\Users\exp32\AppData\Local\Temp\ccki8209.s 			page 44


1753:Generated_Source\PSoC4/CapSense_1_Processing.c **** 
1754:Generated_Source\PSoC4/CapSense_1_Processing.c ****         /* Increment angle by 90/numTargs */
1755:Generated_Source\PSoC4/CapSense_1_Processing.c ****         if(ptrRamWdgt->position[0] == 0xffffu)
1756:Generated_Source\PSoC4/CapSense_1_Processing.c ****         {
1757:Generated_Source\PSoC4/CapSense_1_Processing.c ****             ptrRamWdgt->position[0] = 0u; /* Overflow without setting flag */
1758:Generated_Source\PSoC4/CapSense_1_Processing.c ****         }
1759:Generated_Source\PSoC4/CapSense_1_Processing.c ****         else
1760:Generated_Source\PSoC4/CapSense_1_Processing.c ****         {
1761:Generated_Source\PSoC4/CapSense_1_Processing.c ****             ptrRamWdgt->position[0] += 1u;
1762:Generated_Source\PSoC4/CapSense_1_Processing.c ****         }
1763:Generated_Source\PSoC4/CapSense_1_Processing.c ****         break;
1764:Generated_Source\PSoC4/CapSense_1_Processing.c ****     /* No rotation */
1765:Generated_Source\PSoC4/CapSense_1_Processing.c ****     default:
1766:Generated_Source\PSoC4/CapSense_1_Processing.c ****         break;
1767:Generated_Source\PSoC4/CapSense_1_Processing.c ****     }
1768:Generated_Source\PSoC4/CapSense_1_Processing.c ****     return currStatus;
1769:Generated_Source\PSoC4/CapSense_1_Processing.c **** }
1770:Generated_Source\PSoC4/CapSense_1_Processing.c **** #endif /* #if (0u != CapSense_1_ENCODERDIAL_WIDGET_EN) */
1771:Generated_Source\PSoC4/CapSense_1_Processing.c **** 
1772:Generated_Source\PSoC4/CapSense_1_Processing.c **** #if (0u != CapSense_1_SLIDER_WIDGET_EN)
1773:Generated_Source\PSoC4/CapSense_1_Processing.c **** /*******************************************************************************
1774:Generated_Source\PSoC4/CapSense_1_Processing.c **** * Function Name: CapSense_1_DpProcessSlider
1775:Generated_Source\PSoC4/CapSense_1_Processing.c **** ****************************************************************************//**
1776:Generated_Source\PSoC4/CapSense_1_Processing.c **** *
1777:Generated_Source\PSoC4/CapSense_1_Processing.c **** * \brief
1778:Generated_Source\PSoC4/CapSense_1_Processing.c **** *   Processes the status of the Linear/Radial Slider widget.
1779:Generated_Source\PSoC4/CapSense_1_Processing.c **** *   The process involves running the Linear/Radial Centroid algorithm.
1780:Generated_Source\PSoC4/CapSense_1_Processing.c **** *
1781:Generated_Source\PSoC4/CapSense_1_Processing.c **** * \details
1782:Generated_Source\PSoC4/CapSense_1_Processing.c **** *   This API processes the status of the CSD Slider widget (Linear and Radial).
1783:Generated_Source\PSoC4/CapSense_1_Processing.c **** *   It applies the hysteresis and de-bounce algorithm to the widget ignoring
1784:Generated_Source\PSoC4/CapSense_1_Processing.c **** *   the individual states of the sensors.
1785:Generated_Source\PSoC4/CapSense_1_Processing.c **** *
1786:Generated_Source\PSoC4/CapSense_1_Processing.c **** *   This API is expected to be called after each new widget scan. If it is
1787:Generated_Source\PSoC4/CapSense_1_Processing.c **** *   called multiple times for the same scan data, the debounce algorithm
1788:Generated_Source\PSoC4/CapSense_1_Processing.c **** *   will not work properly.
1789:Generated_Source\PSoC4/CapSense_1_Processing.c **** *
1790:Generated_Source\PSoC4/CapSense_1_Processing.c **** *   Slider widgets do not support the ON to OFF debounce.
1791:Generated_Source\PSoC4/CapSense_1_Processing.c **** *
1792:Generated_Source\PSoC4/CapSense_1_Processing.c **** *   This API does not update any Data Structure registers
1793:Generated_Source\PSoC4/CapSense_1_Processing.c **** *   except the debounce counters.
1794:Generated_Source\PSoC4/CapSense_1_Processing.c **** *
1795:Generated_Source\PSoC4/CapSense_1_Processing.c **** * \param currStatus   The current sensor status of the Slider widget.
1796:Generated_Source\PSoC4/CapSense_1_Processing.c **** * \param ptrFlashWdgt The pointer to the Flash Widget Object.
1797:Generated_Source\PSoC4/CapSense_1_Processing.c **** *
1798:Generated_Source\PSoC4/CapSense_1_Processing.c **** * \return Returns the status of the widget's sensors. Bit #0 - corresponds to Sensor #0.
1799:Generated_Source\PSoC4/CapSense_1_Processing.c **** *
1800:Generated_Source\PSoC4/CapSense_1_Processing.c **** *******************************************************************************/
1801:Generated_Source\PSoC4/CapSense_1_Processing.c **** uint32 CapSense_1_DpProcessSlider(uint32 currStatus, CapSense_1_FLASH_WD_STRUCT const *ptrFlashWdgt
1802:Generated_Source\PSoC4/CapSense_1_Processing.c **** {
 654              		.loc 1 1802 0
 655              		.cfi_startproc
 656              		@ args = 0, pretend = 0, frame = 8
 657              		@ frame_needed = 0, uses_anonymous_args = 0
 658              	.LVL108:
 659 0000 F0B5     		push	{r4, r5, r6, r7, lr}
 660              		.cfi_def_cfa_offset 20
ARM GAS  C:\Users\exp32\AppData\Local\Temp\ccki8209.s 			page 45


 661              		.cfi_offset 4, -20
 662              		.cfi_offset 5, -16
 663              		.cfi_offset 6, -12
 664              		.cfi_offset 7, -8
 665              		.cfi_offset 14, -4
 666 0002 4746     		mov	r7, r8
 667 0004 80B4     		push	{r7}
 668              		.cfi_def_cfa_offset 24
 669              		.cfi_offset 8, -24
 670 0006 82B0     		sub	sp, sp, #8
 671              		.cfi_def_cfa_offset 32
 672 0008 8446     		mov	ip, r0
 673 000a 0F00     		movs	r7, r1
 674              	.LVL109:
1803:Generated_Source\PSoC4/CapSense_1_Processing.c ****     uint32 snsCnt;
1804:Generated_Source\PSoC4/CapSense_1_Processing.c ****     uint32 snsMask;
1805:Generated_Source\PSoC4/CapSense_1_Processing.c ****     uint32 touchTh;
1806:Generated_Source\PSoC4/CapSense_1_Processing.c ****     uint32 newStatus = 0Lu;
1807:Generated_Source\PSoC4/CapSense_1_Processing.c ****     uint8 * ptrDebounceCnt;
1808:Generated_Source\PSoC4/CapSense_1_Processing.c ****     CapSense_1_RAM_SNS_STRUCT *ptrSnsTmp;
1809:Generated_Source\PSoC4/CapSense_1_Processing.c ****     CapSense_1_RAM_WD_SLIDER_STRUCT *ptrRamWdgt;
1810:Generated_Source\PSoC4/CapSense_1_Processing.c **** 
1811:Generated_Source\PSoC4/CapSense_1_Processing.c ****     #if (0u != CapSense_1_POSITION_FILTER_EN)
1812:Generated_Source\PSoC4/CapSense_1_Processing.c ****         CapSense_1_SLIDER_POS_HISTORY_STRUCT *ptrHistory;
1813:Generated_Source\PSoC4/CapSense_1_Processing.c ****     #endif /* #if (0u != CapSense_1_POSITION_FILTER_EN) */
1814:Generated_Source\PSoC4/CapSense_1_Processing.c **** 
1815:Generated_Source\PSoC4/CapSense_1_Processing.c ****     uint32 touchIdx;
1816:Generated_Source\PSoC4/CapSense_1_Processing.c ****     uint32 touchCnt = 0Lu;
1817:Generated_Source\PSoC4/CapSense_1_Processing.c ****     uint16 newPos[CapSense_1_NUM_CENTROIDS];
1818:Generated_Source\PSoC4/CapSense_1_Processing.c **** 
1819:Generated_Source\PSoC4/CapSense_1_Processing.c ****     snsCnt = ptrFlashWdgt->totalNumSns;
 675              		.loc 1 1819 0
 676 000c 0B8B     		ldrh	r3, [r1, #24]
 677              	.LVL110:
1820:Generated_Source\PSoC4/CapSense_1_Processing.c ****     ptrSnsTmp = ptrFlashWdgt->ptr2SnsRam;
 678              		.loc 1 1820 0
 679 000e 8A68     		ldr	r2, [r1, #8]
 680              	.LVL111:
1821:Generated_Source\PSoC4/CapSense_1_Processing.c ****     ptrRamWdgt = (CapSense_1_RAM_WD_SLIDER_STRUCT *)ptrFlashWdgt->ptr2WdgtRam;
 681              		.loc 1 1821 0
 682 0010 4D68     		ldr	r5, [r1, #4]
 683              	.LVL112:
1822:Generated_Source\PSoC4/CapSense_1_Processing.c ****     ptrDebounceCnt = ptrFlashWdgt->ptr2DebounceArr;
 684              		.loc 1 1822 0
 685 0012 0969     		ldr	r1, [r1, #16]
 686              	.LVL113:
 687 0014 8846     		mov	r8, r1
 688              	.LVL114:
1823:Generated_Source\PSoC4/CapSense_1_Processing.c **** 
1824:Generated_Source\PSoC4/CapSense_1_Processing.c ****     #if (0u != CapSense_1_POSITION_FILTER_EN)
1825:Generated_Source\PSoC4/CapSense_1_Processing.c ****         ptrHistory = ptrFlashWdgt->ptr2PosHistory;
1826:Generated_Source\PSoC4/CapSense_1_Processing.c ****     #endif /* #if (0u != CapSense_1_POSITION_FILTER_EN) */
1827:Generated_Source\PSoC4/CapSense_1_Processing.c **** 
1828:Generated_Source\PSoC4/CapSense_1_Processing.c ****     /* Calculate touch threshold based on current slider state */
1829:Generated_Source\PSoC4/CapSense_1_Processing.c ****     touchTh = (0Lu == currStatus ) ?
1830:Generated_Source\PSoC4/CapSense_1_Processing.c ****               ((uint32)ptrRamWdgt->fingerTh + ptrRamWdgt->hysteresis) :
 689              		.loc 1 1830 0
ARM GAS  C:\Users\exp32\AppData\Local\Temp\ccki8209.s 			page 46


 690 0016 0028     		cmp	r0, #0
 691 0018 03D1     		bne	.L42
 692              		.loc 1 1830 0 is_stmt 0 discriminator 1
 693 001a 6888     		ldrh	r0, [r5, #2]
 694              	.LVL115:
 695 001c A979     		ldrb	r1, [r5, #6]
 696              	.LVL116:
 697 001e 4018     		adds	r0, r0, r1
 698 0020 02E0     		b	.L43
 699              	.LVL117:
 700              	.L42:
1831:Generated_Source\PSoC4/CapSense_1_Processing.c ****               ((uint32)ptrRamWdgt->fingerTh - ptrRamWdgt->hysteresis);
 701              		.loc 1 1831 0 is_stmt 1 discriminator 2
 702 0022 6988     		ldrh	r1, [r5, #2]
 703              	.LVL118:
 704 0024 A879     		ldrb	r0, [r5, #6]
 705              	.LVL119:
1830:Generated_Source\PSoC4/CapSense_1_Processing.c ****               ((uint32)ptrRamWdgt->fingerTh - ptrRamWdgt->hysteresis);
 706              		.loc 1 1830 0 discriminator 2
 707 0026 081A     		subs	r0, r1, r0
 708              	.L43:
 709              	.LVL120:
1806:Generated_Source\PSoC4/CapSense_1_Processing.c ****     uint8 * ptrDebounceCnt;
 710              		.loc 1 1806 0
 711 0028 0024     		movs	r4, #0
1832:Generated_Source\PSoC4/CapSense_1_Processing.c **** 
1833:Generated_Source\PSoC4/CapSense_1_Processing.c ****     /* Go through all widget's sensors */
1834:Generated_Source\PSoC4/CapSense_1_Processing.c ****     snsMask = 1Lu;
 712              		.loc 1 1834 0
 713 002a 0121     		movs	r1, #1
1835:Generated_Source\PSoC4/CapSense_1_Processing.c ****     for (; snsCnt-- > 0Lu; )
 714              		.loc 1 1835 0
 715 002c 09E0     		b	.L44
 716              	.LVL121:
 717              	.L46:
1836:Generated_Source\PSoC4/CapSense_1_Processing.c ****     {
1837:Generated_Source\PSoC4/CapSense_1_Processing.c ****         /* Determine new potential sensor state */
1838:Generated_Source\PSoC4/CapSense_1_Processing.c ****         newStatus |= (ptrSnsTmp->diff > touchTh) ? snsMask : 0Lu;
 718              		.loc 1 1838 0
 719 002e D388     		ldrh	r3, [r2, #6]
 720 0030 9842     		cmp	r0, r3
 721 0032 01D3     		bcc	.L56
 722 0034 0023     		movs	r3, #0
 723 0036 00E0     		b	.L45
 724              	.L56:
 725 0038 0B00     		movs	r3, r1
 726              	.L45:
 727              		.loc 1 1838 0 is_stmt 0 discriminator 4
 728 003a 1C43     		orrs	r4, r3
 729              	.LVL122:
1839:Generated_Source\PSoC4/CapSense_1_Processing.c ****         ptrSnsTmp++;
 730              		.loc 1 1839 0 is_stmt 1 discriminator 4
 731 003c 0A32     		adds	r2, r2, #10
 732              	.LVL123:
1840:Generated_Source\PSoC4/CapSense_1_Processing.c **** 
1841:Generated_Source\PSoC4/CapSense_1_Processing.c ****         snsMask <<= 1u;
 733              		.loc 1 1841 0 discriminator 4
ARM GAS  C:\Users\exp32\AppData\Local\Temp\ccki8209.s 			page 47


 734 003e 4900     		lsls	r1, r1, #1
 735              	.LVL124:
1835:Generated_Source\PSoC4/CapSense_1_Processing.c ****     {
 736              		.loc 1 1835 0 discriminator 4
 737 0040 3300     		movs	r3, r6
 738              	.LVL125:
 739              	.L44:
1835:Generated_Source\PSoC4/CapSense_1_Processing.c ****     {
 740              		.loc 1 1835 0 is_stmt 0
 741 0042 5E1E     		subs	r6, r3, #1
 742              	.LVL126:
 743 0044 002B     		cmp	r3, #0
 744 0046 F2D1     		bne	.L46
1842:Generated_Source\PSoC4/CapSense_1_Processing.c ****     }
1843:Generated_Source\PSoC4/CapSense_1_Processing.c **** 
1844:Generated_Source\PSoC4/CapSense_1_Processing.c ****     /* If widget is active, check whether debounce is needed */
1845:Generated_Source\PSoC4/CapSense_1_Processing.c ****     if (0Lu != newStatus)
 745              		.loc 1 1845 0 is_stmt 1
 746 0048 002C     		cmp	r4, #0
 747 004a 0CD0     		beq	.L47
1846:Generated_Source\PSoC4/CapSense_1_Processing.c ****     {
1847:Generated_Source\PSoC4/CapSense_1_Processing.c ****         if (0u < (*ptrDebounceCnt))
 748              		.loc 1 1847 0
 749 004c 4346     		mov	r3, r8
 750 004e 1B78     		ldrb	r3, [r3]
 751 0050 002B     		cmp	r3, #0
 752 0052 02D0     		beq	.L48
1848:Generated_Source\PSoC4/CapSense_1_Processing.c ****         {
1849:Generated_Source\PSoC4/CapSense_1_Processing.c ****             /* Decrement debounce counter */
1850:Generated_Source\PSoC4/CapSense_1_Processing.c ****             (*ptrDebounceCnt)--;
 753              		.loc 1 1850 0
 754 0054 013B     		subs	r3, r3, #1
 755 0056 4246     		mov	r2, r8
 756              	.LVL127:
 757 0058 1370     		strb	r3, [r2]
 758              	.L48:
1851:Generated_Source\PSoC4/CapSense_1_Processing.c ****         }
1852:Generated_Source\PSoC4/CapSense_1_Processing.c **** 
1853:Generated_Source\PSoC4/CapSense_1_Processing.c ****         if (0u == (*ptrDebounceCnt))
 759              		.loc 1 1853 0
 760 005a 4346     		mov	r3, r8
 761 005c 1B78     		ldrb	r3, [r3]
 762 005e 002B     		cmp	r3, #0
 763 0060 04D0     		beq	.L49
 764 0062 6446     		mov	r4, ip
 765              	.LVL128:
 766 0064 02E0     		b	.L49
 767              	.LVL129:
 768              	.L47:
1854:Generated_Source\PSoC4/CapSense_1_Processing.c ****         {
1855:Generated_Source\PSoC4/CapSense_1_Processing.c ****             /* Update slider sensor state when debounce completes */
1856:Generated_Source\PSoC4/CapSense_1_Processing.c ****             currStatus = newStatus;
1857:Generated_Source\PSoC4/CapSense_1_Processing.c ****         }
1858:Generated_Source\PSoC4/CapSense_1_Processing.c ****     }
1859:Generated_Source\PSoC4/CapSense_1_Processing.c ****     else
1860:Generated_Source\PSoC4/CapSense_1_Processing.c ****     {
1861:Generated_Source\PSoC4/CapSense_1_Processing.c ****         /* Reset debounce counter */
ARM GAS  C:\Users\exp32\AppData\Local\Temp\ccki8209.s 			page 48


1862:Generated_Source\PSoC4/CapSense_1_Processing.c ****         *ptrDebounceCnt = ptrRamWdgt->onDebounce;
 769              		.loc 1 1862 0
 770 0066 EB79     		ldrb	r3, [r5, #7]
 771 0068 4246     		mov	r2, r8
 772              	.LVL130:
 773 006a 1370     		strb	r3, [r2]
 774              	.LVL131:
 775              	.L49:
1863:Generated_Source\PSoC4/CapSense_1_Processing.c **** 
1864:Generated_Source\PSoC4/CapSense_1_Processing.c ****         /* Clear slider sensor state */
1865:Generated_Source\PSoC4/CapSense_1_Processing.c ****         currStatus = 0Lu;
1866:Generated_Source\PSoC4/CapSense_1_Processing.c ****     }
1867:Generated_Source\PSoC4/CapSense_1_Processing.c **** 
1868:Generated_Source\PSoC4/CapSense_1_Processing.c ****     /* Centroid processing */
1869:Generated_Source\PSoC4/CapSense_1_Processing.c ****     /* If there are active sensors after debounce run the centroid algorithm */
1870:Generated_Source\PSoC4/CapSense_1_Processing.c ****     if (0u != currStatus)
 776              		.loc 1 1870 0
 777 006c 002C     		cmp	r4, #0
 778 006e 0AD0     		beq	.L57
1871:Generated_Source\PSoC4/CapSense_1_Processing.c ****     {
1872:Generated_Source\PSoC4/CapSense_1_Processing.c ****         /* Centroid always uses the lowest finger threshold (minus hysteresis)
1873:Generated_Source\PSoC4/CapSense_1_Processing.c ****          * to produce same results for first and all consecutive invocations */
1874:Generated_Source\PSoC4/CapSense_1_Processing.c ****         touchTh = (uint32)ptrRamWdgt->fingerTh - ptrRamWdgt->hysteresis;
 779              		.loc 1 1874 0
 780 0070 6B88     		ldrh	r3, [r5, #2]
 781 0072 AA79     		ldrb	r2, [r5, #6]
 782 0074 9A1A     		subs	r2, r3, r2
 783              	.LVL132:
1875:Generated_Source\PSoC4/CapSense_1_Processing.c ****         snsCnt = ptrFlashWdgt->totalNumSns;
 784              		.loc 1 1875 0
 785 0076 3E8B     		ldrh	r6, [r7, #24]
 786              	.LVL133:
1876:Generated_Source\PSoC4/CapSense_1_Processing.c **** 
1877:Generated_Source\PSoC4/CapSense_1_Processing.c ****         #if (0u != CapSense_1_TOTAL_DIPLEXED_SLIDERS)
1878:Generated_Source\PSoC4/CapSense_1_Processing.c ****             if ((0u != (ptrFlashWdgt->staticConfig & CapSense_1_DIPLEXING_MASK)))
1879:Generated_Source\PSoC4/CapSense_1_Processing.c ****             {
1880:Generated_Source\PSoC4/CapSense_1_Processing.c ****                 /* Run local maximum search for duplexed slider */
1881:Generated_Source\PSoC4/CapSense_1_Processing.c ****                 touchCnt = CapSense_1_DpFindLocalMaxDiplex(
1882:Generated_Source\PSoC4/CapSense_1_Processing.c ****                                 ptrFlashWdgt->ptr2SnsRam, snsCnt, ptrFlashWdgt->ptr2DiplexTable, to
1883:Generated_Source\PSoC4/CapSense_1_Processing.c **** 
1884:Generated_Source\PSoC4/CapSense_1_Processing.c ****                 /* Centroid calculation API requires double sensor count for the diplexed sliders. 
1885:Generated_Source\PSoC4/CapSense_1_Processing.c ****                 snsCnt *= 2u;
1886:Generated_Source\PSoC4/CapSense_1_Processing.c ****             }
1887:Generated_Source\PSoC4/CapSense_1_Processing.c ****             else
1888:Generated_Source\PSoC4/CapSense_1_Processing.c ****             {
1889:Generated_Source\PSoC4/CapSense_1_Processing.c ****                 /* Run local maximum search for NON-duplexed slider */
1890:Generated_Source\PSoC4/CapSense_1_Processing.c ****                 #if (CapSense_1_ENABLE == CapSense_1_4PTS_LOCAL_MAX_EN)
1891:Generated_Source\PSoC4/CapSense_1_Processing.c ****                     touchCnt = CapSense_1_DpFindLocalMaxSd4pts(ptrFlashWdgt, ptrFlashWdgt->ptr2SnsR
1892:Generated_Source\PSoC4/CapSense_1_Processing.c ****                 #else
1893:Generated_Source\PSoC4/CapSense_1_Processing.c ****                     touchCnt = CapSense_1_DpFindLocalMaxSd(ptrFlashWdgt->ptr2SnsRam, snsCnt, touchT
1894:Generated_Source\PSoC4/CapSense_1_Processing.c ****                 #endif
1895:Generated_Source\PSoC4/CapSense_1_Processing.c ****             }
1896:Generated_Source\PSoC4/CapSense_1_Processing.c ****         #else
1897:Generated_Source\PSoC4/CapSense_1_Processing.c ****             /* Run local maximum search for NON-duplexed slider */
1898:Generated_Source\PSoC4/CapSense_1_Processing.c ****             #if (CapSense_1_ENABLE == CapSense_1_4PTS_LOCAL_MAX_EN)
1899:Generated_Source\PSoC4/CapSense_1_Processing.c ****                 touchCnt = CapSense_1_DpFindLocalMaxSd4pts(ptrFlashWdgt, ptrFlashWdgt->ptr2SnsRam, 
1900:Generated_Source\PSoC4/CapSense_1_Processing.c ****             #else
ARM GAS  C:\Users\exp32\AppData\Local\Temp\ccki8209.s 			page 49


1901:Generated_Source\PSoC4/CapSense_1_Processing.c ****                 touchCnt = CapSense_1_DpFindLocalMaxSd(ptrFlashWdgt->ptr2SnsRam, snsCnt, touchTh);
 787              		.loc 1 1901 0
 788 0078 3100     		movs	r1, r6
 789              	.LVL134:
 790 007a B868     		ldr	r0, [r7, #8]
 791 007c FFF7FEFF 		bl	CapSense_1_DpFindLocalMaxSd
 792              	.LVL135:
1902:Generated_Source\PSoC4/CapSense_1_Processing.c ****             #endif
1903:Generated_Source\PSoC4/CapSense_1_Processing.c ****         #endif /* #if (0u != CapSense_1_TOTAL_DIPLEXED_SLIDERS) */
1904:Generated_Source\PSoC4/CapSense_1_Processing.c **** 
1905:Generated_Source\PSoC4/CapSense_1_Processing.c ****         /* If at least one touch is detected */
1906:Generated_Source\PSoC4/CapSense_1_Processing.c ****         if (0u != touchCnt)
 793              		.loc 1 1906 0
 794 0080 0028     		cmp	r0, #0
 795 0082 02D1     		bne	.L51
 796 0084 23E0     		b	.L52
 797              	.LVL136:
 798              	.L57:
1816:Generated_Source\PSoC4/CapSense_1_Processing.c ****     uint16 newPos[CapSense_1_NUM_CENTROIDS];
 799              		.loc 1 1816 0
 800 0086 0020     		movs	r0, #0
 801              	.LVL137:
 802 0088 21E0     		b	.L52
 803              	.LVL138:
 804              	.L51:
1907:Generated_Source\PSoC4/CapSense_1_Processing.c ****         {
1908:Generated_Source\PSoC4/CapSense_1_Processing.c ****             /* Determine slider type and calculate new position(s) */
1909:Generated_Source\PSoC4/CapSense_1_Processing.c ****             #if (0u != CapSense_1_TOTAL_LINEAR_SLIDERS)
1910:Generated_Source\PSoC4/CapSense_1_Processing.c ****                 if ((CapSense_1_WD_TYPE_ENUM)ptrFlashWdgt->wdgtType == CapSense_1_WD_LINEAR_SLIDER_
 805              		.loc 1 1910 0
 806 008a BB7E     		ldrb	r3, [r7, #26]
 807 008c 022B     		cmp	r3, #2
 808 008e 1ED1     		bne	.L52
1911:Generated_Source\PSoC4/CapSense_1_Processing.c ****                 {
1912:Generated_Source\PSoC4/CapSense_1_Processing.c ****                     #if (CapSense_1_ENABLE == CapSense_1_SLIDER_MULT_METHOD)
1913:Generated_Source\PSoC4/CapSense_1_Processing.c ****                         touchCnt = CapSense_1_DpCalcLinearCentroid(newPos, (uint32)ptrFlashWdgt->xC
1914:Generated_Source\PSoC4/CapSense_1_Processing.c ****                                     snsCnt, (uint32)(ptrFlashWdgt->xCentroidMultiplier >> 1));
1915:Generated_Source\PSoC4/CapSense_1_Processing.c ****                     #else
1916:Generated_Source\PSoC4/CapSense_1_Processing.c ****                         touchCnt = CapSense_1_DpCalcLinearCentroid(
1917:Generated_Source\PSoC4/CapSense_1_Processing.c ****                                         newPos, (uint32)ptrFlashWdgt->xCentroidMultiplier, snsCnt, 
 809              		.loc 1 1917 0
 810 0090 796A     		ldr	r1, [r7, #36]
1916:Generated_Source\PSoC4/CapSense_1_Processing.c ****                                         newPos, (uint32)ptrFlashWdgt->xCentroidMultiplier, snsCnt, 
 811              		.loc 1 1916 0
 812 0092 0023     		movs	r3, #0
 813 0094 3200     		movs	r2, r6
 814 0096 01A8     		add	r0, sp, #4
 815              	.LVL139:
 816 0098 FFF7FEFF 		bl	CapSense_1_DpCalcLinearCentroid
 817              	.LVL140:
 818              	.LBB12:
 819              	.LBB13:
1918:Generated_Source\PSoC4/CapSense_1_Processing.c ****                     #endif
1919:Generated_Source\PSoC4/CapSense_1_Processing.c ****                     DpUpdateLinSlider(newPos, touchCnt, ptrFlashWdgt, ptrRamWdgt);
1920:Generated_Source\PSoC4/CapSense_1_Processing.c ****                 }
1921:Generated_Source\PSoC4/CapSense_1_Processing.c ****             #endif /* #if (0u != CapSense_1_TOTAL_LINEAR_SLIDERS) */
1922:Generated_Source\PSoC4/CapSense_1_Processing.c **** 
ARM GAS  C:\Users\exp32\AppData\Local\Temp\ccki8209.s 			page 50


1923:Generated_Source\PSoC4/CapSense_1_Processing.c ****             #if (0u != CapSense_1_TOTAL_RADIAL_SLIDERS)
1924:Generated_Source\PSoC4/CapSense_1_Processing.c ****                 if ((CapSense_1_WD_TYPE_ENUM)ptrFlashWdgt->wdgtType == CapSense_1_WD_RADIAL_SLIDER_
1925:Generated_Source\PSoC4/CapSense_1_Processing.c ****                 {
1926:Generated_Source\PSoC4/CapSense_1_Processing.c ****                     touchCnt = CapSense_1_DpCalcRadialCentroid(
1927:Generated_Source\PSoC4/CapSense_1_Processing.c ****                                     newPos, (uint32)ptrFlashWdgt->xCentroidMultiplier, snsCnt);
1928:Generated_Source\PSoC4/CapSense_1_Processing.c ****                     DpUpdateRadSlider(newPos, touchCnt, ptrFlashWdgt, ptrRamWdgt);
1929:Generated_Source\PSoC4/CapSense_1_Processing.c ****                 }
1930:Generated_Source\PSoC4/CapSense_1_Processing.c ****             #endif /* #if (0u != CapSense_1_TOTAL_RADIAL_SLIDERS) */
1931:Generated_Source\PSoC4/CapSense_1_Processing.c ****         }
1932:Generated_Source\PSoC4/CapSense_1_Processing.c ****     }
1933:Generated_Source\PSoC4/CapSense_1_Processing.c **** 
1934:Generated_Source\PSoC4/CapSense_1_Processing.c ****     /* Clear not active position data slots */
1935:Generated_Source\PSoC4/CapSense_1_Processing.c ****     for (touchIdx = touchCnt; touchIdx < CapSense_1_NUM_CENTROIDS; touchIdx++)
1936:Generated_Source\PSoC4/CapSense_1_Processing.c ****     {
1937:Generated_Source\PSoC4/CapSense_1_Processing.c ****         ptrRamWdgt->position[touchIdx] = CapSense_1_SLIDER_POS_NONE;
1938:Generated_Source\PSoC4/CapSense_1_Processing.c **** 
1939:Generated_Source\PSoC4/CapSense_1_Processing.c ****         #if (0u != CapSense_1_POSITION_FILTER_EN)
1940:Generated_Source\PSoC4/CapSense_1_Processing.c ****             if (NULL != ptrHistory)
1941:Generated_Source\PSoC4/CapSense_1_Processing.c ****             {
1942:Generated_Source\PSoC4/CapSense_1_Processing.c ****                 CapSense_1_InitPosFiltersSd(&ptrHistory[touchIdx], CapSense_1_SLIDER_POS_NONE);
1943:Generated_Source\PSoC4/CapSense_1_Processing.c ****             }
1944:Generated_Source\PSoC4/CapSense_1_Processing.c ****         #endif /* #if (0u != CapSense_1_POSITION_FILTER_EN) */
1945:Generated_Source\PSoC4/CapSense_1_Processing.c ****     }
1946:Generated_Source\PSoC4/CapSense_1_Processing.c **** 
1947:Generated_Source\PSoC4/CapSense_1_Processing.c ****     return currStatus;
1948:Generated_Source\PSoC4/CapSense_1_Processing.c **** }
1949:Generated_Source\PSoC4/CapSense_1_Processing.c **** #endif /* #if (0u != CapSense_1_SLIDER_WIDGET_EN) */
1950:Generated_Source\PSoC4/CapSense_1_Processing.c **** 
1951:Generated_Source\PSoC4/CapSense_1_Processing.c **** #if (0u != CapSense_1_TOTAL_LINEAR_SLIDERS)
1952:Generated_Source\PSoC4/CapSense_1_Processing.c **** /*******************************************************************************
1953:Generated_Source\PSoC4/CapSense_1_Processing.c **** * Function Name: DpUpdateLinSlider
1954:Generated_Source\PSoC4/CapSense_1_Processing.c **** ****************************************************************************//**
1955:Generated_Source\PSoC4/CapSense_1_Processing.c **** *
1956:Generated_Source\PSoC4/CapSense_1_Processing.c **** * \brief
1957:Generated_Source\PSoC4/CapSense_1_Processing.c **** *   Updates the touch status of the Linear Slider widget.
1958:Generated_Source\PSoC4/CapSense_1_Processing.c **** *
1959:Generated_Source\PSoC4/CapSense_1_Processing.c **** * \details
1960:Generated_Source\PSoC4/CapSense_1_Processing.c **** *   This function updates the position data of the Linear Slider
1961:Generated_Source\PSoC4/CapSense_1_Processing.c **** *   in the Data Structure. Also, this function runs position filters for the
1962:Generated_Source\PSoC4/CapSense_1_Processing.c **** *   position data if any enabled.
1963:Generated_Source\PSoC4/CapSense_1_Processing.c **** *
1964:Generated_Source\PSoC4/CapSense_1_Processing.c **** * \param newPos       The pointer to the array with the new finger position coordinates.
1965:Generated_Source\PSoC4/CapSense_1_Processing.c **** * \param numTouches   The number of the coordinates in the newPos array.
1966:Generated_Source\PSoC4/CapSense_1_Processing.c **** * \param ptrFlashWdgt The pointer to the Flash Widget Object.
1967:Generated_Source\PSoC4/CapSense_1_Processing.c **** * \param ptrRamWdgt   The pointer to the RAM Widget Object.
1968:Generated_Source\PSoC4/CapSense_1_Processing.c **** *
1969:Generated_Source\PSoC4/CapSense_1_Processing.c **** *******************************************************************************/
1970:Generated_Source\PSoC4/CapSense_1_Processing.c **** static CY_INLINE void DpUpdateLinSlider(
1971:Generated_Source\PSoC4/CapSense_1_Processing.c ****                         const uint16 newPos[],
1972:Generated_Source\PSoC4/CapSense_1_Processing.c ****                         uint32 numTouches,
1973:Generated_Source\PSoC4/CapSense_1_Processing.c ****                         CapSense_1_FLASH_WD_STRUCT const *ptrFlashWdgt,
1974:Generated_Source\PSoC4/CapSense_1_Processing.c ****                         CapSense_1_RAM_WD_SLIDER_STRUCT *ptrRamWdgt)
1975:Generated_Source\PSoC4/CapSense_1_Processing.c **** {
1976:Generated_Source\PSoC4/CapSense_1_Processing.c ****     uint32 touchIdx;
1977:Generated_Source\PSoC4/CapSense_1_Processing.c **** 
1978:Generated_Source\PSoC4/CapSense_1_Processing.c ****     #if (0u != CapSense_1_POS_AVERAGE_FILTER_EN)
1979:Generated_Source\PSoC4/CapSense_1_Processing.c ****         uint16 tempPosition;
ARM GAS  C:\Users\exp32\AppData\Local\Temp\ccki8209.s 			page 51


1980:Generated_Source\PSoC4/CapSense_1_Processing.c ****     #endif /* (0u != CapSense_1_POS_AVERAGE_FILTER_EN) */
1981:Generated_Source\PSoC4/CapSense_1_Processing.c **** 
1982:Generated_Source\PSoC4/CapSense_1_Processing.c ****     #if (0u == CapSense_1_POSITION_FILTER_EN)
1983:Generated_Source\PSoC4/CapSense_1_Processing.c ****         /* This parameter is unused in such configurations */
1984:Generated_Source\PSoC4/CapSense_1_Processing.c ****         (void)ptrFlashWdgt;
1985:Generated_Source\PSoC4/CapSense_1_Processing.c ****     #else
1986:Generated_Source\PSoC4/CapSense_1_Processing.c ****         uint16 filteredPosition;
1987:Generated_Source\PSoC4/CapSense_1_Processing.c ****         /* Get bitmask with the enabled filters */
1988:Generated_Source\PSoC4/CapSense_1_Processing.c ****         uint32 filterConfig = (uint32)ptrFlashWdgt->staticConfig;
1989:Generated_Source\PSoC4/CapSense_1_Processing.c ****         /* Get pointer to the position filter history */
1990:Generated_Source\PSoC4/CapSense_1_Processing.c ****         CapSense_1_SLIDER_POS_HISTORY_STRUCT *ptrHistory = ptrFlashWdgt->ptr2PosHistory;
1991:Generated_Source\PSoC4/CapSense_1_Processing.c ****     #endif /* #if (0u == CapSense_1_POSITION_FILTER_EN) */
1992:Generated_Source\PSoC4/CapSense_1_Processing.c **** 
1993:Generated_Source\PSoC4/CapSense_1_Processing.c ****     #if (0u != CapSense_1_POS_ADAPTIVE_IIR_FILTER_EN)
1994:Generated_Source\PSoC4/CapSense_1_Processing.c ****         ADAPTIVE_FILTER_CONTEXT_STRUCT contextAIIR;
1995:Generated_Source\PSoC4/CapSense_1_Processing.c ****         uint16 emptyPosition = 0;
1996:Generated_Source\PSoC4/CapSense_1_Processing.c ****     #endif /* (0u != CapSense_1_POS_ADAPTIVE_IIR_FILTER_EN) */
1997:Generated_Source\PSoC4/CapSense_1_Processing.c **** 
1998:Generated_Source\PSoC4/CapSense_1_Processing.c ****     /* Run Filter and update the position registers with the filtered data */
1999:Generated_Source\PSoC4/CapSense_1_Processing.c ****     for (touchIdx = 0u; touchIdx < numTouches; touchIdx++)
 820              		.loc 1 1999 0
 821 009c 0022     		movs	r2, #0
 822 009e 0BE0     		b	.L53
 823              	.LVL141:
 824              	.L54:
2000:Generated_Source\PSoC4/CapSense_1_Processing.c ****     {
2001:Generated_Source\PSoC4/CapSense_1_Processing.c ****         #if (0u == CapSense_1_POSITION_FILTER_EN)
2002:Generated_Source\PSoC4/CapSense_1_Processing.c ****             /* If filters are not enabled just copy the position data */
2003:Generated_Source\PSoC4/CapSense_1_Processing.c ****             ptrRamWdgt->position[touchIdx] = newPos[touchIdx];
 825              		.loc 1 2003 0
 826 00a0 5300     		lsls	r3, r2, #1
 827 00a2 02A9     		add	r1, sp, #8
 828 00a4 8C46     		mov	ip, r1
 829 00a6 6344     		add	r3, r3, ip
 830 00a8 043B     		subs	r3, r3, #4
 831 00aa 1988     		ldrh	r1, [r3]
 832 00ac 1300     		movs	r3, r2
 833 00ae 0833     		adds	r3, r3, #8
 834 00b0 5B00     		lsls	r3, r3, #1
 835 00b2 EB18     		adds	r3, r5, r3
 836 00b4 D980     		strh	r1, [r3, #6]
1999:Generated_Source\PSoC4/CapSense_1_Processing.c ****     {
 837              		.loc 1 1999 0
 838 00b6 0132     		adds	r2, r2, #1
 839              	.LVL142:
 840              	.L53:
 841 00b8 9042     		cmp	r0, r2
 842 00ba F1D8     		bhi	.L54
 843 00bc 07E0     		b	.L52
 844              	.LVL143:
 845              	.L55:
 846              	.LBE13:
 847              	.LBE12:
1937:Generated_Source\PSoC4/CapSense_1_Processing.c **** 
 848              		.loc 1 1937 0 discriminator 3
 849 00be 0300     		movs	r3, r0
 850 00c0 0833     		adds	r3, r3, #8
ARM GAS  C:\Users\exp32\AppData\Local\Temp\ccki8209.s 			page 52


 851 00c2 5B00     		lsls	r3, r3, #1
 852 00c4 EB18     		adds	r3, r5, r3
 853 00c6 0122     		movs	r2, #1
 854 00c8 5242     		rsbs	r2, r2, #0
 855 00ca DA80     		strh	r2, [r3, #6]
1935:Generated_Source\PSoC4/CapSense_1_Processing.c ****     {
 856              		.loc 1 1935 0 discriminator 3
 857 00cc 0130     		adds	r0, r0, #1
 858              	.LVL144:
 859              	.L52:
1935:Generated_Source\PSoC4/CapSense_1_Processing.c ****     {
 860              		.loc 1 1935 0 is_stmt 0 discriminator 1
 861 00ce 0028     		cmp	r0, #0
 862 00d0 F5D0     		beq	.L55
1948:Generated_Source\PSoC4/CapSense_1_Processing.c **** #endif /* #if (0u != CapSense_1_SLIDER_WIDGET_EN) */
 863              		.loc 1 1948 0 is_stmt 1
 864 00d2 2000     		movs	r0, r4
 865              	.LVL145:
 866 00d4 02B0     		add	sp, sp, #8
 867              		@ sp needed
 868              	.LVL146:
 869              	.LVL147:
 870              	.LVL148:
 871              	.LVL149:
 872              	.LVL150:
 873 00d6 04BC     		pop	{r2}
 874 00d8 9046     		mov	r8, r2
 875 00da F0BD     		pop	{r4, r5, r6, r7, pc}
 876              		.cfi_endproc
 877              	.LFE10:
 878              		.size	CapSense_1_DpProcessSlider, .-CapSense_1_DpProcessSlider
 879              		.section	.text.CapSense_1_DpProcessCsdTouchpad,"ax",%progbits
 880              		.align	2
 881              		.global	CapSense_1_DpProcessCsdTouchpad
 882              		.code	16
 883              		.thumb_func
 884              		.type	CapSense_1_DpProcessCsdTouchpad, %function
 885              	CapSense_1_DpProcessCsdTouchpad:
 886              	.LFB12:
2004:Generated_Source\PSoC4/CapSense_1_Processing.c ****         #else
2005:Generated_Source\PSoC4/CapSense_1_Processing.c ****             filteredPosition = newPos[touchIdx];
2006:Generated_Source\PSoC4/CapSense_1_Processing.c **** 
2007:Generated_Source\PSoC4/CapSense_1_Processing.c ****             /* If there were no touch initialize the current position with new position data */
2008:Generated_Source\PSoC4/CapSense_1_Processing.c ****             if (ptrRamWdgt->position[touchIdx] == CapSense_1_SLIDER_POS_NONE)
2009:Generated_Source\PSoC4/CapSense_1_Processing.c ****             {
2010:Generated_Source\PSoC4/CapSense_1_Processing.c ****                 CapSense_1_InitPosFiltersSd(ptrHistory, filteredPosition);
2011:Generated_Source\PSoC4/CapSense_1_Processing.c ****             }
2012:Generated_Source\PSoC4/CapSense_1_Processing.c ****             else
2013:Generated_Source\PSoC4/CapSense_1_Processing.c ****             {
2014:Generated_Source\PSoC4/CapSense_1_Processing.c ****                 #if (0u != CapSense_1_POS_MEDIAN_FILTER_EN)
2015:Generated_Source\PSoC4/CapSense_1_Processing.c ****                     if (0u != (filterConfig & CapSense_1_POS_MEDIAN_FILTER_MASK))
2016:Generated_Source\PSoC4/CapSense_1_Processing.c ****                     {
2017:Generated_Source\PSoC4/CapSense_1_Processing.c ****                         filteredPosition = (uint16)CapSense_1_FtMedian((uint32)ptrHistory->posMedia
2018:Generated_Source\PSoC4/CapSense_1_Processing.c ****                                             (uint32)ptrHistory->posMedianZ1, (uint32)newPos[touchId
2019:Generated_Source\PSoC4/CapSense_1_Processing.c ****                         ptrHistory->posMedianZ2 = ptrHistory->posMedianZ1;
2020:Generated_Source\PSoC4/CapSense_1_Processing.c ****                         ptrHistory->posMedianZ1 = newPos[touchIdx];
2021:Generated_Source\PSoC4/CapSense_1_Processing.c ****                     }
ARM GAS  C:\Users\exp32\AppData\Local\Temp\ccki8209.s 			page 53


2022:Generated_Source\PSoC4/CapSense_1_Processing.c ****                 #endif /* #if (0u != CapSense_1_POS_MEDIAN_FILTER_EN) */
2023:Generated_Source\PSoC4/CapSense_1_Processing.c **** 
2024:Generated_Source\PSoC4/CapSense_1_Processing.c ****                 #if (0u != CapSense_1_POS_IIR_FILTER_EN)
2025:Generated_Source\PSoC4/CapSense_1_Processing.c ****                     if (0u != (filterConfig & CapSense_1_POS_IIR_FILTER_MASK))
2026:Generated_Source\PSoC4/CapSense_1_Processing.c ****                     {
2027:Generated_Source\PSoC4/CapSense_1_Processing.c ****                         filteredPosition = (uint16)CapSense_1_FtIIR1stOrder((uint32)filteredPositio
2028:Generated_Source\PSoC4/CapSense_1_Processing.c ****                                             (uint32)ptrFlashWdgt->iirFilterCoeff, 0uL);
2029:Generated_Source\PSoC4/CapSense_1_Processing.c ****                         ptrHistory->posIIR = filteredPosition;
2030:Generated_Source\PSoC4/CapSense_1_Processing.c ****                     }
2031:Generated_Source\PSoC4/CapSense_1_Processing.c ****                 #endif /* #if (0u != CapSense_1_POS_IIR_FILTER_EN) */
2032:Generated_Source\PSoC4/CapSense_1_Processing.c **** 
2033:Generated_Source\PSoC4/CapSense_1_Processing.c ****                 #if (0u != CapSense_1_POS_ADAPTIVE_IIR_FILTER_EN)
2034:Generated_Source\PSoC4/CapSense_1_Processing.c ****                     if (0u != (filterConfig & CapSense_1_AIIR_FILTER_MASK))
2035:Generated_Source\PSoC4/CapSense_1_Processing.c ****                     {
2036:Generated_Source\PSoC4/CapSense_1_Processing.c ****                         contextAIIR.previousX = ptrHistory->posAIIR;
2037:Generated_Source\PSoC4/CapSense_1_Processing.c ****                         contextAIIR.previousY = emptyPosition;
2038:Generated_Source\PSoC4/CapSense_1_Processing.c ****                         contextAIIR.coefficient = ptrHistory->posAIIRCoeff;
2039:Generated_Source\PSoC4/CapSense_1_Processing.c ****                         AdaptiveFilter_Run(&ptrRamWdgt->aiirConfig, &contextAIIR, &filteredPosition
2040:Generated_Source\PSoC4/CapSense_1_Processing.c ****                         ptrHistory->posAIIR = contextAIIR.previousX;
2041:Generated_Source\PSoC4/CapSense_1_Processing.c ****                         ptrHistory->posAIIRCoeff = contextAIIR.coefficient;
2042:Generated_Source\PSoC4/CapSense_1_Processing.c ****                     }
2043:Generated_Source\PSoC4/CapSense_1_Processing.c ****                 #endif /* (0u != CapSense_1_POS_ADAPTIVE_IIR_FILTER_EN) */
2044:Generated_Source\PSoC4/CapSense_1_Processing.c **** 
2045:Generated_Source\PSoC4/CapSense_1_Processing.c ****                 #if (0u != CapSense_1_POS_AVERAGE_FILTER_EN)
2046:Generated_Source\PSoC4/CapSense_1_Processing.c ****                     if (0u != (filterConfig & CapSense_1_POS_AVERAGE_FILTER_MASK))
2047:Generated_Source\PSoC4/CapSense_1_Processing.c ****                     {
2048:Generated_Source\PSoC4/CapSense_1_Processing.c ****                         tempPosition = filteredPosition;
2049:Generated_Source\PSoC4/CapSense_1_Processing.c ****                         filteredPosition = (uint16)(filteredPosition + ptrHistory->posAverage) >> 1
2050:Generated_Source\PSoC4/CapSense_1_Processing.c ****                         ptrHistory->posAverage = tempPosition;
2051:Generated_Source\PSoC4/CapSense_1_Processing.c ****                     }
2052:Generated_Source\PSoC4/CapSense_1_Processing.c ****                 #endif /* #if (0u != CapSense_1_POS_AVERAGE_FILTER_EN) */
2053:Generated_Source\PSoC4/CapSense_1_Processing.c **** 
2054:Generated_Source\PSoC4/CapSense_1_Processing.c ****                 #if (0u != CapSense_1_POS_JITTER_FILTER_EN)
2055:Generated_Source\PSoC4/CapSense_1_Processing.c ****                     if (0u != (filterConfig & CapSense_1_POS_JITTER_FILTER_MASK))
2056:Generated_Source\PSoC4/CapSense_1_Processing.c ****                     {
2057:Generated_Source\PSoC4/CapSense_1_Processing.c ****                         filteredPosition = (uint16)CapSense_1_FtJitter((uint32)filteredPosition, (u
2058:Generated_Source\PSoC4/CapSense_1_Processing.c ****                         ptrHistory->posJitter = filteredPosition;
2059:Generated_Source\PSoC4/CapSense_1_Processing.c ****                     }
2060:Generated_Source\PSoC4/CapSense_1_Processing.c ****                 #endif /* #if (0u != CapSense_1_POS_JITTER_FILTER_EN) */
2061:Generated_Source\PSoC4/CapSense_1_Processing.c ****             }
2062:Generated_Source\PSoC4/CapSense_1_Processing.c **** 
2063:Generated_Source\PSoC4/CapSense_1_Processing.c ****             /* Update position data */
2064:Generated_Source\PSoC4/CapSense_1_Processing.c ****             ptrRamWdgt->position[touchIdx] = filteredPosition;
2065:Generated_Source\PSoC4/CapSense_1_Processing.c **** 
2066:Generated_Source\PSoC4/CapSense_1_Processing.c ****             ptrHistory = (NULL != ptrHistory) ? (ptrHistory + 1) : NULL;
2067:Generated_Source\PSoC4/CapSense_1_Processing.c ****         #endif /* (0u == CapSense_1_POSITION_FILTER_EN) */
2068:Generated_Source\PSoC4/CapSense_1_Processing.c ****     }
2069:Generated_Source\PSoC4/CapSense_1_Processing.c **** }
2070:Generated_Source\PSoC4/CapSense_1_Processing.c **** #endif /* #if (0u != CapSense_1_TOTAL_LINEAR_SLIDERS) */
2071:Generated_Source\PSoC4/CapSense_1_Processing.c **** 
2072:Generated_Source\PSoC4/CapSense_1_Processing.c **** 
2073:Generated_Source\PSoC4/CapSense_1_Processing.c **** #if (0u != CapSense_1_TOTAL_RADIAL_SLIDERS)
2074:Generated_Source\PSoC4/CapSense_1_Processing.c **** /*******************************************************************************
2075:Generated_Source\PSoC4/CapSense_1_Processing.c **** * Function Name: DpUpdateRadSlider
2076:Generated_Source\PSoC4/CapSense_1_Processing.c **** ****************************************************************************//**
2077:Generated_Source\PSoC4/CapSense_1_Processing.c **** *
2078:Generated_Source\PSoC4/CapSense_1_Processing.c **** * \brief
ARM GAS  C:\Users\exp32\AppData\Local\Temp\ccki8209.s 			page 54


2079:Generated_Source\PSoC4/CapSense_1_Processing.c **** *   Filters the Radial Slider widget position.
2080:Generated_Source\PSoC4/CapSense_1_Processing.c **** *
2081:Generated_Source\PSoC4/CapSense_1_Processing.c **** * \details
2082:Generated_Source\PSoC4/CapSense_1_Processing.c **** *   This function updates the position data of the radial slider
2083:Generated_Source\PSoC4/CapSense_1_Processing.c **** *   in the Data Structure. Also, this function runs position filters for the
2084:Generated_Source\PSoC4/CapSense_1_Processing.c **** *   position data if any enabled.
2085:Generated_Source\PSoC4/CapSense_1_Processing.c **** *
2086:Generated_Source\PSoC4/CapSense_1_Processing.c **** *   The filtering algorithm takes into account that it is possible that new value
2087:Generated_Source\PSoC4/CapSense_1_Processing.c **** *   will cross the zero position so it adjusts the position data appropriately to
2088:Generated_Source\PSoC4/CapSense_1_Processing.c **** *   get the correct filtered value.
2089:Generated_Source\PSoC4/CapSense_1_Processing.c **** *
2090:Generated_Source\PSoC4/CapSense_1_Processing.c **** * \param newPos[]     The pointer to the array with new centroid position data.
2091:Generated_Source\PSoC4/CapSense_1_Processing.c **** * \param numTouches   The number of elements in the newPos array.
2092:Generated_Source\PSoC4/CapSense_1_Processing.c **** * \param ptrFlashWdgt The pointer to the Flash Widget Object.
2093:Generated_Source\PSoC4/CapSense_1_Processing.c **** * \param ptrRamWdgt   The pointer to the RAM Widget Object .
2094:Generated_Source\PSoC4/CapSense_1_Processing.c **** *
2095:Generated_Source\PSoC4/CapSense_1_Processing.c **** *******************************************************************************/
2096:Generated_Source\PSoC4/CapSense_1_Processing.c **** static CY_INLINE void DpUpdateRadSlider(
2097:Generated_Source\PSoC4/CapSense_1_Processing.c ****                         const uint16 newPos[], uint32 numTouches,
2098:Generated_Source\PSoC4/CapSense_1_Processing.c ****                         CapSense_1_FLASH_WD_STRUCT const *ptrFlashWdgt,
2099:Generated_Source\PSoC4/CapSense_1_Processing.c ****                         CapSense_1_RAM_WD_SLIDER_STRUCT *ptrRamWdgt)
2100:Generated_Source\PSoC4/CapSense_1_Processing.c **** {
2101:Generated_Source\PSoC4/CapSense_1_Processing.c ****     uint32 touchIdx;
2102:Generated_Source\PSoC4/CapSense_1_Processing.c **** 
2103:Generated_Source\PSoC4/CapSense_1_Processing.c ****     #if (0u != CapSense_1_POS_MEDIAN_FILTER_EN)
2104:Generated_Source\PSoC4/CapSense_1_Processing.c ****         uint16 z1;
2105:Generated_Source\PSoC4/CapSense_1_Processing.c ****         uint16 z2;
2106:Generated_Source\PSoC4/CapSense_1_Processing.c ****     #endif
2107:Generated_Source\PSoC4/CapSense_1_Processing.c **** 
2108:Generated_Source\PSoC4/CapSense_1_Processing.c ****     #if ((0u != CapSense_1_POS_IIR_FILTER_EN) || \
2109:Generated_Source\PSoC4/CapSense_1_Processing.c ****          (0u != CapSense_1_POS_ADAPTIVE_IIR_FILTER_EN))
2110:Generated_Source\PSoC4/CapSense_1_Processing.c ****         uint16 delta;
2111:Generated_Source\PSoC4/CapSense_1_Processing.c ****     #endif
2112:Generated_Source\PSoC4/CapSense_1_Processing.c **** 
2113:Generated_Source\PSoC4/CapSense_1_Processing.c ****     #if (0u != CapSense_1_POS_AVERAGE_FILTER_EN)
2114:Generated_Source\PSoC4/CapSense_1_Processing.c ****         uint16 tempPosition;
2115:Generated_Source\PSoC4/CapSense_1_Processing.c ****     #endif
2116:Generated_Source\PSoC4/CapSense_1_Processing.c **** 
2117:Generated_Source\PSoC4/CapSense_1_Processing.c ****     #if (0u != CapSense_1_POSITION_FILTER_EN)
2118:Generated_Source\PSoC4/CapSense_1_Processing.c ****         uint16 filteredPosition;
2119:Generated_Source\PSoC4/CapSense_1_Processing.c ****         /* Get resolution. The register contains max position value, so therefore it is increased b
2120:Generated_Source\PSoC4/CapSense_1_Processing.c ****         uint16 tempResolution = (ptrFlashWdgt->xResolution + 1u);
2121:Generated_Source\PSoC4/CapSense_1_Processing.c ****         uint16 resolutionHafl = (ptrFlashWdgt->xResolution + 1u) >> 1u;
2122:Generated_Source\PSoC4/CapSense_1_Processing.c ****         /* Get bitmask with the enabled filters */
2123:Generated_Source\PSoC4/CapSense_1_Processing.c ****         uint32 filterConfig = (uint32)ptrFlashWdgt->staticConfig;
2124:Generated_Source\PSoC4/CapSense_1_Processing.c ****         /* Get pointer to the position filter history */
2125:Generated_Source\PSoC4/CapSense_1_Processing.c ****         CapSense_1_SLIDER_POS_HISTORY_STRUCT *ptrHistory = ptrFlashWdgt->ptr2PosHistory;
2126:Generated_Source\PSoC4/CapSense_1_Processing.c ****     #endif
2127:Generated_Source\PSoC4/CapSense_1_Processing.c **** 
2128:Generated_Source\PSoC4/CapSense_1_Processing.c ****     #if (0u != CapSense_1_POS_ADAPTIVE_IIR_FILTER_EN)
2129:Generated_Source\PSoC4/CapSense_1_Processing.c ****         ADAPTIVE_FILTER_CONTEXT_STRUCT contextAIIR;
2130:Generated_Source\PSoC4/CapSense_1_Processing.c ****         uint16 emptyPosition = 0;
2131:Generated_Source\PSoC4/CapSense_1_Processing.c ****     #endif /* (0u != CapSense_1_POS_ADAPTIVE_IIR_FILTER_EN) */
2132:Generated_Source\PSoC4/CapSense_1_Processing.c **** 
2133:Generated_Source\PSoC4/CapSense_1_Processing.c ****     /* Run Filter and update the position registers with the filtered data */
2134:Generated_Source\PSoC4/CapSense_1_Processing.c ****     for (touchIdx = 0u; touchIdx < numTouches; touchIdx++)
2135:Generated_Source\PSoC4/CapSense_1_Processing.c ****     {
ARM GAS  C:\Users\exp32\AppData\Local\Temp\ccki8209.s 			page 55


2136:Generated_Source\PSoC4/CapSense_1_Processing.c ****         #if (0u == CapSense_1_POSITION_FILTER_EN)
2137:Generated_Source\PSoC4/CapSense_1_Processing.c ****             /* If filters are not enabled just copy the position data */
2138:Generated_Source\PSoC4/CapSense_1_Processing.c ****             ptrRamWdgt->position[touchIdx] = newPos[touchIdx];
2139:Generated_Source\PSoC4/CapSense_1_Processing.c ****         #else
2140:Generated_Source\PSoC4/CapSense_1_Processing.c ****             filteredPosition = newPos[touchIdx];
2141:Generated_Source\PSoC4/CapSense_1_Processing.c **** 
2142:Generated_Source\PSoC4/CapSense_1_Processing.c ****             /* If there were no touch initialize the current position with new position data */
2143:Generated_Source\PSoC4/CapSense_1_Processing.c ****             if (ptrRamWdgt->position[touchIdx] == CapSense_1_SLIDER_POS_NONE)
2144:Generated_Source\PSoC4/CapSense_1_Processing.c ****             {
2145:Generated_Source\PSoC4/CapSense_1_Processing.c ****                 CapSense_1_InitPosFiltersSd(ptrHistory, filteredPosition);
2146:Generated_Source\PSoC4/CapSense_1_Processing.c ****             }
2147:Generated_Source\PSoC4/CapSense_1_Processing.c ****             else
2148:Generated_Source\PSoC4/CapSense_1_Processing.c ****             {
2149:Generated_Source\PSoC4/CapSense_1_Processing.c ****                 /*
2150:Generated_Source\PSoC4/CapSense_1_Processing.c ****                  * If new position crosses zero point in one or another direction the position vari
2151:Generated_Source\PSoC4/CapSense_1_Processing.c ****                  * is increased by the slider resolution. It is done for the proper filtering. For 
2152:Generated_Source\PSoC4/CapSense_1_Processing.c ****                  * yResolution = 100, currPosition = 95, newPosition = 5. If no actions are taken t
2153:Generated_Source\PSoC4/CapSense_1_Processing.c ****                  * will give value 50 - which is wrong. But if the position values are adusted as m
2154:Generated_Source\PSoC4/CapSense_1_Processing.c ****                  * newPosition eqaul 105 and the average will be 100. Later this filtered value wil
2155:Generated_Source\PSoC4/CapSense_1_Processing.c ****                  * cross the yResolution and it will end up with 0u - which is correct average resu
2156:Generated_Source\PSoC4/CapSense_1_Processing.c ****                  */
2157:Generated_Source\PSoC4/CapSense_1_Processing.c ****                 #if (0u != CapSense_1_POS_MEDIAN_FILTER_EN)
2158:Generated_Source\PSoC4/CapSense_1_Processing.c ****                     if (0u != (filterConfig & CapSense_1_POS_MEDIAN_FILTER_MASK))
2159:Generated_Source\PSoC4/CapSense_1_Processing.c ****                     {
2160:Generated_Source\PSoC4/CapSense_1_Processing.c ****                         /* Get the filter history for further zero-cross correction */
2161:Generated_Source\PSoC4/CapSense_1_Processing.c ****                         z1 = ptrHistory->posMedianZ1;
2162:Generated_Source\PSoC4/CapSense_1_Processing.c ****                         z2 = ptrHistory->posMedianZ2;
2163:Generated_Source\PSoC4/CapSense_1_Processing.c **** 
2164:Generated_Source\PSoC4/CapSense_1_Processing.c ****                         /* Preserve the filter history without zero-cross correction */
2165:Generated_Source\PSoC4/CapSense_1_Processing.c ****                         ptrHistory->posMedianZ2 = ptrHistory->posMedianZ1;
2166:Generated_Source\PSoC4/CapSense_1_Processing.c ****                         ptrHistory->posMedianZ1 = filteredPosition;
2167:Generated_Source\PSoC4/CapSense_1_Processing.c **** 
2168:Generated_Source\PSoC4/CapSense_1_Processing.c ****                         /* Perform zero-cross correction */
2169:Generated_Source\PSoC4/CapSense_1_Processing.c ****                         if (z1 > (resolutionHafl + filteredPosition))
2170:Generated_Source\PSoC4/CapSense_1_Processing.c ****                         {
2171:Generated_Source\PSoC4/CapSense_1_Processing.c ****                             filteredPosition += tempResolution;
2172:Generated_Source\PSoC4/CapSense_1_Processing.c ****                         }
2173:Generated_Source\PSoC4/CapSense_1_Processing.c ****                         if (filteredPosition > (resolutionHafl + z1))
2174:Generated_Source\PSoC4/CapSense_1_Processing.c ****                         {
2175:Generated_Source\PSoC4/CapSense_1_Processing.c ****                             z1 += tempResolution;
2176:Generated_Source\PSoC4/CapSense_1_Processing.c ****                             z2 += tempResolution;
2177:Generated_Source\PSoC4/CapSense_1_Processing.c ****                         }
2178:Generated_Source\PSoC4/CapSense_1_Processing.c ****                         if (z2 > (resolutionHafl + z1))
2179:Generated_Source\PSoC4/CapSense_1_Processing.c ****                         {
2180:Generated_Source\PSoC4/CapSense_1_Processing.c ****                             z1 += tempResolution;
2181:Generated_Source\PSoC4/CapSense_1_Processing.c ****                             filteredPosition += tempResolution;
2182:Generated_Source\PSoC4/CapSense_1_Processing.c ****                         }
2183:Generated_Source\PSoC4/CapSense_1_Processing.c ****                         if (z1 > (resolutionHafl + z2))
2184:Generated_Source\PSoC4/CapSense_1_Processing.c ****                         {
2185:Generated_Source\PSoC4/CapSense_1_Processing.c ****                             z2 += tempResolution;
2186:Generated_Source\PSoC4/CapSense_1_Processing.c ****                         }
2187:Generated_Source\PSoC4/CapSense_1_Processing.c **** 
2188:Generated_Source\PSoC4/CapSense_1_Processing.c ****                         /* Perform filtering */
2189:Generated_Source\PSoC4/CapSense_1_Processing.c ****                         filteredPosition = CapSense_1_FtMedian((uint32)z2, (uint32)z1, filteredPosi
2190:Generated_Source\PSoC4/CapSense_1_Processing.c **** 
2191:Generated_Source\PSoC4/CapSense_1_Processing.c ****                         /* Perform zero-cross correction of filtered position */
2192:Generated_Source\PSoC4/CapSense_1_Processing.c ****                         if (filteredPosition >= tempResolution)
ARM GAS  C:\Users\exp32\AppData\Local\Temp\ccki8209.s 			page 56


2193:Generated_Source\PSoC4/CapSense_1_Processing.c ****                         {
2194:Generated_Source\PSoC4/CapSense_1_Processing.c ****                             filteredPosition -= tempResolution;
2195:Generated_Source\PSoC4/CapSense_1_Processing.c ****                         }
2196:Generated_Source\PSoC4/CapSense_1_Processing.c ****                     }
2197:Generated_Source\PSoC4/CapSense_1_Processing.c ****                 #endif /* #if (0u != CapSense_1_POS_MEDIAN_FILTER_EN) */
2198:Generated_Source\PSoC4/CapSense_1_Processing.c **** 
2199:Generated_Source\PSoC4/CapSense_1_Processing.c ****                 #if (0u != CapSense_1_POS_IIR_FILTER_EN)
2200:Generated_Source\PSoC4/CapSense_1_Processing.c ****                     if (0u != (filterConfig & CapSense_1_POS_IIR_FILTER_MASK))
2201:Generated_Source\PSoC4/CapSense_1_Processing.c ****                     {
2202:Generated_Source\PSoC4/CapSense_1_Processing.c ****                         /* Perform zero-cross correction */
2203:Generated_Source\PSoC4/CapSense_1_Processing.c ****                         if (ptrHistory->posIIR > (resolutionHafl + filteredPosition))
2204:Generated_Source\PSoC4/CapSense_1_Processing.c ****                         {
2205:Generated_Source\PSoC4/CapSense_1_Processing.c ****                             filteredPosition += tempResolution;
2206:Generated_Source\PSoC4/CapSense_1_Processing.c ****                         }
2207:Generated_Source\PSoC4/CapSense_1_Processing.c ****                         if (filteredPosition > (resolutionHafl + ptrHistory->posIIR))
2208:Generated_Source\PSoC4/CapSense_1_Processing.c ****                         {
2209:Generated_Source\PSoC4/CapSense_1_Processing.c ****                             ptrHistory->posIIR += tempResolution;
2210:Generated_Source\PSoC4/CapSense_1_Processing.c ****                         }
2211:Generated_Source\PSoC4/CapSense_1_Processing.c ****                         /*
2212:Generated_Source\PSoC4/CapSense_1_Processing.c ****                         * IIR filter can accumulate delay up to full circle and even more.
2213:Generated_Source\PSoC4/CapSense_1_Processing.c ****                         * This situation is not supported by the Component. If difference between
2214:Generated_Source\PSoC4/CapSense_1_Processing.c ****                         * between the new position and IIR filter history is bigher than
2215:Generated_Source\PSoC4/CapSense_1_Processing.c ****                         * CapSense_1_POS_IIR_RESET_RADIAL_SLIDER percent of circle
2216:Generated_Source\PSoC4/CapSense_1_Processing.c ****                         * then all enabled position filters are reset.
2217:Generated_Source\PSoC4/CapSense_1_Processing.c ****                         */
2218:Generated_Source\PSoC4/CapSense_1_Processing.c ****                         if (ptrHistory->posIIR > filteredPosition)
2219:Generated_Source\PSoC4/CapSense_1_Processing.c ****                         {
2220:Generated_Source\PSoC4/CapSense_1_Processing.c ****                             delta = ptrHistory->posIIR - filteredPosition;
2221:Generated_Source\PSoC4/CapSense_1_Processing.c ****                         }
2222:Generated_Source\PSoC4/CapSense_1_Processing.c ****                         else
2223:Generated_Source\PSoC4/CapSense_1_Processing.c ****                         {
2224:Generated_Source\PSoC4/CapSense_1_Processing.c ****                             delta = filteredPosition - ptrHistory->posIIR;
2225:Generated_Source\PSoC4/CapSense_1_Processing.c ****                         }
2226:Generated_Source\PSoC4/CapSense_1_Processing.c ****                         if (delta > ((tempResolution * CapSense_1_POS_IIR_RESET_RADIAL_SLIDER) / PE
2227:Generated_Source\PSoC4/CapSense_1_Processing.c ****                         {
2228:Generated_Source\PSoC4/CapSense_1_Processing.c ****                             CapSense_1_InitPosFiltersSd(ptrHistory, filteredPosition);
2229:Generated_Source\PSoC4/CapSense_1_Processing.c ****                         }
2230:Generated_Source\PSoC4/CapSense_1_Processing.c ****                         else
2231:Generated_Source\PSoC4/CapSense_1_Processing.c ****                         {
2232:Generated_Source\PSoC4/CapSense_1_Processing.c ****                             /* Perform filtering */
2233:Generated_Source\PSoC4/CapSense_1_Processing.c ****                             filteredPosition = (uint16)CapSense_1_FtIIR1stOrder(filteredPosition, (
2234:Generated_Source\PSoC4/CapSense_1_Processing.c ****                                                 ptrFlashWdgt->iirFilterCoeff, 0u);
2235:Generated_Source\PSoC4/CapSense_1_Processing.c ****                         }
2236:Generated_Source\PSoC4/CapSense_1_Processing.c ****                         /* Perform zero-cross correction of filtered position */
2237:Generated_Source\PSoC4/CapSense_1_Processing.c ****                         if (filteredPosition >= tempResolution)
2238:Generated_Source\PSoC4/CapSense_1_Processing.c ****                         {
2239:Generated_Source\PSoC4/CapSense_1_Processing.c ****                             filteredPosition -= tempResolution;
2240:Generated_Source\PSoC4/CapSense_1_Processing.c ****                         }
2241:Generated_Source\PSoC4/CapSense_1_Processing.c ****                         ptrHistory->posIIR = filteredPosition;
2242:Generated_Source\PSoC4/CapSense_1_Processing.c ****                     }
2243:Generated_Source\PSoC4/CapSense_1_Processing.c ****                 #endif /* #if (0u != CapSense_1_POS_IIR_FILTER_EN) */
2244:Generated_Source\PSoC4/CapSense_1_Processing.c **** 
2245:Generated_Source\PSoC4/CapSense_1_Processing.c ****                 #if (0u != CapSense_1_POS_ADAPTIVE_IIR_FILTER_EN)
2246:Generated_Source\PSoC4/CapSense_1_Processing.c ****                     if (0u != (filterConfig & CapSense_1_AIIR_FILTER_MASK))
2247:Generated_Source\PSoC4/CapSense_1_Processing.c ****                     {
2248:Generated_Source\PSoC4/CapSense_1_Processing.c ****                         /* Perform zero-cross correction */
2249:Generated_Source\PSoC4/CapSense_1_Processing.c ****                         if (ptrHistory->posAIIR > (resolutionHafl + filteredPosition))
ARM GAS  C:\Users\exp32\AppData\Local\Temp\ccki8209.s 			page 57


2250:Generated_Source\PSoC4/CapSense_1_Processing.c ****                         {
2251:Generated_Source\PSoC4/CapSense_1_Processing.c ****                             filteredPosition += tempResolution;
2252:Generated_Source\PSoC4/CapSense_1_Processing.c ****                         }
2253:Generated_Source\PSoC4/CapSense_1_Processing.c ****                         if (filteredPosition > (resolutionHafl + ptrHistory->posAIIR))
2254:Generated_Source\PSoC4/CapSense_1_Processing.c ****                         {
2255:Generated_Source\PSoC4/CapSense_1_Processing.c ****                             ptrHistory->posAIIR += tempResolution;
2256:Generated_Source\PSoC4/CapSense_1_Processing.c ****                         }
2257:Generated_Source\PSoC4/CapSense_1_Processing.c ****                         if (ptrHistory->posAIIR > filteredPosition)
2258:Generated_Source\PSoC4/CapSense_1_Processing.c ****                         {
2259:Generated_Source\PSoC4/CapSense_1_Processing.c ****                             delta = ptrHistory->posAIIR - filteredPosition;
2260:Generated_Source\PSoC4/CapSense_1_Processing.c ****                         }
2261:Generated_Source\PSoC4/CapSense_1_Processing.c ****                         else
2262:Generated_Source\PSoC4/CapSense_1_Processing.c ****                         {
2263:Generated_Source\PSoC4/CapSense_1_Processing.c ****                             delta = filteredPosition - ptrHistory->posAIIR;
2264:Generated_Source\PSoC4/CapSense_1_Processing.c ****                         }
2265:Generated_Source\PSoC4/CapSense_1_Processing.c ****                         if (delta > ((tempResolution * CapSense_1_POS_IIR_RESET_RADIAL_SLIDER) / PE
2266:Generated_Source\PSoC4/CapSense_1_Processing.c ****                         {
2267:Generated_Source\PSoC4/CapSense_1_Processing.c ****                             CapSense_1_InitPosFiltersSd(ptrHistory, filteredPosition);
2268:Generated_Source\PSoC4/CapSense_1_Processing.c ****                         }
2269:Generated_Source\PSoC4/CapSense_1_Processing.c ****                         else
2270:Generated_Source\PSoC4/CapSense_1_Processing.c ****                         {
2271:Generated_Source\PSoC4/CapSense_1_Processing.c ****                             contextAIIR.previousX = ptrHistory->posAIIR;
2272:Generated_Source\PSoC4/CapSense_1_Processing.c ****                             contextAIIR.previousY = emptyPosition;
2273:Generated_Source\PSoC4/CapSense_1_Processing.c ****                             contextAIIR.coefficient = ptrHistory->posAIIRCoeff;
2274:Generated_Source\PSoC4/CapSense_1_Processing.c ****                             AdaptiveFilter_Run(&ptrRamWdgt->aiirConfig, &contextAIIR, &filteredPosi
2275:Generated_Source\PSoC4/CapSense_1_Processing.c ****                             ptrHistory->posAIIRCoeff = contextAIIR.coefficient;
2276:Generated_Source\PSoC4/CapSense_1_Processing.c ****                         }
2277:Generated_Source\PSoC4/CapSense_1_Processing.c ****                         /* Perform zero-cross correction of filtered position */
2278:Generated_Source\PSoC4/CapSense_1_Processing.c ****                         if (filteredPosition >= tempResolution)
2279:Generated_Source\PSoC4/CapSense_1_Processing.c ****                         {
2280:Generated_Source\PSoC4/CapSense_1_Processing.c ****                             filteredPosition -= tempResolution;
2281:Generated_Source\PSoC4/CapSense_1_Processing.c ****                         }
2282:Generated_Source\PSoC4/CapSense_1_Processing.c ****                         ptrHistory->posAIIR = filteredPosition;
2283:Generated_Source\PSoC4/CapSense_1_Processing.c ****                     }
2284:Generated_Source\PSoC4/CapSense_1_Processing.c ****                 #endif /* (0u != CapSense_1_POS_ADAPTIVE_IIR_FILTER_EN) */
2285:Generated_Source\PSoC4/CapSense_1_Processing.c **** 
2286:Generated_Source\PSoC4/CapSense_1_Processing.c ****                 #if (0u != CapSense_1_POS_AVERAGE_FILTER_EN)
2287:Generated_Source\PSoC4/CapSense_1_Processing.c ****                     if (0u != (filterConfig & CapSense_1_POS_AVERAGE_FILTER_MASK))
2288:Generated_Source\PSoC4/CapSense_1_Processing.c ****                     {
2289:Generated_Source\PSoC4/CapSense_1_Processing.c ****                         tempPosition = filteredPosition;
2290:Generated_Source\PSoC4/CapSense_1_Processing.c ****                         /* Perform zero-cross correction */
2291:Generated_Source\PSoC4/CapSense_1_Processing.c ****                         if (ptrHistory->posAverage > (resolutionHafl + filteredPosition))
2292:Generated_Source\PSoC4/CapSense_1_Processing.c ****                         {
2293:Generated_Source\PSoC4/CapSense_1_Processing.c ****                             filteredPosition += tempResolution;
2294:Generated_Source\PSoC4/CapSense_1_Processing.c ****                         }
2295:Generated_Source\PSoC4/CapSense_1_Processing.c ****                         if (filteredPosition > (resolutionHafl + ptrHistory->posAverage))
2296:Generated_Source\PSoC4/CapSense_1_Processing.c ****                         {
2297:Generated_Source\PSoC4/CapSense_1_Processing.c ****                             ptrHistory->posAverage += tempResolution;
2298:Generated_Source\PSoC4/CapSense_1_Processing.c ****                         }
2299:Generated_Source\PSoC4/CapSense_1_Processing.c ****                         /* Perform filtering */
2300:Generated_Source\PSoC4/CapSense_1_Processing.c ****                         filteredPosition = (uint16)((filteredPosition + ptrHistory->posAverage) >> 
2301:Generated_Source\PSoC4/CapSense_1_Processing.c ****                         /* Perform zero-cross correction of filtered position */
2302:Generated_Source\PSoC4/CapSense_1_Processing.c ****                         if (filteredPosition >= tempResolution)
2303:Generated_Source\PSoC4/CapSense_1_Processing.c ****                         {
2304:Generated_Source\PSoC4/CapSense_1_Processing.c ****                             filteredPosition -= tempResolution;
2305:Generated_Source\PSoC4/CapSense_1_Processing.c ****                         }
2306:Generated_Source\PSoC4/CapSense_1_Processing.c ****                         ptrHistory->posAverage = tempPosition;
ARM GAS  C:\Users\exp32\AppData\Local\Temp\ccki8209.s 			page 58


2307:Generated_Source\PSoC4/CapSense_1_Processing.c ****                     }
2308:Generated_Source\PSoC4/CapSense_1_Processing.c ****                 #endif /* #if (0u != CapSense_1_POS_AVERAGE_FILTER_EN) */
2309:Generated_Source\PSoC4/CapSense_1_Processing.c **** 
2310:Generated_Source\PSoC4/CapSense_1_Processing.c ****                 #if (0u != CapSense_1_POS_JITTER_FILTER_EN)
2311:Generated_Source\PSoC4/CapSense_1_Processing.c ****                     if (0u != (filterConfig & CapSense_1_POS_JITTER_FILTER_MASK))
2312:Generated_Source\PSoC4/CapSense_1_Processing.c ****                     {
2313:Generated_Source\PSoC4/CapSense_1_Processing.c ****                         /* Perform zero-cross correction */
2314:Generated_Source\PSoC4/CapSense_1_Processing.c ****                         if (ptrHistory->posJitter > (resolutionHafl + filteredPosition))
2315:Generated_Source\PSoC4/CapSense_1_Processing.c ****                         {
2316:Generated_Source\PSoC4/CapSense_1_Processing.c ****                             filteredPosition += tempResolution;
2317:Generated_Source\PSoC4/CapSense_1_Processing.c ****                         }
2318:Generated_Source\PSoC4/CapSense_1_Processing.c ****                         if (filteredPosition > (resolutionHafl + ptrHistory->posJitter))
2319:Generated_Source\PSoC4/CapSense_1_Processing.c ****                         {
2320:Generated_Source\PSoC4/CapSense_1_Processing.c ****                             ptrHistory->posJitter += tempResolution;
2321:Generated_Source\PSoC4/CapSense_1_Processing.c ****                         }
2322:Generated_Source\PSoC4/CapSense_1_Processing.c ****                         /* Perform filtering */
2323:Generated_Source\PSoC4/CapSense_1_Processing.c ****                         filteredPosition = (uint16)CapSense_1_FtJitter((uint32)filteredPosition, (u
2324:Generated_Source\PSoC4/CapSense_1_Processing.c ****                         /* Perform zero-cross correction of filtered position */
2325:Generated_Source\PSoC4/CapSense_1_Processing.c ****                         if (filteredPosition >= tempResolution)
2326:Generated_Source\PSoC4/CapSense_1_Processing.c ****                         {
2327:Generated_Source\PSoC4/CapSense_1_Processing.c ****                             filteredPosition -= tempResolution;
2328:Generated_Source\PSoC4/CapSense_1_Processing.c ****                         }
2329:Generated_Source\PSoC4/CapSense_1_Processing.c ****                         ptrHistory->posJitter = filteredPosition;
2330:Generated_Source\PSoC4/CapSense_1_Processing.c ****                     }
2331:Generated_Source\PSoC4/CapSense_1_Processing.c ****                 #endif /* #if (0u != CapSense_1_POS_JITTER_FILTER_EN) */
2332:Generated_Source\PSoC4/CapSense_1_Processing.c ****             }
2333:Generated_Source\PSoC4/CapSense_1_Processing.c ****             /* Update position data */
2334:Generated_Source\PSoC4/CapSense_1_Processing.c ****             ptrRamWdgt->position[touchIdx] = filteredPosition;
2335:Generated_Source\PSoC4/CapSense_1_Processing.c ****             ptrHistory = (NULL != ptrHistory) ? (ptrHistory + 1) : NULL;
2336:Generated_Source\PSoC4/CapSense_1_Processing.c ****         #endif /* (0u == CapSense_1_POSITION_FILTER_EN) */
2337:Generated_Source\PSoC4/CapSense_1_Processing.c ****     }
2338:Generated_Source\PSoC4/CapSense_1_Processing.c **** }
2339:Generated_Source\PSoC4/CapSense_1_Processing.c **** #endif /* #if (0u != CapSense_1_TOTAL_RADIAL_SLIDERS) */
2340:Generated_Source\PSoC4/CapSense_1_Processing.c **** 
2341:Generated_Source\PSoC4/CapSense_1_Processing.c **** 
2342:Generated_Source\PSoC4/CapSense_1_Processing.c **** #if (0u != CapSense_1_CSD_MATRIX_WIDGET_EN)
2343:Generated_Source\PSoC4/CapSense_1_Processing.c **** /*******************************************************************************
2344:Generated_Source\PSoC4/CapSense_1_Processing.c **** * Function Name: CapSense_1_DpProcessCsdMatrix
2345:Generated_Source\PSoC4/CapSense_1_Processing.c **** ****************************************************************************//**
2346:Generated_Source\PSoC4/CapSense_1_Processing.c **** *
2347:Generated_Source\PSoC4/CapSense_1_Processing.c **** * \brief
2348:Generated_Source\PSoC4/CapSense_1_Processing.c **** *   Processes the status of the CSD Matrix Button widget.
2349:Generated_Source\PSoC4/CapSense_1_Processing.c **** *
2350:Generated_Source\PSoC4/CapSense_1_Processing.c **** * \details
2351:Generated_Source\PSoC4/CapSense_1_Processing.c **** *   This API processes the status of the CSD Matrix Button widget.
2352:Generated_Source\PSoC4/CapSense_1_Processing.c **** *   It applies the hysteresis and debounce algorithm to each sensor value.
2353:Generated_Source\PSoC4/CapSense_1_Processing.c **** *
2354:Generated_Source\PSoC4/CapSense_1_Processing.c **** *   Then the API analyzes how many row and column sensors are active. If only
2355:Generated_Source\PSoC4/CapSense_1_Processing.c **** *   one per row and one per column, the API considers this as a valid touch and
2356:Generated_Source\PSoC4/CapSense_1_Processing.c **** *   updates the corresponding Data Structure registers with the button id and active
2357:Generated_Source\PSoC4/CapSense_1_Processing.c **** *   row and column sensors.
2358:Generated_Source\PSoC4/CapSense_1_Processing.c **** *
2359:Generated_Source\PSoC4/CapSense_1_Processing.c **** *   If multiple sensors are active in row or column sensors, this API sets
2360:Generated_Source\PSoC4/CapSense_1_Processing.c **** *   the corresponding Data Structure registers to the CapSense_1_MATRIX_POS_MULTI
2361:Generated_Source\PSoC4/CapSense_1_Processing.c **** *   value which indicates that it is not possible to detect the touched button id.
2362:Generated_Source\PSoC4/CapSense_1_Processing.c **** *
2363:Generated_Source\PSoC4/CapSense_1_Processing.c **** *   This API is expected to be called after each new widget scan. If it is
ARM GAS  C:\Users\exp32\AppData\Local\Temp\ccki8209.s 			page 59


2364:Generated_Source\PSoC4/CapSense_1_Processing.c **** *   called multiple times for the same scan data, the debounce algorithm
2365:Generated_Source\PSoC4/CapSense_1_Processing.c **** *   will not work properly.
2366:Generated_Source\PSoC4/CapSense_1_Processing.c **** *
2367:Generated_Source\PSoC4/CapSense_1_Processing.c **** * \param currStatus   The current status of the widget sensors.
2368:Generated_Source\PSoC4/CapSense_1_Processing.c **** * \param ptrFlashWdgt The pointer to the Flash Widget Object.
2369:Generated_Source\PSoC4/CapSense_1_Processing.c **** *
2370:Generated_Source\PSoC4/CapSense_1_Processing.c **** * \return Returns the status of the widget's sensors. The row sensors occupy the
2371:Generated_Source\PSoC4/CapSense_1_Processing.c **** *         least significant bits and column sensors - the most significant bits.
2372:Generated_Source\PSoC4/CapSense_1_Processing.c **** *         Bit #0 - corresponds to Row Sensor #0.
2373:Generated_Source\PSoC4/CapSense_1_Processing.c **** *
2374:Generated_Source\PSoC4/CapSense_1_Processing.c **** *******************************************************************************/
2375:Generated_Source\PSoC4/CapSense_1_Processing.c **** uint32 CapSense_1_DpProcessCsdMatrix(uint32 currStatus, CapSense_1_FLASH_WD_STRUCT const *ptrFlashW
2376:Generated_Source\PSoC4/CapSense_1_Processing.c **** {
2377:Generated_Source\PSoC4/CapSense_1_Processing.c ****     uint32 snsId;
2378:Generated_Source\PSoC4/CapSense_1_Processing.c ****     uint32 snsMask;
2379:Generated_Source\PSoC4/CapSense_1_Processing.c ****     uint32 newStatus;
2380:Generated_Source\PSoC4/CapSense_1_Processing.c ****     uint32 touchTh;
2381:Generated_Source\PSoC4/CapSense_1_Processing.c ****     uint8 * ptrDebounceCnt;
2382:Generated_Source\PSoC4/CapSense_1_Processing.c ****     CapSense_1_RAM_SNS_STRUCT *ptrSnsTmp;
2383:Generated_Source\PSoC4/CapSense_1_Processing.c ****     CapSense_1_RAM_WD_CSD_MATRIX_STRUCT *ptrRamWdgt;
2384:Generated_Source\PSoC4/CapSense_1_Processing.c **** 
2385:Generated_Source\PSoC4/CapSense_1_Processing.c ****     uint32 numActiveRows = 0u;
2386:Generated_Source\PSoC4/CapSense_1_Processing.c ****     uint32 numActiveCols = 0u;
2387:Generated_Source\PSoC4/CapSense_1_Processing.c **** 
2388:Generated_Source\PSoC4/CapSense_1_Processing.c ****     uint32 activeRow = CapSense_1_MATRIX_POS_NONE;
2389:Generated_Source\PSoC4/CapSense_1_Processing.c ****     uint32 activeCol = CapSense_1_MATRIX_POS_NONE;
2390:Generated_Source\PSoC4/CapSense_1_Processing.c **** 
2391:Generated_Source\PSoC4/CapSense_1_Processing.c ****     ptrSnsTmp = ptrFlashWdgt->ptr2SnsRam;
2392:Generated_Source\PSoC4/CapSense_1_Processing.c ****     ptrRamWdgt = (CapSense_1_RAM_WD_CSD_MATRIX_STRUCT *)ptrFlashWdgt->ptr2WdgtRam;
2393:Generated_Source\PSoC4/CapSense_1_Processing.c ****     ptrDebounceCnt = ptrFlashWdgt->ptr2DebounceArr;
2394:Generated_Source\PSoC4/CapSense_1_Processing.c **** 
2395:Generated_Source\PSoC4/CapSense_1_Processing.c ****     /* Go through all widget's sensors */
2396:Generated_Source\PSoC4/CapSense_1_Processing.c ****     for (snsId = 0u; snsId < ptrFlashWdgt->totalNumSns; snsId++)
2397:Generated_Source\PSoC4/CapSense_1_Processing.c ****     {
2398:Generated_Source\PSoC4/CapSense_1_Processing.c ****         /* calculate current sensor mask */
2399:Generated_Source\PSoC4/CapSense_1_Processing.c ****         snsMask = 1Lu << snsId;
2400:Generated_Source\PSoC4/CapSense_1_Processing.c **** 
2401:Generated_Source\PSoC4/CapSense_1_Processing.c ****         /* Calculate touch threshold taking into account hysteresis and current sensor state. */
2402:Generated_Source\PSoC4/CapSense_1_Processing.c ****         touchTh = (0u == (currStatus & snsMask)) ?
2403:Generated_Source\PSoC4/CapSense_1_Processing.c ****                   ((uint32)ptrRamWdgt->fingerTh + ptrRamWdgt->hysteresis) :
2404:Generated_Source\PSoC4/CapSense_1_Processing.c ****                   ((uint32)ptrRamWdgt->fingerTh - ptrRamWdgt->hysteresis);
2405:Generated_Source\PSoC4/CapSense_1_Processing.c **** 
2406:Generated_Source\PSoC4/CapSense_1_Processing.c ****         /* Determine new potential sensor state */
2407:Generated_Source\PSoC4/CapSense_1_Processing.c ****         newStatus = (ptrSnsTmp->diff > touchTh) ? snsMask : 0u;
2408:Generated_Source\PSoC4/CapSense_1_Processing.c **** 
2409:Generated_Source\PSoC4/CapSense_1_Processing.c ****         /* Sensor state changed ? */
2410:Generated_Source\PSoC4/CapSense_1_Processing.c ****         if (newStatus != (currStatus & snsMask))
2411:Generated_Source\PSoC4/CapSense_1_Processing.c ****         {
2412:Generated_Source\PSoC4/CapSense_1_Processing.c ****             /* Decrement debounce counter */
2413:Generated_Source\PSoC4/CapSense_1_Processing.c ****             (*ptrDebounceCnt)--;
2414:Generated_Source\PSoC4/CapSense_1_Processing.c ****         }
2415:Generated_Source\PSoC4/CapSense_1_Processing.c **** 
2416:Generated_Source\PSoC4/CapSense_1_Processing.c ****         /* This piece of code has two objectives:
2417:Generated_Source\PSoC4/CapSense_1_Processing.c ****          * 1. Reset debounce counter if new sensor state has not changed.
2418:Generated_Source\PSoC4/CapSense_1_Processing.c ****          *    (It is possible that during previous processing cycles sensor state
2419:Generated_Source\PSoC4/CapSense_1_Processing.c ****          *     was changing which caused decrement of debounce counter.)
2420:Generated_Source\PSoC4/CapSense_1_Processing.c ****          * 2. Set new sensor state after successful debounce.
ARM GAS  C:\Users\exp32\AppData\Local\Temp\ccki8209.s 			page 60


2421:Generated_Source\PSoC4/CapSense_1_Processing.c ****          */
2422:Generated_Source\PSoC4/CapSense_1_Processing.c ****         if ((newStatus == (currStatus & snsMask)) || (0u == (*ptrDebounceCnt)))
2423:Generated_Source\PSoC4/CapSense_1_Processing.c ****         {
2424:Generated_Source\PSoC4/CapSense_1_Processing.c ****             /* Set new sensor status */
2425:Generated_Source\PSoC4/CapSense_1_Processing.c ****             currStatus &= ~snsMask;
2426:Generated_Source\PSoC4/CapSense_1_Processing.c ****             currStatus |= newStatus;
2427:Generated_Source\PSoC4/CapSense_1_Processing.c **** 
2428:Generated_Source\PSoC4/CapSense_1_Processing.c ****             if (0u == newStatus)
2429:Generated_Source\PSoC4/CapSense_1_Processing.c ****             {
2430:Generated_Source\PSoC4/CapSense_1_Processing.c ****                 /* Reset OFF->ON debounce counter */
2431:Generated_Source\PSoC4/CapSense_1_Processing.c ****                 *ptrDebounceCnt = ptrRamWdgt->onDebounce;
2432:Generated_Source\PSoC4/CapSense_1_Processing.c ****             }
2433:Generated_Source\PSoC4/CapSense_1_Processing.c ****             else
2434:Generated_Source\PSoC4/CapSense_1_Processing.c ****             {
2435:Generated_Source\PSoC4/CapSense_1_Processing.c ****                 /* Reset ON->OFF debounce counter */
2436:Generated_Source\PSoC4/CapSense_1_Processing.c ****                 #if (0u != CapSense_1_OFF_DEBOUNCE_EN)
2437:Generated_Source\PSoC4/CapSense_1_Processing.c ****                     *ptrDebounceCnt = ptrRamWdgt->offDebounce;
2438:Generated_Source\PSoC4/CapSense_1_Processing.c ****                 #else
2439:Generated_Source\PSoC4/CapSense_1_Processing.c ****                     *ptrDebounceCnt = DEFAULT_OFF_DEBOUNCE_VALUE;
2440:Generated_Source\PSoC4/CapSense_1_Processing.c ****                 #endif /* #if (0u != CapSense_1_OFF_DEBOUNCE_EN) */
2441:Generated_Source\PSoC4/CapSense_1_Processing.c ****             }
2442:Generated_Source\PSoC4/CapSense_1_Processing.c ****         }
2443:Generated_Source\PSoC4/CapSense_1_Processing.c **** 
2444:Generated_Source\PSoC4/CapSense_1_Processing.c ****         /* Update information about active row/col sensors */
2445:Generated_Source\PSoC4/CapSense_1_Processing.c ****         if (0u != (currStatus & snsMask))
2446:Generated_Source\PSoC4/CapSense_1_Processing.c ****         {
2447:Generated_Source\PSoC4/CapSense_1_Processing.c ****             if (snsId < ptrFlashWdgt->numCols)
2448:Generated_Source\PSoC4/CapSense_1_Processing.c ****             {
2449:Generated_Source\PSoC4/CapSense_1_Processing.c ****                 numActiveCols++;
2450:Generated_Source\PSoC4/CapSense_1_Processing.c ****                 activeCol = snsId;
2451:Generated_Source\PSoC4/CapSense_1_Processing.c ****             }
2452:Generated_Source\PSoC4/CapSense_1_Processing.c ****             else
2453:Generated_Source\PSoC4/CapSense_1_Processing.c ****             {
2454:Generated_Source\PSoC4/CapSense_1_Processing.c ****                 numActiveRows++;
2455:Generated_Source\PSoC4/CapSense_1_Processing.c ****                 activeRow = snsId - ptrFlashWdgt->numCols;
2456:Generated_Source\PSoC4/CapSense_1_Processing.c ****             }
2457:Generated_Source\PSoC4/CapSense_1_Processing.c ****         }
2458:Generated_Source\PSoC4/CapSense_1_Processing.c **** 
2459:Generated_Source\PSoC4/CapSense_1_Processing.c ****         ptrSnsTmp++;
2460:Generated_Source\PSoC4/CapSense_1_Processing.c ****         ptrDebounceCnt++;
2461:Generated_Source\PSoC4/CapSense_1_Processing.c ****     }
2462:Generated_Source\PSoC4/CapSense_1_Processing.c **** 
2463:Generated_Source\PSoC4/CapSense_1_Processing.c ****     /* Update row and col registers in data structure */
2464:Generated_Source\PSoC4/CapSense_1_Processing.c ****     ptrRamWdgt->posCol = (numActiveCols > 1u) ? CapSense_1_MATRIX_POS_MULTI : (uint8)activeCol;
2465:Generated_Source\PSoC4/CapSense_1_Processing.c ****     ptrRamWdgt->posRow = (numActiveRows > 1u) ? CapSense_1_MATRIX_POS_MULTI : (uint8)activeRow;
2466:Generated_Source\PSoC4/CapSense_1_Processing.c **** 
2467:Generated_Source\PSoC4/CapSense_1_Processing.c ****     /* If only one row and one column sensors are active update the sensor ID register */
2468:Generated_Source\PSoC4/CapSense_1_Processing.c ****     if ((1u == numActiveRows) && (1u == numActiveCols))
2469:Generated_Source\PSoC4/CapSense_1_Processing.c ****     {
2470:Generated_Source\PSoC4/CapSense_1_Processing.c ****         ptrRamWdgt->posSnsId = LO8((activeRow * ptrFlashWdgt->numCols) + activeCol);
2471:Generated_Source\PSoC4/CapSense_1_Processing.c ****     }
2472:Generated_Source\PSoC4/CapSense_1_Processing.c ****     else
2473:Generated_Source\PSoC4/CapSense_1_Processing.c ****     {
2474:Generated_Source\PSoC4/CapSense_1_Processing.c ****         ptrRamWdgt->posSnsId = CapSense_1_MATRIX_POS_NONE;
2475:Generated_Source\PSoC4/CapSense_1_Processing.c ****     }
2476:Generated_Source\PSoC4/CapSense_1_Processing.c **** 
2477:Generated_Source\PSoC4/CapSense_1_Processing.c ****     return currStatus;
ARM GAS  C:\Users\exp32\AppData\Local\Temp\ccki8209.s 			page 61


2478:Generated_Source\PSoC4/CapSense_1_Processing.c **** }
2479:Generated_Source\PSoC4/CapSense_1_Processing.c **** #endif /* #if (0u != CapSense_1_CSD_MATRIX_WIDGET_EN) */
2480:Generated_Source\PSoC4/CapSense_1_Processing.c **** 
2481:Generated_Source\PSoC4/CapSense_1_Processing.c **** 
2482:Generated_Source\PSoC4/CapSense_1_Processing.c **** #if (0u != CapSense_1_CSD_TOUCHPAD_WIDGET_EN)
2483:Generated_Source\PSoC4/CapSense_1_Processing.c **** /*******************************************************************************
2484:Generated_Source\PSoC4/CapSense_1_Processing.c **** * Function Name: CapSense_1_DpProcessCsdTouchpad
2485:Generated_Source\PSoC4/CapSense_1_Processing.c **** ****************************************************************************//**
2486:Generated_Source\PSoC4/CapSense_1_Processing.c **** *
2487:Generated_Source\PSoC4/CapSense_1_Processing.c **** * \brief
2488:Generated_Source\PSoC4/CapSense_1_Processing.c **** *   Processes status of the CSD Touchpad widget. This includes running
2489:Generated_Source\PSoC4/CapSense_1_Processing.c **** *   Centroid algorithm and updating status in the Data Structure registers.
2490:Generated_Source\PSoC4/CapSense_1_Processing.c **** *
2491:Generated_Source\PSoC4/CapSense_1_Processing.c **** * \details
2492:Generated_Source\PSoC4/CapSense_1_Processing.c **** *   Processes status of the CSD Touchpad widget. This includes running
2493:Generated_Source\PSoC4/CapSense_1_Processing.c **** *   Centroid algorithm and updating status in the Data Structure registers.
2494:Generated_Source\PSoC4/CapSense_1_Processing.c **** *   The status is updated in the RAM data structure.
2495:Generated_Source\PSoC4/CapSense_1_Processing.c **** *
2496:Generated_Source\PSoC4/CapSense_1_Processing.c **** * \param currStatus   The current status of the widget sensors.
2497:Generated_Source\PSoC4/CapSense_1_Processing.c **** * \param ptrFlashWdgt The pointer to the Flash Widget Object.
2498:Generated_Source\PSoC4/CapSense_1_Processing.c **** *
2499:Generated_Source\PSoC4/CapSense_1_Processing.c **** * \return Returns the status of the widget's sensors. The row sensors occupy the
2500:Generated_Source\PSoC4/CapSense_1_Processing.c **** *         least significant bits and column sensors - the most significant bits.
2501:Generated_Source\PSoC4/CapSense_1_Processing.c **** *         Bit #0 - corresponds to Row Sensor #0.
2502:Generated_Source\PSoC4/CapSense_1_Processing.c **** *
2503:Generated_Source\PSoC4/CapSense_1_Processing.c **** *******************************************************************************/
2504:Generated_Source\PSoC4/CapSense_1_Processing.c **** uint32 CapSense_1_DpProcessCsdTouchpad(uint32 currStatus, CapSense_1_FLASH_WD_STRUCT const *ptrFlas
2505:Generated_Source\PSoC4/CapSense_1_Processing.c **** {
 887              		.loc 1 2505 0
 888              		.cfi_startproc
 889              		@ args = 0, pretend = 0, frame = 8
 890              		@ frame_needed = 0, uses_anonymous_args = 0
 891              	.LVL151:
 892 0000 F0B5     		push	{r4, r5, r6, r7, lr}
 893              		.cfi_def_cfa_offset 20
 894              		.cfi_offset 4, -20
 895              		.cfi_offset 5, -16
 896              		.cfi_offset 6, -12
 897              		.cfi_offset 7, -8
 898              		.cfi_offset 14, -4
 899 0002 5746     		mov	r7, r10
 900 0004 4E46     		mov	r6, r9
 901 0006 4546     		mov	r5, r8
 902 0008 E0B4     		push	{r5, r6, r7}
 903              		.cfi_def_cfa_offset 32
 904              		.cfi_offset 8, -32
 905              		.cfi_offset 9, -28
 906              		.cfi_offset 10, -24
 907 000a 82B0     		sub	sp, sp, #8
 908              		.cfi_def_cfa_offset 40
 909 000c 8146     		mov	r9, r0
 910 000e 0E00     		movs	r6, r1
 911              	.LVL152:
2506:Generated_Source\PSoC4/CapSense_1_Processing.c ****     uint32 snsCnt;
2507:Generated_Source\PSoC4/CapSense_1_Processing.c ****     uint32 snsMask;
2508:Generated_Source\PSoC4/CapSense_1_Processing.c ****     uint32 touchTh;
2509:Generated_Source\PSoC4/CapSense_1_Processing.c ****     uint32 rowSnsMask;
ARM GAS  C:\Users\exp32\AppData\Local\Temp\ccki8209.s 			page 62


2510:Generated_Source\PSoC4/CapSense_1_Processing.c ****     uint32 colSnsMask;
2511:Generated_Source\PSoC4/CapSense_1_Processing.c ****     uint32 newStatus = 0Lu;
2512:Generated_Source\PSoC4/CapSense_1_Processing.c ****     uint8 * ptrDebounceCnt;
2513:Generated_Source\PSoC4/CapSense_1_Processing.c ****     CapSense_1_RAM_SNS_STRUCT *ptrSnsTmp;
2514:Generated_Source\PSoC4/CapSense_1_Processing.c ****     CapSense_1_RAM_WD_CSD_TOUCHPAD_STRUCT *ptrRamWdgt;
2515:Generated_Source\PSoC4/CapSense_1_Processing.c **** 
2516:Generated_Source\PSoC4/CapSense_1_Processing.c ****     #if (CapSense_1_ENABLE == CapSense_1_CENTROID_3X3_CSD_EN)
2517:Generated_Source\PSoC4/CapSense_1_Processing.c ****         uint16 posXTmp;
2518:Generated_Source\PSoC4/CapSense_1_Processing.c ****         uint16 posYTmp;
2519:Generated_Source\PSoC4/CapSense_1_Processing.c ****         uint32 numLocalMax;
2520:Generated_Source\PSoC4/CapSense_1_Processing.c ****     #endif
2521:Generated_Source\PSoC4/CapSense_1_Processing.c **** 
2522:Generated_Source\PSoC4/CapSense_1_Processing.c ****     #if (CapSense_1_ENABLE == CapSense_1_CENTROID_5X5_CSD_EN)
2523:Generated_Source\PSoC4/CapSense_1_Processing.c ****         uint32 i;
2524:Generated_Source\PSoC4/CapSense_1_Processing.c ****         uint16 snsDiff[CapSense_1_MAX_SENSORS_PER_5X5_TOUCHPAD];
2525:Generated_Source\PSoC4/CapSense_1_Processing.c ****         ADVANCED_CENTROID_CONFIG_STRUCT config5X5;
2526:Generated_Source\PSoC4/CapSense_1_Processing.c ****         ADVANCED_CENTROID_CONTEXT_STRUCT context5X5;
2527:Generated_Source\PSoC4/CapSense_1_Processing.c ****         #if (0u != CapSense_1_POSITION_FILTER_EN)
2528:Generated_Source\PSoC4/CapSense_1_Processing.c ****             uint16 filteredX;
2529:Generated_Source\PSoC4/CapSense_1_Processing.c ****             uint16 filteredY;
2530:Generated_Source\PSoC4/CapSense_1_Processing.c ****             uint16 curPosX[ADVANCED_CENTROID_MAX_TOUCHES];
2531:Generated_Source\PSoC4/CapSense_1_Processing.c ****         #endif /* (0u != CapSense_1_POSITION_FILTER_EN) */
2532:Generated_Source\PSoC4/CapSense_1_Processing.c ****     #endif
2533:Generated_Source\PSoC4/CapSense_1_Processing.c **** 
2534:Generated_Source\PSoC4/CapSense_1_Processing.c ****     #if (0u != CapSense_1_POSITION_FILTER_EN)
2535:Generated_Source\PSoC4/CapSense_1_Processing.c ****         CapSense_1_TOUCHPAD_POS_HISTORY_STRUCT *ptrHistory;
2536:Generated_Source\PSoC4/CapSense_1_Processing.c ****     #endif /* (0u != CapSense_1_POSITION_FILTER_EN) */
2537:Generated_Source\PSoC4/CapSense_1_Processing.c **** 
2538:Generated_Source\PSoC4/CapSense_1_Processing.c ****     snsCnt = ptrFlashWdgt->totalNumSns;
 912              		.loc 1 2538 0
 913 0010 0B8B     		ldrh	r3, [r1, #24]
 914              	.LVL153:
2539:Generated_Source\PSoC4/CapSense_1_Processing.c ****     ptrSnsTmp = ptrFlashWdgt->ptr2SnsRam;
 915              		.loc 1 2539 0
 916 0012 8A68     		ldr	r2, [r1, #8]
 917              	.LVL154:
2540:Generated_Source\PSoC4/CapSense_1_Processing.c ****     ptrRamWdgt = (CapSense_1_RAM_WD_CSD_TOUCHPAD_STRUCT *)ptrFlashWdgt->ptr2WdgtRam;
 918              		.loc 1 2540 0
 919 0014 4F68     		ldr	r7, [r1, #4]
 920              	.LVL155:
2541:Generated_Source\PSoC4/CapSense_1_Processing.c ****     ptrDebounceCnt = ptrFlashWdgt->ptr2DebounceArr;
 921              		.loc 1 2541 0
 922 0016 0969     		ldr	r1, [r1, #16]
 923              	.LVL156:
 924 0018 8A46     		mov	r10, r1
 925              	.LVL157:
2542:Generated_Source\PSoC4/CapSense_1_Processing.c **** 
2543:Generated_Source\PSoC4/CapSense_1_Processing.c ****     #if (0u != CapSense_1_POSITION_FILTER_EN)
2544:Generated_Source\PSoC4/CapSense_1_Processing.c ****         ptrHistory = ptrFlashWdgt->ptr2PosHistory;
2545:Generated_Source\PSoC4/CapSense_1_Processing.c ****     #endif /* (0u != CapSense_1_POSITION_FILTER_EN) */
2546:Generated_Source\PSoC4/CapSense_1_Processing.c **** 
2547:Generated_Source\PSoC4/CapSense_1_Processing.c ****     /* Build masks for status word of row and column sensors */
2548:Generated_Source\PSoC4/CapSense_1_Processing.c ****     colSnsMask = (1Lu << ptrFlashWdgt->numCols) - 1Lu;
 926              		.loc 1 2548 0
 927 001a F07E     		ldrb	r0, [r6, #27]
 928              	.LVL158:
 929 001c 0121     		movs	r1, #1
ARM GAS  C:\Users\exp32\AppData\Local\Temp\ccki8209.s 			page 63


 930              	.LVL159:
 931 001e 0C00     		movs	r4, r1
 932 0020 8440     		lsls	r4, r4, r0
 933 0022 013C     		subs	r4, r4, #1
 934 0024 A046     		mov	r8, r4
 935              	.LVL160:
2549:Generated_Source\PSoC4/CapSense_1_Processing.c ****     rowSnsMask = (1Lu << ptrFlashWdgt->numRows) - 1Lu;
 936              		.loc 1 2549 0
 937 0026 347F     		ldrb	r4, [r6, #28]
 938              	.LVL161:
 939 0028 A140     		lsls	r1, r1, r4
 940 002a 0139     		subs	r1, r1, #1
 941              	.LVL162:
2550:Generated_Source\PSoC4/CapSense_1_Processing.c ****     rowSnsMask <<= ptrFlashWdgt->numCols;
 942              		.loc 1 2550 0
 943 002c 8140     		lsls	r1, r1, r0
 944              	.LVL163:
 945 002e 8C46     		mov	ip, r1
 946              	.LVL164:
2551:Generated_Source\PSoC4/CapSense_1_Processing.c **** 
2552:Generated_Source\PSoC4/CapSense_1_Processing.c ****     /* Calculate touch threshold based on current touchpad state */
2553:Generated_Source\PSoC4/CapSense_1_Processing.c ****     touchTh = (0Lu == currStatus) ?
2554:Generated_Source\PSoC4/CapSense_1_Processing.c ****               ((uint32)ptrRamWdgt->fingerTh + ptrRamWdgt->hysteresis) :
 947              		.loc 1 2554 0
 948 0030 4946     		mov	r1, r9
 949              	.LVL165:
 950 0032 0029     		cmp	r1, #0
 951 0034 03D1     		bne	.L59
 952              		.loc 1 2554 0 is_stmt 0 discriminator 1
 953 0036 7888     		ldrh	r0, [r7, #2]
 954 0038 B979     		ldrb	r1, [r7, #6]
 955 003a 4018     		adds	r0, r0, r1
 956 003c 02E0     		b	.L60
 957              	.LVL166:
 958              	.L59:
2555:Generated_Source\PSoC4/CapSense_1_Processing.c ****               ((uint32)ptrRamWdgt->fingerTh - ptrRamWdgt->hysteresis);
 959              		.loc 1 2555 0 is_stmt 1 discriminator 2
 960 003e 7888     		ldrh	r0, [r7, #2]
 961 0040 B979     		ldrb	r1, [r7, #6]
 962              	.LVL167:
2554:Generated_Source\PSoC4/CapSense_1_Processing.c ****               ((uint32)ptrRamWdgt->fingerTh - ptrRamWdgt->hysteresis);
 963              		.loc 1 2554 0 discriminator 2
 964 0042 401A     		subs	r0, r0, r1
 965              	.L60:
 966              	.LVL168:
2511:Generated_Source\PSoC4/CapSense_1_Processing.c ****     uint8 * ptrDebounceCnt;
 967              		.loc 1 2511 0
 968 0044 0024     		movs	r4, #0
2556:Generated_Source\PSoC4/CapSense_1_Processing.c **** 
2557:Generated_Source\PSoC4/CapSense_1_Processing.c ****     /* Go through all widget's sensors */
2558:Generated_Source\PSoC4/CapSense_1_Processing.c ****     snsMask = 1Lu;
 969              		.loc 1 2558 0
 970 0046 0121     		movs	r1, #1
2559:Generated_Source\PSoC4/CapSense_1_Processing.c ****     for (; snsCnt-- > 0Lu;)
 971              		.loc 1 2559 0
 972 0048 09E0     		b	.L61
 973              	.LVL169:
ARM GAS  C:\Users\exp32\AppData\Local\Temp\ccki8209.s 			page 64


 974              	.L63:
2560:Generated_Source\PSoC4/CapSense_1_Processing.c ****     {
2561:Generated_Source\PSoC4/CapSense_1_Processing.c ****         /* Determine new potential sensor state */
2562:Generated_Source\PSoC4/CapSense_1_Processing.c ****         newStatus |= (ptrSnsTmp->diff > touchTh) ? snsMask : 0Lu;
 975              		.loc 1 2562 0
 976 004a D388     		ldrh	r3, [r2, #6]
 977 004c 9842     		cmp	r0, r3
 978 004e 01D3     		bcc	.L71
 979 0050 0023     		movs	r3, #0
 980 0052 00E0     		b	.L62
 981              	.L71:
 982 0054 0B00     		movs	r3, r1
 983              	.L62:
 984              		.loc 1 2562 0 is_stmt 0 discriminator 4
 985 0056 1C43     		orrs	r4, r3
 986              	.LVL170:
2563:Generated_Source\PSoC4/CapSense_1_Processing.c ****         ptrSnsTmp++;
 987              		.loc 1 2563 0 is_stmt 1 discriminator 4
 988 0058 0A32     		adds	r2, r2, #10
 989              	.LVL171:
2564:Generated_Source\PSoC4/CapSense_1_Processing.c **** 
2565:Generated_Source\PSoC4/CapSense_1_Processing.c ****         snsMask <<= 1u;
 990              		.loc 1 2565 0 discriminator 4
 991 005a 4900     		lsls	r1, r1, #1
 992              	.LVL172:
2559:Generated_Source\PSoC4/CapSense_1_Processing.c ****     {
 993              		.loc 1 2559 0 discriminator 4
 994 005c 2B00     		movs	r3, r5
 995              	.LVL173:
 996              	.L61:
2559:Generated_Source\PSoC4/CapSense_1_Processing.c ****     {
 997              		.loc 1 2559 0 is_stmt 0
 998 005e 5D1E     		subs	r5, r3, #1
 999              	.LVL174:
 1000 0060 002B     		cmp	r3, #0
 1001 0062 F2D1     		bne	.L63
2566:Generated_Source\PSoC4/CapSense_1_Processing.c ****     }
2567:Generated_Source\PSoC4/CapSense_1_Processing.c **** 
2568:Generated_Source\PSoC4/CapSense_1_Processing.c ****     /* If widget is active perform the debounce.
2569:Generated_Source\PSoC4/CapSense_1_Processing.c ****      * Widget is considered as active if at least one sensor is active on both axes.
2570:Generated_Source\PSoC4/CapSense_1_Processing.c ****      */
2571:Generated_Source\PSoC4/CapSense_1_Processing.c ****     if (((newStatus & rowSnsMask) > 0u) && ((newStatus & colSnsMask) > 0u))
 1002              		.loc 1 2571 0 is_stmt 1
 1003 0064 6346     		mov	r3, ip
 1004 0066 2342     		tst	r3, r4
 1005 0068 0FD0     		beq	.L64
 1006              	.LVL175:
 1007              		.loc 1 2571 0 is_stmt 0 discriminator 1
 1008 006a 4346     		mov	r3, r8
 1009              	.LVL176:
 1010 006c 2342     		tst	r3, r4
 1011 006e 0CD0     		beq	.L64
 1012              	.LVL177:
2572:Generated_Source\PSoC4/CapSense_1_Processing.c ****     {
2573:Generated_Source\PSoC4/CapSense_1_Processing.c ****         if (0u < (*ptrDebounceCnt))
 1013              		.loc 1 2573 0 is_stmt 1
 1014 0070 5346     		mov	r3, r10
ARM GAS  C:\Users\exp32\AppData\Local\Temp\ccki8209.s 			page 65


 1015              	.LVL178:
 1016 0072 1B78     		ldrb	r3, [r3]
 1017 0074 002B     		cmp	r3, #0
 1018 0076 02D0     		beq	.L65
2574:Generated_Source\PSoC4/CapSense_1_Processing.c ****         {
2575:Generated_Source\PSoC4/CapSense_1_Processing.c ****             /* Decrement debounce counter */
2576:Generated_Source\PSoC4/CapSense_1_Processing.c ****             (*ptrDebounceCnt)--;
 1019              		.loc 1 2576 0
 1020 0078 013B     		subs	r3, r3, #1
 1021 007a 5246     		mov	r2, r10
 1022              	.LVL179:
 1023 007c 1370     		strb	r3, [r2]
 1024              	.L65:
2577:Generated_Source\PSoC4/CapSense_1_Processing.c ****         }
2578:Generated_Source\PSoC4/CapSense_1_Processing.c **** 
2579:Generated_Source\PSoC4/CapSense_1_Processing.c ****         if (0u == (*ptrDebounceCnt))
 1025              		.loc 1 2579 0
 1026 007e 5346     		mov	r3, r10
 1027 0080 1B78     		ldrb	r3, [r3]
 1028 0082 002B     		cmp	r3, #0
 1029 0084 0ED0     		beq	.L66
 1030 0086 4C46     		mov	r4, r9
 1031              	.LVL180:
 1032 0088 0CE0     		b	.L66
 1033              	.LVL181:
 1034              	.L64:
2580:Generated_Source\PSoC4/CapSense_1_Processing.c ****         {
2581:Generated_Source\PSoC4/CapSense_1_Processing.c ****             /* Update slider sensor state when debounce completes */
2582:Generated_Source\PSoC4/CapSense_1_Processing.c ****             currStatus = newStatus;
2583:Generated_Source\PSoC4/CapSense_1_Processing.c ****         }
2584:Generated_Source\PSoC4/CapSense_1_Processing.c ****     }
2585:Generated_Source\PSoC4/CapSense_1_Processing.c ****     else
2586:Generated_Source\PSoC4/CapSense_1_Processing.c ****     {
2587:Generated_Source\PSoC4/CapSense_1_Processing.c ****         /* If widget is not active: */
2588:Generated_Source\PSoC4/CapSense_1_Processing.c **** 
2589:Generated_Source\PSoC4/CapSense_1_Processing.c ****         /* Reset debounce counter */
2590:Generated_Source\PSoC4/CapSense_1_Processing.c ****         *ptrDebounceCnt = ptrRamWdgt->onDebounce;
 1035              		.loc 1 2590 0
 1036 008a FB79     		ldrb	r3, [r7, #7]
 1037 008c 5246     		mov	r2, r10
 1038              	.LVL182:
 1039 008e 1370     		strb	r3, [r2]
 1040              	.LVL183:
2591:Generated_Source\PSoC4/CapSense_1_Processing.c **** 
2592:Generated_Source\PSoC4/CapSense_1_Processing.c ****         /* Reset current sensor state */
2593:Generated_Source\PSoC4/CapSense_1_Processing.c ****         currStatus = 0Lu;
2594:Generated_Source\PSoC4/CapSense_1_Processing.c **** 
2595:Generated_Source\PSoC4/CapSense_1_Processing.c ****         /* Clear centroid position data for 5x5 CSD touchpad */
2596:Generated_Source\PSoC4/CapSense_1_Processing.c ****         #if (CapSense_1_ENABLE == CapSense_1_CENTROID_5X5_CSD_EN)
2597:Generated_Source\PSoC4/CapSense_1_Processing.c ****             if (0u != (ptrFlashWdgt->staticConfig & CapSense_1_CENTROID_5X5_MASK))
2598:Generated_Source\PSoC4/CapSense_1_Processing.c ****             {
2599:Generated_Source\PSoC4/CapSense_1_Processing.c ****                 ptrRamWdgt->position.touchNum = 0u;
2600:Generated_Source\PSoC4/CapSense_1_Processing.c ****                 for (i = 0u; i < ADVANCED_CENTROID_MAX_TOUCHES; i++)
2601:Generated_Source\PSoC4/CapSense_1_Processing.c ****                 {
2602:Generated_Source\PSoC4/CapSense_1_Processing.c ****                     ptrRamWdgt->position.pos[i].x = ADVANCED_CENTROID_POSITION_NONE;
2603:Generated_Source\PSoC4/CapSense_1_Processing.c ****                     ptrRamWdgt->position.pos[i].y = ADVANCED_CENTROID_POSITION_NONE;
2604:Generated_Source\PSoC4/CapSense_1_Processing.c ****                     ptrRamWdgt->position.pos[i].zX = ADVANCED_CENTROID_POSITION_NONE;
ARM GAS  C:\Users\exp32\AppData\Local\Temp\ccki8209.s 			page 66


2605:Generated_Source\PSoC4/CapSense_1_Processing.c ****                     ptrRamWdgt->position.pos[i].zY = ADVANCED_CENTROID_POSITION_NONE;
2606:Generated_Source\PSoC4/CapSense_1_Processing.c **** 
2607:Generated_Source\PSoC4/CapSense_1_Processing.c ****                     /* Clear position filter history data if available */
2608:Generated_Source\PSoC4/CapSense_1_Processing.c ****                     #if (0u != CapSense_1_POSITION_FILTER_EN)
2609:Generated_Source\PSoC4/CapSense_1_Processing.c ****                         if (NULL != ptrHistory)
2610:Generated_Source\PSoC4/CapSense_1_Processing.c ****                         {
2611:Generated_Source\PSoC4/CapSense_1_Processing.c ****                             CapSense_1_InitPosFiltersDd(&ptrHistory[i], CapSense_1_TOUCHPAD_POS_NON
2612:Generated_Source\PSoC4/CapSense_1_Processing.c ****                                                             CapSense_1_TOUCHPAD_POS_NONE);
2613:Generated_Source\PSoC4/CapSense_1_Processing.c ****                         }
2614:Generated_Source\PSoC4/CapSense_1_Processing.c ****                     #endif /* (0u != CapSense_1_POSITION_FILTER_EN) */
2615:Generated_Source\PSoC4/CapSense_1_Processing.c ****                 }
2616:Generated_Source\PSoC4/CapSense_1_Processing.c ****             }
2617:Generated_Source\PSoC4/CapSense_1_Processing.c ****         #endif
2618:Generated_Source\PSoC4/CapSense_1_Processing.c **** 
2619:Generated_Source\PSoC4/CapSense_1_Processing.c ****         /* Clear centroid position data for 3x3 CSD touchpad */
2620:Generated_Source\PSoC4/CapSense_1_Processing.c ****         #if (CapSense_1_ENABLE == CapSense_1_CENTROID_3X3_CSD_EN)
2621:Generated_Source\PSoC4/CapSense_1_Processing.c ****             if (0u != (ptrFlashWdgt->staticConfig & CapSense_1_CENTROID_3X3_MASK))
 1041              		.loc 1 2621 0
 1042 0090 7369     		ldr	r3, [r6, #20]
 1043 0092 1B05     		lsls	r3, r3, #20
 1044 0094 05D5     		bpl	.L72
 1045              	.LVL184:
2622:Generated_Source\PSoC4/CapSense_1_Processing.c ****             {
2623:Generated_Source\PSoC4/CapSense_1_Processing.c ****                 ptrRamWdgt->posX = CapSense_1_TOUCHPAD_POS_NONE;
 1046              		.loc 1 2623 0
 1047 0096 0123     		movs	r3, #1
 1048 0098 5B42     		rsbs	r3, r3, #0
 1049 009a FB82     		strh	r3, [r7, #22]
2624:Generated_Source\PSoC4/CapSense_1_Processing.c ****                 ptrRamWdgt->posY = CapSense_1_TOUCHPAD_POS_NONE;
 1050              		.loc 1 2624 0
 1051 009c 3B83     		strh	r3, [r7, #24]
2593:Generated_Source\PSoC4/CapSense_1_Processing.c **** 
 1052              		.loc 1 2593 0
 1053 009e 0024     		movs	r4, #0
 1054              	.LVL185:
 1055 00a0 00E0     		b	.L66
 1056              	.LVL186:
 1057              	.L72:
 1058 00a2 0024     		movs	r4, #0
 1059              	.LVL187:
 1060              	.L66:
2625:Generated_Source\PSoC4/CapSense_1_Processing.c **** 
2626:Generated_Source\PSoC4/CapSense_1_Processing.c ****                 /* Clear position filter history data if available */
2627:Generated_Source\PSoC4/CapSense_1_Processing.c ****                 #if (0u != CapSense_1_POSITION_FILTER_EN)
2628:Generated_Source\PSoC4/CapSense_1_Processing.c ****                     if (NULL != ptrHistory)
2629:Generated_Source\PSoC4/CapSense_1_Processing.c ****                     {
2630:Generated_Source\PSoC4/CapSense_1_Processing.c ****                         CapSense_1_InitPosFiltersDd(ptrHistory, CapSense_1_TOUCHPAD_POS_NONE,
2631:Generated_Source\PSoC4/CapSense_1_Processing.c ****                                                             CapSense_1_TOUCHPAD_POS_NONE);
2632:Generated_Source\PSoC4/CapSense_1_Processing.c ****                     }
2633:Generated_Source\PSoC4/CapSense_1_Processing.c ****                 #endif /* (0u != CapSense_1_POSITION_FILTER_EN) */
2634:Generated_Source\PSoC4/CapSense_1_Processing.c ****             }
2635:Generated_Source\PSoC4/CapSense_1_Processing.c ****         #endif
2636:Generated_Source\PSoC4/CapSense_1_Processing.c ****     }
2637:Generated_Source\PSoC4/CapSense_1_Processing.c **** 
2638:Generated_Source\PSoC4/CapSense_1_Processing.c ****     /* If widget is still active after debounce run the centroid algorithm */
2639:Generated_Source\PSoC4/CapSense_1_Processing.c ****     if (0Lu != currStatus)
 1061              		.loc 1 2639 0
ARM GAS  C:\Users\exp32\AppData\Local\Temp\ccki8209.s 			page 67


 1062 00a4 002C     		cmp	r4, #0
 1063 00a6 3ED0     		beq	.L67
2640:Generated_Source\PSoC4/CapSense_1_Processing.c ****     {
2641:Generated_Source\PSoC4/CapSense_1_Processing.c ****         /* 5x5 CSD Touchpad processing */
2642:Generated_Source\PSoC4/CapSense_1_Processing.c ****         #if (CapSense_1_ENABLE == CapSense_1_CENTROID_5X5_CSD_EN)
2643:Generated_Source\PSoC4/CapSense_1_Processing.c ****             if (0u != (ptrFlashWdgt->staticConfig & CapSense_1_CENTROID_5X5_MASK))
2644:Generated_Source\PSoC4/CapSense_1_Processing.c ****             {
2645:Generated_Source\PSoC4/CapSense_1_Processing.c ****                 /* Init advanced centroid configuration structure */
2646:Generated_Source\PSoC4/CapSense_1_Processing.c ****                 config5X5.fingerTh = (uint16)ptrRamWdgt->fingerTh;
2647:Generated_Source\PSoC4/CapSense_1_Processing.c ****                 config5X5.penultimateTh = ptrRamWdgt->edgePenultimateTh;
2648:Generated_Source\PSoC4/CapSense_1_Processing.c ****                 config5X5.virtualSnsTh = ptrRamWdgt->edgeVirtualSensorTh;
2649:Generated_Source\PSoC4/CapSense_1_Processing.c ****                 config5X5.resolutionX = ptrFlashWdgt->xResolution;
2650:Generated_Source\PSoC4/CapSense_1_Processing.c ****                 config5X5.resolutionY = ptrFlashWdgt->yResolution;
2651:Generated_Source\PSoC4/CapSense_1_Processing.c ****                 config5X5.crossCouplingTh = ptrRamWdgt->crossCouplingPosTh;
2652:Generated_Source\PSoC4/CapSense_1_Processing.c ****                 config5X5.snsCountX = ptrFlashWdgt->numCols;
2653:Generated_Source\PSoC4/CapSense_1_Processing.c ****                 config5X5.snsCountY = ptrFlashWdgt->numRows;
2654:Generated_Source\PSoC4/CapSense_1_Processing.c ****                 config5X5.edgeCorrectionEn = (uint8)((ptrFlashWdgt->staticConfig & CapSense_1_EDGE_
2655:Generated_Source\PSoC4/CapSense_1_Processing.c ****                                             CapSense_1_EDGE_CORRECTION_SHIFT);
2656:Generated_Source\PSoC4/CapSense_1_Processing.c ****                 config5X5.twoFingersEn = (uint8)((ptrFlashWdgt->staticConfig & CapSense_1_TWO_FINGE
2657:Generated_Source\PSoC4/CapSense_1_Processing.c ****                                             CapSense_1_TWO_FINGER_DETECTION_SHIFT);
2658:Generated_Source\PSoC4/CapSense_1_Processing.c **** 
2659:Generated_Source\PSoC4/CapSense_1_Processing.c ****                 /* Collect sensor differences into an array */
2660:Generated_Source\PSoC4/CapSense_1_Processing.c ****                 ptrSnsTmp = ptrFlashWdgt->ptr2SnsRam;
2661:Generated_Source\PSoC4/CapSense_1_Processing.c ****                 for (i = 0u; i < ptrFlashWdgt->totalNumSns; i++)
2662:Generated_Source\PSoC4/CapSense_1_Processing.c ****                 {
2663:Generated_Source\PSoC4/CapSense_1_Processing.c ****                     snsDiff[i] = ptrSnsTmp->diff;
2664:Generated_Source\PSoC4/CapSense_1_Processing.c ****                     ptrSnsTmp++;
2665:Generated_Source\PSoC4/CapSense_1_Processing.c ****                 }
2666:Generated_Source\PSoC4/CapSense_1_Processing.c **** 
2667:Generated_Source\PSoC4/CapSense_1_Processing.c ****                 context5X5.ptrSns = snsDiff;
2668:Generated_Source\PSoC4/CapSense_1_Processing.c ****                 context5X5.touch = &ptrRamWdgt->position;
2669:Generated_Source\PSoC4/CapSense_1_Processing.c **** 
2670:Generated_Source\PSoC4/CapSense_1_Processing.c ****                 /* Save current position */
2671:Generated_Source\PSoC4/CapSense_1_Processing.c ****                 #if (0u != CapSense_1_POSITION_FILTER_EN)
2672:Generated_Source\PSoC4/CapSense_1_Processing.c ****                     /* Do it for each detected position */
2673:Generated_Source\PSoC4/CapSense_1_Processing.c ****                     for (i = 0u; i < ADVANCED_CENTROID_MAX_TOUCHES; i++)
2674:Generated_Source\PSoC4/CapSense_1_Processing.c ****                     {
2675:Generated_Source\PSoC4/CapSense_1_Processing.c ****                         curPosX[i] = ptrRamWdgt->position.pos[i].x;
2676:Generated_Source\PSoC4/CapSense_1_Processing.c ****                     }
2677:Generated_Source\PSoC4/CapSense_1_Processing.c ****                 #endif /* (0u != CapSense_1_POSITION_FILTER_EN) */
2678:Generated_Source\PSoC4/CapSense_1_Processing.c **** 
2679:Generated_Source\PSoC4/CapSense_1_Processing.c ****                 /*
2680:Generated_Source\PSoC4/CapSense_1_Processing.c ****                 * Calculate Advanced centroid.
2681:Generated_Source\PSoC4/CapSense_1_Processing.c ****                 * One of the function arguments is pointer to touch position structure. It is suppo
2682:Generated_Source\PSoC4/CapSense_1_Processing.c ****                 * the function stores into the structure detected touches. If touch is not detected
2683:Generated_Source\PSoC4/CapSense_1_Processing.c ****                 * corresponding structure fields are filled in by ADVANCED_CENTROID_POSITION_NONE.
2684:Generated_Source\PSoC4/CapSense_1_Processing.c ****                 */
2685:Generated_Source\PSoC4/CapSense_1_Processing.c ****                 (void)AdvancedCentroid_GetTouchCoordinates(&config5X5, &context5X5);
2686:Generated_Source\PSoC4/CapSense_1_Processing.c **** 
2687:Generated_Source\PSoC4/CapSense_1_Processing.c ****                 /* Now filter the X and Y position data if configured */
2688:Generated_Source\PSoC4/CapSense_1_Processing.c ****                 #if (0u != CapSense_1_POSITION_FILTER_EN)
2689:Generated_Source\PSoC4/CapSense_1_Processing.c ****                     /* Clear filter history for empty slots */
2690:Generated_Source\PSoC4/CapSense_1_Processing.c ****                     for (i = ptrRamWdgt->position.touchNum; i < ADVANCED_CENTROID_MAX_TOUCHES; i++)
2691:Generated_Source\PSoC4/CapSense_1_Processing.c ****                     {
2692:Generated_Source\PSoC4/CapSense_1_Processing.c ****                         if (NULL != ptrHistory)
2693:Generated_Source\PSoC4/CapSense_1_Processing.c ****                         {
2694:Generated_Source\PSoC4/CapSense_1_Processing.c ****                             CapSense_1_InitPosFiltersDd(&ptrHistory[i], CapSense_1_TOUCHPAD_POS_NON
ARM GAS  C:\Users\exp32\AppData\Local\Temp\ccki8209.s 			page 68


2695:Generated_Source\PSoC4/CapSense_1_Processing.c ****                                                                     CapSense_1_TOUCHPAD_POS_NONE);
2696:Generated_Source\PSoC4/CapSense_1_Processing.c ****                         }
2697:Generated_Source\PSoC4/CapSense_1_Processing.c ****                     }
2698:Generated_Source\PSoC4/CapSense_1_Processing.c ****                     /* Filter position for detected touches */
2699:Generated_Source\PSoC4/CapSense_1_Processing.c ****                     for (i = 0u; i < ptrRamWdgt->position.touchNum; i++)
2700:Generated_Source\PSoC4/CapSense_1_Processing.c ****                     {
2701:Generated_Source\PSoC4/CapSense_1_Processing.c ****                         filteredX = ptrRamWdgt->position.pos[i].x;
2702:Generated_Source\PSoC4/CapSense_1_Processing.c ****                         filteredY = ptrRamWdgt->position.pos[i].y;
2703:Generated_Source\PSoC4/CapSense_1_Processing.c **** 
2704:Generated_Source\PSoC4/CapSense_1_Processing.c ****                         /* If there were no touch initialize the current position with new position
2705:Generated_Source\PSoC4/CapSense_1_Processing.c ****                         if (curPosX[i] == CapSense_1_TOUCHPAD_POS_NONE)
2706:Generated_Source\PSoC4/CapSense_1_Processing.c ****                         {
2707:Generated_Source\PSoC4/CapSense_1_Processing.c ****                             if (NULL != ptrHistory)
2708:Generated_Source\PSoC4/CapSense_1_Processing.c ****                             {
2709:Generated_Source\PSoC4/CapSense_1_Processing.c ****                                 CapSense_1_InitPosFiltersDd(&ptrHistory[i], filteredX, filteredY);
2710:Generated_Source\PSoC4/CapSense_1_Processing.c ****                             }
2711:Generated_Source\PSoC4/CapSense_1_Processing.c ****                         }
2712:Generated_Source\PSoC4/CapSense_1_Processing.c ****                         else
2713:Generated_Source\PSoC4/CapSense_1_Processing.c ****                         {
2714:Generated_Source\PSoC4/CapSense_1_Processing.c ****                             CapSense_1_RunPosFiltersDd(ptrFlashWdgt, i, i, &filteredX, &filteredY);
2715:Generated_Source\PSoC4/CapSense_1_Processing.c ****                             ptrRamWdgt->position.pos[i].x = filteredX;
2716:Generated_Source\PSoC4/CapSense_1_Processing.c ****                             ptrRamWdgt->position.pos[i].y = filteredY;
2717:Generated_Source\PSoC4/CapSense_1_Processing.c ****                         }
2718:Generated_Source\PSoC4/CapSense_1_Processing.c ****                     }
2719:Generated_Source\PSoC4/CapSense_1_Processing.c ****                 #endif /* (0u != CapSense_1_POSITION_FILTER_EN) */
2720:Generated_Source\PSoC4/CapSense_1_Processing.c ****             }
2721:Generated_Source\PSoC4/CapSense_1_Processing.c ****         #endif
2722:Generated_Source\PSoC4/CapSense_1_Processing.c **** 
2723:Generated_Source\PSoC4/CapSense_1_Processing.c ****         /* 3x3 CSD Touchpad processing */
2724:Generated_Source\PSoC4/CapSense_1_Processing.c ****         #if (CapSense_1_ENABLE == CapSense_1_CENTROID_3X3_CSD_EN)
2725:Generated_Source\PSoC4/CapSense_1_Processing.c ****             if (0u != (ptrFlashWdgt->staticConfig & CapSense_1_CENTROID_3X3_MASK))
 1064              		.loc 1 2725 0
 1065 00a8 7369     		ldr	r3, [r6, #20]
 1066 00aa 1B05     		lsls	r3, r3, #20
 1067 00ac 3BD5     		bpl	.L67
2726:Generated_Source\PSoC4/CapSense_1_Processing.c ****             {
2727:Generated_Source\PSoC4/CapSense_1_Processing.c ****                 /* Centroid processing */
2728:Generated_Source\PSoC4/CapSense_1_Processing.c ****                 ptrSnsTmp = ptrFlashWdgt->ptr2SnsRam;
 1068              		.loc 1 2728 0
 1069 00ae B368     		ldr	r3, [r6, #8]
 1070 00b0 9946     		mov	r9, r3
 1071              	.LVL188:
2729:Generated_Source\PSoC4/CapSense_1_Processing.c ****                 snsCnt = ptrFlashWdgt->totalNumSns;
2730:Generated_Source\PSoC4/CapSense_1_Processing.c ****                 touchTh = (uint32)ptrRamWdgt->fingerTh - ptrRamWdgt->hysteresis;
 1072              		.loc 1 2730 0
 1073 00b2 7A88     		ldrh	r2, [r7, #2]
 1074 00b4 BB79     		ldrb	r3, [r7, #6]
 1075              	.LVL189:
 1076 00b6 D31A     		subs	r3, r2, r3
 1077 00b8 9846     		mov	r8, r3
 1078              	.LVL190:
2731:Generated_Source\PSoC4/CapSense_1_Processing.c **** 
2732:Generated_Source\PSoC4/CapSense_1_Processing.c ****                 /* Run local maximum search for Column sensors of touchpad */
2733:Generated_Source\PSoC4/CapSense_1_Processing.c ****                 #if (CapSense_1_ENABLE == CapSense_1_4PTS_LOCAL_MAX_EN)
2734:Generated_Source\PSoC4/CapSense_1_Processing.c ****                     numLocalMax = CapSense_1_DpFindLocalMaxSd4pts(ptrFlashWdgt, ptrSnsTmp,
2735:Generated_Source\PSoC4/CapSense_1_Processing.c ****                                                                             (uint32)ptrFlashWdgt->n
2736:Generated_Source\PSoC4/CapSense_1_Processing.c ****                 #else
ARM GAS  C:\Users\exp32\AppData\Local\Temp\ccki8209.s 			page 69


2737:Generated_Source\PSoC4/CapSense_1_Processing.c ****                     numLocalMax = CapSense_1_DpFindLocalMaxSd(ptrSnsTmp, (uint32)ptrFlashWdgt->numC
 1079              		.loc 1 2737 0
 1080 00ba F17E     		ldrb	r1, [r6, #27]
 1081              	.LVL191:
 1082 00bc 1A00     		movs	r2, r3
 1083 00be 4846     		mov	r0, r9
 1084 00c0 FFF7FEFF 		bl	CapSense_1_DpFindLocalMaxSd
 1085              	.LVL192:
 1086 00c4 051E     		subs	r5, r0, #0
 1087              	.LVL193:
2738:Generated_Source\PSoC4/CapSense_1_Processing.c ****                 #endif
2739:Generated_Source\PSoC4/CapSense_1_Processing.c **** 
2740:Generated_Source\PSoC4/CapSense_1_Processing.c ****                 CYASSERT(numLocalMax); /* There must be at least one local maximum found */
 1088              		.loc 1 2740 0
 1089 00c6 02D1     		bne	.L68
 1090              		.loc 1 2740 0 is_stmt 0 discriminator 1
 1091 00c8 0020     		movs	r0, #0
 1092              	.LVL194:
 1093 00ca FFF7FEFF 		bl	CyHalt
 1094              	.LVL195:
 1095              	.L68:
2741:Generated_Source\PSoC4/CapSense_1_Processing.c **** 
2742:Generated_Source\PSoC4/CapSense_1_Processing.c ****                 /* Verify how many local maximums are found on X axis.
2743:Generated_Source\PSoC4/CapSense_1_Processing.c ****                  * The CSD Touchpads support only one finger touch so we should have only one local
2744:Generated_Source\PSoC4/CapSense_1_Processing.c ****                  * If more are found then there are multiple finger touches and it is not possible 
2745:Generated_Source\PSoC4/CapSense_1_Processing.c ****                  */
2746:Generated_Source\PSoC4/CapSense_1_Processing.c ****                 if (1u == numLocalMax)
 1096              		.loc 1 2746 0 is_stmt 1
 1097 00ce 012D     		cmp	r5, #1
 1098 00d0 23D1     		bne	.L69
2747:Generated_Source\PSoC4/CapSense_1_Processing.c ****                 {
2748:Generated_Source\PSoC4/CapSense_1_Processing.c ****                     /* Run centroid algorithm for the X axis */
2749:Generated_Source\PSoC4/CapSense_1_Processing.c ****                     #if (CapSense_1_ENABLE == CapSense_1_TOUCHPAD_MULT_METHOD)
2750:Generated_Source\PSoC4/CapSense_1_Processing.c ****                         (void)CapSense_1_DpCalcLinearCentroid(&posXTmp, (uint32)ptrFlashWdgt->xCent
2751:Generated_Source\PSoC4/CapSense_1_Processing.c ****                                     (uint32)ptrFlashWdgt->numCols, (uint32)(ptrFlashWdgt->xCentroid
2752:Generated_Source\PSoC4/CapSense_1_Processing.c ****                     #else
2753:Generated_Source\PSoC4/CapSense_1_Processing.c ****                         (void)CapSense_1_DpCalcLinearCentroid(&posXTmp, (uint32)ptrFlashWdgt->xCent
2754:Generated_Source\PSoC4/CapSense_1_Processing.c ****                                     (uint32)ptrFlashWdgt->numCols, 0u);
 1099              		.loc 1 2754 0
 1100 00d2 F27E     		ldrb	r2, [r6, #27]
2753:Generated_Source\PSoC4/CapSense_1_Processing.c ****                                     (uint32)ptrFlashWdgt->numCols, 0u);
 1101              		.loc 1 2753 0
 1102 00d4 0023     		movs	r3, #0
 1103 00d6 716A     		ldr	r1, [r6, #36]
 1104 00d8 6846     		mov	r0, sp
 1105 00da 0630     		adds	r0, r0, #6
 1106 00dc FFF7FEFF 		bl	CapSense_1_DpCalcLinearCentroid
 1107              	.LVL196:
2755:Generated_Source\PSoC4/CapSense_1_Processing.c ****                     #endif
2756:Generated_Source\PSoC4/CapSense_1_Processing.c **** 
2757:Generated_Source\PSoC4/CapSense_1_Processing.c ****                     /* Get pointer to Row RAM sensor structure array */
2758:Generated_Source\PSoC4/CapSense_1_Processing.c ****                     ptrSnsTmp += ptrFlashWdgt->numCols;
 1108              		.loc 1 2758 0
 1109 00e0 F37E     		ldrb	r3, [r6, #27]
 1110 00e2 9A00     		lsls	r2, r3, #2
 1111 00e4 D318     		adds	r3, r2, r3
 1112 00e6 5800     		lsls	r0, r3, #1
ARM GAS  C:\Users\exp32\AppData\Local\Temp\ccki8209.s 			page 70


 1113 00e8 4844     		add	r0, r0, r9
 1114              	.LVL197:
2759:Generated_Source\PSoC4/CapSense_1_Processing.c **** 
2760:Generated_Source\PSoC4/CapSense_1_Processing.c ****                     /* Run local maximum search for Row sensors of touchpad */
2761:Generated_Source\PSoC4/CapSense_1_Processing.c ****                     #if (CapSense_1_ENABLE == CapSense_1_4PTS_LOCAL_MAX_EN)
2762:Generated_Source\PSoC4/CapSense_1_Processing.c ****                         numLocalMax = CapSense_1_DpFindLocalMaxSd4pts(ptrFlashWdgt, ptrSnsTmp,
2763:Generated_Source\PSoC4/CapSense_1_Processing.c ****                                                                                 (uint32)ptrFlashWdg
2764:Generated_Source\PSoC4/CapSense_1_Processing.c ****                     #else
2765:Generated_Source\PSoC4/CapSense_1_Processing.c ****                         numLocalMax = CapSense_1_DpFindLocalMaxSd(ptrSnsTmp, (uint32)ptrFlashWdgt->
 1115              		.loc 1 2765 0
 1116 00ea 317F     		ldrb	r1, [r6, #28]
 1117 00ec 4246     		mov	r2, r8
 1118 00ee FFF7FEFF 		bl	CapSense_1_DpFindLocalMaxSd
 1119              	.LVL198:
 1120 00f2 051E     		subs	r5, r0, #0
 1121              	.LVL199:
2766:Generated_Source\PSoC4/CapSense_1_Processing.c ****                     #endif
2767:Generated_Source\PSoC4/CapSense_1_Processing.c **** 
2768:Generated_Source\PSoC4/CapSense_1_Processing.c ****                     CYASSERT(numLocalMax); /* There must be at least one local maximum found */
 1122              		.loc 1 2768 0
 1123 00f4 02D1     		bne	.L70
 1124              		.loc 1 2768 0 is_stmt 0 discriminator 1
 1125 00f6 0020     		movs	r0, #0
 1126              	.LVL200:
 1127 00f8 FFF7FEFF 		bl	CyHalt
 1128              	.LVL201:
 1129              	.L70:
2769:Generated_Source\PSoC4/CapSense_1_Processing.c **** 
2770:Generated_Source\PSoC4/CapSense_1_Processing.c ****                     /* Verify how many local maximums are found on Y axis.
2771:Generated_Source\PSoC4/CapSense_1_Processing.c ****                      * The CSD Touchpads support only one finger touch so we should have only one l
2772:Generated_Source\PSoC4/CapSense_1_Processing.c ****                      * If more are found then it is not possible to recover finger position.
2773:Generated_Source\PSoC4/CapSense_1_Processing.c ****                      */
2774:Generated_Source\PSoC4/CapSense_1_Processing.c ****                     if (1u == numLocalMax)
 1130              		.loc 1 2774 0 is_stmt 1
 1131 00fc 012D     		cmp	r5, #1
 1132 00fe 0CD1     		bne	.L69
2775:Generated_Source\PSoC4/CapSense_1_Processing.c ****                     {
2776:Generated_Source\PSoC4/CapSense_1_Processing.c ****                         /* Run centroid algorithm for the Y axis */
2777:Generated_Source\PSoC4/CapSense_1_Processing.c ****                         #if (CapSense_1_ENABLE == CapSense_1_TOUCHPAD_MULT_METHOD)
2778:Generated_Source\PSoC4/CapSense_1_Processing.c ****                             (void)CapSense_1_DpCalcLinearCentroid(&posYTmp, (uint32)ptrFlashWdgt->y
2779:Generated_Source\PSoC4/CapSense_1_Processing.c ****                                         (uint32)ptrFlashWdgt->numRows, (uint32)(ptrFlashWdgt->yCent
2780:Generated_Source\PSoC4/CapSense_1_Processing.c ****                         #else
2781:Generated_Source\PSoC4/CapSense_1_Processing.c ****                             (void)CapSense_1_DpCalcLinearCentroid(&posYTmp, (uint32)ptrFlashWdgt->y
 1133              		.loc 1 2781 0
 1134 0100 B16A     		ldr	r1, [r6, #40]
2782:Generated_Source\PSoC4/CapSense_1_Processing.c ****                                         (uint32)ptrFlashWdgt->numRows, 0u);
 1135              		.loc 1 2782 0
 1136 0102 327F     		ldrb	r2, [r6, #28]
2781:Generated_Source\PSoC4/CapSense_1_Processing.c ****                                         (uint32)ptrFlashWdgt->numRows, 0u);
 1137              		.loc 1 2781 0
 1138 0104 01AE     		add	r6, sp, #4
 1139              	.LVL202:
 1140 0106 0023     		movs	r3, #0
 1141 0108 3000     		movs	r0, r6
 1142 010a FFF7FEFF 		bl	CapSense_1_DpCalcLinearCentroid
 1143              	.LVL203:
2783:Generated_Source\PSoC4/CapSense_1_Processing.c ****                         #endif
ARM GAS  C:\Users\exp32\AppData\Local\Temp\ccki8209.s 			page 71


2784:Generated_Source\PSoC4/CapSense_1_Processing.c **** 
2785:Generated_Source\PSoC4/CapSense_1_Processing.c ****                         /* Now filter the X and Y position data if needed */
2786:Generated_Source\PSoC4/CapSense_1_Processing.c ****                         #if (0u != CapSense_1_POSITION_FILTER_EN)
2787:Generated_Source\PSoC4/CapSense_1_Processing.c ****                             if (NULL != ptrHistory)
2788:Generated_Source\PSoC4/CapSense_1_Processing.c ****                             {
2789:Generated_Source\PSoC4/CapSense_1_Processing.c ****                                 /* If there were no touch initialize the current position with new 
2790:Generated_Source\PSoC4/CapSense_1_Processing.c ****                                 if (ptrRamWdgt->posX == CapSense_1_TOUCHPAD_POS_NONE)
2791:Generated_Source\PSoC4/CapSense_1_Processing.c ****                                 {
2792:Generated_Source\PSoC4/CapSense_1_Processing.c ****                                     CapSense_1_InitPosFiltersDd(ptrHistory, posXTmp, posYTmp);
2793:Generated_Source\PSoC4/CapSense_1_Processing.c ****                                 }
2794:Generated_Source\PSoC4/CapSense_1_Processing.c ****                                 else
2795:Generated_Source\PSoC4/CapSense_1_Processing.c ****                                 {
2796:Generated_Source\PSoC4/CapSense_1_Processing.c ****                                     CapSense_1_RunPosFiltersDd(ptrFlashWdgt, 0u, 0u, &posXTmp, &pos
2797:Generated_Source\PSoC4/CapSense_1_Processing.c ****                                 }
2798:Generated_Source\PSoC4/CapSense_1_Processing.c ****                             }
2799:Generated_Source\PSoC4/CapSense_1_Processing.c ****                         #endif /* (0u != CapSense_1_POSITION_FILTER_EN) */
2800:Generated_Source\PSoC4/CapSense_1_Processing.c **** 
2801:Generated_Source\PSoC4/CapSense_1_Processing.c ****                         ptrRamWdgt->posX = posXTmp;
 1144              		.loc 1 2801 0
 1145 010e 6B46     		mov	r3, sp
 1146 0110 0633     		adds	r3, r3, #6
 1147 0112 1B88     		ldrh	r3, [r3]
 1148 0114 FB82     		strh	r3, [r7, #22]
2802:Generated_Source\PSoC4/CapSense_1_Processing.c ****                         ptrRamWdgt->posY = posYTmp;
 1149              		.loc 1 2802 0
 1150 0116 3388     		ldrh	r3, [r6]
 1151 0118 3B83     		strh	r3, [r7, #24]
 1152              	.L69:
2803:Generated_Source\PSoC4/CapSense_1_Processing.c ****                     }
2804:Generated_Source\PSoC4/CapSense_1_Processing.c ****                 }
2805:Generated_Source\PSoC4/CapSense_1_Processing.c ****                 if (numLocalMax > 1u)
 1153              		.loc 1 2805 0
 1154 011a 012D     		cmp	r5, #1
 1155 011c 03D9     		bls	.L67
2806:Generated_Source\PSoC4/CapSense_1_Processing.c ****                 {
2807:Generated_Source\PSoC4/CapSense_1_Processing.c ****                     /* Clear centroid position data for 3x3 CSD touchpad */
2808:Generated_Source\PSoC4/CapSense_1_Processing.c ****                     ptrRamWdgt->posX = CapSense_1_TOUCHPAD_POS_NONE;
 1156              		.loc 1 2808 0
 1157 011e 0123     		movs	r3, #1
 1158 0120 5B42     		rsbs	r3, r3, #0
 1159 0122 FB82     		strh	r3, [r7, #22]
2809:Generated_Source\PSoC4/CapSense_1_Processing.c ****                     ptrRamWdgt->posY = CapSense_1_TOUCHPAD_POS_NONE;
 1160              		.loc 1 2809 0
 1161 0124 3B83     		strh	r3, [r7, #24]
 1162              	.LVL204:
 1163              	.L67:
2810:Generated_Source\PSoC4/CapSense_1_Processing.c **** 
2811:Generated_Source\PSoC4/CapSense_1_Processing.c ****                     /* Clear position filter history data if available */
2812:Generated_Source\PSoC4/CapSense_1_Processing.c ****                     #if (0u != CapSense_1_POSITION_FILTER_EN)
2813:Generated_Source\PSoC4/CapSense_1_Processing.c ****                         if (NULL != ptrHistory)
2814:Generated_Source\PSoC4/CapSense_1_Processing.c ****                         {
2815:Generated_Source\PSoC4/CapSense_1_Processing.c ****                             CapSense_1_InitPosFiltersDd(ptrHistory, CapSense_1_TOUCHPAD_POS_NONE, C
2816:Generated_Source\PSoC4/CapSense_1_Processing.c ****                         }
2817:Generated_Source\PSoC4/CapSense_1_Processing.c ****                     #endif /* (0u != CapSense_1_POSITION_FILTER_EN) */
2818:Generated_Source\PSoC4/CapSense_1_Processing.c ****                 }
2819:Generated_Source\PSoC4/CapSense_1_Processing.c ****             }
2820:Generated_Source\PSoC4/CapSense_1_Processing.c ****         #endif
ARM GAS  C:\Users\exp32\AppData\Local\Temp\ccki8209.s 			page 72


2821:Generated_Source\PSoC4/CapSense_1_Processing.c ****     }
2822:Generated_Source\PSoC4/CapSense_1_Processing.c **** 
2823:Generated_Source\PSoC4/CapSense_1_Processing.c ****     return currStatus;
2824:Generated_Source\PSoC4/CapSense_1_Processing.c **** }
 1164              		.loc 1 2824 0
 1165 0126 2000     		movs	r0, r4
 1166 0128 02B0     		add	sp, sp, #8
 1167              		@ sp needed
 1168              	.LVL205:
 1169              	.LVL206:
 1170              	.LVL207:
 1171 012a 1CBC     		pop	{r2, r3, r4}
 1172 012c 9046     		mov	r8, r2
 1173 012e 9946     		mov	r9, r3
 1174 0130 A246     		mov	r10, r4
 1175 0132 F0BD     		pop	{r4, r5, r6, r7, pc}
 1176              		.cfi_endproc
 1177              	.LFE12:
 1178              		.size	CapSense_1_DpProcessCsdTouchpad, .-CapSense_1_DpProcessCsdTouchpad
 1179              		.section	.text.CapSense_1_DpProcessCsdWidgetStatus,"ax",%progbits
 1180              		.align	2
 1181              		.global	CapSense_1_DpProcessCsdWidgetStatus
 1182              		.code	16
 1183              		.thumb_func
 1184              		.type	CapSense_1_DpProcessCsdWidgetStatus, %function
 1185              	CapSense_1_DpProcessCsdWidgetStatus:
 1186              	.LFB6:
1247:Generated_Source\PSoC4/CapSense_1_Processing.c ****     uint32 sensorStatus;
 1187              		.loc 1 1247 0
 1188              		.cfi_startproc
 1189              		@ args = 0, pretend = 0, frame = 0
 1190              		@ frame_needed = 0, uses_anonymous_args = 0
 1191              	.LVL208:
 1192 0000 70B5     		push	{r4, r5, r6, lr}
 1193              		.cfi_def_cfa_offset 16
 1194              		.cfi_offset 4, -16
 1195              		.cfi_offset 5, -12
 1196              		.cfi_offset 6, -8
 1197              		.cfi_offset 14, -4
 1198 0002 0400     		movs	r4, r0
1253:Generated_Source\PSoC4/CapSense_1_Processing.c ****     sensorStatus = CapSense_1_dsRam.snsStatus[widgetId];
 1199              		.loc 1 1253 0
 1200 0004 8A7E     		ldrb	r2, [r1, #26]
 1201              	.LVL209:
1254:Generated_Source\PSoC4/CapSense_1_Processing.c **** 
 1202              		.loc 1 1254 0
 1203 0006 0300     		movs	r3, r0
 1204 0008 0C33     		adds	r3, r3, #12
 1205 000a 5B00     		lsls	r3, r3, #1
 1206 000c 1C48     		ldr	r0, .L82
 1207              	.LVL210:
 1208 000e 1D5A     		ldrh	r5, [r3, r0]
 1209              	.LVL211:
1256:Generated_Source\PSoC4/CapSense_1_Processing.c ****     {
 1210              		.loc 1 1256 0
 1211 0010 032A     		cmp	r2, #3
 1212 0012 04D8     		bhi	.L75
ARM GAS  C:\Users\exp32\AppData\Local\Temp\ccki8209.s 			page 73


 1213 0014 022A     		cmp	r2, #2
 1214 0016 0AD2     		bcs	.L76
 1215 0018 012A     		cmp	r2, #1
 1216 001a 03D0     		beq	.L77
 1217 001c 11E0     		b	.L74
 1218              	.L75:
 1219 001e 052A     		cmp	r2, #5
 1220 0020 0AD0     		beq	.L78
 1221 0022 0EE0     		b	.L74
 1222              	.L77:
1260:Generated_Source\PSoC4/CapSense_1_Processing.c ****             break;
 1223              		.loc 1 1260 0
 1224 0024 2800     		movs	r0, r5
 1225 0026 FFF7FEFF 		bl	CapSense_1_DpProcessButton
 1226              	.LVL212:
 1227 002a 0500     		movs	r5, r0
 1228              	.LVL213:
1261:Generated_Source\PSoC4/CapSense_1_Processing.c ****     #endif /* #if (0u != CapSense_1_BUTTON_WIDGET_EN) */
 1229              		.loc 1 1261 0
 1230 002c 0CE0     		b	.L79
 1231              	.LVL214:
 1232              	.L76:
1267:Generated_Source\PSoC4/CapSense_1_Processing.c ****             break;
 1233              		.loc 1 1267 0
 1234 002e 2800     		movs	r0, r5
 1235 0030 FFF7FEFF 		bl	CapSense_1_DpProcessSlider
 1236              	.LVL215:
 1237 0034 0500     		movs	r5, r0
 1238              	.LVL216:
1268:Generated_Source\PSoC4/CapSense_1_Processing.c ****     #endif /* #if (0u != CapSense_1_SLIDER_WIDGET_EN) */
 1239              		.loc 1 1268 0
 1240 0036 07E0     		b	.L79
 1241              	.LVL217:
 1242              	.L78:
1279:Generated_Source\PSoC4/CapSense_1_Processing.c ****             #if (0u != CapSense_1_BALLISTIC_MULTIPLIER_EN)
 1243              		.loc 1 1279 0
 1244 0038 2800     		movs	r0, r5
 1245 003a FFF7FEFF 		bl	CapSense_1_DpProcessCsdTouchpad
 1246              	.LVL218:
 1247 003e 0500     		movs	r5, r0
 1248              	.LVL219:
1283:Generated_Source\PSoC4/CapSense_1_Processing.c ****     #endif /* #if (0u != CapSense_1_CSD_TOUCHPAD_WIDGET_EN) */
 1249              		.loc 1 1283 0
 1250 0040 02E0     		b	.L79
 1251              	.LVL220:
 1252              	.L74:
1293:Generated_Source\PSoC4/CapSense_1_Processing.c ****         break;
 1253              		.loc 1 1293 0 discriminator 1
 1254 0042 0020     		movs	r0, #0
 1255 0044 FFF7FEFF 		bl	CyHalt
 1256              	.LVL221:
 1257              	.L79:
1297:Generated_Source\PSoC4/CapSense_1_Processing.c **** 
 1258              		.loc 1 1297 0
 1259 0048 2300     		movs	r3, r4
 1260 004a 0C33     		adds	r3, r3, #12
 1261 004c 5B00     		lsls	r3, r3, #1
ARM GAS  C:\Users\exp32\AppData\Local\Temp\ccki8209.s 			page 74


 1262 004e 0C4A     		ldr	r2, .L82
 1263 0050 D552     		strh	r5, [r2, r3]
1300:Generated_Source\PSoC4/CapSense_1_Processing.c ****     wdStatusMask = CapSense_1_GET_WDGT_STATUS_MASK(widgetId);
 1264              		.loc 1 1300 0
 1265 0052 6309     		lsrs	r3, r4, #5
 1266              	.LVL222:
1301:Generated_Source\PSoC4/CapSense_1_Processing.c **** 
 1267              		.loc 1 1301 0
 1268 0054 1F22     		movs	r2, #31
 1269 0056 1440     		ands	r4, r2
 1270              	.LVL223:
 1271 0058 1E3A     		subs	r2, r2, #30
 1272 005a A240     		lsls	r2, r2, r4
 1273              	.LVL224:
1304:Generated_Source\PSoC4/CapSense_1_Processing.c ****     {
 1274              		.loc 1 1304 0
 1275 005c 002D     		cmp	r5, #0
 1276 005e 07D1     		bne	.L80
1306:Generated_Source\PSoC4/CapSense_1_Processing.c ****     }
 1277              		.loc 1 1306 0
 1278 0060 0433     		adds	r3, r3, #4
 1279              	.LVL225:
 1280 0062 9B00     		lsls	r3, r3, #2
 1281              	.LVL226:
 1282 0064 0649     		ldr	r1, .L82
 1283 0066 CB18     		adds	r3, r1, r3
 1284 0068 5968     		ldr	r1, [r3, #4]
 1285 006a 9143     		bics	r1, r2
 1286 006c 5960     		str	r1, [r3, #4]
 1287 006e 06E0     		b	.L73
 1288              	.LVL227:
 1289              	.L80:
1310:Generated_Source\PSoC4/CapSense_1_Processing.c ****     }
 1290              		.loc 1 1310 0
 1291 0070 0433     		adds	r3, r3, #4
 1292              	.LVL228:
 1293 0072 9B00     		lsls	r3, r3, #2
 1294              	.LVL229:
 1295 0074 0249     		ldr	r1, .L82
 1296 0076 CB18     		adds	r3, r1, r3
 1297 0078 5968     		ldr	r1, [r3, #4]
 1298 007a 0A43     		orrs	r2, r1
 1299              	.LVL230:
 1300 007c 5A60     		str	r2, [r3, #4]
 1301              	.L73:
1312:Generated_Source\PSoC4/CapSense_1_Processing.c **** #endif /* #if (0u != CapSense_1_TOTAL_CSD_WIDGETS) */
 1302              		.loc 1 1312 0
 1303              		@ sp needed
 1304              	.LVL231:
 1305              	.LVL232:
 1306 007e 70BD     		pop	{r4, r5, r6, pc}
 1307              	.L83:
 1308              		.align	2
 1309              	.L82:
 1310 0080 00000000 		.word	CapSense_1_dsRam
 1311              		.cfi_endproc
 1312              	.LFE6:
ARM GAS  C:\Users\exp32\AppData\Local\Temp\ccki8209.s 			page 75


 1313              		.size	CapSense_1_DpProcessCsdWidgetStatus, .-CapSense_1_DpProcessCsdWidgetStatus
 1314              		.text
 1315              	.Letext0:
 1316              		.file 2 "Generated_Source\\PSoC4\\cytypes.h"
 1317              		.file 3 "c:\\program files (x86)\\cypress\\psoc creator\\4.4\\psoc creator\\import\\gnu\\arm\\5.4.
 1318              		.file 4 "Generated_Source\\PSoC4\\CapSense_1_Configuration.h"
 1319              		.file 5 "Generated_Source\\PSoC4\\CapSense_1_SmartSense_LL.h"
 1320              		.file 6 "Generated_Source\\PSoC4\\CapSense_1_Structure.h"
 1321              		.file 7 "c:\\program files (x86)\\cypress\\psoc creator\\4.4\\psoc creator\\import\\gnu\\arm\\5.4.
 1322              		.file 8 "Generated_Source\\PSoC4\\CapSense_1_Filter.h"
 1323              		.file 9 "Generated_Source\\PSoC4\\CapSense_1_Centroid_LL.h"
 1324              		.file 10 "Generated_Source\\PSoC4\\CyLib.h"
 1325              		.section	.debug_info,"",%progbits
 1326              	.Ldebug_info0:
 1327 0000 F9120000 		.4byte	0x12f9
 1328 0004 0400     		.2byte	0x4
 1329 0006 00000000 		.4byte	.Ldebug_abbrev0
 1330 000a 04       		.byte	0x4
 1331 000b 01       		.uleb128 0x1
 1332 000c 52020000 		.4byte	.LASF180
 1333 0010 0C       		.byte	0xc
 1334 0011 0E040000 		.4byte	.LASF181
 1335 0015 DC070000 		.4byte	.LASF182
 1336 0019 00000000 		.4byte	.Ldebug_ranges0+0
 1337 001d 00000000 		.4byte	0
 1338 0021 00000000 		.4byte	.Ldebug_line0
 1339 0025 02       		.uleb128 0x2
 1340 0026 01       		.byte	0x1
 1341 0027 06       		.byte	0x6
 1342 0028 D90A0000 		.4byte	.LASF0
 1343 002c 02       		.uleb128 0x2
 1344 002d 01       		.byte	0x1
 1345 002e 08       		.byte	0x8
 1346 002f 4C0A0000 		.4byte	.LASF1
 1347 0033 02       		.uleb128 0x2
 1348 0034 02       		.byte	0x2
 1349 0035 05       		.byte	0x5
 1350 0036 89080000 		.4byte	.LASF2
 1351 003a 02       		.uleb128 0x2
 1352 003b 02       		.byte	0x2
 1353 003c 07       		.byte	0x7
 1354 003d EA0A0000 		.4byte	.LASF3
 1355 0041 02       		.uleb128 0x2
 1356 0042 04       		.byte	0x4
 1357 0043 05       		.byte	0x5
 1358 0044 A0080000 		.4byte	.LASF4
 1359 0048 02       		.uleb128 0x2
 1360 0049 04       		.byte	0x4
 1361 004a 07       		.byte	0x7
 1362 004b 84090000 		.4byte	.LASF5
 1363 004f 02       		.uleb128 0x2
 1364 0050 08       		.byte	0x8
 1365 0051 05       		.byte	0x5
 1366 0052 9B050000 		.4byte	.LASF6
 1367 0056 02       		.uleb128 0x2
 1368 0057 08       		.byte	0x8
 1369 0058 07       		.byte	0x7
ARM GAS  C:\Users\exp32\AppData\Local\Temp\ccki8209.s 			page 76


 1370 0059 10030000 		.4byte	.LASF7
 1371 005d 03       		.uleb128 0x3
 1372 005e 04       		.byte	0x4
 1373 005f 05       		.byte	0x5
 1374 0060 696E7400 		.ascii	"int\000"
 1375 0064 02       		.uleb128 0x2
 1376 0065 04       		.byte	0x4
 1377 0066 07       		.byte	0x7
 1378 0067 E3000000 		.4byte	.LASF8
 1379 006b 04       		.uleb128 0x4
 1380 006c 120B0000 		.4byte	.LASF9
 1381 0070 02       		.byte	0x2
 1382 0071 FB01     		.2byte	0x1fb
 1383 0073 2C000000 		.4byte	0x2c
 1384 0077 04       		.uleb128 0x4
 1385 0078 32050000 		.4byte	.LASF10
 1386 007c 02       		.byte	0x2
 1387 007d FC01     		.2byte	0x1fc
 1388 007f 3A000000 		.4byte	0x3a
 1389 0083 04       		.uleb128 0x4
 1390 0084 75060000 		.4byte	.LASF11
 1391 0088 02       		.byte	0x2
 1392 0089 FD01     		.2byte	0x1fd
 1393 008b 48000000 		.4byte	0x48
 1394 008f 04       		.uleb128 0x4
 1395 0090 E4020000 		.4byte	.LASF12
 1396 0094 02       		.byte	0x2
 1397 0095 0002     		.2byte	0x200
 1398 0097 41000000 		.4byte	0x41
 1399 009b 02       		.uleb128 0x2
 1400 009c 04       		.byte	0x4
 1401 009d 04       		.byte	0x4
 1402 009e 4C020000 		.4byte	.LASF13
 1403 00a2 02       		.uleb128 0x2
 1404 00a3 08       		.byte	0x8
 1405 00a4 04       		.byte	0x4
 1406 00a5 180B0000 		.4byte	.LASF14
 1407 00a9 02       		.uleb128 0x2
 1408 00aa 01       		.byte	0x1
 1409 00ab 08       		.byte	0x8
 1410 00ac F8040000 		.4byte	.LASF15
 1411 00b0 05       		.uleb128 0x5
 1412 00b1 83000000 		.4byte	0x83
 1413 00b5 06       		.uleb128 0x6
 1414 00b6 07040000 		.4byte	.LASF16
 1415 00ba 03       		.byte	0x3
 1416 00bb D8       		.byte	0xd8
 1417 00bc 64000000 		.4byte	0x64
 1418 00c0 02       		.uleb128 0x2
 1419 00c1 08       		.byte	0x8
 1420 00c2 04       		.byte	0x4
 1421 00c3 3E070000 		.4byte	.LASF17
 1422 00c7 02       		.uleb128 0x2
 1423 00c8 04       		.byte	0x4
 1424 00c9 07       		.byte	0x7
 1425 00ca 7B090000 		.4byte	.LASF18
 1426 00ce 07       		.uleb128 0x7
ARM GAS  C:\Users\exp32\AppData\Local\Temp\ccki8209.s 			page 77


 1427 00cf 04       		.byte	0x4
 1428 00d0 04       		.uleb128 0x4
 1429 00d1 A9050000 		.4byte	.LASF19
 1430 00d5 04       		.byte	0x4
 1431 00d6 4501     		.2byte	0x145
 1432 00d8 77000000 		.4byte	0x77
 1433 00dc 04       		.uleb128 0x4
 1434 00dd B1030000 		.4byte	.LASF20
 1435 00e1 04       		.byte	0x4
 1436 00e2 4901     		.2byte	0x149
 1437 00e4 6B000000 		.4byte	0x6b
 1438 00e8 08       		.uleb128 0x8
 1439 00e9 0C       		.byte	0xc
 1440 00ea 05       		.byte	0x5
 1441 00eb 75       		.byte	0x75
 1442 00ec 45010000 		.4byte	0x145
 1443 00f0 09       		.uleb128 0x9
 1444 00f1 7C0B0000 		.4byte	.LASF21
 1445 00f5 05       		.byte	0x5
 1446 00f6 7A       		.byte	0x7a
 1447 00f7 77000000 		.4byte	0x77
 1448 00fb 00       		.byte	0
 1449 00fc 09       		.uleb128 0x9
 1450 00fd 830B0000 		.4byte	.LASF22
 1451 0101 05       		.byte	0x5
 1452 0102 7E       		.byte	0x7e
 1453 0103 77000000 		.4byte	0x77
 1454 0107 02       		.byte	0x2
 1455 0108 09       		.uleb128 0x9
 1456 0109 8A0B0000 		.4byte	.LASF23
 1457 010d 05       		.byte	0x5
 1458 010e 82       		.byte	0x82
 1459 010f 77000000 		.4byte	0x77
 1460 0113 04       		.byte	0x4
 1461 0114 09       		.uleb128 0x9
 1462 0115 910B0000 		.4byte	.LASF24
 1463 0119 05       		.byte	0x5
 1464 011a 86       		.byte	0x86
 1465 011b 77000000 		.4byte	0x77
 1466 011f 06       		.byte	0x6
 1467 0120 09       		.uleb128 0x9
 1468 0121 980B0000 		.4byte	.LASF25
 1469 0125 05       		.byte	0x5
 1470 0126 8A       		.byte	0x8a
 1471 0127 77000000 		.4byte	0x77
 1472 012b 08       		.byte	0x8
 1473 012c 09       		.uleb128 0x9
 1474 012d 9F0B0000 		.4byte	.LASF26
 1475 0131 05       		.byte	0x5
 1476 0132 8E       		.byte	0x8e
 1477 0133 6B000000 		.4byte	0x6b
 1478 0137 0A       		.byte	0xa
 1479 0138 09       		.uleb128 0x9
 1480 0139 A60B0000 		.4byte	.LASF27
 1481 013d 05       		.byte	0x5
 1482 013e 92       		.byte	0x92
 1483 013f 6B000000 		.4byte	0x6b
ARM GAS  C:\Users\exp32\AppData\Local\Temp\ccki8209.s 			page 78


 1484 0143 0B       		.byte	0xb
 1485 0144 00       		.byte	0
 1486 0145 06       		.uleb128 0x6
 1487 0146 B2040000 		.4byte	.LASF28
 1488 014a 05       		.byte	0x5
 1489 014b 93       		.byte	0x93
 1490 014c E8000000 		.4byte	0xe8
 1491 0150 08       		.uleb128 0x8
 1492 0151 06       		.byte	0x6
 1493 0152 05       		.byte	0x5
 1494 0153 9B       		.byte	0x9b
 1495 0154 89010000 		.4byte	0x189
 1496 0158 09       		.uleb128 0x9
 1497 0159 CD090000 		.4byte	.LASF29
 1498 015d 05       		.byte	0x5
 1499 015e A0       		.byte	0xa0
 1500 015f 77000000 		.4byte	0x77
 1501 0163 00       		.byte	0
 1502 0164 09       		.uleb128 0x9
 1503 0165 F0040000 		.4byte	.LASF30
 1504 0169 05       		.byte	0x5
 1505 016a A5       		.byte	0xa5
 1506 016b 6B000000 		.4byte	0x6b
 1507 016f 02       		.byte	0x2
 1508 0170 09       		.uleb128 0x9
 1509 0171 04060000 		.4byte	.LASF31
 1510 0175 05       		.byte	0x5
 1511 0176 AA       		.byte	0xaa
 1512 0177 6B000000 		.4byte	0x6b
 1513 017b 03       		.byte	0x3
 1514 017c 09       		.uleb128 0x9
 1515 017d 44040000 		.4byte	.LASF32
 1516 0181 05       		.byte	0x5
 1517 0182 AF       		.byte	0xaf
 1518 0183 6B000000 		.4byte	0x6b
 1519 0187 04       		.byte	0x4
 1520 0188 00       		.byte	0
 1521 0189 06       		.uleb128 0x6
 1522 018a A9080000 		.4byte	.LASF33
 1523 018e 05       		.byte	0x5
 1524 018f B0       		.byte	0xb0
 1525 0190 50010000 		.4byte	0x150
 1526 0194 0A       		.uleb128 0xa
 1527 0195 01       		.byte	0x1
 1528 0196 2C000000 		.4byte	0x2c
 1529 019a 06       		.byte	0x6
 1530 019b 61       		.byte	0x61
 1531 019c CB010000 		.4byte	0x1cb
 1532 01a0 0B       		.uleb128 0xb
 1533 01a1 F9020000 		.4byte	.LASF34
 1534 01a5 01       		.byte	0x1
 1535 01a6 0B       		.uleb128 0xb
 1536 01a7 08070000 		.4byte	.LASF35
 1537 01ab 02       		.byte	0x2
 1538 01ac 0B       		.uleb128 0xb
 1539 01ad 74050000 		.4byte	.LASF36
 1540 01b1 03       		.byte	0x3
ARM GAS  C:\Users\exp32\AppData\Local\Temp\ccki8209.s 			page 79


 1541 01b2 0B       		.uleb128 0xb
 1542 01b3 6D040000 		.4byte	.LASF37
 1543 01b7 04       		.byte	0x4
 1544 01b8 0B       		.uleb128 0xb
 1545 01b9 D7040000 		.4byte	.LASF38
 1546 01bd 05       		.byte	0x5
 1547 01be 0B       		.uleb128 0xb
 1548 01bf 84070000 		.4byte	.LASF39
 1549 01c3 06       		.byte	0x6
 1550 01c4 0B       		.uleb128 0xb
 1551 01c5 9E070000 		.4byte	.LASF40
 1552 01c9 07       		.byte	0x7
 1553 01ca 00       		.byte	0
 1554 01cb 06       		.uleb128 0x6
 1555 01cc 8D010000 		.4byte	.LASF41
 1556 01d0 06       		.byte	0x6
 1557 01d1 69       		.byte	0x69
 1558 01d2 94010000 		.4byte	0x194
 1559 01d6 0A       		.uleb128 0xa
 1560 01d7 01       		.byte	0x1
 1561 01d8 2C000000 		.4byte	0x2c
 1562 01dc 06       		.byte	0x6
 1563 01dd 70       		.byte	0x70
 1564 01de 01020000 		.4byte	0x201
 1565 01e2 0B       		.uleb128 0xb
 1566 01e3 9E060000 		.4byte	.LASF42
 1567 01e7 00       		.byte	0
 1568 01e8 0B       		.uleb128 0xb
 1569 01e9 6B080000 		.4byte	.LASF43
 1570 01ed 01       		.byte	0x1
 1571 01ee 0B       		.uleb128 0xb
 1572 01ef F9080000 		.4byte	.LASF44
 1573 01f3 02       		.byte	0x2
 1574 01f4 0B       		.uleb128 0xb
 1575 01f5 7F000000 		.4byte	.LASF45
 1576 01f9 03       		.byte	0x3
 1577 01fa 0B       		.uleb128 0xb
 1578 01fb 93030000 		.4byte	.LASF46
 1579 01ff 04       		.byte	0x4
 1580 0200 00       		.byte	0
 1581 0201 08       		.uleb128 0x8
 1582 0202 16       		.byte	0x16
 1583 0203 06       		.byte	0x6
 1584 0204 AD       		.byte	0xad
 1585 0205 CD020000 		.4byte	0x2cd
 1586 0209 09       		.uleb128 0x9
 1587 020a 43050000 		.4byte	.LASF47
 1588 020e 06       		.byte	0x6
 1589 020f B2       		.byte	0xb2
 1590 0210 77000000 		.4byte	0x77
 1591 0214 00       		.byte	0
 1592 0215 09       		.uleb128 0x9
 1593 0216 CD090000 		.4byte	.LASF29
 1594 021a 06       		.byte	0x6
 1595 021b B7       		.byte	0xb7
 1596 021c D0000000 		.4byte	0xd0
 1597 0220 02       		.byte	0x2
ARM GAS  C:\Users\exp32\AppData\Local\Temp\ccki8209.s 			page 80


 1598 0221 09       		.uleb128 0x9
 1599 0222 F0040000 		.4byte	.LASF30
 1600 0226 06       		.byte	0x6
 1601 0227 BC       		.byte	0xbc
 1602 0228 6B000000 		.4byte	0x6b
 1603 022c 04       		.byte	0x4
 1604 022d 09       		.uleb128 0x9
 1605 022e 04060000 		.4byte	.LASF31
 1606 0232 06       		.byte	0x6
 1607 0233 C1       		.byte	0xc1
 1608 0234 6B000000 		.4byte	0x6b
 1609 0238 05       		.byte	0x5
 1610 0239 09       		.uleb128 0x9
 1611 023a 44040000 		.4byte	.LASF32
 1612 023e 06       		.byte	0x6
 1613 023f C7       		.byte	0xc7
 1614 0240 6B000000 		.4byte	0x6b
 1615 0244 06       		.byte	0x6
 1616 0245 09       		.uleb128 0x9
 1617 0246 C3050000 		.4byte	.LASF48
 1618 024a 06       		.byte	0x6
 1619 024b CD       		.byte	0xcd
 1620 024c 6B000000 		.4byte	0x6b
 1621 0250 07       		.byte	0x7
 1622 0251 09       		.uleb128 0x9
 1623 0252 8B040000 		.4byte	.LASF49
 1624 0256 06       		.byte	0x6
 1625 0257 D4       		.byte	0xd4
 1626 0258 DC000000 		.4byte	0xdc
 1627 025c 08       		.byte	0x8
 1628 025d 09       		.uleb128 0x9
 1629 025e 96090000 		.4byte	.LASF50
 1630 0262 06       		.byte	0x6
 1631 0263 DB       		.byte	0xdb
 1632 0264 CD020000 		.4byte	0x2cd
 1633 0268 09       		.byte	0x9
 1634 0269 09       		.uleb128 0x9
 1635 026a 40090000 		.4byte	.LASF51
 1636 026e 06       		.byte	0x6
 1637 026f E2       		.byte	0xe2
 1638 0270 CD020000 		.4byte	0x2cd
 1639 0274 0A       		.byte	0xa
 1640 0275 09       		.uleb128 0x9
 1641 0276 2C020000 		.4byte	.LASF52
 1642 027a 06       		.byte	0x6
 1643 027b E7       		.byte	0xe7
 1644 027c 6B000000 		.4byte	0x6b
 1645 0280 0B       		.byte	0xb
 1646 0281 09       		.uleb128 0x9
 1647 0282 D20A0000 		.4byte	.LASF53
 1648 0286 06       		.byte	0x6
 1649 0287 EF       		.byte	0xef
 1650 0288 77000000 		.4byte	0x77
 1651 028c 0C       		.byte	0xc
 1652 028d 09       		.uleb128 0x9
 1653 028e 39050000 		.4byte	.LASF54
 1654 0292 06       		.byte	0x6
ARM GAS  C:\Users\exp32\AppData\Local\Temp\ccki8209.s 			page 81


 1655 0293 F6       		.byte	0xf6
 1656 0294 77000000 		.4byte	0x77
 1657 0298 0E       		.byte	0xe
 1658 0299 09       		.uleb128 0x9
 1659 029a 93080000 		.4byte	.LASF55
 1660 029e 06       		.byte	0x6
 1661 029f FB       		.byte	0xfb
 1662 02a0 6B000000 		.4byte	0x6b
 1663 02a4 10       		.byte	0x10
 1664 02a5 0C       		.uleb128 0xc
 1665 02a6 FD040000 		.4byte	.LASF56
 1666 02aa 06       		.byte	0x6
 1667 02ab 0001     		.2byte	0x100
 1668 02ad 6B000000 		.4byte	0x6b
 1669 02b1 11       		.byte	0x11
 1670 02b2 0C       		.uleb128 0xc
 1671 02b3 5A090000 		.4byte	.LASF57
 1672 02b7 06       		.byte	0x6
 1673 02b8 0601     		.2byte	0x106
 1674 02ba 77000000 		.4byte	0x77
 1675 02be 12       		.byte	0x12
 1676 02bf 0C       		.uleb128 0xc
 1677 02c0 3D040000 		.4byte	.LASF58
 1678 02c4 06       		.byte	0x6
 1679 02c5 0B01     		.2byte	0x10b
 1680 02c7 77000000 		.4byte	0x77
 1681 02cb 14       		.byte	0x14
 1682 02cc 00       		.byte	0
 1683 02cd 0D       		.uleb128 0xd
 1684 02ce 6B000000 		.4byte	0x6b
 1685 02d2 DD020000 		.4byte	0x2dd
 1686 02d6 0E       		.uleb128 0xe
 1687 02d7 C7000000 		.4byte	0xc7
 1688 02db 00       		.byte	0
 1689 02dc 00       		.byte	0
 1690 02dd 04       		.uleb128 0x4
 1691 02de 57060000 		.4byte	.LASF59
 1692 02e2 06       		.byte	0x6
 1693 02e3 0C01     		.2byte	0x10c
 1694 02e5 01020000 		.4byte	0x201
 1695 02e9 0F       		.uleb128 0xf
 1696 02ea 16       		.byte	0x16
 1697 02eb 06       		.byte	0x6
 1698 02ec 1101     		.2byte	0x111
 1699 02ee C3030000 		.4byte	0x3c3
 1700 02f2 0C       		.uleb128 0xc
 1701 02f3 43050000 		.4byte	.LASF47
 1702 02f7 06       		.byte	0x6
 1703 02f8 1601     		.2byte	0x116
 1704 02fa 77000000 		.4byte	0x77
 1705 02fe 00       		.byte	0
 1706 02ff 0C       		.uleb128 0xc
 1707 0300 CD090000 		.4byte	.LASF29
 1708 0304 06       		.byte	0x6
 1709 0305 1B01     		.2byte	0x11b
 1710 0307 D0000000 		.4byte	0xd0
 1711 030b 02       		.byte	0x2
ARM GAS  C:\Users\exp32\AppData\Local\Temp\ccki8209.s 			page 82


 1712 030c 0C       		.uleb128 0xc
 1713 030d F0040000 		.4byte	.LASF30
 1714 0311 06       		.byte	0x6
 1715 0312 2001     		.2byte	0x120
 1716 0314 6B000000 		.4byte	0x6b
 1717 0318 04       		.byte	0x4
 1718 0319 0C       		.uleb128 0xc
 1719 031a 04060000 		.4byte	.LASF31
 1720 031e 06       		.byte	0x6
 1721 031f 2501     		.2byte	0x125
 1722 0321 6B000000 		.4byte	0x6b
 1723 0325 05       		.byte	0x5
 1724 0326 0C       		.uleb128 0xc
 1725 0327 44040000 		.4byte	.LASF32
 1726 032b 06       		.byte	0x6
 1727 032c 2B01     		.2byte	0x12b
 1728 032e 6B000000 		.4byte	0x6b
 1729 0332 06       		.byte	0x6
 1730 0333 0C       		.uleb128 0xc
 1731 0334 C3050000 		.4byte	.LASF48
 1732 0338 06       		.byte	0x6
 1733 0339 3101     		.2byte	0x131
 1734 033b 6B000000 		.4byte	0x6b
 1735 033f 07       		.byte	0x7
 1736 0340 0C       		.uleb128 0xc
 1737 0341 8B040000 		.4byte	.LASF49
 1738 0345 06       		.byte	0x6
 1739 0346 3801     		.2byte	0x138
 1740 0348 DC000000 		.4byte	0xdc
 1741 034c 08       		.byte	0x8
 1742 034d 0C       		.uleb128 0xc
 1743 034e 96090000 		.4byte	.LASF50
 1744 0352 06       		.byte	0x6
 1745 0353 3F01     		.2byte	0x13f
 1746 0355 CD020000 		.4byte	0x2cd
 1747 0359 09       		.byte	0x9
 1748 035a 0C       		.uleb128 0xc
 1749 035b 40090000 		.4byte	.LASF51
 1750 035f 06       		.byte	0x6
 1751 0360 4601     		.2byte	0x146
 1752 0362 CD020000 		.4byte	0x2cd
 1753 0366 0A       		.byte	0xa
 1754 0367 0C       		.uleb128 0xc
 1755 0368 2C020000 		.4byte	.LASF52
 1756 036c 06       		.byte	0x6
 1757 036d 4B01     		.2byte	0x14b
 1758 036f 6B000000 		.4byte	0x6b
 1759 0373 0B       		.byte	0xb
 1760 0374 0C       		.uleb128 0xc
 1761 0375 D20A0000 		.4byte	.LASF53
 1762 0379 06       		.byte	0x6
 1763 037a 5301     		.2byte	0x153
 1764 037c 77000000 		.4byte	0x77
 1765 0380 0C       		.byte	0xc
 1766 0381 0C       		.uleb128 0xc
 1767 0382 39050000 		.4byte	.LASF54
 1768 0386 06       		.byte	0x6
ARM GAS  C:\Users\exp32\AppData\Local\Temp\ccki8209.s 			page 83


 1769 0387 5A01     		.2byte	0x15a
 1770 0389 77000000 		.4byte	0x77
 1771 038d 0E       		.byte	0xe
 1772 038e 0C       		.uleb128 0xc
 1773 038f 93080000 		.4byte	.LASF55
 1774 0393 06       		.byte	0x6
 1775 0394 5F01     		.2byte	0x15f
 1776 0396 6B000000 		.4byte	0x6b
 1777 039a 10       		.byte	0x10
 1778 039b 0C       		.uleb128 0xc
 1779 039c FD040000 		.4byte	.LASF56
 1780 03a0 06       		.byte	0x6
 1781 03a1 6401     		.2byte	0x164
 1782 03a3 6B000000 		.4byte	0x6b
 1783 03a7 11       		.byte	0x11
 1784 03a8 0C       		.uleb128 0xc
 1785 03a9 5A090000 		.4byte	.LASF57
 1786 03ad 06       		.byte	0x6
 1787 03ae 6A01     		.2byte	0x16a
 1788 03b0 77000000 		.4byte	0x77
 1789 03b4 12       		.byte	0x12
 1790 03b5 0C       		.uleb128 0xc
 1791 03b6 3D040000 		.4byte	.LASF58
 1792 03ba 06       		.byte	0x6
 1793 03bb 6F01     		.2byte	0x16f
 1794 03bd 77000000 		.4byte	0x77
 1795 03c1 14       		.byte	0x14
 1796 03c2 00       		.byte	0
 1797 03c3 04       		.uleb128 0x4
 1798 03c4 C20B0000 		.4byte	.LASF60
 1799 03c8 06       		.byte	0x6
 1800 03c9 7001     		.2byte	0x170
 1801 03cb E9020000 		.4byte	0x2e9
 1802 03cf 0F       		.uleb128 0xf
 1803 03d0 1A       		.byte	0x1a
 1804 03d1 06       		.byte	0x6
 1805 03d2 7501     		.2byte	0x175
 1806 03d4 C3040000 		.4byte	0x4c3
 1807 03d8 0C       		.uleb128 0xc
 1808 03d9 43050000 		.4byte	.LASF47
 1809 03dd 06       		.byte	0x6
 1810 03de 7A01     		.2byte	0x17a
 1811 03e0 77000000 		.4byte	0x77
 1812 03e4 00       		.byte	0
 1813 03e5 0C       		.uleb128 0xc
 1814 03e6 CD090000 		.4byte	.LASF29
 1815 03ea 06       		.byte	0x6
 1816 03eb 7F01     		.2byte	0x17f
 1817 03ed D0000000 		.4byte	0xd0
 1818 03f1 02       		.byte	0x2
 1819 03f2 0C       		.uleb128 0xc
 1820 03f3 F0040000 		.4byte	.LASF30
 1821 03f7 06       		.byte	0x6
 1822 03f8 8401     		.2byte	0x184
 1823 03fa 6B000000 		.4byte	0x6b
 1824 03fe 04       		.byte	0x4
 1825 03ff 0C       		.uleb128 0xc
ARM GAS  C:\Users\exp32\AppData\Local\Temp\ccki8209.s 			page 84


 1826 0400 04060000 		.4byte	.LASF31
 1827 0404 06       		.byte	0x6
 1828 0405 8901     		.2byte	0x189
 1829 0407 6B000000 		.4byte	0x6b
 1830 040b 05       		.byte	0x5
 1831 040c 0C       		.uleb128 0xc
 1832 040d 44040000 		.4byte	.LASF32
 1833 0411 06       		.byte	0x6
 1834 0412 8F01     		.2byte	0x18f
 1835 0414 6B000000 		.4byte	0x6b
 1836 0418 06       		.byte	0x6
 1837 0419 0C       		.uleb128 0xc
 1838 041a C3050000 		.4byte	.LASF48
 1839 041e 06       		.byte	0x6
 1840 041f 9501     		.2byte	0x195
 1841 0421 6B000000 		.4byte	0x6b
 1842 0425 07       		.byte	0x7
 1843 0426 0C       		.uleb128 0xc
 1844 0427 8B040000 		.4byte	.LASF49
 1845 042b 06       		.byte	0x6
 1846 042c 9C01     		.2byte	0x19c
 1847 042e DC000000 		.4byte	0xdc
 1848 0432 08       		.byte	0x8
 1849 0433 0C       		.uleb128 0xc
 1850 0434 96090000 		.4byte	.LASF50
 1851 0438 06       		.byte	0x6
 1852 0439 A301     		.2byte	0x1a3
 1853 043b CD020000 		.4byte	0x2cd
 1854 043f 09       		.byte	0x9
 1855 0440 0C       		.uleb128 0xc
 1856 0441 40090000 		.4byte	.LASF51
 1857 0445 06       		.byte	0x6
 1858 0446 AA01     		.2byte	0x1aa
 1859 0448 CD020000 		.4byte	0x2cd
 1860 044c 0A       		.byte	0xa
 1861 044d 0C       		.uleb128 0xc
 1862 044e 2C020000 		.4byte	.LASF52
 1863 0452 06       		.byte	0x6
 1864 0453 AF01     		.2byte	0x1af
 1865 0455 6B000000 		.4byte	0x6b
 1866 0459 0B       		.byte	0xb
 1867 045a 0C       		.uleb128 0xc
 1868 045b D20A0000 		.4byte	.LASF53
 1869 045f 06       		.byte	0x6
 1870 0460 B701     		.2byte	0x1b7
 1871 0462 77000000 		.4byte	0x77
 1872 0466 0C       		.byte	0xc
 1873 0467 0C       		.uleb128 0xc
 1874 0468 39050000 		.4byte	.LASF54
 1875 046c 06       		.byte	0x6
 1876 046d BE01     		.2byte	0x1be
 1877 046f 77000000 		.4byte	0x77
 1878 0473 0E       		.byte	0xe
 1879 0474 0C       		.uleb128 0xc
 1880 0475 93080000 		.4byte	.LASF55
 1881 0479 06       		.byte	0x6
 1882 047a C301     		.2byte	0x1c3
ARM GAS  C:\Users\exp32\AppData\Local\Temp\ccki8209.s 			page 85


 1883 047c 6B000000 		.4byte	0x6b
 1884 0480 10       		.byte	0x10
 1885 0481 0C       		.uleb128 0xc
 1886 0482 FD040000 		.4byte	.LASF56
 1887 0486 06       		.byte	0x6
 1888 0487 C801     		.2byte	0x1c8
 1889 0489 6B000000 		.4byte	0x6b
 1890 048d 11       		.byte	0x11
 1891 048e 0C       		.uleb128 0xc
 1892 048f 5A090000 		.4byte	.LASF57
 1893 0493 06       		.byte	0x6
 1894 0494 CE01     		.2byte	0x1ce
 1895 0496 77000000 		.4byte	0x77
 1896 049a 12       		.byte	0x12
 1897 049b 0C       		.uleb128 0xc
 1898 049c 3D040000 		.4byte	.LASF58
 1899 04a0 06       		.byte	0x6
 1900 04a1 D301     		.2byte	0x1d3
 1901 04a3 77000000 		.4byte	0x77
 1902 04a7 14       		.byte	0x14
 1903 04a8 0C       		.uleb128 0xc
 1904 04a9 810A0000 		.4byte	.LASF61
 1905 04ad 06       		.byte	0x6
 1906 04ae D801     		.2byte	0x1d8
 1907 04b0 77000000 		.4byte	0x77
 1908 04b4 16       		.byte	0x16
 1909 04b5 0C       		.uleb128 0xc
 1910 04b6 860A0000 		.4byte	.LASF62
 1911 04ba 06       		.byte	0x6
 1912 04bb DD01     		.2byte	0x1dd
 1913 04bd 77000000 		.4byte	0x77
 1914 04c1 18       		.byte	0x18
 1915 04c2 00       		.byte	0
 1916 04c3 04       		.uleb128 0x4
 1917 04c4 B5060000 		.4byte	.LASF63
 1918 04c8 06       		.byte	0x6
 1919 04c9 DE01     		.2byte	0x1de
 1920 04cb CF030000 		.4byte	0x3cf
 1921 04cf 0F       		.uleb128 0xf
 1922 04d0 18       		.byte	0x18
 1923 04d1 06       		.byte	0x6
 1924 04d2 E301     		.2byte	0x1e3
 1925 04d4 B6050000 		.4byte	0x5b6
 1926 04d8 0C       		.uleb128 0xc
 1927 04d9 43050000 		.4byte	.LASF47
 1928 04dd 06       		.byte	0x6
 1929 04de E801     		.2byte	0x1e8
 1930 04e0 77000000 		.4byte	0x77
 1931 04e4 00       		.byte	0
 1932 04e5 0C       		.uleb128 0xc
 1933 04e6 CD090000 		.4byte	.LASF29
 1934 04ea 06       		.byte	0x6
 1935 04eb ED01     		.2byte	0x1ed
 1936 04ed D0000000 		.4byte	0xd0
 1937 04f1 02       		.byte	0x2
 1938 04f2 0C       		.uleb128 0xc
 1939 04f3 F0040000 		.4byte	.LASF30
ARM GAS  C:\Users\exp32\AppData\Local\Temp\ccki8209.s 			page 86


 1940 04f7 06       		.byte	0x6
 1941 04f8 F201     		.2byte	0x1f2
 1942 04fa 6B000000 		.4byte	0x6b
 1943 04fe 04       		.byte	0x4
 1944 04ff 0C       		.uleb128 0xc
 1945 0500 04060000 		.4byte	.LASF31
 1946 0504 06       		.byte	0x6
 1947 0505 F701     		.2byte	0x1f7
 1948 0507 6B000000 		.4byte	0x6b
 1949 050b 05       		.byte	0x5
 1950 050c 0C       		.uleb128 0xc
 1951 050d 44040000 		.4byte	.LASF32
 1952 0511 06       		.byte	0x6
 1953 0512 FD01     		.2byte	0x1fd
 1954 0514 6B000000 		.4byte	0x6b
 1955 0518 06       		.byte	0x6
 1956 0519 0C       		.uleb128 0xc
 1957 051a C3050000 		.4byte	.LASF48
 1958 051e 06       		.byte	0x6
 1959 051f 0302     		.2byte	0x203
 1960 0521 6B000000 		.4byte	0x6b
 1961 0525 07       		.byte	0x7
 1962 0526 0C       		.uleb128 0xc
 1963 0527 8B040000 		.4byte	.LASF49
 1964 052b 06       		.byte	0x6
 1965 052c 0A02     		.2byte	0x20a
 1966 052e DC000000 		.4byte	0xdc
 1967 0532 08       		.byte	0x8
 1968 0533 0C       		.uleb128 0xc
 1969 0534 96090000 		.4byte	.LASF50
 1970 0538 06       		.byte	0x6
 1971 0539 1102     		.2byte	0x211
 1972 053b CD020000 		.4byte	0x2cd
 1973 053f 09       		.byte	0x9
 1974 0540 0C       		.uleb128 0xc
 1975 0541 40090000 		.4byte	.LASF51
 1976 0545 06       		.byte	0x6
 1977 0546 1802     		.2byte	0x218
 1978 0548 CD020000 		.4byte	0x2cd
 1979 054c 0A       		.byte	0xa
 1980 054d 0C       		.uleb128 0xc
 1981 054e 2C020000 		.4byte	.LASF52
 1982 0552 06       		.byte	0x6
 1983 0553 1D02     		.2byte	0x21d
 1984 0555 6B000000 		.4byte	0x6b
 1985 0559 0B       		.byte	0xb
 1986 055a 0C       		.uleb128 0xc
 1987 055b D20A0000 		.4byte	.LASF53
 1988 055f 06       		.byte	0x6
 1989 0560 2502     		.2byte	0x225
 1990 0562 77000000 		.4byte	0x77
 1991 0566 0C       		.byte	0xc
 1992 0567 0C       		.uleb128 0xc
 1993 0568 39050000 		.4byte	.LASF54
 1994 056c 06       		.byte	0x6
 1995 056d 2C02     		.2byte	0x22c
 1996 056f 77000000 		.4byte	0x77
ARM GAS  C:\Users\exp32\AppData\Local\Temp\ccki8209.s 			page 87


 1997 0573 0E       		.byte	0xe
 1998 0574 0C       		.uleb128 0xc
 1999 0575 93080000 		.4byte	.LASF55
 2000 0579 06       		.byte	0x6
 2001 057a 3102     		.2byte	0x231
 2002 057c 6B000000 		.4byte	0x6b
 2003 0580 10       		.byte	0x10
 2004 0581 0C       		.uleb128 0xc
 2005 0582 FD040000 		.4byte	.LASF56
 2006 0586 06       		.byte	0x6
 2007 0587 3602     		.2byte	0x236
 2008 0589 6B000000 		.4byte	0x6b
 2009 058d 11       		.byte	0x11
 2010 058e 0C       		.uleb128 0xc
 2011 058f 5A090000 		.4byte	.LASF57
 2012 0593 06       		.byte	0x6
 2013 0594 3C02     		.2byte	0x23c
 2014 0596 77000000 		.4byte	0x77
 2015 059a 12       		.byte	0x12
 2016 059b 0C       		.uleb128 0xc
 2017 059c 3D040000 		.4byte	.LASF58
 2018 05a0 06       		.byte	0x6
 2019 05a1 4102     		.2byte	0x241
 2020 05a3 77000000 		.4byte	0x77
 2021 05a7 14       		.byte	0x14
 2022 05a8 0C       		.uleb128 0xc
 2023 05a9 EB0B0000 		.4byte	.LASF64
 2024 05ad 06       		.byte	0x6
 2025 05ae 4602     		.2byte	0x246
 2026 05b0 B6050000 		.4byte	0x5b6
 2027 05b4 16       		.byte	0x16
 2028 05b5 00       		.byte	0
 2029 05b6 0D       		.uleb128 0xd
 2030 05b7 77000000 		.4byte	0x77
 2031 05bb C6050000 		.4byte	0x5c6
 2032 05bf 0E       		.uleb128 0xe
 2033 05c0 C7000000 		.4byte	0xc7
 2034 05c4 00       		.byte	0
 2035 05c5 00       		.byte	0
 2036 05c6 04       		.uleb128 0x4
 2037 05c7 2C0A0000 		.4byte	.LASF65
 2038 05cb 06       		.byte	0x6
 2039 05cc 4702     		.2byte	0x247
 2040 05ce CF040000 		.4byte	0x4cf
 2041 05d2 0F       		.uleb128 0xf
 2042 05d3 5E       		.byte	0x5e
 2043 05d4 06       		.byte	0x6
 2044 05d5 4D02     		.2byte	0x24d
 2045 05d7 10060000 		.4byte	0x610
 2046 05db 0C       		.uleb128 0xc
 2047 05dc 17090000 		.4byte	.LASF66
 2048 05e0 06       		.byte	0x6
 2049 05e1 5202     		.2byte	0x252
 2050 05e3 C3030000 		.4byte	0x3c3
 2051 05e7 00       		.byte	0
 2052 05e8 0C       		.uleb128 0xc
 2053 05e9 1F090000 		.4byte	.LASF67
ARM GAS  C:\Users\exp32\AppData\Local\Temp\ccki8209.s 			page 88


 2054 05ed 06       		.byte	0x6
 2055 05ee 5702     		.2byte	0x257
 2056 05f0 C3030000 		.4byte	0x3c3
 2057 05f4 16       		.byte	0x16
 2058 05f5 0C       		.uleb128 0xc
 2059 05f6 27030000 		.4byte	.LASF68
 2060 05fa 06       		.byte	0x6
 2061 05fb 5C02     		.2byte	0x25c
 2062 05fd C3040000 		.4byte	0x4c3
 2063 0601 2C       		.byte	0x2c
 2064 0602 0C       		.uleb128 0xc
 2065 0603 B90A0000 		.4byte	.LASF69
 2066 0607 06       		.byte	0x6
 2067 0608 6102     		.2byte	0x261
 2068 060a C6050000 		.4byte	0x5c6
 2069 060e 46       		.byte	0x46
 2070 060f 00       		.byte	0
 2071 0610 04       		.uleb128 0x4
 2072 0611 CC010000 		.4byte	.LASF70
 2073 0615 06       		.byte	0x6
 2074 0616 6202     		.2byte	0x262
 2075 0618 D2050000 		.4byte	0x5d2
 2076 061c 0F       		.uleb128 0xf
 2077 061d 0A       		.byte	0xa
 2078 061e 06       		.byte	0x6
 2079 061f 6802     		.2byte	0x268
 2080 0621 74060000 		.4byte	0x674
 2081 0625 10       		.uleb128 0x10
 2082 0626 72617700 		.ascii	"raw\000"
 2083 062a 06       		.byte	0x6
 2084 062b 6D02     		.2byte	0x26d
 2085 062d B6050000 		.4byte	0x5b6
 2086 0631 00       		.byte	0
 2087 0632 0C       		.uleb128 0xc
 2088 0633 E50A0000 		.4byte	.LASF71
 2089 0637 06       		.byte	0x6
 2090 0638 7202     		.2byte	0x272
 2091 063a B6050000 		.4byte	0x5b6
 2092 063e 02       		.byte	0x2
 2093 063f 0C       		.uleb128 0xc
 2094 0640 D6090000 		.4byte	.LASF72
 2095 0644 06       		.byte	0x6
 2096 0645 7802     		.2byte	0x278
 2097 0647 CD020000 		.4byte	0x2cd
 2098 064b 04       		.byte	0x4
 2099 064c 0C       		.uleb128 0xc
 2100 064d EB080000 		.4byte	.LASF73
 2101 0651 06       		.byte	0x6
 2102 0652 7D02     		.2byte	0x27d
 2103 0654 D0000000 		.4byte	0xd0
 2104 0658 06       		.byte	0x6
 2105 0659 0C       		.uleb128 0xc
 2106 065a 490B0000 		.4byte	.LASF74
 2107 065e 06       		.byte	0x6
 2108 065f 8202     		.2byte	0x282
 2109 0661 74060000 		.4byte	0x674
 2110 0665 08       		.byte	0x8
ARM GAS  C:\Users\exp32\AppData\Local\Temp\ccki8209.s 			page 89


 2111 0666 0C       		.uleb128 0xc
 2112 0667 92050000 		.4byte	.LASF75
 2113 066b 06       		.byte	0x6
 2114 066c 8702     		.2byte	0x287
 2115 066e CD020000 		.4byte	0x2cd
 2116 0672 09       		.byte	0x9
 2117 0673 00       		.byte	0
 2118 0674 0D       		.uleb128 0xd
 2119 0675 DC000000 		.4byte	0xdc
 2120 0679 84060000 		.4byte	0x684
 2121 067d 0E       		.uleb128 0xe
 2122 067e C7000000 		.4byte	0xc7
 2123 0682 00       		.byte	0
 2124 0683 00       		.byte	0
 2125 0684 04       		.uleb128 0x4
 2126 0685 620B0000 		.4byte	.LASF76
 2127 0689 06       		.byte	0x6
 2128 068a 8802     		.2byte	0x288
 2129 068c 1C060000 		.4byte	0x61c
 2130 0690 0F       		.uleb128 0xf
 2131 0691 AA       		.byte	0xaa
 2132 0692 06       		.byte	0x6
 2133 0693 8E02     		.2byte	0x28e
 2134 0695 CE060000 		.4byte	0x6ce
 2135 0699 0C       		.uleb128 0xc
 2136 069a 17090000 		.4byte	.LASF66
 2137 069e 06       		.byte	0x6
 2138 069f 9302     		.2byte	0x293
 2139 06a1 CE060000 		.4byte	0x6ce
 2140 06a5 00       		.byte	0
 2141 06a6 0C       		.uleb128 0xc
 2142 06a7 1F090000 		.4byte	.LASF67
 2143 06ab 06       		.byte	0x6
 2144 06ac 9802     		.2byte	0x298
 2145 06ae CE060000 		.4byte	0x6ce
 2146 06b2 0A       		.byte	0xa
 2147 06b3 0C       		.uleb128 0xc
 2148 06b4 27030000 		.4byte	.LASF68
 2149 06b8 06       		.byte	0x6
 2150 06b9 9D02     		.2byte	0x29d
 2151 06bb DE060000 		.4byte	0x6de
 2152 06bf 14       		.byte	0x14
 2153 06c0 0C       		.uleb128 0xc
 2154 06c1 B90A0000 		.4byte	.LASF69
 2155 06c5 06       		.byte	0x6
 2156 06c6 A202     		.2byte	0x2a2
 2157 06c8 EE060000 		.4byte	0x6ee
 2158 06cc 8C       		.byte	0x8c
 2159 06cd 00       		.byte	0
 2160 06ce 0D       		.uleb128 0xd
 2161 06cf 84060000 		.4byte	0x684
 2162 06d3 DE060000 		.4byte	0x6de
 2163 06d7 0E       		.uleb128 0xe
 2164 06d8 C7000000 		.4byte	0xc7
 2165 06dc 00       		.byte	0
 2166 06dd 00       		.byte	0
 2167 06de 0D       		.uleb128 0xd
ARM GAS  C:\Users\exp32\AppData\Local\Temp\ccki8209.s 			page 90


 2168 06df 84060000 		.4byte	0x684
 2169 06e3 EE060000 		.4byte	0x6ee
 2170 06e7 0E       		.uleb128 0xe
 2171 06e8 C7000000 		.4byte	0xc7
 2172 06ec 0B       		.byte	0xb
 2173 06ed 00       		.byte	0
 2174 06ee 0D       		.uleb128 0xd
 2175 06ef 84060000 		.4byte	0x684
 2176 06f3 FE060000 		.4byte	0x6fe
 2177 06f7 0E       		.uleb128 0xe
 2178 06f8 C7000000 		.4byte	0xc7
 2179 06fc 02       		.byte	0x2
 2180 06fd 00       		.byte	0
 2181 06fe 04       		.uleb128 0x4
 2182 06ff DB060000 		.4byte	.LASF77
 2183 0703 06       		.byte	0x6
 2184 0704 A302     		.2byte	0x2a3
 2185 0706 90060000 		.4byte	0x690
 2186 070a 11       		.uleb128 0x11
 2187 070b 3401     		.2byte	0x134
 2188 070d 06       		.byte	0x6
 2189 070e A902     		.2byte	0x2a9
 2190 0710 12080000 		.4byte	0x812
 2191 0714 0C       		.uleb128 0xc
 2192 0715 70070000 		.4byte	.LASF78
 2193 0719 06       		.byte	0x6
 2194 071a B002     		.2byte	0x2b0
 2195 071c 77000000 		.4byte	0x77
 2196 0720 00       		.byte	0
 2197 0721 0C       		.uleb128 0xc
 2198 0722 AD0B0000 		.4byte	.LASF79
 2199 0726 06       		.byte	0x6
 2200 0727 B502     		.2byte	0x2b5
 2201 0729 77000000 		.4byte	0x77
 2202 072d 02       		.byte	0x2
 2203 072e 0C       		.uleb128 0xc
 2204 072f FC000000 		.4byte	.LASF80
 2205 0733 06       		.byte	0x6
 2206 0734 BA02     		.2byte	0x2ba
 2207 0736 77000000 		.4byte	0x77
 2208 073a 04       		.byte	0x4
 2209 073b 0C       		.uleb128 0xc
 2210 073c F0080000 		.4byte	.LASF81
 2211 0740 06       		.byte	0x6
 2212 0741 C002     		.2byte	0x2c0
 2213 0743 77000000 		.4byte	0x77
 2214 0747 06       		.byte	0x6
 2215 0748 0C       		.uleb128 0xc
 2216 0749 F0000000 		.4byte	.LASF82
 2217 074d 06       		.byte	0x6
 2218 074e C502     		.2byte	0x2c5
 2219 0750 77000000 		.4byte	0x77
 2220 0754 08       		.byte	0x8
 2221 0755 0C       		.uleb128 0xc
 2222 0756 64050000 		.4byte	.LASF83
 2223 075a 06       		.byte	0x6
 2224 075b CA02     		.2byte	0x2ca
ARM GAS  C:\Users\exp32\AppData\Local\Temp\ccki8209.s 			page 91


 2225 075d B0000000 		.4byte	0xb0
 2226 0761 0C       		.byte	0xc
 2227 0762 0C       		.uleb128 0xc
 2228 0763 CD080000 		.4byte	.LASF84
 2229 0767 06       		.byte	0x6
 2230 0768 D002     		.2byte	0x2d0
 2231 076a 12080000 		.4byte	0x812
 2232 076e 10       		.byte	0x10
 2233 076f 0C       		.uleb128 0xc
 2234 0770 64090000 		.4byte	.LASF85
 2235 0774 06       		.byte	0x6
 2236 0775 D702     		.2byte	0x2d7
 2237 0777 12080000 		.4byte	0x812
 2238 077b 14       		.byte	0x14
 2239 077c 0C       		.uleb128 0xc
 2240 077d D2070000 		.4byte	.LASF86
 2241 0781 06       		.byte	0x6
 2242 0782 E702     		.2byte	0x2e7
 2243 0784 22080000 		.4byte	0x822
 2244 0788 18       		.byte	0x18
 2245 0789 0C       		.uleb128 0xc
 2246 078a 0D060000 		.4byte	.LASF87
 2247 078e 06       		.byte	0x6
 2248 078f ED02     		.2byte	0x2ed
 2249 0791 77000000 		.4byte	0x77
 2250 0795 20       		.byte	0x20
 2251 0796 0C       		.uleb128 0xc
 2252 0797 FD030000 		.4byte	.LASF88
 2253 079b 06       		.byte	0x6
 2254 079c F202     		.2byte	0x2f2
 2255 079e 6B000000 		.4byte	0x6b
 2256 07a2 22       		.byte	0x22
 2257 07a3 0C       		.uleb128 0xc
 2258 07a4 D8050000 		.4byte	.LASF89
 2259 07a8 06       		.byte	0x6
 2260 07a9 F702     		.2byte	0x2f7
 2261 07ab 10060000 		.4byte	0x610
 2262 07af 24       		.byte	0x24
 2263 07b0 0C       		.uleb128 0xc
 2264 07b1 EA020000 		.4byte	.LASF90
 2265 07b5 06       		.byte	0x6
 2266 07b6 FC02     		.2byte	0x2fc
 2267 07b8 FE060000 		.4byte	0x6fe
 2268 07bc 82       		.byte	0x82
 2269 07bd 12       		.uleb128 0x12
 2270 07be A8000000 		.4byte	.LASF91
 2271 07c2 06       		.byte	0x6
 2272 07c3 0103     		.2byte	0x301
 2273 07c5 6B000000 		.4byte	0x6b
 2274 07c9 2C01     		.2byte	0x12c
 2275 07cb 12       		.uleb128 0x12
 2276 07cc 4C030000 		.4byte	.LASF92
 2277 07d0 06       		.byte	0x6
 2278 07d1 0603     		.2byte	0x306
 2279 07d3 6B000000 		.4byte	0x6b
 2280 07d7 2D01     		.2byte	0x12d
 2281 07d9 12       		.uleb128 0x12
ARM GAS  C:\Users\exp32\AppData\Local\Temp\ccki8209.s 			page 92


 2282 07da 5D070000 		.4byte	.LASF93
 2283 07de 06       		.byte	0x6
 2284 07df 0B03     		.2byte	0x30b
 2285 07e1 77000000 		.4byte	0x77
 2286 07e5 2E01     		.2byte	0x12e
 2287 07e7 12       		.uleb128 0x12
 2288 07e8 ED050000 		.4byte	.LASF94
 2289 07ec 06       		.byte	0x6
 2290 07ed 1003     		.2byte	0x310
 2291 07ef B6050000 		.4byte	0x5b6
 2292 07f3 3001     		.2byte	0x130
 2293 07f5 12       		.uleb128 0x12
 2294 07f6 04010000 		.4byte	.LASF95
 2295 07fa 06       		.byte	0x6
 2296 07fb 1503     		.2byte	0x315
 2297 07fd 6B000000 		.4byte	0x6b
 2298 0801 3201     		.2byte	0x132
 2299 0803 12       		.uleb128 0x12
 2300 0804 8B0A0000 		.4byte	.LASF96
 2301 0808 06       		.byte	0x6
 2302 0809 1A03     		.2byte	0x31a
 2303 080b 6B000000 		.4byte	0x6b
 2304 080f 3301     		.2byte	0x133
 2305 0811 00       		.byte	0
 2306 0812 0D       		.uleb128 0xd
 2307 0813 83000000 		.4byte	0x83
 2308 0817 22080000 		.4byte	0x822
 2309 081b 0E       		.uleb128 0xe
 2310 081c C7000000 		.4byte	0xc7
 2311 0820 00       		.byte	0
 2312 0821 00       		.byte	0
 2313 0822 0D       		.uleb128 0xd
 2314 0823 77000000 		.4byte	0x77
 2315 0827 32080000 		.4byte	0x832
 2316 082b 0E       		.uleb128 0xe
 2317 082c C7000000 		.4byte	0xc7
 2318 0830 03       		.byte	0x3
 2319 0831 00       		.byte	0
 2320 0832 04       		.uleb128 0x4
 2321 0833 4E050000 		.4byte	.LASF97
 2322 0837 06       		.byte	0x6
 2323 0838 1B03     		.2byte	0x31b
 2324 083a 0A070000 		.4byte	0x70a
 2325 083e 0F       		.uleb128 0xf
 2326 083f 34       		.byte	0x34
 2327 0840 06       		.byte	0x6
 2328 0841 8203     		.2byte	0x382
 2329 0843 18090000 		.4byte	0x918
 2330 0847 0C       		.uleb128 0xc
 2331 0848 FD0A0000 		.4byte	.LASF98
 2332 084c 06       		.byte	0x6
 2333 084d 8B03     		.2byte	0x38b
 2334 084f 18090000 		.4byte	0x918
 2335 0853 00       		.byte	0
 2336 0854 0C       		.uleb128 0xc
 2337 0855 A50A0000 		.4byte	.LASF99
 2338 0859 06       		.byte	0x6
ARM GAS  C:\Users\exp32\AppData\Local\Temp\ccki8209.s 			page 93


 2339 085a 9203     		.2byte	0x392
 2340 085c CE000000 		.4byte	0xce
 2341 0860 04       		.byte	0x4
 2342 0861 0C       		.uleb128 0xc
 2343 0862 79070000 		.4byte	.LASF100
 2344 0866 06       		.byte	0x6
 2345 0867 9803     		.2byte	0x398
 2346 0869 1F090000 		.4byte	0x91f
 2347 086d 08       		.byte	0x8
 2348 086e 0C       		.uleb128 0xc
 2349 086f 8E060000 		.4byte	.LASF101
 2350 0873 06       		.byte	0x6
 2351 0874 9E03     		.2byte	0x39e
 2352 0876 CE000000 		.4byte	0xce
 2353 087a 0C       		.byte	0xc
 2354 087b 0C       		.uleb128 0xc
 2355 087c 9E090000 		.4byte	.LASF102
 2356 0880 06       		.byte	0x6
 2357 0881 A503     		.2byte	0x3a5
 2358 0883 25090000 		.4byte	0x925
 2359 0887 10       		.byte	0x10
 2360 0888 0C       		.uleb128 0xc
 2361 0889 740A0000 		.4byte	.LASF103
 2362 088d 06       		.byte	0x6
 2363 088e AA03     		.2byte	0x3aa
 2364 0890 83000000 		.4byte	0x83
 2365 0894 14       		.byte	0x14
 2366 0895 0C       		.uleb128 0xc
 2367 0896 A6040000 		.4byte	.LASF104
 2368 089a 06       		.byte	0x6
 2369 089b B103     		.2byte	0x3b1
 2370 089d 77000000 		.4byte	0x77
 2371 08a1 18       		.byte	0x18
 2372 08a2 0C       		.uleb128 0xc
 2373 08a3 8A030000 		.4byte	.LASF105
 2374 08a7 06       		.byte	0x6
 2375 08a8 B803     		.2byte	0x3b8
 2376 08aa 6B000000 		.4byte	0x6b
 2377 08ae 1A       		.byte	0x1a
 2378 08af 0C       		.uleb128 0xc
 2379 08b0 38090000 		.4byte	.LASF106
 2380 08b4 06       		.byte	0x6
 2381 08b5 C203     		.2byte	0x3c2
 2382 08b7 6B000000 		.4byte	0x6b
 2383 08bb 1B       		.byte	0x1b
 2384 08bc 0C       		.uleb128 0xc
 2385 08bd B10A0000 		.4byte	.LASF107
 2386 08c1 06       		.byte	0x6
 2387 08c2 CA03     		.2byte	0x3ca
 2388 08c4 6B000000 		.4byte	0x6b
 2389 08c8 1C       		.byte	0x1c
 2390 08c9 0C       		.uleb128 0xc
 2391 08ca 40080000 		.4byte	.LASF108
 2392 08ce 06       		.byte	0x6
 2393 08cf CF03     		.2byte	0x3cf
 2394 08d1 77000000 		.4byte	0x77
 2395 08d5 1E       		.byte	0x1e
ARM GAS  C:\Users\exp32\AppData\Local\Temp\ccki8209.s 			page 94


 2396 08d6 0C       		.uleb128 0xc
 2397 08d7 B60B0000 		.4byte	.LASF109
 2398 08db 06       		.byte	0x6
 2399 08dc D403     		.2byte	0x3d4
 2400 08de 77000000 		.4byte	0x77
 2401 08e2 20       		.byte	0x20
 2402 08e3 0C       		.uleb128 0xc
 2403 08e4 B9090000 		.4byte	.LASF110
 2404 08e8 06       		.byte	0x6
 2405 08e9 DD03     		.2byte	0x3dd
 2406 08eb 83000000 		.4byte	0x83
 2407 08ef 24       		.byte	0x24
 2408 08f0 0C       		.uleb128 0xc
 2409 08f1 2C080000 		.4byte	.LASF111
 2410 08f5 06       		.byte	0x6
 2411 08f6 E603     		.2byte	0x3e6
 2412 08f8 83000000 		.4byte	0x83
 2413 08fc 28       		.byte	0x28
 2414 08fd 0C       		.uleb128 0xc
 2415 08fe 7B030000 		.4byte	.LASF112
 2416 0902 06       		.byte	0x6
 2417 0903 EE03     		.2byte	0x3ee
 2418 0905 2B090000 		.4byte	0x92b
 2419 0909 2C       		.byte	0x2c
 2420 090a 0C       		.uleb128 0xc
 2421 090b BD010000 		.4byte	.LASF113
 2422 090f 06       		.byte	0x6
 2423 0910 F303     		.2byte	0x3f3
 2424 0912 6B000000 		.4byte	0x6b
 2425 0916 30       		.byte	0x30
 2426 0917 00       		.byte	0
 2427 0918 13       		.uleb128 0x13
 2428 0919 04       		.byte	0x4
 2429 091a 1E090000 		.4byte	0x91e
 2430 091e 14       		.uleb128 0x14
 2431 091f 13       		.uleb128 0x13
 2432 0920 04       		.byte	0x4
 2433 0921 84060000 		.4byte	0x684
 2434 0925 13       		.uleb128 0x13
 2435 0926 04       		.byte	0x4
 2436 0927 6B000000 		.4byte	0x6b
 2437 092b 13       		.uleb128 0x13
 2438 092c 04       		.byte	0x4
 2439 092d 45010000 		.4byte	0x145
 2440 0931 04       		.uleb128 0x4
 2441 0932 11000000 		.4byte	.LASF114
 2442 0936 06       		.byte	0x6
 2443 0937 F403     		.2byte	0x3f4
 2444 0939 3E080000 		.4byte	0x83e
 2445 093d 0F       		.uleb128 0xf
 2446 093e D0       		.byte	0xd0
 2447 093f 06       		.byte	0x6
 2448 0940 FA03     		.2byte	0x3fa
 2449 0942 54090000 		.4byte	0x954
 2450 0946 0C       		.uleb128 0xc
 2451 0947 F40B0000 		.4byte	.LASF115
 2452 094b 06       		.byte	0x6
ARM GAS  C:\Users\exp32\AppData\Local\Temp\ccki8209.s 			page 95


 2453 094c FF03     		.2byte	0x3ff
 2454 094e 54090000 		.4byte	0x954
 2455 0952 00       		.byte	0
 2456 0953 00       		.byte	0
 2457 0954 0D       		.uleb128 0xd
 2458 0955 31090000 		.4byte	0x931
 2459 0959 64090000 		.4byte	0x964
 2460 095d 0E       		.uleb128 0xe
 2461 095e C7000000 		.4byte	0xc7
 2462 0962 03       		.byte	0x3
 2463 0963 00       		.byte	0
 2464 0964 04       		.uleb128 0x4
 2465 0965 BA070000 		.4byte	.LASF116
 2466 0969 06       		.byte	0x6
 2467 096a 0004     		.2byte	0x400
 2468 096c 3D090000 		.4byte	0x93d
 2469 0970 0F       		.uleb128 0xf
 2470 0971 02       		.byte	0x2
 2471 0972 06       		.byte	0x6
 2472 0973 3504     		.2byte	0x435
 2473 0975 87090000 		.4byte	0x987
 2474 0979 0C       		.uleb128 0xc
 2475 097a 0A0B0000 		.4byte	.LASF117
 2476 097e 06       		.byte	0x6
 2477 097f 3704     		.2byte	0x437
 2478 0981 77000000 		.4byte	0x77
 2479 0985 00       		.byte	0
 2480 0986 00       		.byte	0
 2481 0987 04       		.uleb128 0x4
 2482 0988 2C000000 		.4byte	.LASF118
 2483 098c 06       		.byte	0x6
 2484 098d 3804     		.2byte	0x438
 2485 098f 70090000 		.4byte	0x970
 2486 0993 0F       		.uleb128 0xf
 2487 0994 02       		.byte	0x2
 2488 0995 06       		.byte	0x6
 2489 0996 3D04     		.2byte	0x43d
 2490 0998 AA090000 		.4byte	0x9aa
 2491 099c 0C       		.uleb128 0xc
 2492 099d EE030000 		.4byte	.LASF119
 2493 09a1 06       		.byte	0x6
 2494 09a2 4204     		.2byte	0x442
 2495 09a4 AA090000 		.4byte	0x9aa
 2496 09a8 00       		.byte	0
 2497 09a9 00       		.byte	0
 2498 09aa 0D       		.uleb128 0xd
 2499 09ab 87090000 		.4byte	0x987
 2500 09af BA090000 		.4byte	0x9ba
 2501 09b3 0E       		.uleb128 0xe
 2502 09b4 C7000000 		.4byte	0xc7
 2503 09b8 00       		.byte	0
 2504 09b9 00       		.byte	0
 2505 09ba 04       		.uleb128 0x4
 2506 09bb 5C030000 		.4byte	.LASF120
 2507 09bf 06       		.byte	0x6
 2508 09c0 4304     		.2byte	0x443
 2509 09c2 93090000 		.4byte	0x993
ARM GAS  C:\Users\exp32\AppData\Local\Temp\ccki8209.s 			page 96


 2510 09c6 15       		.uleb128 0x15
 2511 09c7 04       		.byte	0x4
 2512 09c8 06       		.byte	0x6
 2513 09c9 4804     		.2byte	0x448
 2514 09cb E8090000 		.4byte	0x9e8
 2515 09cf 16       		.uleb128 0x16
 2516 09d0 70747200 		.ascii	"ptr\000"
 2517 09d4 06       		.byte	0x6
 2518 09d5 4D04     		.2byte	0x44d
 2519 09d7 CE000000 		.4byte	0xce
 2520 09db 17       		.uleb128 0x17
 2521 09dc AE090000 		.4byte	.LASF121
 2522 09e0 06       		.byte	0x6
 2523 09e1 5204     		.2byte	0x452
 2524 09e3 E8090000 		.4byte	0x9e8
 2525 09e7 00       		.byte	0
 2526 09e8 13       		.uleb128 0x13
 2527 09e9 04       		.byte	0x4
 2528 09ea BA090000 		.4byte	0x9ba
 2529 09ee 04       		.uleb128 0x4
 2530 09ef 4F040000 		.4byte	.LASF122
 2531 09f3 06       		.byte	0x6
 2532 09f4 5304     		.2byte	0x453
 2533 09f6 C6090000 		.4byte	0x9c6
 2534 09fa 18       		.uleb128 0x18
 2535 09fb 20010000 		.4byte	.LASF124
 2536 09ff 01       		.byte	0x1
 2537 0a00 3A01     		.2byte	0x13a
 2538 0a02 03       		.byte	0x3
 2539 0a03 2C0A0000 		.4byte	0xa2c
 2540 0a07 19       		.uleb128 0x19
 2541 0a08 670A0000 		.4byte	.LASF126
 2542 0a0c 01       		.byte	0x1
 2543 0a0d 3A01     		.2byte	0x13a
 2544 0a0f 2C0A0000 		.4byte	0xa2c
 2545 0a13 1A       		.uleb128 0x1a
 2546 0a14 69647800 		.ascii	"idx\000"
 2547 0a18 01       		.byte	0x1
 2548 0a19 3C01     		.2byte	0x13c
 2549 0a1b 83000000 		.4byte	0x83
 2550 0a1f 1B       		.uleb128 0x1b
 2551 0a20 E1050000 		.4byte	.LASF123
 2552 0a24 01       		.byte	0x1
 2553 0a25 3D01     		.2byte	0x13d
 2554 0a27 370A0000 		.4byte	0xa37
 2555 0a2b 00       		.byte	0
 2556 0a2c 13       		.uleb128 0x13
 2557 0a2d 04       		.byte	0x4
 2558 0a2e 320A0000 		.4byte	0xa32
 2559 0a32 1C       		.uleb128 0x1c
 2560 0a33 31090000 		.4byte	0x931
 2561 0a37 13       		.uleb128 0x13
 2562 0a38 04       		.byte	0x4
 2563 0a39 C6050000 		.4byte	0x5c6
 2564 0a3d 1D       		.uleb128 0x1d
 2565 0a3e B8000000 		.4byte	.LASF125
 2566 0a42 01       		.byte	0x1
ARM GAS  C:\Users\exp32\AppData\Local\Temp\ccki8209.s 			page 97


 2567 0a43 97       		.byte	0x97
 2568 0a44 03       		.byte	0x3
 2569 0a45 600A0000 		.4byte	0xa60
 2570 0a49 1E       		.uleb128 0x1e
 2571 0a4a 670A0000 		.4byte	.LASF126
 2572 0a4e 01       		.byte	0x1
 2573 0a4f 97       		.byte	0x97
 2574 0a50 2C0A0000 		.4byte	0xa2c
 2575 0a54 1F       		.uleb128 0x1f
 2576 0a55 49060000 		.4byte	.LASF127
 2577 0a59 01       		.byte	0x1
 2578 0a5a 9D       		.byte	0x9d
 2579 0a5b 600A0000 		.4byte	0xa60
 2580 0a5f 00       		.byte	0
 2581 0a60 13       		.uleb128 0x13
 2582 0a61 04       		.byte	0x4
 2583 0a62 C3040000 		.4byte	0x4c3
 2584 0a66 18       		.uleb128 0x18
 2585 0a67 7C060000 		.4byte	.LASF128
 2586 0a6b 01       		.byte	0x1
 2587 0a6c B207     		.2byte	0x7b2
 2588 0a6e 03       		.byte	0x3
 2589 0a6f B00A0000 		.4byte	0xab0
 2590 0a73 19       		.uleb128 0x19
 2591 0a74 37070000 		.4byte	.LASF129
 2592 0a78 01       		.byte	0x1
 2593 0a79 B307     		.2byte	0x7b3
 2594 0a7b B00A0000 		.4byte	0xab0
 2595 0a7f 19       		.uleb128 0x19
 2596 0a80 DE090000 		.4byte	.LASF130
 2597 0a84 01       		.byte	0x1
 2598 0a85 B407     		.2byte	0x7b4
 2599 0a87 83000000 		.4byte	0x83
 2600 0a8b 19       		.uleb128 0x19
 2601 0a8c 670A0000 		.4byte	.LASF126
 2602 0a90 01       		.byte	0x1
 2603 0a91 B507     		.2byte	0x7b5
 2604 0a93 2C0A0000 		.4byte	0xa2c
 2605 0a97 19       		.uleb128 0x19
 2606 0a98 4A070000 		.4byte	.LASF131
 2607 0a9c 01       		.byte	0x1
 2608 0a9d B607     		.2byte	0x7b6
 2609 0a9f 370A0000 		.4byte	0xa37
 2610 0aa3 1B       		.uleb128 0x1b
 2611 0aa4 0D050000 		.4byte	.LASF132
 2612 0aa8 01       		.byte	0x1
 2613 0aa9 B807     		.2byte	0x7b8
 2614 0aab 83000000 		.4byte	0x83
 2615 0aaf 00       		.byte	0
 2616 0ab0 13       		.uleb128 0x13
 2617 0ab1 04       		.byte	0x4
 2618 0ab2 B60A0000 		.4byte	0xab6
 2619 0ab6 1C       		.uleb128 0x1c
 2620 0ab7 77000000 		.4byte	0x77
 2621 0abb 20       		.uleb128 0x20
 2622 0abc A5010000 		.4byte	.LASF135
 2623 0ac0 01       		.byte	0x1
ARM GAS  C:\Users\exp32\AppData\Local\Temp\ccki8209.s 			page 98


 2624 0ac1 9001     		.2byte	0x190
 2625 0ac3 00000000 		.4byte	.LFB3
 2626 0ac7 AC000000 		.4byte	.LFE3-.LFB3
 2627 0acb 01       		.uleb128 0x1
 2628 0acc 9C       		.byte	0x9c
 2629 0acd 860B0000 		.4byte	0xb86
 2630 0ad1 21       		.uleb128 0x21
 2631 0ad2 78000000 		.4byte	.LASF133
 2632 0ad6 01       		.byte	0x1
 2633 0ad7 9201     		.2byte	0x192
 2634 0ad9 83000000 		.4byte	0x83
 2635 0add 00000000 		.4byte	.LLST0
 2636 0ae1 21       		.uleb128 0x21
 2637 0ae2 570B0000 		.4byte	.LASF134
 2638 0ae6 01       		.byte	0x1
 2639 0ae7 9301     		.2byte	0x193
 2640 0ae9 CB010000 		.4byte	0x1cb
 2641 0aed 4D000000 		.4byte	.LLST1
 2642 0af1 21       		.uleb128 0x21
 2643 0af2 4A070000 		.4byte	.LASF131
 2644 0af6 01       		.byte	0x1
 2645 0af7 9401     		.2byte	0x194
 2646 0af9 860B0000 		.4byte	0xb86
 2647 0afd 76000000 		.4byte	.LLST2
 2648 0b01 21       		.uleb128 0x21
 2649 0b02 670A0000 		.4byte	.LASF126
 2650 0b06 01       		.byte	0x1
 2651 0b07 9501     		.2byte	0x195
 2652 0b09 2C0A0000 		.4byte	0xa2c
 2653 0b0d 89000000 		.4byte	.LLST3
 2654 0b11 22       		.uleb128 0x22
 2655 0b12 FA090000 		.4byte	0x9fa
 2656 0b16 62000000 		.4byte	.LBB8
 2657 0b1a 1C000000 		.4byte	.LBE8-.LBB8
 2658 0b1e 01       		.byte	0x1
 2659 0b1f DA01     		.2byte	0x1da
 2660 0b21 4B0B0000 		.4byte	0xb4b
 2661 0b25 23       		.uleb128 0x23
 2662 0b26 070A0000 		.4byte	0xa07
 2663 0b2a 9C000000 		.4byte	.LLST4
 2664 0b2e 24       		.uleb128 0x24
 2665 0b2f 62000000 		.4byte	.LBB9
 2666 0b33 1C000000 		.4byte	.LBE9-.LBB9
 2667 0b37 25       		.uleb128 0x25
 2668 0b38 130A0000 		.4byte	0xa13
 2669 0b3c AF000000 		.4byte	.LLST5
 2670 0b40 25       		.uleb128 0x25
 2671 0b41 1F0A0000 		.4byte	0xa1f
 2672 0b45 CE000000 		.4byte	.LLST6
 2673 0b49 00       		.byte	0
 2674 0b4a 00       		.byte	0
 2675 0b4b 22       		.uleb128 0x22
 2676 0b4c 3D0A0000 		.4byte	0xa3d
 2677 0b50 88000000 		.4byte	.LBB10
 2678 0b54 10000000 		.4byte	.LBE10-.LBB10
 2679 0b58 01       		.byte	0x1
 2680 0b59 EA01     		.2byte	0x1ea
ARM GAS  C:\Users\exp32\AppData\Local\Temp\ccki8209.s 			page 99


 2681 0b5b 7C0B0000 		.4byte	0xb7c
 2682 0b5f 23       		.uleb128 0x23
 2683 0b60 490A0000 		.4byte	0xa49
 2684 0b64 E1000000 		.4byte	.LLST7
 2685 0b68 24       		.uleb128 0x24
 2686 0b69 88000000 		.4byte	.LBB11
 2687 0b6d 10000000 		.4byte	.LBE11-.LBB11
 2688 0b71 25       		.uleb128 0x25
 2689 0b72 540A0000 		.4byte	0xa54
 2690 0b76 F4000000 		.4byte	.LLST8
 2691 0b7a 00       		.byte	0
 2692 0b7b 00       		.byte	0
 2693 0b7c 26       		.uleb128 0x26
 2694 0b7d 56000000 		.4byte	.LVL8
 2695 0b81 AF120000 		.4byte	0x12af
 2696 0b85 00       		.byte	0
 2697 0b86 13       		.uleb128 0x13
 2698 0b87 04       		.byte	0x4
 2699 0b88 DD020000 		.4byte	0x2dd
 2700 0b8c 20       		.uleb128 0x20
 2701 0b8d 5A000000 		.4byte	.LASF136
 2702 0b91 01       		.byte	0x1
 2703 0b92 3505     		.2byte	0x535
 2704 0b94 00000000 		.4byte	.LFB7
 2705 0b98 32000000 		.4byte	.LFE7-.LFB7
 2706 0b9c 01       		.uleb128 0x1
 2707 0b9d 9C       		.byte	0x9c
 2708 0b9e 100C0000 		.4byte	0xc10
 2709 0ba2 27       		.uleb128 0x27
 2710 0ba3 4A070000 		.4byte	.LASF131
 2711 0ba7 01       		.byte	0x1
 2712 0ba8 3505     		.2byte	0x535
 2713 0baa 860B0000 		.4byte	0xb86
 2714 0bae 07010000 		.4byte	.LLST9
 2715 0bb2 27       		.uleb128 0x27
 2716 0bb3 00000000 		.4byte	.LASF137
 2717 0bb7 01       		.byte	0x1
 2718 0bb8 3605     		.2byte	0x536
 2719 0bba 2B090000 		.4byte	0x92b
 2720 0bbe 33010000 		.4byte	.LLST10
 2721 0bc2 27       		.uleb128 0x27
 2722 0bc3 CE050000 		.4byte	.LASF138
 2723 0bc7 01       		.byte	0x1
 2724 0bc8 3705     		.2byte	0x537
 2725 0bca 83000000 		.4byte	0x83
 2726 0bce 5F010000 		.4byte	.LLST11
 2727 0bd2 28       		.uleb128 0x28
 2728 0bd3 2D090000 		.4byte	.LASF139
 2729 0bd7 01       		.byte	0x1
 2730 0bd8 3905     		.2byte	0x539
 2731 0bda 89010000 		.4byte	0x189
 2732 0bde 02       		.uleb128 0x2
 2733 0bdf 91       		.byte	0x91
 2734 0be0 70       		.sleb128 -16
 2735 0be1 21       		.uleb128 0x21
 2736 0be2 D5000000 		.4byte	.LASF140
 2737 0be6 01       		.byte	0x1
ARM GAS  C:\Users\exp32\AppData\Local\Temp\ccki8209.s 			page 100


 2738 0be7 3A05     		.2byte	0x53a
 2739 0be9 100C0000 		.4byte	0xc10
 2740 0bed 8B010000 		.4byte	.LLST12
 2741 0bf1 29       		.uleb128 0x29
 2742 0bf2 16000000 		.4byte	.LVL30
 2743 0bf6 BA120000 		.4byte	0x12ba
 2744 0bfa 2A       		.uleb128 0x2a
 2745 0bfb 01       		.uleb128 0x1
 2746 0bfc 50       		.byte	0x50
 2747 0bfd 03       		.uleb128 0x3
 2748 0bfe F3       		.byte	0xf3
 2749 0bff 01       		.uleb128 0x1
 2750 0c00 51       		.byte	0x51
 2751 0c01 2A       		.uleb128 0x2a
 2752 0c02 01       		.uleb128 0x1
 2753 0c03 51       		.byte	0x51
 2754 0c04 02       		.uleb128 0x2
 2755 0c05 7D       		.byte	0x7d
 2756 0c06 00       		.sleb128 0
 2757 0c07 2A       		.uleb128 0x2a
 2758 0c08 01       		.uleb128 0x1
 2759 0c09 53       		.byte	0x53
 2760 0c0a 03       		.uleb128 0x3
 2761 0c0b F3       		.byte	0xf3
 2762 0c0c 01       		.uleb128 0x1
 2763 0c0d 52       		.byte	0x52
 2764 0c0e 00       		.byte	0
 2765 0c0f 00       		.byte	0
 2766 0c10 13       		.uleb128 0x13
 2767 0c11 04       		.byte	0x4
 2768 0c12 89010000 		.4byte	0x189
 2769 0c16 20       		.uleb128 0x20
 2770 0c17 4C080000 		.4byte	.LASF141
 2771 0c1b 01       		.byte	0x1
 2772 0c1c 5E05     		.2byte	0x55e
 2773 0c1e 00000000 		.4byte	.LFB8
 2774 0c22 16000000 		.4byte	.LFE8-.LFB8
 2775 0c26 01       		.uleb128 0x1
 2776 0c27 9C       		.byte	0x9c
 2777 0c28 5B0C0000 		.4byte	0xc5b
 2778 0c2c 27       		.uleb128 0x27
 2779 0c2d 4A070000 		.4byte	.LASF131
 2780 0c31 01       		.byte	0x1
 2781 0c32 5F05     		.2byte	0x55f
 2782 0c34 860B0000 		.4byte	0xb86
 2783 0c38 AB010000 		.4byte	.LLST13
 2784 0c3c 2B       		.uleb128 0x2b
 2785 0c3d 58010000 		.4byte	.LASF142
 2786 0c41 01       		.byte	0x1
 2787 0c42 6005     		.2byte	0x560
 2788 0c44 1F090000 		.4byte	0x91f
 2789 0c48 01       		.uleb128 0x1
 2790 0c49 51       		.byte	0x51
 2791 0c4a 21       		.uleb128 0x21
 2792 0c4b 16010000 		.4byte	.LASF143
 2793 0c4f 01       		.byte	0x1
 2794 0c50 6205     		.2byte	0x562
ARM GAS  C:\Users\exp32\AppData\Local\Temp\ccki8209.s 			page 101


 2795 0c52 8F000000 		.4byte	0x8f
 2796 0c56 CC010000 		.4byte	.LLST14
 2797 0c5a 00       		.byte	0
 2798 0c5b 2C       		.uleb128 0x2c
 2799 0c5c 050A0000 		.4byte	.LASF147
 2800 0c60 01       		.byte	0x1
 2801 0c61 F803     		.2byte	0x3f8
 2802 0c63 83000000 		.4byte	0x83
 2803 0c67 00000000 		.4byte	.LFB4
 2804 0c6b 5C000000 		.4byte	.LFE4-.LFB4
 2805 0c6f 01       		.uleb128 0x1
 2806 0c70 9C       		.byte	0x9c
 2807 0c71 510D0000 		.4byte	0xd51
 2808 0c75 27       		.uleb128 0x27
 2809 0c76 670A0000 		.4byte	.LASF126
 2810 0c7a 01       		.byte	0x1
 2811 0c7b F803     		.2byte	0x3f8
 2812 0c7d 2C0A0000 		.4byte	0xa2c
 2813 0c81 FB010000 		.4byte	.LLST15
 2814 0c85 21       		.uleb128 0x21
 2815 0c86 F2020000 		.4byte	.LASF144
 2816 0c8a 01       		.byte	0x1
 2817 0c8b FA03     		.2byte	0x3fa
 2818 0c8d 83000000 		.4byte	0x83
 2819 0c91 27020000 		.4byte	.LLST16
 2820 0c95 21       		.uleb128 0x21
 2821 0c96 570B0000 		.4byte	.LASF134
 2822 0c9a 01       		.byte	0x1
 2823 0c9b 0004     		.2byte	0x400
 2824 0c9d 83000000 		.4byte	0x83
 2825 0ca1 69020000 		.4byte	.LLST17
 2826 0ca5 21       		.uleb128 0x21
 2827 0ca6 27090000 		.4byte	.LASF145
 2828 0caa 01       		.byte	0x1
 2829 0cab 0104     		.2byte	0x401
 2830 0cad 83000000 		.4byte	0x83
 2831 0cb1 88020000 		.4byte	.LLST18
 2832 0cb5 21       		.uleb128 0x21
 2833 0cb6 22020000 		.4byte	.LASF146
 2834 0cba 01       		.byte	0x1
 2835 0cbb 0204     		.2byte	0x402
 2836 0cbd 1F090000 		.4byte	0x91f
 2837 0cc1 A7020000 		.4byte	.LLST19
 2838 0cc5 21       		.uleb128 0x21
 2839 0cc6 4A070000 		.4byte	.LASF131
 2840 0cca 01       		.byte	0x1
 2841 0ccb 0304     		.2byte	0x403
 2842 0ccd 860B0000 		.4byte	0xb86
 2843 0cd1 BA020000 		.4byte	.LLST20
 2844 0cd5 21       		.uleb128 0x21
 2845 0cd6 00000000 		.4byte	.LASF137
 2846 0cda 01       		.byte	0x1
 2847 0cdb 0704     		.2byte	0x407
 2848 0cdd 2B090000 		.4byte	0x92b
 2849 0ce1 CD020000 		.4byte	.LLST21
 2850 0ce5 2D       		.uleb128 0x2d
 2851 0ce6 26000000 		.4byte	.LVL46
ARM GAS  C:\Users\exp32\AppData\Local\Temp\ccki8209.s 			page 102


 2852 0cea C5120000 		.4byte	0x12c5
 2853 0cee F90C0000 		.4byte	0xcf9
 2854 0cf2 2A       		.uleb128 0x2a
 2855 0cf3 01       		.uleb128 0x1
 2856 0cf4 52       		.byte	0x52
 2857 0cf5 02       		.uleb128 0x2
 2858 0cf6 77       		.byte	0x77
 2859 0cf7 00       		.sleb128 0
 2860 0cf8 00       		.byte	0
 2861 0cf9 2D       		.uleb128 0x2d
 2862 0cfa 30000000 		.4byte	.LVL47
 2863 0cfe 8C0B0000 		.4byte	0xb8c
 2864 0d02 190D0000 		.4byte	0xd19
 2865 0d06 2A       		.uleb128 0x2a
 2866 0d07 01       		.uleb128 0x1
 2867 0d08 50       		.byte	0x50
 2868 0d09 02       		.uleb128 0x2
 2869 0d0a 75       		.byte	0x75
 2870 0d0b 00       		.sleb128 0
 2871 0d0c 2A       		.uleb128 0x2a
 2872 0d0d 01       		.uleb128 0x1
 2873 0d0e 51       		.byte	0x51
 2874 0d0f 02       		.uleb128 0x2
 2875 0d10 77       		.byte	0x77
 2876 0d11 00       		.sleb128 0
 2877 0d12 2A       		.uleb128 0x2a
 2878 0d13 01       		.uleb128 0x1
 2879 0d14 52       		.byte	0x52
 2880 0d15 02       		.uleb128 0x2
 2881 0d16 76       		.byte	0x76
 2882 0d17 00       		.sleb128 0
 2883 0d18 00       		.byte	0
 2884 0d19 2D       		.uleb128 0x2d
 2885 0d1a 3C000000 		.4byte	.LVL49
 2886 0d1e D0120000 		.4byte	0x12d0
 2887 0d22 3A0D0000 		.4byte	0xd3a
 2888 0d26 2A       		.uleb128 0x2a
 2889 0d27 01       		.uleb128 0x1
 2890 0d28 50       		.byte	0x50
 2891 0d29 02       		.uleb128 0x2
 2892 0d2a 75       		.byte	0x75
 2893 0d2b 00       		.sleb128 0
 2894 0d2c 2A       		.uleb128 0x2a
 2895 0d2d 01       		.uleb128 0x1
 2896 0d2e 51       		.byte	0x51
 2897 0d2f 02       		.uleb128 0x2
 2898 0d30 74       		.byte	0x74
 2899 0d31 00       		.sleb128 0
 2900 0d32 2A       		.uleb128 0x2a
 2901 0d33 01       		.uleb128 0x1
 2902 0d34 52       		.byte	0x52
 2903 0d35 03       		.uleb128 0x3
 2904 0d36 91       		.byte	0x91
 2905 0d37 64       		.sleb128 -28
 2906 0d38 06       		.byte	0x6
 2907 0d39 00       		.byte	0
 2908 0d3a 29       		.uleb128 0x29
ARM GAS  C:\Users\exp32\AppData\Local\Temp\ccki8209.s 			page 103


 2909 0d3b 46000000 		.4byte	.LVL52
 2910 0d3f 160C0000 		.4byte	0xc16
 2911 0d43 2A       		.uleb128 0x2a
 2912 0d44 01       		.uleb128 0x1
 2913 0d45 50       		.byte	0x50
 2914 0d46 02       		.uleb128 0x2
 2915 0d47 75       		.byte	0x75
 2916 0d48 00       		.sleb128 0
 2917 0d49 2A       		.uleb128 0x2a
 2918 0d4a 01       		.uleb128 0x1
 2919 0d4b 51       		.byte	0x51
 2920 0d4c 02       		.uleb128 0x2
 2921 0d4d 74       		.byte	0x74
 2922 0d4e 00       		.sleb128 0
 2923 0d4f 00       		.byte	0
 2924 0d50 00       		.byte	0
 2925 0d51 2C       		.uleb128 0x2c
 2926 0d52 1F0B0000 		.4byte	.LASF148
 2927 0d56 01       		.byte	0x1
 2928 0d57 7A04     		.2byte	0x47a
 2929 0d59 83000000 		.4byte	0x83
 2930 0d5d 00000000 		.4byte	.LFB5
 2931 0d61 52000000 		.4byte	.LFE5-.LFB5
 2932 0d65 01       		.uleb128 0x1
 2933 0d66 9C       		.byte	0x9c
 2934 0d67 570E0000 		.4byte	0xe57
 2935 0d6b 27       		.uleb128 0x27
 2936 0d6c 670A0000 		.4byte	.LASF126
 2937 0d70 01       		.byte	0x1
 2938 0d71 7B04     		.2byte	0x47b
 2939 0d73 2C0A0000 		.4byte	0xa2c
 2940 0d77 E0020000 		.4byte	.LLST22
 2941 0d7b 27       		.uleb128 0x27
 2942 0d7c 58010000 		.4byte	.LASF142
 2943 0d80 01       		.byte	0x1
 2944 0d81 7C04     		.2byte	0x47c
 2945 0d83 1F090000 		.4byte	0x91f
 2946 0d87 01030000 		.4byte	.LLST23
 2947 0d8b 27       		.uleb128 0x27
 2948 0d8c 9E000000 		.4byte	.LASF149
 2949 0d90 01       		.byte	0x1
 2950 0d91 7D04     		.2byte	0x47d
 2951 0d93 EE090000 		.4byte	0x9ee
 2952 0d97 20030000 		.4byte	.LLST24
 2953 0d9b 27       		.uleb128 0x27
 2954 0d9c 53010000 		.4byte	.LASF150
 2955 0da0 01       		.byte	0x1
 2956 0da1 7E04     		.2byte	0x47e
 2957 0da3 83000000 		.4byte	0x83
 2958 0da7 5F030000 		.4byte	.LLST25
 2959 0dab 21       		.uleb128 0x21
 2960 0dac F2020000 		.4byte	.LASF144
 2961 0db0 01       		.byte	0x1
 2962 0db1 8004     		.2byte	0x480
 2963 0db3 83000000 		.4byte	0x83
 2964 0db7 8B030000 		.4byte	.LLST26
 2965 0dbb 21       		.uleb128 0x21
ARM GAS  C:\Users\exp32\AppData\Local\Temp\ccki8209.s 			page 104


 2966 0dbc 570B0000 		.4byte	.LASF134
 2967 0dc0 01       		.byte	0x1
 2968 0dc1 8104     		.2byte	0x481
 2969 0dc3 83000000 		.4byte	0x83
 2970 0dc7 CC030000 		.4byte	.LLST27
 2971 0dcb 21       		.uleb128 0x21
 2972 0dcc 4A070000 		.4byte	.LASF131
 2973 0dd0 01       		.byte	0x1
 2974 0dd1 8204     		.2byte	0x482
 2975 0dd3 860B0000 		.4byte	0xb86
 2976 0dd7 DF030000 		.4byte	.LLST28
 2977 0ddb 21       		.uleb128 0x21
 2978 0ddc 00000000 		.4byte	.LASF137
 2979 0de0 01       		.byte	0x1
 2980 0de1 8504     		.2byte	0x485
 2981 0de3 2B090000 		.4byte	0x92b
 2982 0de7 F2030000 		.4byte	.LLST29
 2983 0deb 2D       		.uleb128 0x2d
 2984 0dec 1E000000 		.4byte	.LVL70
 2985 0df0 C5120000 		.4byte	0x12c5
 2986 0df4 FF0D0000 		.4byte	0xdff
 2987 0df8 2A       		.uleb128 0x2a
 2988 0df9 01       		.uleb128 0x1
 2989 0dfa 52       		.byte	0x52
 2990 0dfb 02       		.uleb128 0x2
 2991 0dfc 77       		.byte	0x77
 2992 0dfd 00       		.sleb128 0
 2993 0dfe 00       		.byte	0
 2994 0dff 2D       		.uleb128 0x2d
 2995 0e00 2C000000 		.4byte	.LVL72
 2996 0e04 8C0B0000 		.4byte	0xb8c
 2997 0e08 1E0E0000 		.4byte	0xe1e
 2998 0e0c 2A       		.uleb128 0x2a
 2999 0e0d 01       		.uleb128 0x1
 3000 0e0e 50       		.byte	0x50
 3001 0e0f 02       		.uleb128 0x2
 3002 0e10 75       		.byte	0x75
 3003 0e11 00       		.sleb128 0
 3004 0e12 2A       		.uleb128 0x2a
 3005 0e13 01       		.uleb128 0x1
 3006 0e14 51       		.byte	0x51
 3007 0e15 02       		.uleb128 0x2
 3008 0e16 77       		.byte	0x77
 3009 0e17 00       		.sleb128 0
 3010 0e18 2A       		.uleb128 0x2a
 3011 0e19 01       		.uleb128 0x1
 3012 0e1a 52       		.byte	0x52
 3013 0e1b 01       		.uleb128 0x1
 3014 0e1c 30       		.byte	0x30
 3015 0e1d 00       		.byte	0
 3016 0e1e 2D       		.uleb128 0x2d
 3017 0e1f 3A000000 		.4byte	.LVL74
 3018 0e23 D0120000 		.4byte	0x12d0
 3019 0e27 3F0E0000 		.4byte	0xe3f
 3020 0e2b 2A       		.uleb128 0x2a
 3021 0e2c 01       		.uleb128 0x1
 3022 0e2d 50       		.byte	0x50
ARM GAS  C:\Users\exp32\AppData\Local\Temp\ccki8209.s 			page 105


 3023 0e2e 02       		.uleb128 0x2
 3024 0e2f 75       		.byte	0x75
 3025 0e30 00       		.sleb128 0
 3026 0e31 2A       		.uleb128 0x2a
 3027 0e32 01       		.uleb128 0x1
 3028 0e33 51       		.byte	0x51
 3029 0e34 03       		.uleb128 0x3
 3030 0e35 91       		.byte	0x91
 3031 0e36 64       		.sleb128 -28
 3032 0e37 06       		.byte	0x6
 3033 0e38 2A       		.uleb128 0x2a
 3034 0e39 01       		.uleb128 0x1
 3035 0e3a 52       		.byte	0x52
 3036 0e3b 02       		.uleb128 0x2
 3037 0e3c 76       		.byte	0x76
 3038 0e3d 00       		.sleb128 0
 3039 0e3e 00       		.byte	0
 3040 0e3f 29       		.uleb128 0x29
 3041 0e40 4C000000 		.4byte	.LVL78
 3042 0e44 160C0000 		.4byte	0xc16
 3043 0e48 2A       		.uleb128 0x2a
 3044 0e49 01       		.uleb128 0x1
 3045 0e4a 50       		.byte	0x50
 3046 0e4b 02       		.uleb128 0x2
 3047 0e4c 75       		.byte	0x75
 3048 0e4d 00       		.sleb128 0
 3049 0e4e 2A       		.uleb128 0x2a
 3050 0e4f 01       		.uleb128 0x1
 3051 0e50 51       		.byte	0x51
 3052 0e51 03       		.uleb128 0x3
 3053 0e52 91       		.byte	0x91
 3054 0e53 64       		.sleb128 -28
 3055 0e54 06       		.byte	0x6
 3056 0e55 00       		.byte	0
 3057 0e56 00       		.byte	0
 3058 0e57 2C       		.uleb128 0x2c
 3059 0e58 38010000 		.4byte	.LASF151
 3060 0e5c 01       		.byte	0x1
 3061 0e5d A805     		.2byte	0x5a8
 3062 0e5f 83000000 		.4byte	0x83
 3063 0e63 00000000 		.4byte	.LFB9
 3064 0e67 64000000 		.4byte	.LFE9-.LFB9
 3065 0e6b 01       		.uleb128 0x1
 3066 0e6c 9C       		.byte	0x9c
 3067 0e6d 000F0000 		.4byte	0xf00
 3068 0e71 27       		.uleb128 0x27
 3069 0e72 C70A0000 		.4byte	.LASF152
 3070 0e76 01       		.byte	0x1
 3071 0e77 A805     		.2byte	0x5a8
 3072 0e79 83000000 		.4byte	0x83
 3073 0e7d 10040000 		.4byte	.LLST30
 3074 0e81 27       		.uleb128 0x27
 3075 0e82 670A0000 		.4byte	.LASF126
 3076 0e86 01       		.byte	0x1
 3077 0e87 A805     		.2byte	0x5a8
 3078 0e89 2C0A0000 		.4byte	0xa2c
 3079 0e8d 2E040000 		.4byte	.LLST31
ARM GAS  C:\Users\exp32\AppData\Local\Temp\ccki8209.s 			page 106


 3080 0e91 21       		.uleb128 0x21
 3081 0e92 53000000 		.4byte	.LASF153
 3082 0e96 01       		.byte	0x1
 3083 0e97 AA05     		.2byte	0x5aa
 3084 0e99 83000000 		.4byte	0x83
 3085 0e9d 4F040000 		.4byte	.LLST32
 3086 0ea1 21       		.uleb128 0x21
 3087 0ea2 55070000 		.4byte	.LASF154
 3088 0ea6 01       		.byte	0x1
 3089 0ea7 AB05     		.2byte	0x5ab
 3090 0ea9 83000000 		.4byte	0x83
 3091 0ead 99040000 		.4byte	.LLST33
 3092 0eb1 21       		.uleb128 0x21
 3093 0eb2 3A020000 		.4byte	.LASF155
 3094 0eb6 01       		.byte	0x1
 3095 0eb7 AC05     		.2byte	0x5ac
 3096 0eb9 83000000 		.4byte	0x83
 3097 0ebd B8040000 		.4byte	.LLST34
 3098 0ec1 21       		.uleb128 0x21
 3099 0ec2 9E040000 		.4byte	.LASF156
 3100 0ec6 01       		.byte	0x1
 3101 0ec7 AD05     		.2byte	0x5ad
 3102 0ec9 83000000 		.4byte	0x83
 3103 0ecd D6040000 		.4byte	.LLST35
 3104 0ed1 21       		.uleb128 0x21
 3105 0ed2 22020000 		.4byte	.LASF146
 3106 0ed6 01       		.byte	0x1
 3107 0ed7 AE05     		.2byte	0x5ae
 3108 0ed9 1F090000 		.4byte	0x91f
 3109 0edd F4040000 		.4byte	.LLST36
 3110 0ee1 21       		.uleb128 0x21
 3111 0ee2 4A070000 		.4byte	.LASF131
 3112 0ee6 01       		.byte	0x1
 3113 0ee7 AF05     		.2byte	0x5af
 3114 0ee9 860B0000 		.4byte	0xb86
 3115 0eed 07050000 		.4byte	.LLST37
 3116 0ef1 28       		.uleb128 0x28
 3117 0ef2 4B090000 		.4byte	.LASF157
 3118 0ef6 01       		.byte	0x1
 3119 0ef7 B005     		.2byte	0x5b0
 3120 0ef9 25090000 		.4byte	0x925
 3121 0efd 01       		.uleb128 0x1
 3122 0efe 53       		.byte	0x53
 3123 0eff 00       		.byte	0
 3124 0f00 2C       		.uleb128 0x2c
 3125 0f01 31030000 		.4byte	.LASF158
 3126 0f05 01       		.byte	0x1
 3127 0f06 0907     		.2byte	0x709
 3128 0f08 83000000 		.4byte	0x83
 3129 0f0c 00000000 		.4byte	.LFB10
 3130 0f10 DC000000 		.4byte	.LFE10-.LFB10
 3131 0f14 01       		.uleb128 0x1
 3132 0f15 9C       		.byte	0x9c
 3133 0f16 55100000 		.4byte	0x1055
 3134 0f1a 27       		.uleb128 0x27
 3135 0f1b C70A0000 		.4byte	.LASF152
 3136 0f1f 01       		.byte	0x1
ARM GAS  C:\Users\exp32\AppData\Local\Temp\ccki8209.s 			page 107


 3137 0f20 0907     		.2byte	0x709
 3138 0f22 83000000 		.4byte	0x83
 3139 0f26 1A050000 		.4byte	.LLST38
 3140 0f2a 27       		.uleb128 0x27
 3141 0f2b 670A0000 		.4byte	.LASF126
 3142 0f2f 01       		.byte	0x1
 3143 0f30 0907     		.2byte	0x709
 3144 0f32 2C0A0000 		.4byte	0xa2c
 3145 0f36 64050000 		.4byte	.LLST39
 3146 0f3a 21       		.uleb128 0x21
 3147 0f3b 53000000 		.4byte	.LASF153
 3148 0f3f 01       		.byte	0x1
 3149 0f40 0B07     		.2byte	0x70b
 3150 0f42 83000000 		.4byte	0x83
 3151 0f46 90050000 		.4byte	.LLST40
 3152 0f4a 21       		.uleb128 0x21
 3153 0f4b 55070000 		.4byte	.LASF154
 3154 0f4f 01       		.byte	0x1
 3155 0f50 0C07     		.2byte	0x70c
 3156 0f52 83000000 		.4byte	0x83
 3157 0f56 C4050000 		.4byte	.LLST41
 3158 0f5a 21       		.uleb128 0x21
 3159 0f5b 9E040000 		.4byte	.LASF156
 3160 0f5f 01       		.byte	0x1
 3161 0f60 0D07     		.2byte	0x70d
 3162 0f62 83000000 		.4byte	0x83
 3163 0f66 EE050000 		.4byte	.LLST42
 3164 0f6a 21       		.uleb128 0x21
 3165 0f6b 3A020000 		.4byte	.LASF155
 3166 0f6f 01       		.byte	0x1
 3167 0f70 0E07     		.2byte	0x70e
 3168 0f72 83000000 		.4byte	0x83
 3169 0f76 17060000 		.4byte	.LLST43
 3170 0f7a 21       		.uleb128 0x21
 3171 0f7b 4B090000 		.4byte	.LASF157
 3172 0f7f 01       		.byte	0x1
 3173 0f80 0F07     		.2byte	0x70f
 3174 0f82 25090000 		.4byte	0x925
 3175 0f86 41060000 		.4byte	.LLST44
 3176 0f8a 21       		.uleb128 0x21
 3177 0f8b 22020000 		.4byte	.LASF146
 3178 0f8f 01       		.byte	0x1
 3179 0f90 1007     		.2byte	0x710
 3180 0f92 1F090000 		.4byte	0x91f
 3181 0f96 75060000 		.4byte	.LLST45
 3182 0f9a 21       		.uleb128 0x21
 3183 0f9b 4A070000 		.4byte	.LASF131
 3184 0f9f 01       		.byte	0x1
 3185 0fa0 1107     		.2byte	0x711
 3186 0fa2 370A0000 		.4byte	0xa37
 3187 0fa6 93060000 		.4byte	.LLST46
 3188 0faa 21       		.uleb128 0x21
 3189 0fab 0D050000 		.4byte	.LASF132
 3190 0faf 01       		.byte	0x1
 3191 0fb0 1707     		.2byte	0x717
 3192 0fb2 83000000 		.4byte	0x83
 3193 0fb6 A6060000 		.4byte	.LLST47
ARM GAS  C:\Users\exp32\AppData\Local\Temp\ccki8209.s 			page 108


 3194 0fba 21       		.uleb128 0x21
 3195 0fbb 6B050000 		.4byte	.LASF159
 3196 0fbf 01       		.byte	0x1
 3197 0fc0 1807     		.2byte	0x718
 3198 0fc2 83000000 		.4byte	0x83
 3199 0fc6 B9060000 		.4byte	.LLST48
 3200 0fca 28       		.uleb128 0x28
 3201 0fcb 37070000 		.4byte	.LASF129
 3202 0fcf 01       		.byte	0x1
 3203 0fd0 1907     		.2byte	0x719
 3204 0fd2 B6050000 		.4byte	0x5b6
 3205 0fd6 02       		.uleb128 0x2
 3206 0fd7 91       		.byte	0x91
 3207 0fd8 64       		.sleb128 -28
 3208 0fd9 22       		.uleb128 0x22
 3209 0fda 660A0000 		.4byte	0xa66
 3210 0fde 9C000000 		.4byte	.LBB12
 3211 0fe2 22000000 		.4byte	.LBE12-.LBB12
 3212 0fe6 01       		.byte	0x1
 3213 0fe7 7F07     		.2byte	0x77f
 3214 0fe9 25100000 		.4byte	0x1025
 3215 0fed 23       		.uleb128 0x23
 3216 0fee 970A0000 		.4byte	0xa97
 3217 0ff2 FA060000 		.4byte	.LLST49
 3218 0ff6 23       		.uleb128 0x23
 3219 0ff7 8B0A0000 		.4byte	0xa8b
 3220 0ffb 0D070000 		.4byte	.LLST50
 3221 0fff 23       		.uleb128 0x23
 3222 1000 7F0A0000 		.4byte	0xa7f
 3223 1004 20070000 		.4byte	.LLST51
 3224 1008 23       		.uleb128 0x23
 3225 1009 730A0000 		.4byte	0xa73
 3226 100d 33070000 		.4byte	.LLST52
 3227 1011 24       		.uleb128 0x24
 3228 1012 9C000000 		.4byte	.LBB13
 3229 1016 22000000 		.4byte	.LBE13-.LBB13
 3230 101a 25       		.uleb128 0x25
 3231 101b A30A0000 		.4byte	0xaa3
 3232 101f 48070000 		.4byte	.LLST53
 3233 1023 00       		.byte	0
 3234 1024 00       		.byte	0
 3235 1025 2D       		.uleb128 0x2d
 3236 1026 80000000 		.4byte	.LVL135
 3237 102a DB120000 		.4byte	0x12db
 3238 102e 39100000 		.4byte	0x1039
 3239 1032 2A       		.uleb128 0x2a
 3240 1033 01       		.uleb128 0x1
 3241 1034 51       		.byte	0x51
 3242 1035 02       		.uleb128 0x2
 3243 1036 76       		.byte	0x76
 3244 1037 00       		.sleb128 0
 3245 1038 00       		.byte	0
 3246 1039 29       		.uleb128 0x29
 3247 103a 9C000000 		.4byte	.LVL140
 3248 103e E6120000 		.4byte	0x12e6
 3249 1042 2A       		.uleb128 0x2a
 3250 1043 01       		.uleb128 0x1
ARM GAS  C:\Users\exp32\AppData\Local\Temp\ccki8209.s 			page 109


 3251 1044 50       		.byte	0x50
 3252 1045 02       		.uleb128 0x2
 3253 1046 91       		.byte	0x91
 3254 1047 64       		.sleb128 -28
 3255 1048 2A       		.uleb128 0x2a
 3256 1049 01       		.uleb128 0x1
 3257 104a 52       		.byte	0x52
 3258 104b 02       		.uleb128 0x2
 3259 104c 76       		.byte	0x76
 3260 104d 00       		.sleb128 0
 3261 104e 2A       		.uleb128 0x2a
 3262 104f 01       		.uleb128 0x1
 3263 1050 53       		.byte	0x53
 3264 1051 01       		.uleb128 0x1
 3265 1052 30       		.byte	0x30
 3266 1053 00       		.byte	0
 3267 1054 00       		.byte	0
 3268 1055 2C       		.uleb128 0x2c
 3269 1056 62010000 		.4byte	.LASF160
 3270 105a 01       		.byte	0x1
 3271 105b C809     		.2byte	0x9c8
 3272 105d 83000000 		.4byte	0x83
 3273 1061 00000000 		.4byte	.LFB12
 3274 1065 34010000 		.4byte	.LFE12-.LFB12
 3275 1069 01       		.uleb128 0x1
 3276 106a 9C       		.byte	0x9c
 3277 106b D0110000 		.4byte	0x11d0
 3278 106f 27       		.uleb128 0x27
 3279 1070 C70A0000 		.4byte	.LASF152
 3280 1074 01       		.byte	0x1
 3281 1075 C809     		.2byte	0x9c8
 3282 1077 83000000 		.4byte	0x83
 3283 107b 67070000 		.4byte	.LLST54
 3284 107f 27       		.uleb128 0x27
 3285 1080 670A0000 		.4byte	.LASF126
 3286 1084 01       		.byte	0x1
 3287 1085 C809     		.2byte	0x9c8
 3288 1087 2C0A0000 		.4byte	0xa2c
 3289 108b BD070000 		.4byte	.LLST55
 3290 108f 21       		.uleb128 0x21
 3291 1090 53000000 		.4byte	.LASF153
 3292 1094 01       		.byte	0x1
 3293 1095 CA09     		.2byte	0x9ca
 3294 1097 83000000 		.4byte	0x83
 3295 109b E9070000 		.4byte	.LLST56
 3296 109f 21       		.uleb128 0x21
 3297 10a0 55070000 		.4byte	.LASF154
 3298 10a4 01       		.byte	0x1
 3299 10a5 CB09     		.2byte	0x9cb
 3300 10a7 83000000 		.4byte	0x83
 3301 10ab 30080000 		.4byte	.LLST57
 3302 10af 21       		.uleb128 0x21
 3303 10b0 9E040000 		.4byte	.LASF156
 3304 10b4 01       		.byte	0x1
 3305 10b5 CC09     		.2byte	0x9cc
 3306 10b7 83000000 		.4byte	0x83
 3307 10bb 4F080000 		.4byte	.LLST58
ARM GAS  C:\Users\exp32\AppData\Local\Temp\ccki8209.s 			page 110


 3308 10bf 21       		.uleb128 0x21
 3309 10c0 9A0A0000 		.4byte	.LASF161
 3310 10c4 01       		.byte	0x1
 3311 10c5 CD09     		.2byte	0x9cd
 3312 10c7 83000000 		.4byte	0x83
 3313 10cb 78080000 		.4byte	.LLST59
 3314 10cf 21       		.uleb128 0x21
 3315 10d0 82010000 		.4byte	.LASF162
 3316 10d4 01       		.byte	0x1
 3317 10d5 CE09     		.2byte	0x9ce
 3318 10d7 83000000 		.4byte	0x83
 3319 10db C8080000 		.4byte	.LLST60
 3320 10df 21       		.uleb128 0x21
 3321 10e0 3A020000 		.4byte	.LASF155
 3322 10e4 01       		.byte	0x1
 3323 10e5 CF09     		.2byte	0x9cf
 3324 10e7 83000000 		.4byte	0x83
 3325 10eb FC080000 		.4byte	.LLST61
 3326 10ef 21       		.uleb128 0x21
 3327 10f0 4B090000 		.4byte	.LASF157
 3328 10f4 01       		.byte	0x1
 3329 10f5 D009     		.2byte	0x9d0
 3330 10f7 25090000 		.4byte	0x925
 3331 10fb 31090000 		.4byte	.LLST62
 3332 10ff 21       		.uleb128 0x21
 3333 1100 22020000 		.4byte	.LASF146
 3334 1104 01       		.byte	0x1
 3335 1105 D109     		.2byte	0x9d1
 3336 1107 1F090000 		.4byte	0x91f
 3337 110b 65090000 		.4byte	.LLST63
 3338 110f 21       		.uleb128 0x21
 3339 1110 4A070000 		.4byte	.LASF131
 3340 1114 01       		.byte	0x1
 3341 1115 D209     		.2byte	0x9d2
 3342 1117 600A0000 		.4byte	0xa60
 3343 111b A4090000 		.4byte	.LLST64
 3344 111f 28       		.uleb128 0x28
 3345 1120 96040000 		.4byte	.LASF163
 3346 1124 01       		.byte	0x1
 3347 1125 D509     		.2byte	0x9d5
 3348 1127 77000000 		.4byte	0x77
 3349 112b 02       		.uleb128 0x2
 3350 112c 91       		.byte	0x91
 3351 112d 5E       		.sleb128 -34
 3352 112e 28       		.uleb128 0x28
 3353 112f 44020000 		.4byte	.LASF164
 3354 1133 01       		.byte	0x1
 3355 1134 D609     		.2byte	0x9d6
 3356 1136 77000000 		.4byte	0x77
 3357 113a 02       		.uleb128 0x2
 3358 113b 91       		.byte	0x91
 3359 113c 5C       		.sleb128 -36
 3360 113d 21       		.uleb128 0x21
 3361 113e 6F090000 		.4byte	.LASF165
 3362 1142 01       		.byte	0x1
 3363 1143 D709     		.2byte	0x9d7
 3364 1145 83000000 		.4byte	0x83
ARM GAS  C:\Users\exp32\AppData\Local\Temp\ccki8209.s 			page 111


 3365 1149 B7090000 		.4byte	.LLST65
 3366 114d 2D       		.uleb128 0x2d
 3367 114e C4000000 		.4byte	.LVL192
 3368 1152 DB120000 		.4byte	0x12db
 3369 1156 67110000 		.4byte	0x1167
 3370 115a 2A       		.uleb128 0x2a
 3371 115b 01       		.uleb128 0x1
 3372 115c 50       		.byte	0x50
 3373 115d 02       		.uleb128 0x2
 3374 115e 79       		.byte	0x79
 3375 115f 00       		.sleb128 0
 3376 1160 2A       		.uleb128 0x2a
 3377 1161 01       		.uleb128 0x1
 3378 1162 52       		.byte	0x52
 3379 1163 02       		.uleb128 0x2
 3380 1164 78       		.byte	0x78
 3381 1165 00       		.sleb128 0
 3382 1166 00       		.byte	0
 3383 1167 2D       		.uleb128 0x2d
 3384 1168 CE000000 		.4byte	.LVL195
 3385 116c F1120000 		.4byte	0x12f1
 3386 1170 7A110000 		.4byte	0x117a
 3387 1174 2A       		.uleb128 0x2a
 3388 1175 01       		.uleb128 0x1
 3389 1176 50       		.byte	0x50
 3390 1177 01       		.uleb128 0x1
 3391 1178 30       		.byte	0x30
 3392 1179 00       		.byte	0
 3393 117a 2D       		.uleb128 0x2d
 3394 117b E0000000 		.4byte	.LVL196
 3395 117f E6120000 		.4byte	0x12e6
 3396 1183 93110000 		.4byte	0x1193
 3397 1187 2A       		.uleb128 0x2a
 3398 1188 01       		.uleb128 0x1
 3399 1189 50       		.byte	0x50
 3400 118a 02       		.uleb128 0x2
 3401 118b 7D       		.byte	0x7d
 3402 118c 06       		.sleb128 6
 3403 118d 2A       		.uleb128 0x2a
 3404 118e 01       		.uleb128 0x1
 3405 118f 53       		.byte	0x53
 3406 1190 01       		.uleb128 0x1
 3407 1191 30       		.byte	0x30
 3408 1192 00       		.byte	0
 3409 1193 2D       		.uleb128 0x2d
 3410 1194 F2000000 		.4byte	.LVL198
 3411 1198 DB120000 		.4byte	0x12db
 3412 119c A7110000 		.4byte	0x11a7
 3413 11a0 2A       		.uleb128 0x2a
 3414 11a1 01       		.uleb128 0x1
 3415 11a2 52       		.byte	0x52
 3416 11a3 02       		.uleb128 0x2
 3417 11a4 78       		.byte	0x78
 3418 11a5 00       		.sleb128 0
 3419 11a6 00       		.byte	0
 3420 11a7 2D       		.uleb128 0x2d
 3421 11a8 FC000000 		.4byte	.LVL201
ARM GAS  C:\Users\exp32\AppData\Local\Temp\ccki8209.s 			page 112


 3422 11ac F1120000 		.4byte	0x12f1
 3423 11b0 BA110000 		.4byte	0x11ba
 3424 11b4 2A       		.uleb128 0x2a
 3425 11b5 01       		.uleb128 0x1
 3426 11b6 50       		.byte	0x50
 3427 11b7 01       		.uleb128 0x1
 3428 11b8 30       		.byte	0x30
 3429 11b9 00       		.byte	0
 3430 11ba 29       		.uleb128 0x29
 3431 11bb 0E010000 		.4byte	.LVL203
 3432 11bf E6120000 		.4byte	0x12e6
 3433 11c3 2A       		.uleb128 0x2a
 3434 11c4 01       		.uleb128 0x1
 3435 11c5 50       		.byte	0x50
 3436 11c6 02       		.uleb128 0x2
 3437 11c7 76       		.byte	0x76
 3438 11c8 00       		.sleb128 0
 3439 11c9 2A       		.uleb128 0x2a
 3440 11ca 01       		.uleb128 0x1
 3441 11cb 53       		.byte	0x53
 3442 11cc 01       		.uleb128 0x1
 3443 11cd 30       		.byte	0x30
 3444 11ce 00       		.byte	0
 3445 11cf 00       		.byte	0
 3446 11d0 20       		.uleb128 0x20
 3447 11d1 18060000 		.4byte	.LASF166
 3448 11d5 01       		.byte	0x1
 3449 11d6 DE04     		.2byte	0x4de
 3450 11d8 00000000 		.4byte	.LFB6
 3451 11dc 84000000 		.4byte	.LFE6-.LFB6
 3452 11e0 01       		.uleb128 0x1
 3453 11e1 9C       		.byte	0x9c
 3454 11e2 92120000 		.4byte	0x1292
 3455 11e6 27       		.uleb128 0x27
 3456 11e7 E20B0000 		.4byte	.LASF167
 3457 11eb 01       		.byte	0x1
 3458 11ec DE04     		.2byte	0x4de
 3459 11ee 83000000 		.4byte	0x83
 3460 11f2 EB090000 		.4byte	.LLST66
 3461 11f6 27       		.uleb128 0x27
 3462 11f7 670A0000 		.4byte	.LASF126
 3463 11fb 01       		.byte	0x1
 3464 11fc DE04     		.2byte	0x4de
 3465 11fe 2C0A0000 		.4byte	0xa2c
 3466 1202 170A0000 		.4byte	.LLST67
 3467 1206 21       		.uleb128 0x21
 3468 1207 3C060000 		.4byte	.LASF168
 3469 120b 01       		.byte	0x1
 3470 120c E004     		.2byte	0x4e0
 3471 120e 83000000 		.4byte	0x83
 3472 1212 830A0000 		.4byte	.LLST68
 3473 1216 21       		.uleb128 0x21
 3474 1217 FA060000 		.4byte	.LASF169
 3475 121b 01       		.byte	0x1
 3476 121c E104     		.2byte	0x4e1
 3477 121e 83000000 		.4byte	0x83
 3478 1222 D80A0000 		.4byte	.LLST69
ARM GAS  C:\Users\exp32\AppData\Local\Temp\ccki8209.s 			page 113


 3479 1226 21       		.uleb128 0x21
 3480 1227 5A0A0000 		.4byte	.LASF170
 3481 122b 01       		.byte	0x1
 3482 122c E204     		.2byte	0x4e2
 3483 122e 83000000 		.4byte	0x83
 3484 1232 300B0000 		.4byte	.LLST70
 3485 1236 21       		.uleb128 0x21
 3486 1237 570B0000 		.4byte	.LASF134
 3487 123b 01       		.byte	0x1
 3488 123c E304     		.2byte	0x4e3
 3489 123e CB010000 		.4byte	0x1cb
 3490 1242 640B0000 		.4byte	.LLST71
 3491 1246 2D       		.uleb128 0x2d
 3492 1247 2A000000 		.4byte	.LVL212
 3493 124b 570E0000 		.4byte	0xe57
 3494 124f 5A120000 		.4byte	0x125a
 3495 1253 2A       		.uleb128 0x2a
 3496 1254 01       		.uleb128 0x1
 3497 1255 50       		.byte	0x50
 3498 1256 02       		.uleb128 0x2
 3499 1257 75       		.byte	0x75
 3500 1258 00       		.sleb128 0
 3501 1259 00       		.byte	0
 3502 125a 2D       		.uleb128 0x2d
 3503 125b 34000000 		.4byte	.LVL215
 3504 125f 000F0000 		.4byte	0xf00
 3505 1263 6E120000 		.4byte	0x126e
 3506 1267 2A       		.uleb128 0x2a
 3507 1268 01       		.uleb128 0x1
 3508 1269 50       		.byte	0x50
 3509 126a 02       		.uleb128 0x2
 3510 126b 75       		.byte	0x75
 3511 126c 00       		.sleb128 0
 3512 126d 00       		.byte	0
 3513 126e 2D       		.uleb128 0x2d
 3514 126f 3E000000 		.4byte	.LVL218
 3515 1273 55100000 		.4byte	0x1055
 3516 1277 82120000 		.4byte	0x1282
 3517 127b 2A       		.uleb128 0x2a
 3518 127c 01       		.uleb128 0x1
 3519 127d 50       		.byte	0x50
 3520 127e 02       		.uleb128 0x2
 3521 127f 75       		.byte	0x75
 3522 1280 00       		.sleb128 0
 3523 1281 00       		.byte	0
 3524 1282 29       		.uleb128 0x29
 3525 1283 48000000 		.4byte	.LVL221
 3526 1287 F1120000 		.4byte	0x12f1
 3527 128b 2A       		.uleb128 0x2a
 3528 128c 01       		.uleb128 0x1
 3529 128d 50       		.byte	0x50
 3530 128e 01       		.uleb128 0x1
 3531 128f 30       		.byte	0x30
 3532 1290 00       		.byte	0
 3533 1291 00       		.byte	0
 3534 1292 2E       		.uleb128 0x2e
 3535 1293 26070000 		.4byte	.LASF171
ARM GAS  C:\Users\exp32\AppData\Local\Temp\ccki8209.s 			page 114


 3536 1297 06       		.byte	0x6
 3537 1298 9405     		.2byte	0x594
 3538 129a 32080000 		.4byte	0x832
 3539 129e 2E       		.uleb128 0x2e
 3540 129f D8080000 		.4byte	.LASF172
 3541 12a3 06       		.byte	0x6
 3542 12a4 9505     		.2byte	0x595
 3543 12a6 AA120000 		.4byte	0x12aa
 3544 12aa 1C       		.uleb128 0x1c
 3545 12ab 64090000 		.4byte	0x964
 3546 12af 2F       		.uleb128 0x2f
 3547 12b0 FD050000 		.4byte	.LASF173
 3548 12b4 FD050000 		.4byte	.LASF173
 3549 12b8 07       		.byte	0x7
 3550 12b9 19       		.byte	0x19
 3551 12ba 2F       		.uleb128 0x2f
 3552 12bb EA010000 		.4byte	.LASF174
 3553 12bf EA010000 		.4byte	.LASF174
 3554 12c3 05       		.byte	0x5
 3555 12c4 BA       		.byte	0xba
 3556 12c5 2F       		.uleb128 0x2f
 3557 12c6 16050000 		.4byte	.LASF175
 3558 12ca 16050000 		.4byte	.LASF175
 3559 12ce 05       		.byte	0x5
 3560 12cf C3       		.byte	0xc3
 3561 12d0 2F       		.uleb128 0x2f
 3562 12d1 06020000 		.4byte	.LASF176
 3563 12d5 06020000 		.4byte	.LASF176
 3564 12d9 08       		.byte	0x8
 3565 12da 72       		.byte	0x72
 3566 12db 2F       		.uleb128 0x2f
 3567 12dc E9090000 		.4byte	.LASF177
 3568 12e0 E9090000 		.4byte	.LASF177
 3569 12e4 09       		.byte	0x9
 3570 12e5 4E       		.byte	0x4e
 3571 12e6 2F       		.uleb128 0x2f
 3572 12e7 CE030000 		.4byte	.LASF178
 3573 12eb CE030000 		.4byte	.LASF178
 3574 12ef 09       		.byte	0x9
 3575 12f0 5D       		.byte	0x5d
 3576 12f1 2F       		.uleb128 0x2f
 3577 12f2 0F010000 		.4byte	.LASF179
 3578 12f6 0F010000 		.4byte	.LASF179
 3579 12fa 0A       		.byte	0xa
 3580 12fb FA       		.byte	0xfa
 3581 12fc 00       		.byte	0
 3582              		.section	.debug_abbrev,"",%progbits
 3583              	.Ldebug_abbrev0:
 3584 0000 01       		.uleb128 0x1
 3585 0001 11       		.uleb128 0x11
 3586 0002 01       		.byte	0x1
 3587 0003 25       		.uleb128 0x25
 3588 0004 0E       		.uleb128 0xe
 3589 0005 13       		.uleb128 0x13
 3590 0006 0B       		.uleb128 0xb
 3591 0007 03       		.uleb128 0x3
 3592 0008 0E       		.uleb128 0xe
ARM GAS  C:\Users\exp32\AppData\Local\Temp\ccki8209.s 			page 115


 3593 0009 1B       		.uleb128 0x1b
 3594 000a 0E       		.uleb128 0xe
 3595 000b 55       		.uleb128 0x55
 3596 000c 17       		.uleb128 0x17
 3597 000d 11       		.uleb128 0x11
 3598 000e 01       		.uleb128 0x1
 3599 000f 10       		.uleb128 0x10
 3600 0010 17       		.uleb128 0x17
 3601 0011 00       		.byte	0
 3602 0012 00       		.byte	0
 3603 0013 02       		.uleb128 0x2
 3604 0014 24       		.uleb128 0x24
 3605 0015 00       		.byte	0
 3606 0016 0B       		.uleb128 0xb
 3607 0017 0B       		.uleb128 0xb
 3608 0018 3E       		.uleb128 0x3e
 3609 0019 0B       		.uleb128 0xb
 3610 001a 03       		.uleb128 0x3
 3611 001b 0E       		.uleb128 0xe
 3612 001c 00       		.byte	0
 3613 001d 00       		.byte	0
 3614 001e 03       		.uleb128 0x3
 3615 001f 24       		.uleb128 0x24
 3616 0020 00       		.byte	0
 3617 0021 0B       		.uleb128 0xb
 3618 0022 0B       		.uleb128 0xb
 3619 0023 3E       		.uleb128 0x3e
 3620 0024 0B       		.uleb128 0xb
 3621 0025 03       		.uleb128 0x3
 3622 0026 08       		.uleb128 0x8
 3623 0027 00       		.byte	0
 3624 0028 00       		.byte	0
 3625 0029 04       		.uleb128 0x4
 3626 002a 16       		.uleb128 0x16
 3627 002b 00       		.byte	0
 3628 002c 03       		.uleb128 0x3
 3629 002d 0E       		.uleb128 0xe
 3630 002e 3A       		.uleb128 0x3a
 3631 002f 0B       		.uleb128 0xb
 3632 0030 3B       		.uleb128 0x3b
 3633 0031 05       		.uleb128 0x5
 3634 0032 49       		.uleb128 0x49
 3635 0033 13       		.uleb128 0x13
 3636 0034 00       		.byte	0
 3637 0035 00       		.byte	0
 3638 0036 05       		.uleb128 0x5
 3639 0037 35       		.uleb128 0x35
 3640 0038 00       		.byte	0
 3641 0039 49       		.uleb128 0x49
 3642 003a 13       		.uleb128 0x13
 3643 003b 00       		.byte	0
 3644 003c 00       		.byte	0
 3645 003d 06       		.uleb128 0x6
 3646 003e 16       		.uleb128 0x16
 3647 003f 00       		.byte	0
 3648 0040 03       		.uleb128 0x3
 3649 0041 0E       		.uleb128 0xe
ARM GAS  C:\Users\exp32\AppData\Local\Temp\ccki8209.s 			page 116


 3650 0042 3A       		.uleb128 0x3a
 3651 0043 0B       		.uleb128 0xb
 3652 0044 3B       		.uleb128 0x3b
 3653 0045 0B       		.uleb128 0xb
 3654 0046 49       		.uleb128 0x49
 3655 0047 13       		.uleb128 0x13
 3656 0048 00       		.byte	0
 3657 0049 00       		.byte	0
 3658 004a 07       		.uleb128 0x7
 3659 004b 0F       		.uleb128 0xf
 3660 004c 00       		.byte	0
 3661 004d 0B       		.uleb128 0xb
 3662 004e 0B       		.uleb128 0xb
 3663 004f 00       		.byte	0
 3664 0050 00       		.byte	0
 3665 0051 08       		.uleb128 0x8
 3666 0052 13       		.uleb128 0x13
 3667 0053 01       		.byte	0x1
 3668 0054 0B       		.uleb128 0xb
 3669 0055 0B       		.uleb128 0xb
 3670 0056 3A       		.uleb128 0x3a
 3671 0057 0B       		.uleb128 0xb
 3672 0058 3B       		.uleb128 0x3b
 3673 0059 0B       		.uleb128 0xb
 3674 005a 01       		.uleb128 0x1
 3675 005b 13       		.uleb128 0x13
 3676 005c 00       		.byte	0
 3677 005d 00       		.byte	0
 3678 005e 09       		.uleb128 0x9
 3679 005f 0D       		.uleb128 0xd
 3680 0060 00       		.byte	0
 3681 0061 03       		.uleb128 0x3
 3682 0062 0E       		.uleb128 0xe
 3683 0063 3A       		.uleb128 0x3a
 3684 0064 0B       		.uleb128 0xb
 3685 0065 3B       		.uleb128 0x3b
 3686 0066 0B       		.uleb128 0xb
 3687 0067 49       		.uleb128 0x49
 3688 0068 13       		.uleb128 0x13
 3689 0069 38       		.uleb128 0x38
 3690 006a 0B       		.uleb128 0xb
 3691 006b 00       		.byte	0
 3692 006c 00       		.byte	0
 3693 006d 0A       		.uleb128 0xa
 3694 006e 04       		.uleb128 0x4
 3695 006f 01       		.byte	0x1
 3696 0070 0B       		.uleb128 0xb
 3697 0071 0B       		.uleb128 0xb
 3698 0072 49       		.uleb128 0x49
 3699 0073 13       		.uleb128 0x13
 3700 0074 3A       		.uleb128 0x3a
 3701 0075 0B       		.uleb128 0xb
 3702 0076 3B       		.uleb128 0x3b
 3703 0077 0B       		.uleb128 0xb
 3704 0078 01       		.uleb128 0x1
 3705 0079 13       		.uleb128 0x13
 3706 007a 00       		.byte	0
ARM GAS  C:\Users\exp32\AppData\Local\Temp\ccki8209.s 			page 117


 3707 007b 00       		.byte	0
 3708 007c 0B       		.uleb128 0xb
 3709 007d 28       		.uleb128 0x28
 3710 007e 00       		.byte	0
 3711 007f 03       		.uleb128 0x3
 3712 0080 0E       		.uleb128 0xe
 3713 0081 1C       		.uleb128 0x1c
 3714 0082 0B       		.uleb128 0xb
 3715 0083 00       		.byte	0
 3716 0084 00       		.byte	0
 3717 0085 0C       		.uleb128 0xc
 3718 0086 0D       		.uleb128 0xd
 3719 0087 00       		.byte	0
 3720 0088 03       		.uleb128 0x3
 3721 0089 0E       		.uleb128 0xe
 3722 008a 3A       		.uleb128 0x3a
 3723 008b 0B       		.uleb128 0xb
 3724 008c 3B       		.uleb128 0x3b
 3725 008d 05       		.uleb128 0x5
 3726 008e 49       		.uleb128 0x49
 3727 008f 13       		.uleb128 0x13
 3728 0090 38       		.uleb128 0x38
 3729 0091 0B       		.uleb128 0xb
 3730 0092 00       		.byte	0
 3731 0093 00       		.byte	0
 3732 0094 0D       		.uleb128 0xd
 3733 0095 01       		.uleb128 0x1
 3734 0096 01       		.byte	0x1
 3735 0097 49       		.uleb128 0x49
 3736 0098 13       		.uleb128 0x13
 3737 0099 01       		.uleb128 0x1
 3738 009a 13       		.uleb128 0x13
 3739 009b 00       		.byte	0
 3740 009c 00       		.byte	0
 3741 009d 0E       		.uleb128 0xe
 3742 009e 21       		.uleb128 0x21
 3743 009f 00       		.byte	0
 3744 00a0 49       		.uleb128 0x49
 3745 00a1 13       		.uleb128 0x13
 3746 00a2 2F       		.uleb128 0x2f
 3747 00a3 0B       		.uleb128 0xb
 3748 00a4 00       		.byte	0
 3749 00a5 00       		.byte	0
 3750 00a6 0F       		.uleb128 0xf
 3751 00a7 13       		.uleb128 0x13
 3752 00a8 01       		.byte	0x1
 3753 00a9 0B       		.uleb128 0xb
 3754 00aa 0B       		.uleb128 0xb
 3755 00ab 3A       		.uleb128 0x3a
 3756 00ac 0B       		.uleb128 0xb
 3757 00ad 3B       		.uleb128 0x3b
 3758 00ae 05       		.uleb128 0x5
 3759 00af 01       		.uleb128 0x1
 3760 00b0 13       		.uleb128 0x13
 3761 00b1 00       		.byte	0
 3762 00b2 00       		.byte	0
 3763 00b3 10       		.uleb128 0x10
ARM GAS  C:\Users\exp32\AppData\Local\Temp\ccki8209.s 			page 118


 3764 00b4 0D       		.uleb128 0xd
 3765 00b5 00       		.byte	0
 3766 00b6 03       		.uleb128 0x3
 3767 00b7 08       		.uleb128 0x8
 3768 00b8 3A       		.uleb128 0x3a
 3769 00b9 0B       		.uleb128 0xb
 3770 00ba 3B       		.uleb128 0x3b
 3771 00bb 05       		.uleb128 0x5
 3772 00bc 49       		.uleb128 0x49
 3773 00bd 13       		.uleb128 0x13
 3774 00be 38       		.uleb128 0x38
 3775 00bf 0B       		.uleb128 0xb
 3776 00c0 00       		.byte	0
 3777 00c1 00       		.byte	0
 3778 00c2 11       		.uleb128 0x11
 3779 00c3 13       		.uleb128 0x13
 3780 00c4 01       		.byte	0x1
 3781 00c5 0B       		.uleb128 0xb
 3782 00c6 05       		.uleb128 0x5
 3783 00c7 3A       		.uleb128 0x3a
 3784 00c8 0B       		.uleb128 0xb
 3785 00c9 3B       		.uleb128 0x3b
 3786 00ca 05       		.uleb128 0x5
 3787 00cb 01       		.uleb128 0x1
 3788 00cc 13       		.uleb128 0x13
 3789 00cd 00       		.byte	0
 3790 00ce 00       		.byte	0
 3791 00cf 12       		.uleb128 0x12
 3792 00d0 0D       		.uleb128 0xd
 3793 00d1 00       		.byte	0
 3794 00d2 03       		.uleb128 0x3
 3795 00d3 0E       		.uleb128 0xe
 3796 00d4 3A       		.uleb128 0x3a
 3797 00d5 0B       		.uleb128 0xb
 3798 00d6 3B       		.uleb128 0x3b
 3799 00d7 05       		.uleb128 0x5
 3800 00d8 49       		.uleb128 0x49
 3801 00d9 13       		.uleb128 0x13
 3802 00da 38       		.uleb128 0x38
 3803 00db 05       		.uleb128 0x5
 3804 00dc 00       		.byte	0
 3805 00dd 00       		.byte	0
 3806 00de 13       		.uleb128 0x13
 3807 00df 0F       		.uleb128 0xf
 3808 00e0 00       		.byte	0
 3809 00e1 0B       		.uleb128 0xb
 3810 00e2 0B       		.uleb128 0xb
 3811 00e3 49       		.uleb128 0x49
 3812 00e4 13       		.uleb128 0x13
 3813 00e5 00       		.byte	0
 3814 00e6 00       		.byte	0
 3815 00e7 14       		.uleb128 0x14
 3816 00e8 26       		.uleb128 0x26
 3817 00e9 00       		.byte	0
 3818 00ea 00       		.byte	0
 3819 00eb 00       		.byte	0
 3820 00ec 15       		.uleb128 0x15
ARM GAS  C:\Users\exp32\AppData\Local\Temp\ccki8209.s 			page 119


 3821 00ed 17       		.uleb128 0x17
 3822 00ee 01       		.byte	0x1
 3823 00ef 0B       		.uleb128 0xb
 3824 00f0 0B       		.uleb128 0xb
 3825 00f1 3A       		.uleb128 0x3a
 3826 00f2 0B       		.uleb128 0xb
 3827 00f3 3B       		.uleb128 0x3b
 3828 00f4 05       		.uleb128 0x5
 3829 00f5 01       		.uleb128 0x1
 3830 00f6 13       		.uleb128 0x13
 3831 00f7 00       		.byte	0
 3832 00f8 00       		.byte	0
 3833 00f9 16       		.uleb128 0x16
 3834 00fa 0D       		.uleb128 0xd
 3835 00fb 00       		.byte	0
 3836 00fc 03       		.uleb128 0x3
 3837 00fd 08       		.uleb128 0x8
 3838 00fe 3A       		.uleb128 0x3a
 3839 00ff 0B       		.uleb128 0xb
 3840 0100 3B       		.uleb128 0x3b
 3841 0101 05       		.uleb128 0x5
 3842 0102 49       		.uleb128 0x49
 3843 0103 13       		.uleb128 0x13
 3844 0104 00       		.byte	0
 3845 0105 00       		.byte	0
 3846 0106 17       		.uleb128 0x17
 3847 0107 0D       		.uleb128 0xd
 3848 0108 00       		.byte	0
 3849 0109 03       		.uleb128 0x3
 3850 010a 0E       		.uleb128 0xe
 3851 010b 3A       		.uleb128 0x3a
 3852 010c 0B       		.uleb128 0xb
 3853 010d 3B       		.uleb128 0x3b
 3854 010e 05       		.uleb128 0x5
 3855 010f 49       		.uleb128 0x49
 3856 0110 13       		.uleb128 0x13
 3857 0111 00       		.byte	0
 3858 0112 00       		.byte	0
 3859 0113 18       		.uleb128 0x18
 3860 0114 2E       		.uleb128 0x2e
 3861 0115 01       		.byte	0x1
 3862 0116 03       		.uleb128 0x3
 3863 0117 0E       		.uleb128 0xe
 3864 0118 3A       		.uleb128 0x3a
 3865 0119 0B       		.uleb128 0xb
 3866 011a 3B       		.uleb128 0x3b
 3867 011b 05       		.uleb128 0x5
 3868 011c 27       		.uleb128 0x27
 3869 011d 19       		.uleb128 0x19
 3870 011e 20       		.uleb128 0x20
 3871 011f 0B       		.uleb128 0xb
 3872 0120 01       		.uleb128 0x1
 3873 0121 13       		.uleb128 0x13
 3874 0122 00       		.byte	0
 3875 0123 00       		.byte	0
 3876 0124 19       		.uleb128 0x19
 3877 0125 05       		.uleb128 0x5
ARM GAS  C:\Users\exp32\AppData\Local\Temp\ccki8209.s 			page 120


 3878 0126 00       		.byte	0
 3879 0127 03       		.uleb128 0x3
 3880 0128 0E       		.uleb128 0xe
 3881 0129 3A       		.uleb128 0x3a
 3882 012a 0B       		.uleb128 0xb
 3883 012b 3B       		.uleb128 0x3b
 3884 012c 05       		.uleb128 0x5
 3885 012d 49       		.uleb128 0x49
 3886 012e 13       		.uleb128 0x13
 3887 012f 00       		.byte	0
 3888 0130 00       		.byte	0
 3889 0131 1A       		.uleb128 0x1a
 3890 0132 34       		.uleb128 0x34
 3891 0133 00       		.byte	0
 3892 0134 03       		.uleb128 0x3
 3893 0135 08       		.uleb128 0x8
 3894 0136 3A       		.uleb128 0x3a
 3895 0137 0B       		.uleb128 0xb
 3896 0138 3B       		.uleb128 0x3b
 3897 0139 05       		.uleb128 0x5
 3898 013a 49       		.uleb128 0x49
 3899 013b 13       		.uleb128 0x13
 3900 013c 00       		.byte	0
 3901 013d 00       		.byte	0
 3902 013e 1B       		.uleb128 0x1b
 3903 013f 34       		.uleb128 0x34
 3904 0140 00       		.byte	0
 3905 0141 03       		.uleb128 0x3
 3906 0142 0E       		.uleb128 0xe
 3907 0143 3A       		.uleb128 0x3a
 3908 0144 0B       		.uleb128 0xb
 3909 0145 3B       		.uleb128 0x3b
 3910 0146 05       		.uleb128 0x5
 3911 0147 49       		.uleb128 0x49
 3912 0148 13       		.uleb128 0x13
 3913 0149 00       		.byte	0
 3914 014a 00       		.byte	0
 3915 014b 1C       		.uleb128 0x1c
 3916 014c 26       		.uleb128 0x26
 3917 014d 00       		.byte	0
 3918 014e 49       		.uleb128 0x49
 3919 014f 13       		.uleb128 0x13
 3920 0150 00       		.byte	0
 3921 0151 00       		.byte	0
 3922 0152 1D       		.uleb128 0x1d
 3923 0153 2E       		.uleb128 0x2e
 3924 0154 01       		.byte	0x1
 3925 0155 03       		.uleb128 0x3
 3926 0156 0E       		.uleb128 0xe
 3927 0157 3A       		.uleb128 0x3a
 3928 0158 0B       		.uleb128 0xb
 3929 0159 3B       		.uleb128 0x3b
 3930 015a 0B       		.uleb128 0xb
 3931 015b 27       		.uleb128 0x27
 3932 015c 19       		.uleb128 0x19
 3933 015d 20       		.uleb128 0x20
 3934 015e 0B       		.uleb128 0xb
ARM GAS  C:\Users\exp32\AppData\Local\Temp\ccki8209.s 			page 121


 3935 015f 01       		.uleb128 0x1
 3936 0160 13       		.uleb128 0x13
 3937 0161 00       		.byte	0
 3938 0162 00       		.byte	0
 3939 0163 1E       		.uleb128 0x1e
 3940 0164 05       		.uleb128 0x5
 3941 0165 00       		.byte	0
 3942 0166 03       		.uleb128 0x3
 3943 0167 0E       		.uleb128 0xe
 3944 0168 3A       		.uleb128 0x3a
 3945 0169 0B       		.uleb128 0xb
 3946 016a 3B       		.uleb128 0x3b
 3947 016b 0B       		.uleb128 0xb
 3948 016c 49       		.uleb128 0x49
 3949 016d 13       		.uleb128 0x13
 3950 016e 00       		.byte	0
 3951 016f 00       		.byte	0
 3952 0170 1F       		.uleb128 0x1f
 3953 0171 34       		.uleb128 0x34
 3954 0172 00       		.byte	0
 3955 0173 03       		.uleb128 0x3
 3956 0174 0E       		.uleb128 0xe
 3957 0175 3A       		.uleb128 0x3a
 3958 0176 0B       		.uleb128 0xb
 3959 0177 3B       		.uleb128 0x3b
 3960 0178 0B       		.uleb128 0xb
 3961 0179 49       		.uleb128 0x49
 3962 017a 13       		.uleb128 0x13
 3963 017b 00       		.byte	0
 3964 017c 00       		.byte	0
 3965 017d 20       		.uleb128 0x20
 3966 017e 2E       		.uleb128 0x2e
 3967 017f 01       		.byte	0x1
 3968 0180 3F       		.uleb128 0x3f
 3969 0181 19       		.uleb128 0x19
 3970 0182 03       		.uleb128 0x3
 3971 0183 0E       		.uleb128 0xe
 3972 0184 3A       		.uleb128 0x3a
 3973 0185 0B       		.uleb128 0xb
 3974 0186 3B       		.uleb128 0x3b
 3975 0187 05       		.uleb128 0x5
 3976 0188 27       		.uleb128 0x27
 3977 0189 19       		.uleb128 0x19
 3978 018a 11       		.uleb128 0x11
 3979 018b 01       		.uleb128 0x1
 3980 018c 12       		.uleb128 0x12
 3981 018d 06       		.uleb128 0x6
 3982 018e 40       		.uleb128 0x40
 3983 018f 18       		.uleb128 0x18
 3984 0190 9742     		.uleb128 0x2117
 3985 0192 19       		.uleb128 0x19
 3986 0193 01       		.uleb128 0x1
 3987 0194 13       		.uleb128 0x13
 3988 0195 00       		.byte	0
 3989 0196 00       		.byte	0
 3990 0197 21       		.uleb128 0x21
 3991 0198 34       		.uleb128 0x34
ARM GAS  C:\Users\exp32\AppData\Local\Temp\ccki8209.s 			page 122


 3992 0199 00       		.byte	0
 3993 019a 03       		.uleb128 0x3
 3994 019b 0E       		.uleb128 0xe
 3995 019c 3A       		.uleb128 0x3a
 3996 019d 0B       		.uleb128 0xb
 3997 019e 3B       		.uleb128 0x3b
 3998 019f 05       		.uleb128 0x5
 3999 01a0 49       		.uleb128 0x49
 4000 01a1 13       		.uleb128 0x13
 4001 01a2 02       		.uleb128 0x2
 4002 01a3 17       		.uleb128 0x17
 4003 01a4 00       		.byte	0
 4004 01a5 00       		.byte	0
 4005 01a6 22       		.uleb128 0x22
 4006 01a7 1D       		.uleb128 0x1d
 4007 01a8 01       		.byte	0x1
 4008 01a9 31       		.uleb128 0x31
 4009 01aa 13       		.uleb128 0x13
 4010 01ab 11       		.uleb128 0x11
 4011 01ac 01       		.uleb128 0x1
 4012 01ad 12       		.uleb128 0x12
 4013 01ae 06       		.uleb128 0x6
 4014 01af 58       		.uleb128 0x58
 4015 01b0 0B       		.uleb128 0xb
 4016 01b1 59       		.uleb128 0x59
 4017 01b2 05       		.uleb128 0x5
 4018 01b3 01       		.uleb128 0x1
 4019 01b4 13       		.uleb128 0x13
 4020 01b5 00       		.byte	0
 4021 01b6 00       		.byte	0
 4022 01b7 23       		.uleb128 0x23
 4023 01b8 05       		.uleb128 0x5
 4024 01b9 00       		.byte	0
 4025 01ba 31       		.uleb128 0x31
 4026 01bb 13       		.uleb128 0x13
 4027 01bc 02       		.uleb128 0x2
 4028 01bd 17       		.uleb128 0x17
 4029 01be 00       		.byte	0
 4030 01bf 00       		.byte	0
 4031 01c0 24       		.uleb128 0x24
 4032 01c1 0B       		.uleb128 0xb
 4033 01c2 01       		.byte	0x1
 4034 01c3 11       		.uleb128 0x11
 4035 01c4 01       		.uleb128 0x1
 4036 01c5 12       		.uleb128 0x12
 4037 01c6 06       		.uleb128 0x6
 4038 01c7 00       		.byte	0
 4039 01c8 00       		.byte	0
 4040 01c9 25       		.uleb128 0x25
 4041 01ca 34       		.uleb128 0x34
 4042 01cb 00       		.byte	0
 4043 01cc 31       		.uleb128 0x31
 4044 01cd 13       		.uleb128 0x13
 4045 01ce 02       		.uleb128 0x2
 4046 01cf 17       		.uleb128 0x17
 4047 01d0 00       		.byte	0
 4048 01d1 00       		.byte	0
ARM GAS  C:\Users\exp32\AppData\Local\Temp\ccki8209.s 			page 123


 4049 01d2 26       		.uleb128 0x26
 4050 01d3 898201   		.uleb128 0x4109
 4051 01d6 00       		.byte	0
 4052 01d7 11       		.uleb128 0x11
 4053 01d8 01       		.uleb128 0x1
 4054 01d9 31       		.uleb128 0x31
 4055 01da 13       		.uleb128 0x13
 4056 01db 00       		.byte	0
 4057 01dc 00       		.byte	0
 4058 01dd 27       		.uleb128 0x27
 4059 01de 05       		.uleb128 0x5
 4060 01df 00       		.byte	0
 4061 01e0 03       		.uleb128 0x3
 4062 01e1 0E       		.uleb128 0xe
 4063 01e2 3A       		.uleb128 0x3a
 4064 01e3 0B       		.uleb128 0xb
 4065 01e4 3B       		.uleb128 0x3b
 4066 01e5 05       		.uleb128 0x5
 4067 01e6 49       		.uleb128 0x49
 4068 01e7 13       		.uleb128 0x13
 4069 01e8 02       		.uleb128 0x2
 4070 01e9 17       		.uleb128 0x17
 4071 01ea 00       		.byte	0
 4072 01eb 00       		.byte	0
 4073 01ec 28       		.uleb128 0x28
 4074 01ed 34       		.uleb128 0x34
 4075 01ee 00       		.byte	0
 4076 01ef 03       		.uleb128 0x3
 4077 01f0 0E       		.uleb128 0xe
 4078 01f1 3A       		.uleb128 0x3a
 4079 01f2 0B       		.uleb128 0xb
 4080 01f3 3B       		.uleb128 0x3b
 4081 01f4 05       		.uleb128 0x5
 4082 01f5 49       		.uleb128 0x49
 4083 01f6 13       		.uleb128 0x13
 4084 01f7 02       		.uleb128 0x2
 4085 01f8 18       		.uleb128 0x18
 4086 01f9 00       		.byte	0
 4087 01fa 00       		.byte	0
 4088 01fb 29       		.uleb128 0x29
 4089 01fc 898201   		.uleb128 0x4109
 4090 01ff 01       		.byte	0x1
 4091 0200 11       		.uleb128 0x11
 4092 0201 01       		.uleb128 0x1
 4093 0202 31       		.uleb128 0x31
 4094 0203 13       		.uleb128 0x13
 4095 0204 00       		.byte	0
 4096 0205 00       		.byte	0
 4097 0206 2A       		.uleb128 0x2a
 4098 0207 8A8201   		.uleb128 0x410a
 4099 020a 00       		.byte	0
 4100 020b 02       		.uleb128 0x2
 4101 020c 18       		.uleb128 0x18
 4102 020d 9142     		.uleb128 0x2111
 4103 020f 18       		.uleb128 0x18
 4104 0210 00       		.byte	0
 4105 0211 00       		.byte	0
ARM GAS  C:\Users\exp32\AppData\Local\Temp\ccki8209.s 			page 124


 4106 0212 2B       		.uleb128 0x2b
 4107 0213 05       		.uleb128 0x5
 4108 0214 00       		.byte	0
 4109 0215 03       		.uleb128 0x3
 4110 0216 0E       		.uleb128 0xe
 4111 0217 3A       		.uleb128 0x3a
 4112 0218 0B       		.uleb128 0xb
 4113 0219 3B       		.uleb128 0x3b
 4114 021a 05       		.uleb128 0x5
 4115 021b 49       		.uleb128 0x49
 4116 021c 13       		.uleb128 0x13
 4117 021d 02       		.uleb128 0x2
 4118 021e 18       		.uleb128 0x18
 4119 021f 00       		.byte	0
 4120 0220 00       		.byte	0
 4121 0221 2C       		.uleb128 0x2c
 4122 0222 2E       		.uleb128 0x2e
 4123 0223 01       		.byte	0x1
 4124 0224 3F       		.uleb128 0x3f
 4125 0225 19       		.uleb128 0x19
 4126 0226 03       		.uleb128 0x3
 4127 0227 0E       		.uleb128 0xe
 4128 0228 3A       		.uleb128 0x3a
 4129 0229 0B       		.uleb128 0xb
 4130 022a 3B       		.uleb128 0x3b
 4131 022b 05       		.uleb128 0x5
 4132 022c 27       		.uleb128 0x27
 4133 022d 19       		.uleb128 0x19
 4134 022e 49       		.uleb128 0x49
 4135 022f 13       		.uleb128 0x13
 4136 0230 11       		.uleb128 0x11
 4137 0231 01       		.uleb128 0x1
 4138 0232 12       		.uleb128 0x12
 4139 0233 06       		.uleb128 0x6
 4140 0234 40       		.uleb128 0x40
 4141 0235 18       		.uleb128 0x18
 4142 0236 9742     		.uleb128 0x2117
 4143 0238 19       		.uleb128 0x19
 4144 0239 01       		.uleb128 0x1
 4145 023a 13       		.uleb128 0x13
 4146 023b 00       		.byte	0
 4147 023c 00       		.byte	0
 4148 023d 2D       		.uleb128 0x2d
 4149 023e 898201   		.uleb128 0x4109
 4150 0241 01       		.byte	0x1
 4151 0242 11       		.uleb128 0x11
 4152 0243 01       		.uleb128 0x1
 4153 0244 31       		.uleb128 0x31
 4154 0245 13       		.uleb128 0x13
 4155 0246 01       		.uleb128 0x1
 4156 0247 13       		.uleb128 0x13
 4157 0248 00       		.byte	0
 4158 0249 00       		.byte	0
 4159 024a 2E       		.uleb128 0x2e
 4160 024b 34       		.uleb128 0x34
 4161 024c 00       		.byte	0
 4162 024d 03       		.uleb128 0x3
ARM GAS  C:\Users\exp32\AppData\Local\Temp\ccki8209.s 			page 125


 4163 024e 0E       		.uleb128 0xe
 4164 024f 3A       		.uleb128 0x3a
 4165 0250 0B       		.uleb128 0xb
 4166 0251 3B       		.uleb128 0x3b
 4167 0252 05       		.uleb128 0x5
 4168 0253 49       		.uleb128 0x49
 4169 0254 13       		.uleb128 0x13
 4170 0255 3F       		.uleb128 0x3f
 4171 0256 19       		.uleb128 0x19
 4172 0257 3C       		.uleb128 0x3c
 4173 0258 19       		.uleb128 0x19
 4174 0259 00       		.byte	0
 4175 025a 00       		.byte	0
 4176 025b 2F       		.uleb128 0x2f
 4177 025c 2E       		.uleb128 0x2e
 4178 025d 00       		.byte	0
 4179 025e 3F       		.uleb128 0x3f
 4180 025f 19       		.uleb128 0x19
 4181 0260 3C       		.uleb128 0x3c
 4182 0261 19       		.uleb128 0x19
 4183 0262 6E       		.uleb128 0x6e
 4184 0263 0E       		.uleb128 0xe
 4185 0264 03       		.uleb128 0x3
 4186 0265 0E       		.uleb128 0xe
 4187 0266 3A       		.uleb128 0x3a
 4188 0267 0B       		.uleb128 0xb
 4189 0268 3B       		.uleb128 0x3b
 4190 0269 0B       		.uleb128 0xb
 4191 026a 00       		.byte	0
 4192 026b 00       		.byte	0
 4193 026c 00       		.byte	0
 4194              		.section	.debug_loc,"",%progbits
 4195              	.Ldebug_loc0:
 4196              	.LLST0:
 4197 0000 02000000 		.4byte	.LVL0
 4198 0004 06000000 		.4byte	.LVL1
 4199 0008 0200     		.2byte	0x2
 4200 000a 30       		.byte	0x30
 4201 000b 9F       		.byte	0x9f
 4202 000c 06000000 		.4byte	.LVL1
 4203 0010 22000000 		.4byte	.LVL3
 4204 0014 0100     		.2byte	0x1
 4205 0016 53       		.byte	0x53
 4206 0017 24000000 		.4byte	.LVL4
 4207 001b 9C000000 		.4byte	.LVL21
 4208 001f 0100     		.2byte	0x1
 4209 0021 55       		.byte	0x55
 4210 0022 9C000000 		.4byte	.LVL21
 4211 0026 9E000000 		.4byte	.LVL22
 4212 002a 0100     		.2byte	0x1
 4213 002c 53       		.byte	0x53
 4214 002d 9E000000 		.4byte	.LVL22
 4215 0031 A2000000 		.4byte	.LVL24
 4216 0035 0100     		.2byte	0x1
 4217 0037 55       		.byte	0x55
 4218 0038 A2000000 		.4byte	.LVL24
 4219 003c AC000000 		.4byte	.LFE3
ARM GAS  C:\Users\exp32\AppData\Local\Temp\ccki8209.s 			page 126


 4220 0040 0300     		.2byte	0x3
 4221 0042 73       		.byte	0x73
 4222 0043 7F       		.sleb128 -1
 4223 0044 9F       		.byte	0x9f
 4224 0045 00000000 		.4byte	0
 4225 0049 00000000 		.4byte	0
 4226              	.LLST1:
 4227 004d 28000000 		.4byte	.LVL6
 4228 0051 52000000 		.4byte	.LVL7
 4229 0055 0100     		.2byte	0x1
 4230 0057 52       		.byte	0x52
 4231 0058 58000000 		.4byte	.LVL9
 4232 005c 60000000 		.4byte	.LVL10
 4233 0060 0100     		.2byte	0x1
 4234 0062 52       		.byte	0x52
 4235 0063 7E000000 		.4byte	.LVL15
 4236 0067 86000000 		.4byte	.LVL16
 4237 006b 0100     		.2byte	0x1
 4238 006d 52       		.byte	0x52
 4239 006e 00000000 		.4byte	0
 4240 0072 00000000 		.4byte	0
 4241              	.LLST2:
 4242 0076 26000000 		.4byte	.LVL5
 4243 007a 9C000000 		.4byte	.LVL21
 4244 007e 0100     		.2byte	0x1
 4245 0080 56       		.byte	0x56
 4246 0081 00000000 		.4byte	0
 4247 0085 00000000 		.4byte	0
 4248              	.LLST3:
 4249 0089 24000000 		.4byte	.LVL4
 4250 008d A2000000 		.4byte	.LVL23
 4251 0091 0100     		.2byte	0x1
 4252 0093 54       		.byte	0x54
 4253 0094 00000000 		.4byte	0
 4254 0098 00000000 		.4byte	0
 4255              	.LLST4:
 4256 009c 62000000 		.4byte	.LVL11
 4257 00a0 7E000000 		.4byte	.LVL15
 4258 00a4 0100     		.2byte	0x1
 4259 00a6 54       		.byte	0x54
 4260 00a7 00000000 		.4byte	0
 4261 00ab 00000000 		.4byte	0
 4262              	.LLST5:
 4263 00af 64000000 		.4byte	.LVL12
 4264 00b3 68000000 		.4byte	.LVL13
 4265 00b7 0200     		.2byte	0x2
 4266 00b9 30       		.byte	0x30
 4267 00ba 9F       		.byte	0x9f
 4268 00bb 68000000 		.4byte	.LVL13
 4269 00bf 7E000000 		.4byte	.LVL15
 4270 00c3 0100     		.2byte	0x1
 4271 00c5 53       		.byte	0x53
 4272 00c6 00000000 		.4byte	0
 4273 00ca 00000000 		.4byte	0
 4274              	.LLST6:
 4275 00ce 64000000 		.4byte	.LVL12
 4276 00d2 7E000000 		.4byte	.LVL15
ARM GAS  C:\Users\exp32\AppData\Local\Temp\ccki8209.s 			page 127


 4277 00d6 0100     		.2byte	0x1
 4278 00d8 51       		.byte	0x51
 4279 00d9 00000000 		.4byte	0
 4280 00dd 00000000 		.4byte	0
 4281              	.LLST7:
 4282 00e1 88000000 		.4byte	.LVL17
 4283 00e5 98000000 		.4byte	.LVL19
 4284 00e9 0100     		.2byte	0x1
 4285 00eb 54       		.byte	0x54
 4286 00ec 00000000 		.4byte	0
 4287 00f0 00000000 		.4byte	0
 4288              	.LLST8:
 4289 00f4 8A000000 		.4byte	.LVL18
 4290 00f8 98000000 		.4byte	.LVL19
 4291 00fc 0100     		.2byte	0x1
 4292 00fe 53       		.byte	0x53
 4293 00ff 00000000 		.4byte	0
 4294 0103 00000000 		.4byte	0
 4295              	.LLST9:
 4296 0107 00000000 		.4byte	.LVL25
 4297 010b 08000000 		.4byte	.LVL26
 4298 010f 0100     		.2byte	0x1
 4299 0111 50       		.byte	0x50
 4300 0112 08000000 		.4byte	.LVL26
 4301 0116 30000000 		.4byte	.LVL32
 4302 011a 0100     		.2byte	0x1
 4303 011c 54       		.byte	0x54
 4304 011d 30000000 		.4byte	.LVL32
 4305 0121 32000000 		.4byte	.LFE7
 4306 0125 0400     		.2byte	0x4
 4307 0127 F3       		.byte	0xf3
 4308 0128 01       		.uleb128 0x1
 4309 0129 50       		.byte	0x50
 4310 012a 9F       		.byte	0x9f
 4311 012b 00000000 		.4byte	0
 4312 012f 00000000 		.4byte	0
 4313              	.LLST10:
 4314 0133 00000000 		.4byte	.LVL25
 4315 0137 0E000000 		.4byte	.LVL29
 4316 013b 0100     		.2byte	0x1
 4317 013d 51       		.byte	0x51
 4318 013e 0E000000 		.4byte	.LVL29
 4319 0142 15000000 		.4byte	.LVL30-1
 4320 0146 0100     		.2byte	0x1
 4321 0148 50       		.byte	0x50
 4322 0149 15000000 		.4byte	.LVL30-1
 4323 014d 32000000 		.4byte	.LFE7
 4324 0151 0400     		.2byte	0x4
 4325 0153 F3       		.byte	0xf3
 4326 0154 01       		.uleb128 0x1
 4327 0155 51       		.byte	0x51
 4328 0156 9F       		.byte	0x9f
 4329 0157 00000000 		.4byte	0
 4330 015b 00000000 		.4byte	0
 4331              	.LLST11:
 4332 015f 00000000 		.4byte	.LVL25
 4333 0163 0C000000 		.4byte	.LVL28
ARM GAS  C:\Users\exp32\AppData\Local\Temp\ccki8209.s 			page 128


 4334 0167 0100     		.2byte	0x1
 4335 0169 52       		.byte	0x52
 4336 016a 0C000000 		.4byte	.LVL28
 4337 016e 15000000 		.4byte	.LVL30-1
 4338 0172 0100     		.2byte	0x1
 4339 0174 53       		.byte	0x53
 4340 0175 15000000 		.4byte	.LVL30-1
 4341 0179 32000000 		.4byte	.LFE7
 4342 017d 0400     		.2byte	0x4
 4343 017f F3       		.byte	0xf3
 4344 0180 01       		.uleb128 0x1
 4345 0181 52       		.byte	0x52
 4346 0182 9F       		.byte	0x9f
 4347 0183 00000000 		.4byte	0
 4348 0187 00000000 		.4byte	0
 4349              	.LLST12:
 4350 018b 0A000000 		.4byte	.LVL27
 4351 018f 30000000 		.4byte	.LVL31
 4352 0193 0100     		.2byte	0x1
 4353 0195 5D       		.byte	0x5d
 4354 0196 30000000 		.4byte	.LVL31
 4355 019a 32000000 		.4byte	.LFE7
 4356 019e 0300     		.2byte	0x3
 4357 01a0 91       		.byte	0x91
 4358 01a1 70       		.sleb128 -16
 4359 01a2 9F       		.byte	0x9f
 4360 01a3 00000000 		.4byte	0
 4361 01a7 00000000 		.4byte	0
 4362              	.LLST13:
 4363 01ab 00000000 		.4byte	.LVL33
 4364 01af 0E000000 		.4byte	.LVL36
 4365 01b3 0100     		.2byte	0x1
 4366 01b5 50       		.byte	0x50
 4367 01b6 0E000000 		.4byte	.LVL36
 4368 01ba 16000000 		.4byte	.LFE8
 4369 01be 0400     		.2byte	0x4
 4370 01c0 F3       		.byte	0xf3
 4371 01c1 01       		.uleb128 0x1
 4372 01c2 50       		.byte	0x50
 4373 01c3 9F       		.byte	0x9f
 4374 01c4 00000000 		.4byte	0
 4375 01c8 00000000 		.4byte	0
 4376              	.LLST14:
 4377 01cc 02000000 		.4byte	.LVL34
 4378 01d0 08000000 		.4byte	.LVL35
 4379 01d4 0200     		.2byte	0x2
 4380 01d6 30       		.byte	0x30
 4381 01d7 9F       		.byte	0x9f
 4382 01d8 08000000 		.4byte	.LVL35
 4383 01dc 14000000 		.4byte	.LVL37
 4384 01e0 0100     		.2byte	0x1
 4385 01e2 54       		.byte	0x54
 4386 01e3 14000000 		.4byte	.LVL37
 4387 01e7 16000000 		.4byte	.LFE8
 4388 01eb 0600     		.2byte	0x6
 4389 01ed 73       		.byte	0x73
 4390 01ee 00       		.sleb128 0
ARM GAS  C:\Users\exp32\AppData\Local\Temp\ccki8209.s 			page 129


 4391 01ef 72       		.byte	0x72
 4392 01f0 00       		.sleb128 0
 4393 01f1 1C       		.byte	0x1c
 4394 01f2 9F       		.byte	0x9f
 4395 01f3 00000000 		.4byte	0
 4396 01f7 00000000 		.4byte	0
 4397              	.LLST15:
 4398 01fb 00000000 		.4byte	.LVL38
 4399 01ff 1C000000 		.4byte	.LVL45
 4400 0203 0100     		.2byte	0x1
 4401 0205 50       		.byte	0x50
 4402 0206 1C000000 		.4byte	.LVL45
 4403 020a 56000000 		.4byte	.LVL60
 4404 020e 0100     		.2byte	0x1
 4405 0210 5A       		.byte	0x5a
 4406 0211 56000000 		.4byte	.LVL60
 4407 0215 5C000000 		.4byte	.LFE4
 4408 0219 0400     		.2byte	0x4
 4409 021b F3       		.byte	0xf3
 4410 021c 01       		.uleb128 0x1
 4411 021d 50       		.byte	0x50
 4412 021e 9F       		.byte	0x9f
 4413 021f 00000000 		.4byte	0
 4414 0223 00000000 		.4byte	0
 4415              	.LLST16:
 4416 0227 0A000000 		.4byte	.LVL39
 4417 022b 1C000000 		.4byte	.LVL45
 4418 022f 0200     		.2byte	0x2
 4419 0231 30       		.byte	0x30
 4420 0232 9F       		.byte	0x9f
 4421 0233 1C000000 		.4byte	.LVL45
 4422 0237 3E000000 		.4byte	.LVL50
 4423 023b 0200     		.2byte	0x2
 4424 023d 7D       		.byte	0x7d
 4425 023e 00       		.sleb128 0
 4426 023f 3E000000 		.4byte	.LVL50
 4427 0243 42000000 		.4byte	.LVL51
 4428 0247 0100     		.2byte	0x1
 4429 0249 50       		.byte	0x50
 4430 024a 42000000 		.4byte	.LVL51
 4431 024e 56000000 		.4byte	.LVL55
 4432 0252 0200     		.2byte	0x2
 4433 0254 7D       		.byte	0x7d
 4434 0255 00       		.sleb128 0
 4435 0256 56000000 		.4byte	.LVL55
 4436 025a 5C000000 		.4byte	.LFE4
 4437 025e 0100     		.2byte	0x1
 4438 0260 50       		.byte	0x50
 4439 0261 00000000 		.4byte	0
 4440 0265 00000000 		.4byte	0
 4441              	.LLST17:
 4442 0269 12000000 		.4byte	.LVL42
 4443 026d 18000000 		.4byte	.LVL44
 4444 0271 0100     		.2byte	0x1
 4445 0273 53       		.byte	0x53
 4446 0274 18000000 		.4byte	.LVL44
 4447 0278 5C000000 		.4byte	.LFE4
ARM GAS  C:\Users\exp32\AppData\Local\Temp\ccki8209.s 			page 130


 4448 027c 0200     		.2byte	0x2
 4449 027e 91       		.byte	0x91
 4450 027f 64       		.sleb128 -28
 4451 0280 00000000 		.4byte	0
 4452 0284 00000000 		.4byte	0
 4453              	.LLST18:
 4454 0288 14000000 		.4byte	.LVL43
 4455 028c 1C000000 		.4byte	.LVL45
 4456 0290 0200     		.2byte	0x2
 4457 0292 30       		.byte	0x30
 4458 0293 9F       		.byte	0x9f
 4459 0294 1C000000 		.4byte	.LVL45
 4460 0298 56000000 		.4byte	.LVL58
 4461 029c 0100     		.2byte	0x1
 4462 029e 56       		.byte	0x56
 4463 029f 00000000 		.4byte	0
 4464 02a3 00000000 		.4byte	0
 4465              	.LLST19:
 4466 02a7 0C000000 		.4byte	.LVL40
 4467 02ab 56000000 		.4byte	.LVL56
 4468 02af 0100     		.2byte	0x1
 4469 02b1 54       		.byte	0x54
 4470 02b2 00000000 		.4byte	0
 4471 02b6 00000000 		.4byte	0
 4472              	.LLST20:
 4473 02ba 0E000000 		.4byte	.LVL41
 4474 02be 56000000 		.4byte	.LVL57
 4475 02c2 0100     		.2byte	0x1
 4476 02c4 55       		.byte	0x55
 4477 02c5 00000000 		.4byte	0
 4478 02c9 00000000 		.4byte	0
 4479              	.LLST21:
 4480 02cd 14000000 		.4byte	.LVL43
 4481 02d1 56000000 		.4byte	.LVL59
 4482 02d5 0100     		.2byte	0x1
 4483 02d7 57       		.byte	0x57
 4484 02d8 00000000 		.4byte	0
 4485 02dc 00000000 		.4byte	0
 4486              	.LLST22:
 4487 02e0 00000000 		.4byte	.LVL61
 4488 02e4 18000000 		.4byte	.LVL68
 4489 02e8 0100     		.2byte	0x1
 4490 02ea 50       		.byte	0x50
 4491 02eb 18000000 		.4byte	.LVL68
 4492 02ef 52000000 		.4byte	.LFE5
 4493 02f3 0400     		.2byte	0x4
 4494 02f5 F3       		.byte	0xf3
 4495 02f6 01       		.uleb128 0x1
 4496 02f7 50       		.byte	0x50
 4497 02f8 9F       		.byte	0x9f
 4498 02f9 00000000 		.4byte	0
 4499 02fd 00000000 		.4byte	0
 4500              	.LLST23:
 4501 0301 00000000 		.4byte	.LVL61
 4502 0305 14000000 		.4byte	.LVL67
 4503 0309 0100     		.2byte	0x1
 4504 030b 51       		.byte	0x51
ARM GAS  C:\Users\exp32\AppData\Local\Temp\ccki8209.s 			page 131


 4505 030c 14000000 		.4byte	.LVL67
 4506 0310 52000000 		.4byte	.LFE5
 4507 0314 0200     		.2byte	0x2
 4508 0316 91       		.byte	0x91
 4509 0317 64       		.sleb128 -28
 4510 0318 00000000 		.4byte	0
 4511 031c 00000000 		.4byte	0
 4512              	.LLST24:
 4513 0320 00000000 		.4byte	.LVL61
 4514 0324 1A000000 		.4byte	.LVL69
 4515 0328 0100     		.2byte	0x1
 4516 032a 52       		.byte	0x52
 4517 032b 1E000000 		.4byte	.LVL70
 4518 032f 24000000 		.4byte	.LVL71
 4519 0333 0100     		.2byte	0x1
 4520 0335 52       		.byte	0x52
 4521 0336 2C000000 		.4byte	.LVL72
 4522 033a 32000000 		.4byte	.LVL73
 4523 033e 0100     		.2byte	0x1
 4524 0340 52       		.byte	0x52
 4525 0341 3E000000 		.4byte	.LVL76
 4526 0345 4B000000 		.4byte	.LVL78-1
 4527 0349 0100     		.2byte	0x1
 4528 034b 52       		.byte	0x52
 4529 034c 4C000000 		.4byte	.LVL78
 4530 0350 52000000 		.4byte	.LFE5
 4531 0354 0100     		.2byte	0x1
 4532 0356 52       		.byte	0x52
 4533 0357 00000000 		.4byte	0
 4534 035b 00000000 		.4byte	0
 4535              	.LLST25:
 4536 035f 00000000 		.4byte	.LVL61
 4537 0363 12000000 		.4byte	.LVL66
 4538 0367 0100     		.2byte	0x1
 4539 0369 53       		.byte	0x53
 4540 036a 12000000 		.4byte	.LVL66
 4541 036e 50000000 		.4byte	.LVL79
 4542 0372 0100     		.2byte	0x1
 4543 0374 54       		.byte	0x54
 4544 0375 50000000 		.4byte	.LVL79
 4545 0379 52000000 		.4byte	.LFE5
 4546 037d 0400     		.2byte	0x4
 4547 037f F3       		.byte	0xf3
 4548 0380 01       		.uleb128 0x1
 4549 0381 53       		.byte	0x53
 4550 0382 9F       		.byte	0x9f
 4551 0383 00000000 		.4byte	0
 4552 0387 00000000 		.4byte	0
 4553              	.LLST26:
 4554 038b 08000000 		.4byte	.LVL62
 4555 038f 3C000000 		.4byte	.LVL75
 4556 0393 0200     		.2byte	0x2
 4557 0395 30       		.byte	0x30
 4558 0396 9F       		.byte	0x9f
 4559 0397 3C000000 		.4byte	.LVL75
 4560 039b 3E000000 		.4byte	.LVL76
 4561 039f 0100     		.2byte	0x1
ARM GAS  C:\Users\exp32\AppData\Local\Temp\ccki8209.s 			page 132


 4562 03a1 50       		.byte	0x50
 4563 03a2 3E000000 		.4byte	.LVL76
 4564 03a6 40000000 		.4byte	.LVL77
 4565 03aa 0200     		.2byte	0x2
 4566 03ac 30       		.byte	0x30
 4567 03ad 9F       		.byte	0x9f
 4568 03ae 40000000 		.4byte	.LVL77
 4569 03b2 50000000 		.4byte	.LVL82
 4570 03b6 0100     		.2byte	0x1
 4571 03b8 57       		.byte	0x57
 4572 03b9 50000000 		.4byte	.LVL82
 4573 03bd 52000000 		.4byte	.LFE5
 4574 03c1 0100     		.2byte	0x1
 4575 03c3 50       		.byte	0x50
 4576 03c4 00000000 		.4byte	0
 4577 03c8 00000000 		.4byte	0
 4578              	.LLST27:
 4579 03cc 0C000000 		.4byte	.LVL64
 4580 03d0 50000000 		.4byte	.LVL81
 4581 03d4 0100     		.2byte	0x1
 4582 03d6 56       		.byte	0x56
 4583 03d7 00000000 		.4byte	0
 4584 03db 00000000 		.4byte	0
 4585              	.LLST28:
 4586 03df 0E000000 		.4byte	.LVL65
 4587 03e3 50000000 		.4byte	.LVL80
 4588 03e7 0100     		.2byte	0x1
 4589 03e9 55       		.byte	0x55
 4590 03ea 00000000 		.4byte	0
 4591 03ee 00000000 		.4byte	0
 4592              	.LLST29:
 4593 03f2 0A000000 		.4byte	.LVL63
 4594 03f6 3C000000 		.4byte	.LVL75
 4595 03fa 0100     		.2byte	0x1
 4596 03fc 57       		.byte	0x57
 4597 03fd 3E000000 		.4byte	.LVL76
 4598 0401 40000000 		.4byte	.LVL77
 4599 0405 0100     		.2byte	0x1
 4600 0407 57       		.byte	0x57
 4601 0408 00000000 		.4byte	0
 4602 040c 00000000 		.4byte	0
 4603              	.LLST30:
 4604 0410 00000000 		.4byte	.LVL83
 4605 0414 44000000 		.4byte	.LVL95
 4606 0418 0100     		.2byte	0x1
 4607 041a 50       		.byte	0x50
 4608 041b 44000000 		.4byte	.LVL95
 4609 041f 64000000 		.4byte	.LFE9
 4610 0423 0100     		.2byte	0x1
 4611 0425 50       		.byte	0x50
 4612 0426 00000000 		.4byte	0
 4613 042a 00000000 		.4byte	0
 4614              	.LLST31:
 4615 042e 00000000 		.4byte	.LVL83
 4616 0432 0C000000 		.4byte	.LVL88
 4617 0436 0100     		.2byte	0x1
 4618 0438 51       		.byte	0x51
ARM GAS  C:\Users\exp32\AppData\Local\Temp\ccki8209.s 			page 133


 4619 0439 0C000000 		.4byte	.LVL88
 4620 043d 64000000 		.4byte	.LFE9
 4621 0441 0400     		.2byte	0x4
 4622 0443 F3       		.byte	0xf3
 4623 0444 01       		.uleb128 0x1
 4624 0445 51       		.byte	0x51
 4625 0446 9F       		.byte	0x9f
 4626 0447 00000000 		.4byte	0
 4627 044b 00000000 		.4byte	0
 4628              	.LLST32:
 4629 044f 04000000 		.4byte	.LVL84
 4630 0453 0E000000 		.4byte	.LVL89
 4631 0457 0100     		.2byte	0x1
 4632 0459 52       		.byte	0x52
 4633 045a 0E000000 		.4byte	.LVL89
 4634 045e 10000000 		.4byte	.LVL90
 4635 0462 0100     		.2byte	0x1
 4636 0464 54       		.byte	0x54
 4637 0465 10000000 		.4byte	.LVL90
 4638 0469 5A000000 		.4byte	.LVL103
 4639 046d 0100     		.2byte	0x1
 4640 046f 5C       		.byte	0x5c
 4641 0470 5A000000 		.4byte	.LVL103
 4642 0474 5E000000 		.4byte	.LVL104
 4643 0478 0100     		.2byte	0x1
 4644 047a 52       		.byte	0x52
 4645 047b 5E000000 		.4byte	.LVL104
 4646 047f 62000000 		.4byte	.LVL105
 4647 0483 0100     		.2byte	0x1
 4648 0485 54       		.byte	0x54
 4649 0486 62000000 		.4byte	.LVL105
 4650 048a 64000000 		.4byte	.LFE9
 4651 048e 0100     		.2byte	0x1
 4652 0490 5C       		.byte	0x5c
 4653 0491 00000000 		.4byte	0
 4654 0495 00000000 		.4byte	0
 4655              	.LLST33:
 4656 0499 0A000000 		.4byte	.LVL87
 4657 049d 0E000000 		.4byte	.LVL89
 4658 04a1 0200     		.2byte	0x2
 4659 04a3 31       		.byte	0x31
 4660 04a4 9F       		.byte	0x9f
 4661 04a5 0E000000 		.4byte	.LVL89
 4662 04a9 64000000 		.4byte	.LFE9
 4663 04ad 0100     		.2byte	0x1
 4664 04af 51       		.byte	0x51
 4665 04b0 00000000 		.4byte	0
 4666 04b4 00000000 		.4byte	0
 4667              	.LLST34:
 4668 04b8 2E000000 		.4byte	.LVL94
 4669 04bc 4C000000 		.4byte	.LVL97
 4670 04c0 0100     		.2byte	0x1
 4671 04c2 52       		.byte	0x52
 4672 04c3 4E000000 		.4byte	.LVL98
 4673 04c7 50000000 		.4byte	.LVL99
 4674 04cb 0100     		.2byte	0x1
 4675 04cd 52       		.byte	0x52
ARM GAS  C:\Users\exp32\AppData\Local\Temp\ccki8209.s 			page 134


 4676 04ce 00000000 		.4byte	0
 4677 04d2 00000000 		.4byte	0
 4678              	.LLST35:
 4679 04d6 22000000 		.4byte	.LVL91
 4680 04da 2A000000 		.4byte	.LVL92
 4681 04de 0100     		.2byte	0x1
 4682 04e0 52       		.byte	0x52
 4683 04e1 2C000000 		.4byte	.LVL93
 4684 04e5 2E000000 		.4byte	.LVL94
 4685 04e9 0100     		.2byte	0x1
 4686 04eb 52       		.byte	0x52
 4687 04ec 00000000 		.4byte	0
 4688 04f0 00000000 		.4byte	0
 4689              	.LLST36:
 4690 04f4 06000000 		.4byte	.LVL85
 4691 04f8 62000000 		.4byte	.LVL106
 4692 04fc 0100     		.2byte	0x1
 4693 04fe 55       		.byte	0x55
 4694 04ff 00000000 		.4byte	0
 4695 0503 00000000 		.4byte	0
 4696              	.LLST37:
 4697 0507 08000000 		.4byte	.LVL86
 4698 050b 62000000 		.4byte	.LVL107
 4699 050f 0100     		.2byte	0x1
 4700 0511 57       		.byte	0x57
 4701 0512 00000000 		.4byte	0
 4702 0516 00000000 		.4byte	0
 4703              	.LLST38:
 4704 051a 00000000 		.4byte	.LVL108
 4705 051e 1C000000 		.4byte	.LVL115
 4706 0522 0100     		.2byte	0x1
 4707 0524 50       		.byte	0x50
 4708 0525 1C000000 		.4byte	.LVL115
 4709 0529 22000000 		.4byte	.LVL117
 4710 052d 0100     		.2byte	0x1
 4711 052f 5C       		.byte	0x5c
 4712 0530 22000000 		.4byte	.LVL117
 4713 0534 26000000 		.4byte	.LVL119
 4714 0538 0100     		.2byte	0x1
 4715 053a 50       		.byte	0x50
 4716 053b 26000000 		.4byte	.LVL119
 4717 053f 6C000000 		.4byte	.LVL131
 4718 0543 0100     		.2byte	0x1
 4719 0545 5C       		.byte	0x5c
 4720 0546 6C000000 		.4byte	.LVL131
 4721 054a D6000000 		.4byte	.LVL146
 4722 054e 0100     		.2byte	0x1
 4723 0550 54       		.byte	0x54
 4724 0551 D6000000 		.4byte	.LVL146
 4725 0555 DC000000 		.4byte	.LFE10
 4726 0559 0100     		.2byte	0x1
 4727 055b 50       		.byte	0x50
 4728 055c 00000000 		.4byte	0
 4729 0560 00000000 		.4byte	0
 4730              	.LLST39:
 4731 0564 00000000 		.4byte	.LVL108
 4732 0568 14000000 		.4byte	.LVL113
ARM GAS  C:\Users\exp32\AppData\Local\Temp\ccki8209.s 			page 135


 4733 056c 0100     		.2byte	0x1
 4734 056e 51       		.byte	0x51
 4735 056f 14000000 		.4byte	.LVL113
 4736 0573 D6000000 		.4byte	.LVL149
 4737 0577 0100     		.2byte	0x1
 4738 0579 57       		.byte	0x57
 4739 057a D6000000 		.4byte	.LVL149
 4740 057e DC000000 		.4byte	.LFE10
 4741 0582 0400     		.2byte	0x4
 4742 0584 F3       		.byte	0xf3
 4743 0585 01       		.uleb128 0x1
 4744 0586 51       		.byte	0x51
 4745 0587 9F       		.byte	0x9f
 4746 0588 00000000 		.4byte	0
 4747 058c 00000000 		.4byte	0
 4748              	.LLST40:
 4749 0590 0E000000 		.4byte	.LVL110
 4750 0594 2E000000 		.4byte	.LVL121
 4751 0598 0100     		.2byte	0x1
 4752 059a 53       		.byte	0x53
 4753 059b 2E000000 		.4byte	.LVL121
 4754 059f 42000000 		.4byte	.LVL125
 4755 05a3 0100     		.2byte	0x1
 4756 05a5 56       		.byte	0x56
 4757 05a6 42000000 		.4byte	.LVL125
 4758 05aa 44000000 		.4byte	.LVL126
 4759 05ae 0100     		.2byte	0x1
 4760 05b0 53       		.byte	0x53
 4761 05b1 44000000 		.4byte	.LVL126
 4762 05b5 D6000000 		.4byte	.LVL148
 4763 05b9 0100     		.2byte	0x1
 4764 05bb 56       		.byte	0x56
 4765 05bc 00000000 		.4byte	0
 4766 05c0 00000000 		.4byte	0
 4767              	.LLST41:
 4768 05c4 28000000 		.4byte	.LVL120
 4769 05c8 2E000000 		.4byte	.LVL121
 4770 05cc 0200     		.2byte	0x2
 4771 05ce 31       		.byte	0x31
 4772 05cf 9F       		.byte	0x9f
 4773 05d0 2E000000 		.4byte	.LVL121
 4774 05d4 7A000000 		.4byte	.LVL134
 4775 05d8 0100     		.2byte	0x1
 4776 05da 51       		.byte	0x51
 4777 05db 86000000 		.4byte	.LVL136
 4778 05df 8A000000 		.4byte	.LVL138
 4779 05e3 0100     		.2byte	0x1
 4780 05e5 51       		.byte	0x51
 4781 05e6 00000000 		.4byte	0
 4782 05ea 00000000 		.4byte	0
 4783              	.LLST42:
 4784 05ee 28000000 		.4byte	.LVL120
 4785 05f2 76000000 		.4byte	.LVL132
 4786 05f6 0100     		.2byte	0x1
 4787 05f8 50       		.byte	0x50
 4788 05f9 76000000 		.4byte	.LVL132
 4789 05fd 7F000000 		.4byte	.LVL135-1
ARM GAS  C:\Users\exp32\AppData\Local\Temp\ccki8209.s 			page 136


 4790 0601 0100     		.2byte	0x1
 4791 0603 52       		.byte	0x52
 4792 0604 86000000 		.4byte	.LVL136
 4793 0608 88000000 		.4byte	.LVL137
 4794 060c 0100     		.2byte	0x1
 4795 060e 50       		.byte	0x50
 4796 060f 00000000 		.4byte	0
 4797 0613 00000000 		.4byte	0
 4798              	.LLST43:
 4799 0617 0C000000 		.4byte	.LVL109
 4800 061b 2E000000 		.4byte	.LVL121
 4801 061f 0200     		.2byte	0x2
 4802 0621 30       		.byte	0x30
 4803 0622 9F       		.byte	0x9f
 4804 0623 2E000000 		.4byte	.LVL121
 4805 0627 64000000 		.4byte	.LVL128
 4806 062b 0100     		.2byte	0x1
 4807 062d 54       		.byte	0x54
 4808 062e 66000000 		.4byte	.LVL129
 4809 0632 6C000000 		.4byte	.LVL131
 4810 0636 0100     		.2byte	0x1
 4811 0638 54       		.byte	0x54
 4812 0639 00000000 		.4byte	0
 4813 063d 00000000 		.4byte	0
 4814              	.LLST44:
 4815 0641 16000000 		.4byte	.LVL114
 4816 0645 1E000000 		.4byte	.LVL116
 4817 0649 0100     		.2byte	0x1
 4818 064b 51       		.byte	0x51
 4819 064c 1E000000 		.4byte	.LVL116
 4820 0650 22000000 		.4byte	.LVL117
 4821 0654 0100     		.2byte	0x1
 4822 0656 58       		.byte	0x58
 4823 0657 22000000 		.4byte	.LVL117
 4824 065b 24000000 		.4byte	.LVL118
 4825 065f 0100     		.2byte	0x1
 4826 0661 51       		.byte	0x51
 4827 0662 24000000 		.4byte	.LVL118
 4828 0666 D6000000 		.4byte	.LVL150
 4829 066a 0100     		.2byte	0x1
 4830 066c 58       		.byte	0x58
 4831 066d 00000000 		.4byte	0
 4832 0671 00000000 		.4byte	0
 4833              	.LLST45:
 4834 0675 10000000 		.4byte	.LVL111
 4835 0679 58000000 		.4byte	.LVL127
 4836 067d 0100     		.2byte	0x1
 4837 067f 52       		.byte	0x52
 4838 0680 66000000 		.4byte	.LVL129
 4839 0684 6A000000 		.4byte	.LVL130
 4840 0688 0100     		.2byte	0x1
 4841 068a 52       		.byte	0x52
 4842 068b 00000000 		.4byte	0
 4843 068f 00000000 		.4byte	0
 4844              	.LLST46:
 4845 0693 12000000 		.4byte	.LVL112
 4846 0697 D6000000 		.4byte	.LVL147
ARM GAS  C:\Users\exp32\AppData\Local\Temp\ccki8209.s 			page 137


 4847 069b 0100     		.2byte	0x1
 4848 069d 55       		.byte	0x55
 4849 069e 00000000 		.4byte	0
 4850 06a2 00000000 		.4byte	0
 4851              	.LLST47:
 4852 06a6 BE000000 		.4byte	.LVL143
 4853 06aa D4000000 		.4byte	.LVL145
 4854 06ae 0100     		.2byte	0x1
 4855 06b0 50       		.byte	0x50
 4856 06b1 00000000 		.4byte	0
 4857 06b5 00000000 		.4byte	0
 4858              	.LLST48:
 4859 06b9 0C000000 		.4byte	.LVL109
 4860 06bd 80000000 		.4byte	.LVL135
 4861 06c1 0200     		.2byte	0x2
 4862 06c3 30       		.byte	0x30
 4863 06c4 9F       		.byte	0x9f
 4864 06c5 80000000 		.4byte	.LVL135
 4865 06c9 86000000 		.4byte	.LVL136
 4866 06cd 0100     		.2byte	0x1
 4867 06cf 50       		.byte	0x50
 4868 06d0 86000000 		.4byte	.LVL136
 4869 06d4 8A000000 		.4byte	.LVL138
 4870 06d8 0200     		.2byte	0x2
 4871 06da 30       		.byte	0x30
 4872 06db 9F       		.byte	0x9f
 4873 06dc 8A000000 		.4byte	.LVL138
 4874 06e0 98000000 		.4byte	.LVL139
 4875 06e4 0100     		.2byte	0x1
 4876 06e6 50       		.byte	0x50
 4877 06e7 9C000000 		.4byte	.LVL140
 4878 06eb BE000000 		.4byte	.LVL143
 4879 06ef 0100     		.2byte	0x1
 4880 06f1 50       		.byte	0x50
 4881 06f2 00000000 		.4byte	0
 4882 06f6 00000000 		.4byte	0
 4883              	.LLST49:
 4884 06fa 9C000000 		.4byte	.LVL140
 4885 06fe BE000000 		.4byte	.LVL143
 4886 0702 0100     		.2byte	0x1
 4887 0704 55       		.byte	0x55
 4888 0705 00000000 		.4byte	0
 4889 0709 00000000 		.4byte	0
 4890              	.LLST50:
 4891 070d 9C000000 		.4byte	.LVL140
 4892 0711 BE000000 		.4byte	.LVL143
 4893 0715 0100     		.2byte	0x1
 4894 0717 57       		.byte	0x57
 4895 0718 00000000 		.4byte	0
 4896 071c 00000000 		.4byte	0
 4897              	.LLST51:
 4898 0720 9C000000 		.4byte	.LVL140
 4899 0724 BE000000 		.4byte	.LVL143
 4900 0728 0100     		.2byte	0x1
 4901 072a 50       		.byte	0x50
 4902 072b 00000000 		.4byte	0
 4903 072f 00000000 		.4byte	0
ARM GAS  C:\Users\exp32\AppData\Local\Temp\ccki8209.s 			page 138


 4904              	.LLST52:
 4905 0733 9C000000 		.4byte	.LVL140
 4906 0737 BE000000 		.4byte	.LVL143
 4907 073b 0300     		.2byte	0x3
 4908 073d 91       		.byte	0x91
 4909 073e 64       		.sleb128 -28
 4910 073f 9F       		.byte	0x9f
 4911 0740 00000000 		.4byte	0
 4912 0744 00000000 		.4byte	0
 4913              	.LLST53:
 4914 0748 9C000000 		.4byte	.LVL140
 4915 074c A0000000 		.4byte	.LVL141
 4916 0750 0200     		.2byte	0x2
 4917 0752 30       		.byte	0x30
 4918 0753 9F       		.byte	0x9f
 4919 0754 A0000000 		.4byte	.LVL141
 4920 0758 BE000000 		.4byte	.LVL143
 4921 075c 0100     		.2byte	0x1
 4922 075e 52       		.byte	0x52
 4923 075f 00000000 		.4byte	0
 4924 0763 00000000 		.4byte	0
 4925              	.LLST54:
 4926 0767 00000000 		.4byte	.LVL151
 4927 076b 1C000000 		.4byte	.LVL158
 4928 076f 0100     		.2byte	0x1
 4929 0771 50       		.byte	0x50
 4930 0772 1C000000 		.4byte	.LVL158
 4931 0776 3E000000 		.4byte	.LVL166
 4932 077a 0100     		.2byte	0x1
 4933 077c 59       		.byte	0x59
 4934 077d 3E000000 		.4byte	.LVL166
 4935 0781 42000000 		.4byte	.LVL167
 4936 0785 0100     		.2byte	0x1
 4937 0787 51       		.byte	0x51
 4938 0788 42000000 		.4byte	.LVL167
 4939 078c 90000000 		.4byte	.LVL183
 4940 0790 0100     		.2byte	0x1
 4941 0792 59       		.byte	0x59
 4942 0793 90000000 		.4byte	.LVL183
 4943 0797 A4000000 		.4byte	.LVL187
 4944 079b 0200     		.2byte	0x2
 4945 079d 30       		.byte	0x30
 4946 079e 9F       		.byte	0x9f
 4947 079f A4000000 		.4byte	.LVL187
 4948 07a3 2A010000 		.4byte	.LVL205
 4949 07a7 0100     		.2byte	0x1
 4950 07a9 54       		.byte	0x54
 4951 07aa 2A010000 		.4byte	.LVL205
 4952 07ae 34010000 		.4byte	.LFE12
 4953 07b2 0100     		.2byte	0x1
 4954 07b4 50       		.byte	0x50
 4955 07b5 00000000 		.4byte	0
 4956 07b9 00000000 		.4byte	0
 4957              	.LLST55:
 4958 07bd 00000000 		.4byte	.LVL151
 4959 07c1 18000000 		.4byte	.LVL156
 4960 07c5 0100     		.2byte	0x1
ARM GAS  C:\Users\exp32\AppData\Local\Temp\ccki8209.s 			page 139


 4961 07c7 51       		.byte	0x51
 4962 07c8 18000000 		.4byte	.LVL156
 4963 07cc 06010000 		.4byte	.LVL202
 4964 07d0 0100     		.2byte	0x1
 4965 07d2 56       		.byte	0x56
 4966 07d3 06010000 		.4byte	.LVL202
 4967 07d7 34010000 		.4byte	.LFE12
 4968 07db 0400     		.2byte	0x4
 4969 07dd F3       		.byte	0xf3
 4970 07de 01       		.uleb128 0x1
 4971 07df 51       		.byte	0x51
 4972 07e0 9F       		.byte	0x9f
 4973 07e1 00000000 		.4byte	0
 4974 07e5 00000000 		.4byte	0
 4975              	.LLST56:
 4976 07e9 12000000 		.4byte	.LVL153
 4977 07ed 4A000000 		.4byte	.LVL169
 4978 07f1 0100     		.2byte	0x1
 4979 07f3 53       		.byte	0x53
 4980 07f4 4A000000 		.4byte	.LVL169
 4981 07f8 5E000000 		.4byte	.LVL173
 4982 07fc 0100     		.2byte	0x1
 4983 07fe 55       		.byte	0x55
 4984 07ff 5E000000 		.4byte	.LVL173
 4985 0803 60000000 		.4byte	.LVL174
 4986 0807 0100     		.2byte	0x1
 4987 0809 53       		.byte	0x53
 4988 080a 60000000 		.4byte	.LVL174
 4989 080e B2000000 		.4byte	.LVL188
 4990 0812 0100     		.2byte	0x1
 4991 0814 55       		.byte	0x55
 4992 0815 B2000000 		.4byte	.LVL188
 4993 0819 C3000000 		.4byte	.LVL192-1
 4994 081d 0900     		.2byte	0x9
 4995 081f 76       		.byte	0x76
 4996 0820 18       		.sleb128 24
 4997 0821 94       		.byte	0x94
 4998 0822 02       		.byte	0x2
 4999 0823 0A       		.byte	0xa
 5000 0824 FFFF     		.2byte	0xffff
 5001 0826 1A       		.byte	0x1a
 5002 0827 9F       		.byte	0x9f
 5003 0828 00000000 		.4byte	0
 5004 082c 00000000 		.4byte	0
 5005              	.LLST57:
 5006 0830 44000000 		.4byte	.LVL168
 5007 0834 4A000000 		.4byte	.LVL169
 5008 0838 0200     		.2byte	0x2
 5009 083a 31       		.byte	0x31
 5010 083b 9F       		.byte	0x9f
 5011 083c 4A000000 		.4byte	.LVL169
 5012 0840 BC000000 		.4byte	.LVL191
 5013 0844 0100     		.2byte	0x1
 5014 0846 51       		.byte	0x51
 5015 0847 00000000 		.4byte	0
 5016 084b 00000000 		.4byte	0
 5017              	.LLST58:
ARM GAS  C:\Users\exp32\AppData\Local\Temp\ccki8209.s 			page 140


 5018 084f 44000000 		.4byte	.LVL168
 5019 0853 BA000000 		.4byte	.LVL190
 5020 0857 0100     		.2byte	0x1
 5021 0859 50       		.byte	0x50
 5022 085a BA000000 		.4byte	.LVL190
 5023 085e C3000000 		.4byte	.LVL192-1
 5024 0862 0100     		.2byte	0x1
 5025 0864 53       		.byte	0x53
 5026 0865 C3000000 		.4byte	.LVL192-1
 5027 0869 26010000 		.4byte	.LVL204
 5028 086d 0100     		.2byte	0x1
 5029 086f 58       		.byte	0x58
 5030 0870 00000000 		.4byte	0
 5031 0874 00000000 		.4byte	0
 5032              	.LLST59:
 5033 0878 2C000000 		.4byte	.LVL162
 5034 087c 2E000000 		.4byte	.LVL163
 5035 0880 0100     		.2byte	0x1
 5036 0882 51       		.byte	0x51
 5037 0883 2E000000 		.4byte	.LVL163
 5038 0887 30000000 		.4byte	.LVL164
 5039 088b 0700     		.2byte	0x7
 5040 088d 31       		.byte	0x31
 5041 088e 74       		.byte	0x74
 5042 088f 00       		.sleb128 0
 5043 0890 24       		.byte	0x24
 5044 0891 31       		.byte	0x31
 5045 0892 1C       		.byte	0x1c
 5046 0893 9F       		.byte	0x9f
 5047 0894 30000000 		.4byte	.LVL164
 5048 0898 32000000 		.4byte	.LVL165
 5049 089c 0100     		.2byte	0x1
 5050 089e 51       		.byte	0x51
 5051 089f 32000000 		.4byte	.LVL165
 5052 08a3 6A000000 		.4byte	.LVL175
 5053 08a7 0100     		.2byte	0x1
 5054 08a9 5C       		.byte	0x5c
 5055 08aa 6A000000 		.4byte	.LVL175
 5056 08ae 6C000000 		.4byte	.LVL176
 5057 08b2 0100     		.2byte	0x1
 5058 08b4 53       		.byte	0x53
 5059 08b5 6C000000 		.4byte	.LVL176
 5060 08b9 C3000000 		.4byte	.LVL192-1
 5061 08bd 0100     		.2byte	0x1
 5062 08bf 5C       		.byte	0x5c
 5063 08c0 00000000 		.4byte	0
 5064 08c4 00000000 		.4byte	0
 5065              	.LLST60:
 5066 08c8 26000000 		.4byte	.LVL160
 5067 08cc 28000000 		.4byte	.LVL161
 5068 08d0 0100     		.2byte	0x1
 5069 08d2 54       		.byte	0x54
 5070 08d3 28000000 		.4byte	.LVL161
 5071 08d7 70000000 		.4byte	.LVL177
 5072 08db 0100     		.2byte	0x1
 5073 08dd 58       		.byte	0x58
 5074 08de 70000000 		.4byte	.LVL177
ARM GAS  C:\Users\exp32\AppData\Local\Temp\ccki8209.s 			page 141


 5075 08e2 72000000 		.4byte	.LVL178
 5076 08e6 0100     		.2byte	0x1
 5077 08e8 53       		.byte	0x53
 5078 08e9 72000000 		.4byte	.LVL178
 5079 08ed BA000000 		.4byte	.LVL190
 5080 08f1 0100     		.2byte	0x1
 5081 08f3 58       		.byte	0x58
 5082 08f4 00000000 		.4byte	0
 5083 08f8 00000000 		.4byte	0
 5084              	.LLST61:
 5085 08fc 10000000 		.4byte	.LVL152
 5086 0900 4A000000 		.4byte	.LVL169
 5087 0904 0200     		.2byte	0x2
 5088 0906 30       		.byte	0x30
 5089 0907 9F       		.byte	0x9f
 5090 0908 4A000000 		.4byte	.LVL169
 5091 090c 88000000 		.4byte	.LVL180
 5092 0910 0100     		.2byte	0x1
 5093 0912 54       		.byte	0x54
 5094 0913 8A000000 		.4byte	.LVL181
 5095 0917 A0000000 		.4byte	.LVL185
 5096 091b 0100     		.2byte	0x1
 5097 091d 54       		.byte	0x54
 5098 091e A2000000 		.4byte	.LVL186
 5099 0922 A4000000 		.4byte	.LVL187
 5100 0926 0100     		.2byte	0x1
 5101 0928 54       		.byte	0x54
 5102 0929 00000000 		.4byte	0
 5103 092d 00000000 		.4byte	0
 5104              	.LLST62:
 5105 0931 1A000000 		.4byte	.LVL157
 5106 0935 1E000000 		.4byte	.LVL159
 5107 0939 0100     		.2byte	0x1
 5108 093b 51       		.byte	0x51
 5109 093c 1E000000 		.4byte	.LVL159
 5110 0940 96000000 		.4byte	.LVL184
 5111 0944 0100     		.2byte	0x1
 5112 0946 5A       		.byte	0x5a
 5113 0947 96000000 		.4byte	.LVL184
 5114 094b A4000000 		.4byte	.LVL187
 5115 094f 0100     		.2byte	0x1
 5116 0951 52       		.byte	0x52
 5117 0952 A4000000 		.4byte	.LVL187
 5118 0956 2A010000 		.4byte	.LVL207
 5119 095a 0100     		.2byte	0x1
 5120 095c 5A       		.byte	0x5a
 5121 095d 00000000 		.4byte	0
 5122 0961 00000000 		.4byte	0
 5123              	.LLST63:
 5124 0965 14000000 		.4byte	.LVL154
 5125 0969 7C000000 		.4byte	.LVL179
 5126 096d 0100     		.2byte	0x1
 5127 096f 52       		.byte	0x52
 5128 0970 8A000000 		.4byte	.LVL181
 5129 0974 8E000000 		.4byte	.LVL182
 5130 0978 0100     		.2byte	0x1
 5131 097a 52       		.byte	0x52
ARM GAS  C:\Users\exp32\AppData\Local\Temp\ccki8209.s 			page 142


 5132 097b B2000000 		.4byte	.LVL188
 5133 097f B6000000 		.4byte	.LVL189
 5134 0983 0100     		.2byte	0x1
 5135 0985 53       		.byte	0x53
 5136 0986 B6000000 		.4byte	.LVL189
 5137 098a EA000000 		.4byte	.LVL197
 5138 098e 0100     		.2byte	0x1
 5139 0990 59       		.byte	0x59
 5140 0991 EA000000 		.4byte	.LVL197
 5141 0995 F1000000 		.4byte	.LVL198-1
 5142 0999 0100     		.2byte	0x1
 5143 099b 50       		.byte	0x50
 5144 099c 00000000 		.4byte	0
 5145 09a0 00000000 		.4byte	0
 5146              	.LLST64:
 5147 09a4 16000000 		.4byte	.LVL155
 5148 09a8 2A010000 		.4byte	.LVL206
 5149 09ac 0100     		.2byte	0x1
 5150 09ae 57       		.byte	0x57
 5151 09af 00000000 		.4byte	0
 5152 09b3 00000000 		.4byte	0
 5153              	.LLST65:
 5154 09b7 C6000000 		.4byte	.LVL193
 5155 09bb CA000000 		.4byte	.LVL194
 5156 09bf 0100     		.2byte	0x1
 5157 09c1 50       		.byte	0x50
 5158 09c2 CA000000 		.4byte	.LVL194
 5159 09c6 F4000000 		.4byte	.LVL199
 5160 09ca 0100     		.2byte	0x1
 5161 09cc 55       		.byte	0x55
 5162 09cd F4000000 		.4byte	.LVL199
 5163 09d1 F8000000 		.4byte	.LVL200
 5164 09d5 0100     		.2byte	0x1
 5165 09d7 50       		.byte	0x50
 5166 09d8 F8000000 		.4byte	.LVL200
 5167 09dc 26010000 		.4byte	.LVL204
 5168 09e0 0100     		.2byte	0x1
 5169 09e2 55       		.byte	0x55
 5170 09e3 00000000 		.4byte	0
 5171 09e7 00000000 		.4byte	0
 5172              	.LLST66:
 5173 09eb 00000000 		.4byte	.LVL208
 5174 09ef 0E000000 		.4byte	.LVL210
 5175 09f3 0100     		.2byte	0x1
 5176 09f5 50       		.byte	0x50
 5177 09f6 0E000000 		.4byte	.LVL210
 5178 09fa 58000000 		.4byte	.LVL223
 5179 09fe 0100     		.2byte	0x1
 5180 0a00 54       		.byte	0x54
 5181 0a01 58000000 		.4byte	.LVL223
 5182 0a05 84000000 		.4byte	.LFE6
 5183 0a09 0400     		.2byte	0x4
 5184 0a0b F3       		.byte	0xf3
 5185 0a0c 01       		.uleb128 0x1
 5186 0a0d 50       		.byte	0x50
 5187 0a0e 9F       		.byte	0x9f
 5188 0a0f 00000000 		.4byte	0
ARM GAS  C:\Users\exp32\AppData\Local\Temp\ccki8209.s 			page 143


 5189 0a13 00000000 		.4byte	0
 5190              	.LLST67:
 5191 0a17 00000000 		.4byte	.LVL208
 5192 0a1b 29000000 		.4byte	.LVL212-1
 5193 0a1f 0100     		.2byte	0x1
 5194 0a21 51       		.byte	0x51
 5195 0a22 29000000 		.4byte	.LVL212-1
 5196 0a26 2E000000 		.4byte	.LVL214
 5197 0a2a 0400     		.2byte	0x4
 5198 0a2c F3       		.byte	0xf3
 5199 0a2d 01       		.uleb128 0x1
 5200 0a2e 51       		.byte	0x51
 5201 0a2f 9F       		.byte	0x9f
 5202 0a30 2E000000 		.4byte	.LVL214
 5203 0a34 33000000 		.4byte	.LVL215-1
 5204 0a38 0100     		.2byte	0x1
 5205 0a3a 51       		.byte	0x51
 5206 0a3b 33000000 		.4byte	.LVL215-1
 5207 0a3f 38000000 		.4byte	.LVL217
 5208 0a43 0400     		.2byte	0x4
 5209 0a45 F3       		.byte	0xf3
 5210 0a46 01       		.uleb128 0x1
 5211 0a47 51       		.byte	0x51
 5212 0a48 9F       		.byte	0x9f
 5213 0a49 38000000 		.4byte	.LVL217
 5214 0a4d 3D000000 		.4byte	.LVL218-1
 5215 0a51 0100     		.2byte	0x1
 5216 0a53 51       		.byte	0x51
 5217 0a54 3D000000 		.4byte	.LVL218-1
 5218 0a58 42000000 		.4byte	.LVL220
 5219 0a5c 0400     		.2byte	0x4
 5220 0a5e F3       		.byte	0xf3
 5221 0a5f 01       		.uleb128 0x1
 5222 0a60 51       		.byte	0x51
 5223 0a61 9F       		.byte	0x9f
 5224 0a62 42000000 		.4byte	.LVL220
 5225 0a66 47000000 		.4byte	.LVL221-1
 5226 0a6a 0100     		.2byte	0x1
 5227 0a6c 51       		.byte	0x51
 5228 0a6d 47000000 		.4byte	.LVL221-1
 5229 0a71 84000000 		.4byte	.LFE6
 5230 0a75 0400     		.2byte	0x4
 5231 0a77 F3       		.byte	0xf3
 5232 0a78 01       		.uleb128 0x1
 5233 0a79 51       		.byte	0x51
 5234 0a7a 9F       		.byte	0x9f
 5235 0a7b 00000000 		.4byte	0
 5236 0a7f 00000000 		.4byte	0
 5237              	.LLST68:
 5238 0a83 10000000 		.4byte	.LVL211
 5239 0a87 2C000000 		.4byte	.LVL213
 5240 0a8b 0100     		.2byte	0x1
 5241 0a8d 55       		.byte	0x55
 5242 0a8e 2C000000 		.4byte	.LVL213
 5243 0a92 2E000000 		.4byte	.LVL214
 5244 0a96 0100     		.2byte	0x1
 5245 0a98 50       		.byte	0x50
ARM GAS  C:\Users\exp32\AppData\Local\Temp\ccki8209.s 			page 144


 5246 0a99 2E000000 		.4byte	.LVL214
 5247 0a9d 36000000 		.4byte	.LVL216
 5248 0aa1 0100     		.2byte	0x1
 5249 0aa3 55       		.byte	0x55
 5250 0aa4 36000000 		.4byte	.LVL216
 5251 0aa8 38000000 		.4byte	.LVL217
 5252 0aac 0100     		.2byte	0x1
 5253 0aae 50       		.byte	0x50
 5254 0aaf 38000000 		.4byte	.LVL217
 5255 0ab3 40000000 		.4byte	.LVL219
 5256 0ab7 0100     		.2byte	0x1
 5257 0ab9 55       		.byte	0x55
 5258 0aba 40000000 		.4byte	.LVL219
 5259 0abe 42000000 		.4byte	.LVL220
 5260 0ac2 0100     		.2byte	0x1
 5261 0ac4 50       		.byte	0x50
 5262 0ac5 42000000 		.4byte	.LVL220
 5263 0ac9 7E000000 		.4byte	.LVL232
 5264 0acd 0100     		.2byte	0x1
 5265 0acf 55       		.byte	0x55
 5266 0ad0 00000000 		.4byte	0
 5267 0ad4 00000000 		.4byte	0
 5268              	.LLST69:
 5269 0ad8 54000000 		.4byte	.LVL222
 5270 0adc 62000000 		.4byte	.LVL225
 5271 0ae0 0100     		.2byte	0x1
 5272 0ae2 53       		.byte	0x53
 5273 0ae3 62000000 		.4byte	.LVL225
 5274 0ae7 64000000 		.4byte	.LVL226
 5275 0aeb 0300     		.2byte	0x3
 5276 0aed 73       		.byte	0x73
 5277 0aee 7C       		.sleb128 -4
 5278 0aef 9F       		.byte	0x9f
 5279 0af0 64000000 		.4byte	.LVL226
 5280 0af4 70000000 		.4byte	.LVL227
 5281 0af8 0600     		.2byte	0x6
 5282 0afa F3       		.byte	0xf3
 5283 0afb 01       		.uleb128 0x1
 5284 0afc 50       		.byte	0x50
 5285 0afd 35       		.byte	0x35
 5286 0afe 25       		.byte	0x25
 5287 0aff 9F       		.byte	0x9f
 5288 0b00 70000000 		.4byte	.LVL227
 5289 0b04 72000000 		.4byte	.LVL228
 5290 0b08 0100     		.2byte	0x1
 5291 0b0a 53       		.byte	0x53
 5292 0b0b 72000000 		.4byte	.LVL228
 5293 0b0f 74000000 		.4byte	.LVL229
 5294 0b13 0300     		.2byte	0x3
 5295 0b15 73       		.byte	0x73
 5296 0b16 7C       		.sleb128 -4
 5297 0b17 9F       		.byte	0x9f
 5298 0b18 74000000 		.4byte	.LVL229
 5299 0b1c 84000000 		.4byte	.LFE6
 5300 0b20 0600     		.2byte	0x6
 5301 0b22 F3       		.byte	0xf3
 5302 0b23 01       		.uleb128 0x1
ARM GAS  C:\Users\exp32\AppData\Local\Temp\ccki8209.s 			page 145


 5303 0b24 50       		.byte	0x50
 5304 0b25 35       		.byte	0x35
 5305 0b26 25       		.byte	0x25
 5306 0b27 9F       		.byte	0x9f
 5307 0b28 00000000 		.4byte	0
 5308 0b2c 00000000 		.4byte	0
 5309              	.LLST70:
 5310 0b30 5C000000 		.4byte	.LVL224
 5311 0b34 7C000000 		.4byte	.LVL230
 5312 0b38 0100     		.2byte	0x1
 5313 0b3a 52       		.byte	0x52
 5314 0b3b 7C000000 		.4byte	.LVL230
 5315 0b3f 7E000000 		.4byte	.LVL231
 5316 0b43 0500     		.2byte	0x5
 5317 0b45 31       		.byte	0x31
 5318 0b46 74       		.byte	0x74
 5319 0b47 00       		.sleb128 0
 5320 0b48 24       		.byte	0x24
 5321 0b49 9F       		.byte	0x9f
 5322 0b4a 7E000000 		.4byte	.LVL231
 5323 0b4e 84000000 		.4byte	.LFE6
 5324 0b52 0800     		.2byte	0x8
 5325 0b54 31       		.byte	0x31
 5326 0b55 F3       		.byte	0xf3
 5327 0b56 01       		.uleb128 0x1
 5328 0b57 50       		.byte	0x50
 5329 0b58 4F       		.byte	0x4f
 5330 0b59 1A       		.byte	0x1a
 5331 0b5a 24       		.byte	0x24
 5332 0b5b 9F       		.byte	0x9f
 5333 0b5c 00000000 		.4byte	0
 5334 0b60 00000000 		.4byte	0
 5335              	.LLST71:
 5336 0b64 06000000 		.4byte	.LVL209
 5337 0b68 29000000 		.4byte	.LVL212-1
 5338 0b6c 0100     		.2byte	0x1
 5339 0b6e 52       		.byte	0x52
 5340 0b6f 2E000000 		.4byte	.LVL214
 5341 0b73 33000000 		.4byte	.LVL215-1
 5342 0b77 0100     		.2byte	0x1
 5343 0b79 52       		.byte	0x52
 5344 0b7a 38000000 		.4byte	.LVL217
 5345 0b7e 3D000000 		.4byte	.LVL218-1
 5346 0b82 0100     		.2byte	0x1
 5347 0b84 52       		.byte	0x52
 5348 0b85 42000000 		.4byte	.LVL220
 5349 0b89 47000000 		.4byte	.LVL221-1
 5350 0b8d 0100     		.2byte	0x1
 5351 0b8f 52       		.byte	0x52
 5352 0b90 00000000 		.4byte	0
 5353 0b94 00000000 		.4byte	0
 5354              		.section	.debug_aranges,"",%progbits
 5355 0000 5C000000 		.4byte	0x5c
 5356 0004 0200     		.2byte	0x2
 5357 0006 00000000 		.4byte	.Ldebug_info0
 5358 000a 04       		.byte	0x4
 5359 000b 00       		.byte	0
ARM GAS  C:\Users\exp32\AppData\Local\Temp\ccki8209.s 			page 146


 5360 000c 0000     		.2byte	0
 5361 000e 0000     		.2byte	0
 5362 0010 00000000 		.4byte	.LFB3
 5363 0014 AC000000 		.4byte	.LFE3-.LFB3
 5364 0018 00000000 		.4byte	.LFB7
 5365 001c 32000000 		.4byte	.LFE7-.LFB7
 5366 0020 00000000 		.4byte	.LFB8
 5367 0024 16000000 		.4byte	.LFE8-.LFB8
 5368 0028 00000000 		.4byte	.LFB4
 5369 002c 5C000000 		.4byte	.LFE4-.LFB4
 5370 0030 00000000 		.4byte	.LFB5
 5371 0034 52000000 		.4byte	.LFE5-.LFB5
 5372 0038 00000000 		.4byte	.LFB9
 5373 003c 64000000 		.4byte	.LFE9-.LFB9
 5374 0040 00000000 		.4byte	.LFB10
 5375 0044 DC000000 		.4byte	.LFE10-.LFB10
 5376 0048 00000000 		.4byte	.LFB12
 5377 004c 34010000 		.4byte	.LFE12-.LFB12
 5378 0050 00000000 		.4byte	.LFB6
 5379 0054 84000000 		.4byte	.LFE6-.LFB6
 5380 0058 00000000 		.4byte	0
 5381 005c 00000000 		.4byte	0
 5382              		.section	.debug_ranges,"",%progbits
 5383              	.Ldebug_ranges0:
 5384 0000 00000000 		.4byte	.LFB3
 5385 0004 AC000000 		.4byte	.LFE3
 5386 0008 00000000 		.4byte	.LFB7
 5387 000c 32000000 		.4byte	.LFE7
 5388 0010 00000000 		.4byte	.LFB8
 5389 0014 16000000 		.4byte	.LFE8
 5390 0018 00000000 		.4byte	.LFB4
 5391 001c 5C000000 		.4byte	.LFE4
 5392 0020 00000000 		.4byte	.LFB5
 5393 0024 52000000 		.4byte	.LFE5
 5394 0028 00000000 		.4byte	.LFB9
 5395 002c 64000000 		.4byte	.LFE9
 5396 0030 00000000 		.4byte	.LFB10
 5397 0034 DC000000 		.4byte	.LFE10
 5398 0038 00000000 		.4byte	.LFB12
 5399 003c 34010000 		.4byte	.LFE12
 5400 0040 00000000 		.4byte	.LFB6
 5401 0044 84000000 		.4byte	.LFE6
 5402 0048 00000000 		.4byte	0
 5403 004c 00000000 		.4byte	0
 5404              		.section	.debug_line,"",%progbits
 5405              	.Ldebug_line0:
 5406 0000 7E040000 		.section	.debug_str,"MS",%progbits,1
 5406      0200DC01 
 5406      00000201 
 5406      FB0E0D00 
 5406      01010101 
 5407              	.LASF137:
 5408 0000 7074724E 		.ascii	"ptrNoiseEnvelope\000"
 5408      6F697365 
 5408      456E7665 
 5408      6C6F7065 
 5408      00
ARM GAS  C:\Users\exp32\AppData\Local\Temp\ccki8209.s 			page 147


 5409              	.LASF114:
 5410 0011 43617053 		.ascii	"CapSense_1_FLASH_WD_STRUCT\000"
 5410      656E7365 
 5410      5F315F46 
 5410      4C415348 
 5410      5F57445F 
 5411              	.LASF118:
 5412 002c 43617053 		.ascii	"CapSense_1_REGULAR_FLTR_CHANNEL_STRUCT\000"
 5412      656E7365 
 5412      5F315F52 
 5412      4547554C 
 5412      41525F46 
 5413              	.LASF153:
 5414 0053 736E7343 		.ascii	"snsCnt\000"
 5414      6E7400
 5415              	.LASF136:
 5416 005a 43617053 		.ascii	"CapSense_1_DpUpdateThresholds\000"
 5416      656E7365 
 5416      5F315F44 
 5416      70557064 
 5416      61746554 
 5417              	.LASF133:
 5418 0078 77646774 		.ascii	"wdgtId\000"
 5418      496400
 5419              	.LASF45:
 5420 007f 43617053 		.ascii	"CapSense_1_SENSE_METHOD_BIST_E\000"
 5420      656E7365 
 5420      5F315F53 
 5420      454E5345 
 5420      5F4D4554 
 5421              	.LASF149:
 5422 009e 666C7472 		.ascii	"fltrHistV\000"
 5422      48697374 
 5422      5600
 5423              	.LASF91:
 5424 00a8 736E7254 		.ascii	"snrTestWidgetId\000"
 5424      65737457 
 5424      69646765 
 5424      74496400 
 5425              	.LASF125:
 5426 00b8 43617053 		.ascii	"CapSense_1_DpInitCsdTouchpad\000"
 5426      656E7365 
 5426      5F315F44 
 5426      70496E69 
 5426      74437364 
 5427              	.LASF140:
 5428 00d5 70747254 		.ascii	"ptrThresholds\000"
 5428      68726573 
 5428      686F6C64 
 5428      7300
 5429              	.LASF8:
 5430 00e3 756E7369 		.ascii	"unsigned int\000"
 5430      676E6564 
 5430      20696E74 
 5430      00
 5431              	.LASF82:
 5432 00f0 7363616E 		.ascii	"scanCounter\000"
ARM GAS  C:\Users\exp32\AppData\Local\Temp\ccki8209.s 			page 148


 5432      436F756E 
 5432      74657200 
 5433              	.LASF80:
 5434 00fc 6877436C 		.ascii	"hwClock\000"
 5434      6F636B00 
 5435              	.LASF95:
 5436 0104 7363616E 		.ascii	"scanCsdISC\000"
 5436      43736449 
 5436      534300
 5437              	.LASF179:
 5438 010f 43794861 		.ascii	"CyHalt\000"
 5438      6C7400
 5439              	.LASF143:
 5440 0116 64696666 		.ascii	"diffValue\000"
 5440      56616C75 
 5440      6500
 5441              	.LASF124:
 5442 0120 43617053 		.ascii	"CapSense_1_DpInitSlider\000"
 5442      656E7365 
 5442      5F315F44 
 5442      70496E69 
 5442      74536C69 
 5443              	.LASF151:
 5444 0138 43617053 		.ascii	"CapSense_1_DpProcessButton\000"
 5444      656E7365 
 5444      5F315F44 
 5444      7050726F 
 5444      63657373 
 5445              	.LASF150:
 5446 0153 6D6F6465 		.ascii	"mode\000"
 5446      00
 5447              	.LASF142:
 5448 0158 63757253 		.ascii	"curSnsPtr\000"
 5448      6E735074 
 5448      7200
 5449              	.LASF160:
 5450 0162 43617053 		.ascii	"CapSense_1_DpProcessCsdTouchpad\000"
 5450      656E7365 
 5450      5F315F44 
 5450      7050726F 
 5450      63657373 
 5451              	.LASF162:
 5452 0182 636F6C53 		.ascii	"colSnsMask\000"
 5452      6E734D61 
 5452      736B00
 5453              	.LASF41:
 5454 018d 43617053 		.ascii	"CapSense_1_WD_TYPE_ENUM\000"
 5454      656E7365 
 5454      5F315F57 
 5454      445F5459 
 5454      50455F45 
 5455              	.LASF135:
 5456 01a5 43617053 		.ascii	"CapSense_1_DpInitialize\000"
 5456      656E7365 
 5456      5F315F44 
 5456      70496E69 
 5456      7469616C 
ARM GAS  C:\Users\exp32\AppData\Local\Temp\ccki8209.s 			page 149


 5457              	.LASF113:
 5458 01bd 69697246 		.ascii	"iirFilterCoeff\000"
 5458      696C7465 
 5458      72436F65 
 5458      666600
 5459              	.LASF70:
 5460 01cc 43617053 		.ascii	"CapSense_1_RAM_WD_LIST_STRUCT\000"
 5460      656E7365 
 5460      5F315F52 
 5460      414D5F57 
 5460      445F4C49 
 5461              	.LASF174:
 5462 01ea 536D6172 		.ascii	"SmartSense_UpdateThresholds\000"
 5462      7453656E 
 5462      73655F55 
 5462      70646174 
 5462      65546872 
 5463              	.LASF176:
 5464 0206 43617053 		.ascii	"CapSense_1_FtUpdateBaseline\000"
 5464      656E7365 
 5464      5F315F46 
 5464      74557064 
 5464      61746542 
 5465              	.LASF146:
 5466 0222 70747253 		.ascii	"ptrSnsTmp\000"
 5466      6E73546D 
 5466      7000
 5467              	.LASF52:
 5468 022c 69646163 		.ascii	"idacGainIndex\000"
 5468      4761696E 
 5468      496E6465 
 5468      7800
 5469              	.LASF155:
 5470 023a 6E657753 		.ascii	"newStatus\000"
 5470      74617475 
 5470      7300
 5471              	.LASF164:
 5472 0244 706F7359 		.ascii	"posYTmp\000"
 5472      546D7000 
 5473              	.LASF13:
 5474 024c 666C6F61 		.ascii	"float\000"
 5474      7400
 5475              	.LASF180:
 5476 0252 474E5520 		.ascii	"GNU C11 5.4.1 20160609 (release) [ARM/embedded-5-br"
 5476      43313120 
 5476      352E342E 
 5476      31203230 
 5476      31363036 
 5477 0285 616E6368 		.ascii	"anch revision 237715] -mcpu=cortex-m0plus -mthumb -"
 5477      20726576 
 5477      6973696F 
 5477      6E203233 
 5477      37373135 
 5478 02b8 67202D4F 		.ascii	"g -Og -ffunction-sections -ffat-lto-objects\000"
 5478      67202D66 
 5478      66756E63 
 5478      74696F6E 
ARM GAS  C:\Users\exp32\AppData\Local\Temp\ccki8209.s 			page 150


 5478      2D736563 
 5479              	.LASF12:
 5480 02e4 696E7433 		.ascii	"int32\000"
 5480      3200
 5481              	.LASF90:
 5482 02ea 736E734C 		.ascii	"snsList\000"
 5482      69737400 
 5483              	.LASF144:
 5484 02f2 72657375 		.ascii	"result\000"
 5484      6C7400
 5485              	.LASF34:
 5486 02f9 43617053 		.ascii	"CapSense_1_WD_BUTTON_E\000"
 5486      656E7365 
 5486      5F315F57 
 5486      445F4255 
 5486      54544F4E 
 5487              	.LASF7:
 5488 0310 6C6F6E67 		.ascii	"long long unsigned int\000"
 5488      206C6F6E 
 5488      6720756E 
 5488      7369676E 
 5488      65642069 
 5489              	.LASF68:
 5490 0327 746F7563 		.ascii	"touchpad0\000"
 5490      68706164 
 5490      3000
 5491              	.LASF158:
 5492 0331 43617053 		.ascii	"CapSense_1_DpProcessSlider\000"
 5492      656E7365 
 5492      5F315F44 
 5492      7050726F 
 5492      63657373 
 5493              	.LASF92:
 5494 034c 736E7254 		.ascii	"snrTestSensorId\000"
 5494      65737453 
 5494      656E736F 
 5494      72496400 
 5495              	.LASF120:
 5496 035c 43617053 		.ascii	"CapSense_1_REGULAR_FLTR_STRUCT\000"
 5496      656E7365 
 5496      5F315F52 
 5496      4547554C 
 5496      41525F46 
 5497              	.LASF112:
 5498 037b 70747232 		.ascii	"ptr2NoiseEnvlp\000"
 5498      4E6F6973 
 5498      65456E76 
 5498      6C7000
 5499              	.LASF105:
 5500 038a 77646774 		.ascii	"wdgtType\000"
 5500      54797065 
 5500      00
 5501              	.LASF46:
 5502 0393 43617053 		.ascii	"CapSense_1_SENSE_METHOD_ISX_E\000"
 5502      656E7365 
 5502      5F315F53 
 5502      454E5345 
ARM GAS  C:\Users\exp32\AppData\Local\Temp\ccki8209.s 			page 151


 5502      5F4D4554 
 5503              	.LASF20:
 5504 03b1 43617053 		.ascii	"CapSense_1_LOW_BSLN_RST_TYPE\000"
 5504      656E7365 
 5504      5F315F4C 
 5504      4F575F42 
 5504      534C4E5F 
 5505              	.LASF178:
 5506 03ce 43617053 		.ascii	"CapSense_1_DpCalcLinearCentroid\000"
 5506      656E7365 
 5506      5F315F44 
 5506      7043616C 
 5506      634C696E 
 5507              	.LASF119:
 5508 03ee 72656775 		.ascii	"regularChannel\000"
 5508      6C617243 
 5508      68616E6E 
 5508      656C00
 5509              	.LASF88:
 5510 03fd 6D6F6443 		.ascii	"modCsdClk\000"
 5510      7364436C 
 5510      6B00
 5511              	.LASF16:
 5512 0407 73697A65 		.ascii	"size_t\000"
 5512      5F7400
 5513              	.LASF181:
 5514 040e 47656E65 		.ascii	"Generated_Source\\PSoC4\\CapSense_1_Processing.c\000"
 5514      72617465 
 5514      645F536F 
 5514      75726365 
 5514      5C50536F 
 5515              	.LASF58:
 5516 043d 73696750 		.ascii	"sigPFC\000"
 5516      464300
 5517              	.LASF32:
 5518 0444 68797374 		.ascii	"hysteresis\000"
 5518      65726573 
 5518      697300
 5519              	.LASF122:
 5520 044f 43617053 		.ascii	"CapSense_1_PTR_FILTER_VARIANT\000"
 5520      656E7365 
 5520      5F315F50 
 5520      54525F46 
 5520      494C5445 
 5521              	.LASF37:
 5522 046d 43617053 		.ascii	"CapSense_1_WD_MATRIX_BUTTON_E\000"
 5522      656E7365 
 5522      5F315F57 
 5522      445F4D41 
 5522      54524958 
 5523              	.LASF49:
 5524 048b 6C6F7742 		.ascii	"lowBslnRst\000"
 5524      736C6E52 
 5524      737400
 5525              	.LASF163:
 5526 0496 706F7358 		.ascii	"posXTmp\000"
 5526      546D7000 
ARM GAS  C:\Users\exp32\AppData\Local\Temp\ccki8209.s 			page 152


 5527              	.LASF156:
 5528 049e 746F7563 		.ascii	"touchTh\000"
 5528      68546800 
 5529              	.LASF104:
 5530 04a6 746F7461 		.ascii	"totalNumSns\000"
 5530      6C4E756D 
 5530      536E7300 
 5531              	.LASF28:
 5532 04b2 534D4152 		.ascii	"SMARTSENSE_CSD_NOISE_ENVELOPE_STRUCT\000"
 5532      5453454E 
 5532      53455F43 
 5532      53445F4E 
 5532      4F495345 
 5533              	.LASF38:
 5534 04d7 43617053 		.ascii	"CapSense_1_WD_TOUCHPAD_E\000"
 5534      656E7365 
 5534      5F315F57 
 5534      445F544F 
 5534      55434850 
 5535              	.LASF30:
 5536 04f0 6E6F6973 		.ascii	"noiseTh\000"
 5536      65546800 
 5537              	.LASF15:
 5538 04f8 63686172 		.ascii	"char\000"
 5538      00
 5539              	.LASF56:
 5540 04fd 726F7753 		.ascii	"rowSnsClkSource\000"
 5540      6E73436C 
 5540      6B536F75 
 5540      72636500 
 5541              	.LASF132:
 5542 050d 746F7563 		.ascii	"touchIdx\000"
 5542      68496478 
 5542      00
 5543              	.LASF175:
 5544 0516 536D6172 		.ascii	"SmartSense_RunNoiseEnvelope\000"
 5544      7453656E 
 5544      73655F52 
 5544      756E4E6F 
 5544      69736545 
 5545              	.LASF10:
 5546 0532 75696E74 		.ascii	"uint16\000"
 5546      313600
 5547              	.LASF54:
 5548 0539 726F7753 		.ascii	"rowSnsClk\000"
 5548      6E73436C 
 5548      6B00
 5549              	.LASF47:
 5550 0543 7265736F 		.ascii	"resolution\000"
 5550      6C757469 
 5550      6F6E00
 5551              	.LASF97:
 5552 054e 43617053 		.ascii	"CapSense_1_RAM_STRUCT\000"
 5552      656E7365 
 5552      5F315F52 
 5552      414D5F53 
 5552      54525543 
ARM GAS  C:\Users\exp32\AppData\Local\Temp\ccki8209.s 			page 153


 5553              	.LASF83:
 5554 0564 73746174 		.ascii	"status\000"
 5554      757300
 5555              	.LASF159:
 5556 056b 746F7563 		.ascii	"touchCnt\000"
 5556      68436E74 
 5556      00
 5557              	.LASF36:
 5558 0574 43617053 		.ascii	"CapSense_1_WD_RADIAL_SLIDER_E\000"
 5558      656E7365 
 5558      5F315F57 
 5558      445F5241 
 5558      4449414C 
 5559              	.LASF75:
 5560 0592 69646163 		.ascii	"idacComp\000"
 5560      436F6D70 
 5560      00
 5561              	.LASF6:
 5562 059b 6C6F6E67 		.ascii	"long long int\000"
 5562      206C6F6E 
 5562      6720696E 
 5562      7400
 5563              	.LASF19:
 5564 05a9 43617053 		.ascii	"CapSense_1_THRESHOLD_TYPE\000"
 5564      656E7365 
 5564      5F315F54 
 5564      48524553 
 5564      484F4C44 
 5565              	.LASF48:
 5566 05c3 6F6E4465 		.ascii	"onDebounce\000"
 5566      626F756E 
 5566      636500
 5567              	.LASF138:
 5568 05ce 73746172 		.ascii	"startFlag\000"
 5568      74466C61 
 5568      6700
 5569              	.LASF89:
 5570 05d8 77646774 		.ascii	"wdgtList\000"
 5570      4C697374 
 5570      00
 5571              	.LASF123:
 5572 05e1 70747257 		.ascii	"ptrWdSlider\000"
 5572      64536C69 
 5572      64657200 
 5573              	.LASF94:
 5574 05ed 736E7254 		.ascii	"snrTestRawCount\000"
 5574      65737452 
 5574      6177436F 
 5574      756E7400 
 5575              	.LASF173:
 5576 05fd 6D656D73 		.ascii	"memset\000"
 5576      657400
 5577              	.LASF31:
 5578 0604 6E4E6F69 		.ascii	"nNoiseTh\000"
 5578      73655468 
 5578      00
 5579              	.LASF87:
ARM GAS  C:\Users\exp32\AppData\Local\Temp\ccki8209.s 			page 154


 5580 060d 63736430 		.ascii	"csd0Config\000"
 5580      436F6E66 
 5580      696700
 5581              	.LASF166:
 5582 0618 43617053 		.ascii	"CapSense_1_DpProcessCsdWidgetStatus\000"
 5582      656E7365 
 5582      5F315F44 
 5582      7050726F 
 5582      63657373 
 5583              	.LASF168:
 5584 063c 73656E73 		.ascii	"sensorStatus\000"
 5584      6F725374 
 5584      61747573 
 5584      00
 5585              	.LASF127:
 5586 0649 70747257 		.ascii	"ptrWdTouchpad\000"
 5586      64546F75 
 5586      63687061 
 5586      6400
 5587              	.LASF59:
 5588 0657 43617053 		.ascii	"CapSense_1_RAM_WD_BASE_STRUCT\000"
 5588      656E7365 
 5588      5F315F52 
 5588      414D5F57 
 5588      445F4241 
 5589              	.LASF11:
 5590 0675 75696E74 		.ascii	"uint32\000"
 5590      333200
 5591              	.LASF128:
 5592 067c 44705570 		.ascii	"DpUpdateLinSlider\000"
 5592      64617465 
 5592      4C696E53 
 5592      6C696465 
 5592      7200
 5593              	.LASF101:
 5594 068e 70747232 		.ascii	"ptr2FltrHistory\000"
 5594      466C7472 
 5594      48697374 
 5594      6F727900 
 5595              	.LASF42:
 5596 069e 43617053 		.ascii	"CapSense_1_UNDEFINED_E\000"
 5596      656E7365 
 5596      5F315F55 
 5596      4E444546 
 5596      494E4544 
 5597              	.LASF63:
 5598 06b5 43617053 		.ascii	"CapSense_1_RAM_WD_CSD_TOUCHPAD_STRUCT\000"
 5598      656E7365 
 5598      5F315F52 
 5598      414D5F57 
 5598      445F4353 
 5599              	.LASF77:
 5600 06db 43617053 		.ascii	"CapSense_1_RAM_SNS_LIST_STRUCT\000"
 5600      656E7365 
 5600      5F315F52 
 5600      414D5F53 
 5600      4E535F4C 
ARM GAS  C:\Users\exp32\AppData\Local\Temp\ccki8209.s 			page 155


 5601              	.LASF169:
 5602 06fa 77645374 		.ascii	"wdStatusIndex\000"
 5602      61747573 
 5602      496E6465 
 5602      7800
 5603              	.LASF35:
 5604 0708 43617053 		.ascii	"CapSense_1_WD_LINEAR_SLIDER_E\000"
 5604      656E7365 
 5604      5F315F57 
 5604      445F4C49 
 5604      4E454152 
 5605              	.LASF171:
 5606 0726 43617053 		.ascii	"CapSense_1_dsRam\000"
 5606      656E7365 
 5606      5F315F64 
 5606      7352616D 
 5606      00
 5607              	.LASF129:
 5608 0737 6E657750 		.ascii	"newPos\000"
 5608      6F7300
 5609              	.LASF17:
 5610 073e 6C6F6E67 		.ascii	"long double\000"
 5610      20646F75 
 5610      626C6500 
 5611              	.LASF131:
 5612 074a 70747252 		.ascii	"ptrRamWdgt\000"
 5612      616D5764 
 5612      677400
 5613              	.LASF154:
 5614 0755 736E734D 		.ascii	"snsMask\000"
 5614      61736B00 
 5615              	.LASF93:
 5616 075d 736E7254 		.ascii	"snrTestScanCounter\000"
 5616      65737453 
 5616      63616E43 
 5616      6F756E74 
 5616      657200
 5617              	.LASF78:
 5618 0770 636F6E66 		.ascii	"configId\000"
 5618      69674964 
 5618      00
 5619              	.LASF100:
 5620 0779 70747232 		.ascii	"ptr2SnsRam\000"
 5620      536E7352 
 5620      616D00
 5621              	.LASF39:
 5622 0784 43617053 		.ascii	"CapSense_1_WD_PROXIMITY_E\000"
 5622      656E7365 
 5622      5F315F57 
 5622      445F5052 
 5622      4F58494D 
 5623              	.LASF40:
 5624 079e 43617053 		.ascii	"CapSense_1_WD_ENCODERDIAL_E\000"
 5624      656E7365 
 5624      5F315F57 
 5624      445F454E 
 5624      434F4445 
ARM GAS  C:\Users\exp32\AppData\Local\Temp\ccki8209.s 			page 156


 5625              	.LASF116:
 5626 07ba 43617053 		.ascii	"CapSense_1_FLASH_STRUCT\000"
 5626      656E7365 
 5626      5F315F46 
 5626      4C415348 
 5626      5F535452 
 5627              	.LASF86:
 5628 07d2 736E7353 		.ascii	"snsStatus\000"
 5628      74617475 
 5628      7300
 5629              	.LASF182:
 5630 07dc 433A5C55 		.ascii	"C:\\Users\\exp32\\Documents\\PSoC Creator\\Workspac"
 5630      73657273 
 5630      5C657870 
 5630      33325C44 
 5630      6F63756D 
 5631 080a 6530315C 		.ascii	"e01\\CY8C4146AZI-S455_64KB_R.cydsn\000"
 5631      43593843 
 5631      34313436 
 5631      415A492D 
 5631      53343535 
 5632              	.LASF111:
 5633 082c 7943656E 		.ascii	"yCentroidMultiplier\000"
 5633      74726F69 
 5633      644D756C 
 5633      7469706C 
 5633      69657200 
 5634              	.LASF108:
 5635 0840 78526573 		.ascii	"xResolution\000"
 5635      6F6C7574 
 5635      696F6E00 
 5636              	.LASF141:
 5637 084c 43617053 		.ascii	"CapSense_1_DpUpdateDifferences\000"
 5637      656E7365 
 5637      5F315F44 
 5637      70557064 
 5637      61746544 
 5638              	.LASF43:
 5639 086b 43617053 		.ascii	"CapSense_1_SENSE_METHOD_CSD_E\000"
 5639      656E7365 
 5639      5F315F53 
 5639      454E5345 
 5639      5F4D4554 
 5640              	.LASF2:
 5641 0889 73686F72 		.ascii	"short int\000"
 5641      7420696E 
 5641      7400
 5642              	.LASF55:
 5643 0893 736E7343 		.ascii	"snsClkSource\000"
 5643      6C6B536F 
 5643      75726365 
 5643      00
 5644              	.LASF4:
 5645 08a0 6C6F6E67 		.ascii	"long int\000"
 5645      20696E74 
 5645      00
 5646              	.LASF33:
ARM GAS  C:\Users\exp32\AppData\Local\Temp\ccki8209.s 			page 157


 5647 08a9 534D4152 		.ascii	"SMARTSENSE_UPDATE_THRESHOLDS_STRUCT\000"
 5647      5453454E 
 5647      53455F55 
 5647      50444154 
 5647      455F5448 
 5648              	.LASF84:
 5649 08cd 77646774 		.ascii	"wdgtEnable\000"
 5649      456E6162 
 5649      6C6500
 5650              	.LASF172:
 5651 08d8 43617053 		.ascii	"CapSense_1_dsFlash\000"
 5651      656E7365 
 5651      5F315F64 
 5651      73466C61 
 5651      736800
 5652              	.LASF73:
 5653 08eb 64696666 		.ascii	"diff\000"
 5653      00
 5654              	.LASF81:
 5655 08f0 74756E65 		.ascii	"tunerCmd\000"
 5655      72436D64 
 5655      00
 5656              	.LASF44:
 5657 08f9 43617053 		.ascii	"CapSense_1_SENSE_METHOD_CSX_E\000"
 5657      656E7365 
 5657      5F315F53 
 5657      454E5345 
 5657      5F4D4554 
 5658              	.LASF66:
 5659 0917 62757474 		.ascii	"button0\000"
 5659      6F6E3000 
 5660              	.LASF67:
 5661 091f 62757474 		.ascii	"button1\000"
 5661      6F6E3100 
 5662              	.LASF145:
 5663 0927 736E7349 		.ascii	"snsId\000"
 5663      6400
 5664              	.LASF139:
 5665 092d 74687265 		.ascii	"thresholds\000"
 5665      73686F6C 
 5665      647300
 5666              	.LASF106:
 5667 0938 6E756D43 		.ascii	"numCols\000"
 5667      6F6C7300 
 5668              	.LASF51:
 5669 0940 726F7749 		.ascii	"rowIdacMod\000"
 5669      6461634D 
 5669      6F6400
 5670              	.LASF157:
 5671 094b 70747244 		.ascii	"ptrDebounceCnt\000"
 5671      65626F75 
 5671      6E636543 
 5671      6E7400
 5672              	.LASF57:
 5673 095a 66696E67 		.ascii	"fingerCap\000"
 5673      65724361 
 5673      7000
ARM GAS  C:\Users\exp32\AppData\Local\Temp\ccki8209.s 			page 158


 5674              	.LASF85:
 5675 0964 77646774 		.ascii	"wdgtStatus\000"
 5675      53746174 
 5675      757300
 5676              	.LASF165:
 5677 096f 6E756D4C 		.ascii	"numLocalMax\000"
 5677      6F63616C 
 5677      4D617800 
 5678              	.LASF18:
 5679 097b 73697A65 		.ascii	"sizetype\000"
 5679      74797065 
 5679      00
 5680              	.LASF5:
 5681 0984 6C6F6E67 		.ascii	"long unsigned int\000"
 5681      20756E73 
 5681      69676E65 
 5681      6420696E 
 5681      7400
 5682              	.LASF50:
 5683 0996 69646163 		.ascii	"idacMod\000"
 5683      4D6F6400 
 5684              	.LASF102:
 5685 099e 70747232 		.ascii	"ptr2DebounceArr\000"
 5685      4465626F 
 5685      756E6365 
 5685      41727200 
 5686              	.LASF121:
 5687 09ae 70747252 		.ascii	"ptrRegular\000"
 5687      6567756C 
 5687      617200
 5688              	.LASF110:
 5689 09b9 7843656E 		.ascii	"xCentroidMultiplier\000"
 5689      74726F69 
 5689      644D756C 
 5689      7469706C 
 5689      69657200 
 5690              	.LASF29:
 5691 09cd 66696E67 		.ascii	"fingerTh\000"
 5691      65725468 
 5691      00
 5692              	.LASF72:
 5693 09d6 62736C6E 		.ascii	"bslnExt\000"
 5693      45787400 
 5694              	.LASF130:
 5695 09de 6E756D54 		.ascii	"numTouches\000"
 5695      6F756368 
 5695      657300
 5696              	.LASF177:
 5697 09e9 43617053 		.ascii	"CapSense_1_DpFindLocalMaxSd\000"
 5697      656E7365 
 5697      5F315F44 
 5697      7046696E 
 5697      644C6F63 
 5698              	.LASF147:
 5699 0a05 43617053 		.ascii	"CapSense_1_DpProcessCsdWidgetRawCounts\000"
 5699      656E7365 
 5699      5F315F44 
ARM GAS  C:\Users\exp32\AppData\Local\Temp\ccki8209.s 			page 159


 5699      7050726F 
 5699      63657373 
 5700              	.LASF65:
 5701 0a2c 43617053 		.ascii	"CapSense_1_RAM_WD_SLIDER_STRUCT\000"
 5701      656E7365 
 5701      5F315F52 
 5701      414D5F57 
 5701      445F534C 
 5702              	.LASF1:
 5703 0a4c 756E7369 		.ascii	"unsigned char\000"
 5703      676E6564 
 5703      20636861 
 5703      7200
 5704              	.LASF170:
 5705 0a5a 77645374 		.ascii	"wdStatusMask\000"
 5705      61747573 
 5705      4D61736B 
 5705      00
 5706              	.LASF126:
 5707 0a67 70747246 		.ascii	"ptrFlashWdgt\000"
 5707      6C617368 
 5707      57646774 
 5707      00
 5708              	.LASF103:
 5709 0a74 73746174 		.ascii	"staticConfig\000"
 5709      6963436F 
 5709      6E666967 
 5709      00
 5710              	.LASF61:
 5711 0a81 706F7358 		.ascii	"posX\000"
 5711      00
 5712              	.LASF62:
 5713 0a86 706F7359 		.ascii	"posY\000"
 5713      00
 5714              	.LASF96:
 5715 0a8b 7363616E 		.ascii	"scanCurrentISC\000"
 5715      43757272 
 5715      656E7449 
 5715      534300
 5716              	.LASF161:
 5717 0a9a 726F7753 		.ascii	"rowSnsMask\000"
 5717      6E734D61 
 5717      736B00
 5718              	.LASF99:
 5719 0aa5 70747232 		.ascii	"ptr2WdgtRam\000"
 5719      57646774 
 5719      52616D00 
 5720              	.LASF107:
 5721 0ab1 6E756D52 		.ascii	"numRows\000"
 5721      6F777300 
 5722              	.LASF69:
 5723 0ab9 6C696E65 		.ascii	"linearslider0\000"
 5723      6172736C 
 5723      69646572 
 5723      3000
 5724              	.LASF152:
 5725 0ac7 63757272 		.ascii	"currStatus\000"
ARM GAS  C:\Users\exp32\AppData\Local\Temp\ccki8209.s 			page 160


 5725      53746174 
 5725      757300
 5726              	.LASF53:
 5727 0ad2 736E7343 		.ascii	"snsClk\000"
 5727      6C6B00
 5728              	.LASF0:
 5729 0ad9 7369676E 		.ascii	"signed char\000"
 5729      65642063 
 5729      68617200 
 5730              	.LASF71:
 5731 0ae5 62736C6E 		.ascii	"bsln\000"
 5731      00
 5732              	.LASF3:
 5733 0aea 73686F72 		.ascii	"short unsigned int\000"
 5733      7420756E 
 5733      7369676E 
 5733      65642069 
 5733      6E7400
 5734              	.LASF98:
 5735 0afd 70747232 		.ascii	"ptr2SnsFlash\000"
 5735      536E7346 
 5735      6C617368 
 5735      00
 5736              	.LASF117:
 5737 0b0a 6E6F7455 		.ascii	"notUsed\000"
 5737      73656400 
 5738              	.LASF9:
 5739 0b12 75696E74 		.ascii	"uint8\000"
 5739      3800
 5740              	.LASF14:
 5741 0b18 646F7562 		.ascii	"double\000"
 5741      6C6500
 5742              	.LASF148:
 5743 0b1f 43617053 		.ascii	"CapSense_1_DpProcessCsdSensorRawCountsExt\000"
 5743      656E7365 
 5743      5F315F44 
 5743      7050726F 
 5743      63657373 
 5744              	.LASF74:
 5745 0b49 6E656742 		.ascii	"negBslnRstCnt\000"
 5745      736C6E52 
 5745      7374436E 
 5745      7400
 5746              	.LASF134:
 5747 0b57 77696467 		.ascii	"widgetType\000"
 5747      65745479 
 5747      706500
 5748              	.LASF76:
 5749 0b62 43617053 		.ascii	"CapSense_1_RAM_SNS_STRUCT\000"
 5749      656E7365 
 5749      5F315F52 
 5749      414D5F53 
 5749      4E535F53 
 5750              	.LASF21:
 5751 0b7c 70617261 		.ascii	"param0\000"
 5751      6D3000
 5752              	.LASF22:
ARM GAS  C:\Users\exp32\AppData\Local\Temp\ccki8209.s 			page 161


 5753 0b83 70617261 		.ascii	"param1\000"
 5753      6D3100
 5754              	.LASF23:
 5755 0b8a 70617261 		.ascii	"param2\000"
 5755      6D3200
 5756              	.LASF24:
 5757 0b91 70617261 		.ascii	"param3\000"
 5757      6D3300
 5758              	.LASF25:
 5759 0b98 70617261 		.ascii	"param4\000"
 5759      6D3400
 5760              	.LASF26:
 5761 0b9f 70617261 		.ascii	"param5\000"
 5761      6D3500
 5762              	.LASF27:
 5763 0ba6 70617261 		.ascii	"param6\000"
 5763      6D3600
 5764              	.LASF79:
 5765 0bad 64657669 		.ascii	"deviceId\000"
 5765      63654964 
 5765      00
 5766              	.LASF109:
 5767 0bb6 79526573 		.ascii	"yResolution\000"
 5767      6F6C7574 
 5767      696F6E00 
 5768              	.LASF60:
 5769 0bc2 43617053 		.ascii	"CapSense_1_RAM_WD_BUTTON_STRUCT\000"
 5769      656E7365 
 5769      5F315F52 
 5769      414D5F57 
 5769      445F4255 
 5770              	.LASF167:
 5771 0be2 77696467 		.ascii	"widgetId\000"
 5771      65744964 
 5771      00
 5772              	.LASF64:
 5773 0beb 706F7369 		.ascii	"position\000"
 5773      74696F6E 
 5773      00
 5774              	.LASF115:
 5775 0bf4 77646774 		.ascii	"wdgtArray\000"
 5775      41727261 
 5775      7900
 5776              		.ident	"GCC: (GNU Tools for ARM Embedded Processors) 5.4.1 20160609 (release) [ARM/embedded-5-bran
